
build/bigAVR6_1280/main.exe:     file format elf32-avr


Disassembly of section .text:

00000000 <__vectors>:
       0:	0c 94 fc 01 	jmp	0x3f8	; 0x3f8 <__ctors_end>
       4:	0c 94 95 0d 	jmp	0x1b2a	; 0x1b2a <__vector_1>
       8:	0c 94 9f 0d 	jmp	0x1b3e	; 0x1b3e <__vector_2>
       c:	0c 94 a9 0d 	jmp	0x1b52	; 0x1b52 <__vector_3>
      10:	0c 94 b3 0d 	jmp	0x1b66	; 0x1b66 <__vector_4>
      14:	0c 94 e8 0d 	jmp	0x1bd0	; 0x1bd0 <__vector_5>
      18:	0c 94 f2 0d 	jmp	0x1be4	; 0x1be4 <__vector_6>
      1c:	0c 94 fc 0d 	jmp	0x1bf8	; 0x1bf8 <__vector_7>
      20:	0c 94 06 0e 	jmp	0x1c0c	; 0x1c0c <__vector_8>
      24:	0c 94 1b 02 	jmp	0x436	; 0x436 <__bad_interrupt>
      28:	0c 94 1b 02 	jmp	0x436	; 0x436 <__bad_interrupt>
      2c:	0c 94 db 0e 	jmp	0x1db6	; 0x1db6 <__vector_11>
      30:	0c 94 1b 02 	jmp	0x436	; 0x436 <__bad_interrupt>
      34:	0c 94 92 0e 	jmp	0x1d24	; 0x1d24 <__vector_13>
      38:	0c 94 1b 02 	jmp	0x436	; 0x436 <__bad_interrupt>
      3c:	0c 94 d1 0e 	jmp	0x1da2	; 0x1da2 <__vector_15>
      40:	0c 94 1b 02 	jmp	0x436	; 0x436 <__bad_interrupt>
      44:	0c 94 1b 02 	jmp	0x436	; 0x436 <__bad_interrupt>
      48:	0c 94 1b 02 	jmp	0x436	; 0x436 <__bad_interrupt>
      4c:	0c 94 1b 02 	jmp	0x436	; 0x436 <__bad_interrupt>
      50:	0c 94 1b 02 	jmp	0x436	; 0x436 <__bad_interrupt>
      54:	0c 94 1b 02 	jmp	0x436	; 0x436 <__bad_interrupt>
      58:	0c 94 1b 02 	jmp	0x436	; 0x436 <__bad_interrupt>
      5c:	0c 94 1b 02 	jmp	0x436	; 0x436 <__bad_interrupt>
      60:	0c 94 1b 02 	jmp	0x436	; 0x436 <__bad_interrupt>
      64:	0c 94 1b 02 	jmp	0x436	; 0x436 <__bad_interrupt>
      68:	0c 94 1b 02 	jmp	0x436	; 0x436 <__bad_interrupt>
      6c:	0c 94 1b 02 	jmp	0x436	; 0x436 <__bad_interrupt>
      70:	0c 94 1b 02 	jmp	0x436	; 0x436 <__bad_interrupt>
      74:	0c 94 95 0f 	jmp	0x1f2a	; 0x1f2a <__vector_29>
      78:	0c 94 1b 02 	jmp	0x436	; 0x436 <__bad_interrupt>
      7c:	0c 94 1b 02 	jmp	0x436	; 0x436 <__bad_interrupt>
      80:	0c 94 1b 02 	jmp	0x436	; 0x436 <__bad_interrupt>
      84:	0c 94 1b 02 	jmp	0x436	; 0x436 <__bad_interrupt>
      88:	0c 94 1b 02 	jmp	0x436	; 0x436 <__bad_interrupt>
      8c:	0c 94 1b 02 	jmp	0x436	; 0x436 <__bad_interrupt>
      90:	0c 94 1b 02 	jmp	0x436	; 0x436 <__bad_interrupt>
      94:	0c 94 1b 02 	jmp	0x436	; 0x436 <__bad_interrupt>
      98:	0c 94 1b 02 	jmp	0x436	; 0x436 <__bad_interrupt>
      9c:	0c 94 10 0e 	jmp	0x1c20	; 0x1c20 <__vector_39>
      a0:	0c 94 1b 02 	jmp	0x436	; 0x436 <__bad_interrupt>
      a4:	0c 94 1b 02 	jmp	0x436	; 0x436 <__bad_interrupt>
      a8:	0c 94 1b 02 	jmp	0x436	; 0x436 <__bad_interrupt>
      ac:	0c 94 1b 02 	jmp	0x436	; 0x436 <__bad_interrupt>
      b0:	0c 94 1b 02 	jmp	0x436	; 0x436 <__bad_interrupt>
      b4:	0c 94 1b 02 	jmp	0x436	; 0x436 <__bad_interrupt>
      b8:	0c 94 1b 02 	jmp	0x436	; 0x436 <__bad_interrupt>
      bc:	0c 94 1b 02 	jmp	0x436	; 0x436 <__bad_interrupt>
      c0:	0c 94 1b 02 	jmp	0x436	; 0x436 <__bad_interrupt>
      c4:	0c 94 1b 02 	jmp	0x436	; 0x436 <__bad_interrupt>
      c8:	0c 94 1b 02 	jmp	0x436	; 0x436 <__bad_interrupt>
      cc:	0c 94 1b 02 	jmp	0x436	; 0x436 <__bad_interrupt>
      d0:	0c 94 1b 02 	jmp	0x436	; 0x436 <__bad_interrupt>
      d4:	0c 94 1b 02 	jmp	0x436	; 0x436 <__bad_interrupt>
      d8:	0c 94 1b 02 	jmp	0x436	; 0x436 <__bad_interrupt>
      dc:	0c 94 1b 02 	jmp	0x436	; 0x436 <__bad_interrupt>
      e0:	0c 94 1b 02 	jmp	0x436	; 0x436 <__bad_interrupt>
      e4:	56 08       	sbc	r5, r6
      e6:	c5 08       	sbc	r12, r5
      e8:	04 09       	sbc	r16, r4
      ea:	0a 09       	sbc	r16, r10
      ec:	10 09       	sbc	r17, r0
      ee:	28 09       	sbc	r18, r8
      f0:	4c 09       	sbc	r20, r12
      f2:	45 0a       	sbc	r4, r21
      f4:	f2 0a       	sbc	r15, r18
      f6:	ca 0b       	sbc	r28, r26
      f8:	ee 0b       	sbc	r30, r30
      fa:	fc 0b       	sbc	r31, r28
      fc:	44 0c       	add	r4, r4
      fe:	d2 0c       	add	r13, r2
     100:	ed 0c       	add	r14, r13

00000102 <McuSleepC__atm128PowerBits>:
     102:	00 02 0e 06 0c 04                                   ......

00000108 <shifted>:
     108:	0d 09 0e 78 15 51 16 21 1a 59 1b 53 1c 41 1d 57     ...x.Q.!.Y.S.A.W
     118:	1e 22 21 43 22 58 23 44 24 45 25 78 26 23 29 20     ."!C"X#D$E%x&#) 
     128:	2a 56 2b 46 2c 54 2d 52 2e 25 31 4e 32 42 33 48     *V+F,T-R.%1N2B3H
     138:	34 47 35 5a 36 26 39 4c 3a 4d 3b 4a 3c 55 3d 2f     4G5Z6&9L:M;J<U=/
     148:	3e 28 41 3b 42 4b 43 49 44 4f 45 3d 46 29 49 3a     >(A;BKCIDOE=F)I:
     158:	4a 5f 4b 4c 4c 78 4d 50 4e 3f 52 78 54 78 55 60     J_KLLxMPN?RxTxU`
     168:	5a 0a 5b 5e 5d 2a 61 3e 66 08 69 31 6b 34 6c 37     Z.[^]*a>f.i1k4l7
     178:	70 30 71 2c 72 32 73 35 74 36 75 38 79 2b 7a 33     p0q,r2s5t6u8y+z3
     188:	7b 2d 7c 2a 7d 39 00 00                             {-|*}9..

00000190 <unshifted>:
     190:	0d 09 0e 7c 15 71 16 31 1a 79 1b 73 1c 61 1d 77     ...|.q.1.y.s.a.w
     1a0:	1e 32 21 63 22 78 23 64 24 65 25 34 26 33 29 20     .2!c"x#d$e%4&3) 
     1b0:	2a 76 2b 66 2c 74 2d 72 2e 35 31 6e 32 62 33 68     *v+f,t-r.51n2b3h
     1c0:	34 67 35 7a 36 36 39 2c 3a 6d 3b 6a 3c 75 3d 37     4g5z669,:m;j<u=7
     1d0:	3e 38 41 2c 42 6b 43 69 44 6f 45 30 46 39 49 2e     >8A,BkCiDoE0F9I.
     1e0:	4a 2d 4b 6c 4c 6f 4d 70 4e 2b 52 6f 54 6f 55 5c     J-KlLoMpN+RoToU\
     1f0:	5a 0a 5b 78 5d 27 61 3c 66 08 69 31 6b 34 6c 37     Z.[x]'a<f.i1k4l7
     200:	70 30 71 2c 72 32 73 35 74 36 75 38 79 2b 7a 33     p0q,r2s5t6u8y+z3
     210:	7b 2d 7c 2a 7d 39 00 00                             {-|*}9..

00000218 <Font5x7>:
     218:	00 00 00 00 00 00 00 5f 00 00 00 07 00 07 00 14     ......._........
     228:	7f 14 7f 14 24 2a 7f 2a 12 23 13 08 64 62 36 49     ....$*.*.#..db6I
     238:	55 22 50 00 05 03 00 00 00 1c 22 41 00 00 41 22     U"P......."A..A"
     248:	1c 00 08 2a 1c 2a 08 08 08 3e 08 08 00 50 30 00     ...*.*...>...P0.
     258:	00 08 08 08 08 08 00 60 60 00 00 20 10 08 04 02     .......``.. ....
     268:	3e 51 49 45 3e 00 42 7f 40 00 42 61 51 49 46 21     >QIE>.B.@.BaQIF!
     278:	41 45 4b 31 18 14 12 7f 10 27 45 45 45 39 3c 4a     AEK1.....'EEE9<J
     288:	49 49 30 01 71 09 05 03 36 49 49 49 36 06 49 49     II0.q...6III6.II
     298:	29 1e 00 36 36 00 00 00 56 36 00 00 00 08 14 22     )..66...V6....."
     2a8:	41 14 14 14 14 14 41 22 14 08 00 02 01 51 09 06     A.....A".....Q..
     2b8:	32 49 79 41 3e 7e 11 11 11 7e 7f 49 49 49 36 3e     2IyA>~...~.III6>
     2c8:	41 41 41 22 7f 41 41 22 1c 7f 49 49 49 41 7f 09     AAA".AA"..IIIA..
     2d8:	09 01 01 3e 41 41 51 32 7f 08 08 08 7f 00 41 7f     ...>AAQ2......A.
     2e8:	41 00 20 40 41 3f 01 7f 08 14 22 41 7f 40 40 40     A. @A?...."A.@@@
     2f8:	40 7f 02 04 02 7f 7f 04 08 10 7f 3e 41 41 41 3e     @..........>AAA>
     308:	7f 09 09 09 06 3e 41 51 21 5e 7f 09 19 29 46 46     .....>AQ!^...)FF
     318:	49 49 49 31 01 01 7f 01 01 3f 40 40 40 3f 1f 20     III1.....?@@@?. 
     328:	40 20 1f 7f 20 18 20 7f 63 14 08 14 63 03 04 78     @ .. . .c...c..x
     338:	04 03 61 51 49 45 43 00 00 7f 41 41 02 04 08 10     ..aQIEC...AA....
     348:	20 41 41 7f 00 00 04 02 01 02 04 40 40 40 40 40      AA........@@@@@
     358:	00 01 02 04 00 20 54 54 54 78 7f 48 44 44 38 38     ..... TTTx.HDD88
     368:	44 44 44 20 38 44 44 48 7f 38 54 54 54 18 08 7e     DDD 8DDH.8TTT..~
     378:	09 01 02 08 14 54 54 3c 7f 08 04 04 78 00 44 7d     .....TT<....x.D}
     388:	40 00 20 40 44 3d 00 00 7f 10 28 44 00 41 7f 40     @. @D=....(D.A.@
     398:	00 7c 04 18 04 78 7c 08 04 04 78 38 44 44 44 38     .|...x|...x8DDD8
     3a8:	7c 14 14 14 08 08 14 14 18 7c 7c 08 04 04 08 48     |........||....H
     3b8:	54 54 54 20 04 3f 44 40 20 3c 40 40 20 7c 1c 20     TTT .?D@ <@@ |. 
     3c8:	40 20 1c 3c 40 30 40 3c 44 28 10 28 44 0c 50 50     @ .<@0@<D(.(D.PP
     3d8:	50 3c 44 64 54 4c 44 00 08 36 41 00 00 00 7f 00     P<DdTLD..6A.....
     3e8:	00 00 41 36 08 00 08 08 2a 1c 08 08 1c 2a 08 08     ..A6....*....*..

000003f8 <__ctors_end>:
     3f8:	11 24       	eor	r1, r1
     3fa:	1f be       	out	0x3f, r1	; 63
     3fc:	cf ef       	ldi	r28, 0xFF	; 255
     3fe:	d1 e2       	ldi	r29, 0x21	; 33
     400:	de bf       	out	0x3e, r29	; 62
     402:	cd bf       	out	0x3d, r28	; 61

00000404 <__do_copy_data>:
     404:	12 e0       	ldi	r17, 0x02	; 2
     406:	a0 e0       	ldi	r26, 0x00	; 0
     408:	b2 e0       	ldi	r27, 0x02	; 2
     40a:	e2 eb       	ldi	r30, 0xB2	; 178
     40c:	fb e2       	ldi	r31, 0x2B	; 43
     40e:	00 e0       	ldi	r16, 0x00	; 0
     410:	0b bf       	out	0x3b, r16	; 59
     412:	02 c0       	rjmp	.+4      	; 0x418 <__do_copy_data+0x14>
     414:	07 90       	elpm	r0, Z+
     416:	0d 92       	st	X+, r0
     418:	ac 37       	cpi	r26, 0x7C	; 124
     41a:	b1 07       	cpc	r27, r17
     41c:	d9 f7       	brne	.-10     	; 0x414 <__do_copy_data+0x10>

0000041e <__do_clear_bss>:
     41e:	13 e0       	ldi	r17, 0x03	; 3
     420:	ac e7       	ldi	r26, 0x7C	; 124
     422:	b2 e0       	ldi	r27, 0x02	; 2
     424:	01 c0       	rjmp	.+2      	; 0x428 <.do_clear_bss_start>

00000426 <.do_clear_bss_loop>:
     426:	1d 92       	st	X+, r1

00000428 <.do_clear_bss_start>:
     428:	a5 33       	cpi	r26, 0x35	; 53
     42a:	b1 07       	cpc	r27, r17
     42c:	e1 f7       	brne	.-8      	; 0x426 <.do_clear_bss_loop>
     42e:	0e 94 0f 10 	call	0x201e	; 0x201e <main>
     432:	0c 94 d7 15 	jmp	0x2bae	; 0x2bae <_exit>

00000436 <__bad_interrupt>:
     436:	0c 94 00 00 	jmp	0	; 0x0 <__vectors>

0000043a <HplAtm128I2CBusP__I2C__sendCommand>:
     43a:	80 91 ea 02 	lds	r24, 0x02EA
     43e:	80 93 bc 00 	sts	0x00BC, r24
     442:	08 95       	ret

00000444 <HplAtm128GeneralIOPinP__38__IO__clr>:
     444:	76 98       	cbi	0x0e, 6	; 14
     446:	08 95       	ret

00000448 <HplAtm128GeneralIOPinP__38__IO__set>:
     448:	76 9a       	sbi	0x0e, 6	; 14
     44a:	08 95       	ret

0000044c <SchedulerBasicP__popTask>:
     44c:	80 91 26 03 	lds	r24, 0x0326
     450:	8f 3f       	cpi	r24, 0xFF	; 255
     452:	69 f0       	breq	.+26     	; 0x46e <SchedulerBasicP__popTask+0x22>
     454:	e8 2f       	mov	r30, r24
     456:	f0 e0       	ldi	r31, 0x00	; 0
     458:	e0 55       	subi	r30, 0x50	; 80
     45a:	fd 4f       	sbci	r31, 0xFD	; 253
     45c:	90 81       	ld	r25, Z
     45e:	90 93 26 03 	sts	0x0326, r25
     462:	9f 3f       	cpi	r25, 0xFF	; 255
     464:	11 f4       	brne	.+4      	; 0x46a <SchedulerBasicP__popTask+0x1e>
     466:	90 93 31 03 	sts	0x0331, r25
     46a:	9f ef       	ldi	r25, 0xFF	; 255
     46c:	90 83       	st	Z, r25
     46e:	08 95       	ret

00000470 <SchedulerBasicP__TaskBasic__postTask>:
     470:	9f b7       	in	r25, 0x3f	; 63
     472:	f8 94       	cli
     474:	e8 2f       	mov	r30, r24
     476:	f0 e0       	ldi	r31, 0x00	; 0
     478:	e0 55       	subi	r30, 0x50	; 80
     47a:	fd 4f       	sbci	r31, 0xFD	; 253
     47c:	20 81       	ld	r18, Z
     47e:	2f 3f       	cpi	r18, 0xFF	; 255
     480:	99 f4       	brne	.+38     	; 0x4a8 <SchedulerBasicP__TaskBasic__postTask+0x38>
     482:	e0 91 31 03 	lds	r30, 0x0331
     486:	e8 17       	cp	r30, r24
     488:	79 f0       	breq	.+30     	; 0x4a8 <SchedulerBasicP__TaskBasic__postTask+0x38>
     48a:	20 91 26 03 	lds	r18, 0x0326
     48e:	2f 3f       	cpi	r18, 0xFF	; 255
     490:	19 f4       	brne	.+6      	; 0x498 <SchedulerBasicP__TaskBasic__postTask+0x28>
     492:	80 93 26 03 	sts	0x0326, r24
     496:	04 c0       	rjmp	.+8      	; 0x4a0 <SchedulerBasicP__TaskBasic__postTask+0x30>
     498:	f0 e0       	ldi	r31, 0x00	; 0
     49a:	e0 55       	subi	r30, 0x50	; 80
     49c:	fd 4f       	sbci	r31, 0xFD	; 253
     49e:	80 83       	st	Z, r24
     4a0:	80 93 31 03 	sts	0x0331, r24
     4a4:	80 e0       	ldi	r24, 0x00	; 0
     4a6:	01 c0       	rjmp	.+2      	; 0x4aa <SchedulerBasicP__TaskBasic__postTask+0x3a>
     4a8:	85 e0       	ldi	r24, 0x05	; 5
     4aa:	9f bf       	out	0x3f, r25	; 63
     4ac:	08 95       	ret

000004ae <FMClickP__tune__postTask>:
     4ae:	87 e0       	ldi	r24, 0x07	; 7
     4b0:	0c 94 38 02 	jmp	0x470	; 0x470 <SchedulerBasicP__TaskBasic__postTask>

000004b4 <FMClickP__seek__postTask>:
     4b4:	88 e0       	ldi	r24, 0x08	; 8
     4b6:	0c 94 38 02 	jmp	0x470	; 0x470 <SchedulerBasicP__TaskBasic__postTask>

000004ba <HplAtm128I2CBusP__I2C__readCurrent>:
     4ba:	8f b7       	in	r24, 0x3f	; 63
     4bc:	f8 94       	cli
     4be:	90 91 bc 00 	lds	r25, 0x00BC
     4c2:	90 93 ea 02 	sts	0x02EA, r25
     4c6:	8f bf       	out	0x3f, r24	; 63
     4c8:	08 95       	ret

000004ca <HplAtm1280AdcP__HplAtm1280Adc__getAdmux>:
     4ca:	ec e7       	ldi	r30, 0x7C	; 124
     4cc:	f0 e0       	ldi	r31, 0x00	; 0
     4ce:	20 81       	ld	r18, Z
     4d0:	80 91 7b 00 	lds	r24, 0x007B
     4d4:	30 81       	ld	r19, Z
     4d6:	90 81       	ld	r25, Z
     4d8:	88 70       	andi	r24, 0x08	; 8
     4da:	88 0f       	add	r24, r24
     4dc:	88 0f       	add	r24, r24
     4de:	2f 71       	andi	r18, 0x1F	; 31
     4e0:	82 2b       	or	r24, r18
     4e2:	35 fb       	bst	r19, 5
     4e4:	22 27       	eor	r18, r18
     4e6:	20 f9       	bld	r18, 0
     4e8:	20 fb       	bst	r18, 0
     4ea:	86 f9       	bld	r24, 6
     4ec:	92 95       	swap	r25
     4ee:	96 95       	lsr	r25
     4f0:	96 95       	lsr	r25
     4f2:	93 70       	andi	r25, 0x03	; 3
     4f4:	29 2f       	mov	r18, r25
     4f6:	27 95       	ror	r18
     4f8:	22 27       	eor	r18, r18
     4fa:	27 95       	ror	r18
     4fc:	82 2b       	or	r24, r18
     4fe:	96 95       	lsr	r25
     500:	08 95       	ret

00000502 <Atm1280AlarmSyncP__0__Counter__get>:
     502:	2f b7       	in	r18, 0x3f	; 63
     504:	f8 94       	cli
     506:	60 91 ca 02 	lds	r22, 0x02CA
     50a:	70 91 cb 02 	lds	r23, 0x02CB
     50e:	80 91 cc 02 	lds	r24, 0x02CC
     512:	90 91 cd 02 	lds	r25, 0x02CD
     516:	2f bf       	out	0x3f, r18	; 63
     518:	08 95       	ret

0000051a <Atm1280AlarmSyncP__0__checkAlarm>:
     51a:	2f b7       	in	r18, 0x3f	; 63
     51c:	f8 94       	cli
     51e:	80 91 88 02 	lds	r24, 0x0288
     522:	88 23       	and	r24, r24
     524:	09 f1       	breq	.+66     	; 0x568 <Atm1280AlarmSyncP__0__checkAlarm+0x4e>
     526:	40 91 ed 02 	lds	r20, 0x02ED
     52a:	50 91 ee 02 	lds	r21, 0x02EE
     52e:	60 91 ef 02 	lds	r22, 0x02EF
     532:	70 91 f0 02 	lds	r23, 0x02F0
     536:	80 91 c1 02 	lds	r24, 0x02C1
     53a:	90 91 c2 02 	lds	r25, 0x02C2
     53e:	a0 91 c3 02 	lds	r26, 0x02C3
     542:	b0 91 c4 02 	lds	r27, 0x02C4
     546:	84 0f       	add	r24, r20
     548:	95 1f       	adc	r25, r21
     54a:	a6 1f       	adc	r26, r22
     54c:	b7 1f       	adc	r27, r23
     54e:	40 91 ca 02 	lds	r20, 0x02CA
     552:	50 91 cb 02 	lds	r21, 0x02CB
     556:	60 91 cc 02 	lds	r22, 0x02CC
     55a:	70 91 cd 02 	lds	r23, 0x02CD
     55e:	48 17       	cp	r20, r24
     560:	59 07       	cpc	r21, r25
     562:	6a 07       	cpc	r22, r26
     564:	7b 07       	cpc	r23, r27
     566:	11 f0       	breq	.+4      	; 0x56c <Atm1280AlarmSyncP__0__checkAlarm+0x52>
     568:	2f bf       	out	0x3f, r18	; 63
     56a:	08 95       	ret
     56c:	10 92 88 02 	sts	0x0288, r1
     570:	2f bf       	out	0x3f, r18	; 63
     572:	8b e0       	ldi	r24, 0x0B	; 11
     574:	0c 94 38 02 	jmp	0x470	; 0x470 <SchedulerBasicP__TaskBasic__postTask>

00000578 <FMClickP__FMClick__seek>:
     578:	4f b7       	in	r20, 0x3f	; 63
     57a:	f8 94       	cli
     57c:	20 91 18 03 	lds	r18, 0x0318
     580:	30 91 19 03 	lds	r19, 0x0319
     584:	4f bf       	out	0x3f, r20	; 63
     586:	23 2b       	or	r18, r19
     588:	a9 f4       	brne	.+42     	; 0x5b4 <FMClickP__FMClick__seek+0x3c>
     58a:	2f b7       	in	r18, 0x3f	; 63
     58c:	f8 94       	cli
     58e:	43 e0       	ldi	r20, 0x03	; 3
     590:	50 e0       	ldi	r21, 0x00	; 0
     592:	50 93 19 03 	sts	0x0319, r21
     596:	40 93 18 03 	sts	0x0318, r20
     59a:	10 92 25 03 	sts	0x0325, r1
     59e:	10 92 24 03 	sts	0x0324, r1
     5a2:	90 93 d2 02 	sts	0x02D2, r25
     5a6:	80 93 d1 02 	sts	0x02D1, r24
     5aa:	2f bf       	out	0x3f, r18	; 63
     5ac:	0e 94 5a 02 	call	0x4b4	; 0x4b4 <FMClickP__seek__postTask>
     5b0:	80 e0       	ldi	r24, 0x00	; 0
     5b2:	08 95       	ret
     5b4:	81 e0       	ldi	r24, 0x01	; 1
     5b6:	08 95       	ret

000005b8 <BusyWaitMicroC__BusyWait__wait.part.22>:
     5b8:	01 97       	sbiw	r24, 0x01	; 1
     5ba:	01 96       	adiw	r24, 0x01	; 1
     5bc:	01 97       	sbiw	r24, 0x01	; 1
     5be:	01 96       	adiw	r24, 0x01	; 1
     5c0:	01 97       	sbiw	r24, 0x01	; 1
     5c2:	01 96       	adiw	r24, 0x01	; 1
     5c4:	01 97       	sbiw	r24, 0x01	; 1
     5c6:	c1 f7       	brne	.-16     	; 0x5b8 <BusyWaitMicroC__BusyWait__wait.part.22>
     5c8:	08 95       	ret

000005ca <ArbiterP__0__Resource__request.constprop.70>:
     5ca:	1f 93       	push	r17
     5cc:	cf 93       	push	r28
     5ce:	df 93       	push	r29
     5d0:	8f b7       	in	r24, 0x3f	; 63
     5d2:	f8 94       	cli
     5d4:	c0 91 80 02 	lds	r28, 0x0280
     5d8:	c1 11       	cpse	r28, r1
     5da:	3d c0       	rjmp	.+122    	; 0x656 <ArbiterP__0__Resource__request.constprop.70+0x8c>
     5dc:	11 e0       	ldi	r17, 0x01	; 1
     5de:	10 93 80 02 	sts	0x0280, r17
     5e2:	10 92 11 03 	sts	0x0311, r1
     5e6:	8f bf       	out	0x3f, r24	; 63
     5e8:	df b7       	in	r29, 0x3f	; 63
     5ea:	f8 94       	cli
     5ec:	80 91 7f 02 	lds	r24, 0x027F
     5f0:	81 11       	cpse	r24, r1
     5f2:	17 c0       	rjmp	.+46     	; 0x622 <ArbiterP__0__Resource__request.constprop.70+0x58>
     5f4:	50 98       	cbi	0x0a, 0	; 10
     5f6:	51 98       	cbi	0x0a, 1	; 10
     5f8:	10 92 b9 00 	sts	0x00B9, r1
     5fc:	81 e4       	ldi	r24, 0x41	; 65
     5fe:	80 93 b8 00 	sts	0x00B8, r24
     602:	10 92 ba 00 	sts	0x00BA, r1
     606:	10 92 bc 00 	sts	0x00BC, r1
     60a:	0e 94 5d 02 	call	0x4ba	; 0x4ba <HplAtm128I2CBusP__I2C__readCurrent>
     60e:	80 91 ea 02 	lds	r24, 0x02EA
     612:	8e 7f       	andi	r24, 0xFE	; 254
     614:	84 60       	ori	r24, 0x04	; 4
     616:	80 93 ea 02 	sts	0x02EA, r24
     61a:	0e 94 1d 02 	call	0x43a	; 0x43a <HplAtm128I2CBusP__I2C__sendCommand>
     61e:	10 93 7f 02 	sts	0x027F, r17
     622:	df bf       	out	0x3f, r29	; 63
     624:	df b7       	in	r29, 0x3f	; 63
     626:	f8 94       	cli
     628:	80 91 02 02 	lds	r24, 0x0202
     62c:	81 30       	cpi	r24, 0x01	; 1
     62e:	89 f4       	brne	.+34     	; 0x652 <ArbiterP__0__Resource__request.constprop.70+0x88>
     630:	80 91 80 02 	lds	r24, 0x0280
     634:	81 30       	cpi	r24, 0x01	; 1
     636:	21 f4       	brne	.+8      	; 0x640 <ArbiterP__0__Resource__request.constprop.70+0x76>
     638:	89 e0       	ldi	r24, 0x09	; 9
     63a:	0e 94 38 02 	call	0x470	; 0x470 <SchedulerBasicP__TaskBasic__postTask>
     63e:	09 c0       	rjmp	.+18     	; 0x652 <ArbiterP__0__Resource__request.constprop.70+0x88>
     640:	82 30       	cpi	r24, 0x02	; 2
     642:	39 f4       	brne	.+14     	; 0x652 <ArbiterP__0__Resource__request.constprop.70+0x88>
     644:	80 91 11 03 	lds	r24, 0x0311
     648:	80 93 02 02 	sts	0x0202, r24
     64c:	83 e0       	ldi	r24, 0x03	; 3
     64e:	80 93 80 02 	sts	0x0280, r24
     652:	df bf       	out	0x3f, r29	; 63
     654:	1d c0       	rjmp	.+58     	; 0x690 <ArbiterP__0__Resource__request.constprop.70+0xc6>
     656:	c0 91 11 03 	lds	r28, 0x0311
     65a:	cc 23       	and	r28, r28
     65c:	c1 f0       	breq	.+48     	; 0x68e <ArbiterP__0__Resource__request.constprop.70+0xc4>
     65e:	90 91 c8 02 	lds	r25, 0x02C8
     662:	9f 3f       	cpi	r25, 0xFF	; 255
     664:	99 f4       	brne	.+38     	; 0x68c <ArbiterP__0__Resource__request.constprop.70+0xc2>
     666:	e0 91 03 02 	lds	r30, 0x0203
     66a:	ee 23       	and	r30, r30
     66c:	79 f0       	breq	.+30     	; 0x68c <ArbiterP__0__Resource__request.constprop.70+0xc2>
     66e:	90 91 04 02 	lds	r25, 0x0204
     672:	9f 3f       	cpi	r25, 0xFF	; 255
     674:	19 f4       	brne	.+6      	; 0x67c <ArbiterP__0__Resource__request.constprop.70+0xb2>
     676:	10 92 04 02 	sts	0x0204, r1
     67a:	04 c0       	rjmp	.+8      	; 0x684 <ArbiterP__0__Resource__request.constprop.70+0xba>
     67c:	f0 e0       	ldi	r31, 0x00	; 0
     67e:	e8 53       	subi	r30, 0x38	; 56
     680:	fd 4f       	sbci	r31, 0xFD	; 253
     682:	10 82       	st	Z, r1
     684:	10 92 03 02 	sts	0x0203, r1
     688:	c0 e0       	ldi	r28, 0x00	; 0
     68a:	01 c0       	rjmp	.+2      	; 0x68e <ArbiterP__0__Resource__request.constprop.70+0xc4>
     68c:	c5 e0       	ldi	r28, 0x05	; 5
     68e:	8f bf       	out	0x3f, r24	; 63
     690:	8c 2f       	mov	r24, r28
     692:	df 91       	pop	r29
     694:	cf 91       	pop	r28
     696:	1f 91       	pop	r17
     698:	08 95       	ret

0000069a <FMClickP__readRegisters>:
     69a:	cf 93       	push	r28
     69c:	2f b7       	in	r18, 0x3f	; 63
     69e:	f8 94       	cli
     6a0:	80 91 1a 03 	lds	r24, 0x031A
     6a4:	90 91 1b 03 	lds	r25, 0x031B
     6a8:	2f bf       	out	0x3f, r18	; 63
     6aa:	00 97       	sbiw	r24, 0x00	; 0
     6ac:	81 f4       	brne	.+32     	; 0x6ce <FMClickP__readRegisters+0x34>
     6ae:	2f b7       	in	r18, 0x3f	; 63
     6b0:	f8 94       	cli
     6b2:	81 e0       	ldi	r24, 0x01	; 1
     6b4:	90 e0       	ldi	r25, 0x00	; 0
     6b6:	90 93 1f 03 	sts	0x031F, r25
     6ba:	80 93 1e 03 	sts	0x031E, r24
     6be:	90 93 1b 03 	sts	0x031B, r25
     6c2:	80 93 1a 03 	sts	0x031A, r24
     6c6:	2f bf       	out	0x3f, r18	; 63
     6c8:	cf 91       	pop	r28
     6ca:	0c 94 e5 02 	jmp	0x5ca	; 0x5ca <ArbiterP__0__Resource__request.constprop.70>
     6ce:	01 97       	sbiw	r24, 0x01	; 1
     6d0:	09 f0       	breq	.+2      	; 0x6d4 <FMClickP__readRegisters+0x3a>
     6d2:	44 c0       	rjmp	.+136    	; 0x75c <FMClickP__readRegisters+0xc2>
     6d4:	8f b7       	in	r24, 0x3f	; 63
     6d6:	f8 94       	cli
     6d8:	90 91 01 02 	lds	r25, 0x0201
     6dc:	91 11       	cpse	r25, r1
     6de:	3c c0       	rjmp	.+120    	; 0x758 <FMClickP__readRegisters+0xbe>
     6e0:	8f bf       	out	0x3f, r24	; 63
     6e2:	8f b7       	in	r24, 0x3f	; 63
     6e4:	f8 94       	cli
     6e6:	90 91 7f 02 	lds	r25, 0x027F
     6ea:	91 30       	cpi	r25, 0x01	; 1
     6ec:	a9 f5       	brne	.+106    	; 0x758 <FMClickP__readRegisters+0xbe>
     6ee:	22 e0       	ldi	r18, 0x02	; 2
     6f0:	20 93 7f 02 	sts	0x027F, r18
     6f4:	8f bf       	out	0x3f, r24	; 63
     6f6:	8f b7       	in	r24, 0x3f	; 63
     6f8:	f8 94       	cli
     6fa:	20 e1       	ldi	r18, 0x10	; 16
     6fc:	30 e0       	ldi	r19, 0x00	; 0
     6fe:	30 93 d0 02 	sts	0x02D0, r19
     702:	20 93 cf 02 	sts	0x02CF, r18
     706:	21 ef       	ldi	r18, 0xF1	; 241
     708:	32 e0       	ldi	r19, 0x02	; 2
     70a:	30 93 c7 02 	sts	0x02C7, r19
     70e:	20 93 c6 02 	sts	0x02C6, r18
     712:	20 e2       	ldi	r18, 0x20	; 32
     714:	20 93 87 02 	sts	0x0287, r18
     718:	23 e0       	ldi	r18, 0x03	; 3
     71a:	20 93 32 03 	sts	0x0332, r18
     71e:	10 92 13 03 	sts	0x0313, r1
     722:	90 93 7e 02 	sts	0x027E, r25
     726:	8f bf       	out	0x3f, r24	; 63
     728:	0e 94 5d 02 	call	0x4ba	; 0x4ba <HplAtm128I2CBusP__I2C__readCurrent>
     72c:	cf b7       	in	r28, 0x3f	; 63
     72e:	f8 94       	cli
     730:	80 91 ea 02 	lds	r24, 0x02EA
     734:	8f 7a       	andi	r24, 0xAF	; 175
     736:	81 6a       	ori	r24, 0xA1	; 161
     738:	80 93 ea 02 	sts	0x02EA, r24
     73c:	84 e0       	ldi	r24, 0x04	; 4
     73e:	80 93 7f 02 	sts	0x027F, r24
     742:	0e 94 1d 02 	call	0x43a	; 0x43a <HplAtm128I2CBusP__I2C__sendCommand>
     746:	cf bf       	out	0x3f, r28	; 63
     748:	8f b7       	in	r24, 0x3f	; 63
     74a:	f8 94       	cli
     74c:	10 92 1b 03 	sts	0x031B, r1
     750:	10 92 1a 03 	sts	0x031A, r1
     754:	8f bf       	out	0x3f, r24	; 63
     756:	02 c0       	rjmp	.+4      	; 0x75c <FMClickP__readRegisters+0xc2>
     758:	8f bf       	out	0x3f, r24	; 63
     75a:	bc cf       	rjmp	.-136    	; 0x6d4 <FMClickP__readRegisters+0x3a>
     75c:	cf 91       	pop	r28
     75e:	08 95       	ret

00000760 <VirtualizeTimerC__0__Timer__startOneShot.constprop.50>:
     760:	cf 92       	push	r12
     762:	df 92       	push	r13
     764:	ef 92       	push	r14
     766:	ff 92       	push	r15
     768:	6b 01       	movw	r12, r22
     76a:	7c 01       	movw	r14, r24
     76c:	0e 94 81 02 	call	0x502	; 0x502 <Atm1280AlarmSyncP__0__Counter__get>
     770:	e8 ed       	ldi	r30, 0xD8	; 216
     772:	f2 e0       	ldi	r31, 0x02	; 2
     774:	60 83       	st	Z, r22
     776:	71 83       	std	Z+1, r23	; 0x01
     778:	82 83       	std	Z+2, r24	; 0x02
     77a:	93 83       	std	Z+3, r25	; 0x03
     77c:	c4 82       	std	Z+4, r12	; 0x04
     77e:	d5 82       	std	Z+5, r13	; 0x05
     780:	e6 82       	std	Z+6, r14	; 0x06
     782:	f7 82       	std	Z+7, r15	; 0x07
     784:	e0 ee       	ldi	r30, 0xE0	; 224
     786:	f2 e0       	ldi	r31, 0x02	; 2
     788:	80 81       	ld	r24, Z
     78a:	81 60       	ori	r24, 0x01	; 1
     78c:	82 60       	ori	r24, 0x02	; 2
     78e:	80 83       	st	Z, r24
     790:	8c e0       	ldi	r24, 0x0C	; 12
     792:	ff 90       	pop	r15
     794:	ef 90       	pop	r14
     796:	df 90       	pop	r13
     798:	cf 90       	pop	r12
     79a:	0c 94 38 02 	jmp	0x470	; 0x470 <SchedulerBasicP__TaskBasic__postTask>

0000079e <AdcP__sample>:
     79e:	0f 93       	push	r16
     7a0:	1f 93       	push	r17
     7a2:	cf 93       	push	r28
     7a4:	df 93       	push	r29
     7a6:	80 91 2b 03 	lds	r24, 0x032B
     7aa:	88 23       	and	r24, r24
     7ac:	09 f4       	brne	.+2      	; 0x7b0 <AdcP__sample+0x12>
     7ae:	3f c0       	rjmp	.+126    	; 0x82e <AdcP__sample+0x90>
     7b0:	10 e0       	ldi	r17, 0x00	; 0
     7b2:	c0 e0       	ldi	r28, 0x00	; 0
     7b4:	df e1       	ldi	r29, 0x1F	; 31
     7b6:	0f b7       	in	r16, 0x3f	; 63
     7b8:	f8 94       	cli
     7ba:	80 91 2e 03 	lds	r24, 0x032E
     7be:	8e 7f       	andi	r24, 0xFE	; 254
     7c0:	80 93 2e 03 	sts	0x032E, r24
     7c4:	0e 94 65 02 	call	0x4ca	; 0x4ca <HplAtm1280AdcP__HplAtm1280Adc__getAdmux>
     7c8:	28 2f       	mov	r18, r24
     7ca:	2f 73       	andi	r18, 0x3F	; 63
     7cc:	88 1f       	adc	r24, r24
     7ce:	88 27       	eor	r24, r24
     7d0:	88 1f       	adc	r24, r24
     7d2:	91 70       	andi	r25, 0x01	; 1
     7d4:	99 0f       	add	r25, r25
     7d6:	89 2b       	or	r24, r25
     7d8:	18 13       	cpse	r17, r24
     7da:	02 c0       	rjmp	.+4      	; 0x7e0 <AdcP__sample+0x42>
     7dc:	91 e0       	ldi	r25, 0x01	; 1
     7de:	d2 13       	cpse	r29, r18
     7e0:	90 e0       	ldi	r25, 0x00	; 0
     7e2:	80 91 2e 03 	lds	r24, 0x032E
     7e6:	90 fb       	bst	r25, 0
     7e8:	81 f9       	bld	r24, 1
     7ea:	9d 2f       	mov	r25, r29
     7ec:	9f 73       	andi	r25, 0x3F	; 63
     7ee:	99 0f       	add	r25, r25
     7f0:	99 0f       	add	r25, r25
     7f2:	83 70       	andi	r24, 0x03	; 3
     7f4:	89 2b       	or	r24, r25
     7f6:	80 93 2e 03 	sts	0x032E, r24
     7fa:	11 11       	cpse	r17, r1
     7fc:	d0 64       	ori	r29, 0x40	; 64
     7fe:	d0 93 7c 00 	sts	0x007C, r29
     802:	80 91 7b 00 	lds	r24, 0x007B
     806:	87 7f       	andi	r24, 0xF7	; 247
     808:	80 93 7b 00 	sts	0x007B, r24
     80c:	90 91 2e 03 	lds	r25, 0x032E
     810:	8c 2f       	mov	r24, r28
     812:	88 60       	ori	r24, 0x08	; 8
     814:	80 61       	ori	r24, 0x10	; 16
     816:	90 fb       	bst	r25, 0
     818:	85 f9       	bld	r24, 5
     81a:	80 64       	ori	r24, 0x40	; 64
     81c:	80 68       	ori	r24, 0x80	; 128
     81e:	80 93 7a 00 	sts	0x007A, r24
     822:	0f bf       	out	0x3f, r16	; 63
     824:	df 91       	pop	r29
     826:	cf 91       	pop	r28
     828:	1f 91       	pop	r17
     82a:	0f 91       	pop	r16
     82c:	08 95       	ret
     82e:	c7 e0       	ldi	r28, 0x07	; 7
     830:	11 e0       	ldi	r17, 0x01	; 1
     832:	d0 e0       	ldi	r29, 0x00	; 0
     834:	c0 cf       	rjmp	.-128    	; 0x7b6 <AdcP__sample+0x18>

00000836 <FMClickP__I2CResource__release>:
     836:	cf 93       	push	r28
     838:	df 93       	push	r29
     83a:	cf b7       	in	r28, 0x3f	; 63
     83c:	f8 94       	cli
     83e:	0e 94 5d 02 	call	0x4ba	; 0x4ba <HplAtm128I2CBusP__I2C__readCurrent>
     842:	80 91 ea 02 	lds	r24, 0x02EA
     846:	8e 7f       	andi	r24, 0xFE	; 254
     848:	80 69       	ori	r24, 0x90	; 144
     84a:	80 93 ea 02 	sts	0x02EA, r24
     84e:	0e 94 1d 02 	call	0x43a	; 0x43a <HplAtm128I2CBusP__I2C__sendCommand>
     852:	cf bf       	out	0x3f, r28	; 63
     854:	df b7       	in	r29, 0x3f	; 63
     856:	f8 94       	cli
     858:	80 91 80 02 	lds	r24, 0x0280
     85c:	83 30       	cpi	r24, 0x03	; 3
     85e:	c1 f5       	brne	.+112    	; 0x8d0 <FMClickP__I2CResource__release+0x9a>
     860:	c0 91 02 02 	lds	r28, 0x0202
     864:	c1 11       	cpse	r28, r1
     866:	34 c0       	rjmp	.+104    	; 0x8d0 <FMClickP__I2CResource__release+0x9a>
     868:	80 91 04 02 	lds	r24, 0x0204
     86c:	8f 3f       	cpi	r24, 0xFF	; 255
     86e:	c1 f0       	breq	.+48     	; 0x8a0 <FMClickP__I2CResource__release+0x6a>
     870:	e8 2f       	mov	r30, r24
     872:	f0 e0       	ldi	r31, 0x00	; 0
     874:	e8 53       	subi	r30, 0x38	; 56
     876:	fd 4f       	sbci	r31, 0xFD	; 253
     878:	90 81       	ld	r25, Z
     87a:	90 93 04 02 	sts	0x0204, r25
     87e:	9f 3f       	cpi	r25, 0xFF	; 255
     880:	11 f4       	brne	.+4      	; 0x886 <FMClickP__I2CResource__release+0x50>
     882:	90 93 03 02 	sts	0x0203, r25
     886:	9f ef       	ldi	r25, 0xFF	; 255
     888:	90 83       	st	Z, r25
     88a:	80 93 11 03 	sts	0x0311, r24
     88e:	90 93 02 02 	sts	0x0202, r25
     892:	81 e0       	ldi	r24, 0x01	; 1
     894:	80 93 80 02 	sts	0x0280, r24
     898:	89 e0       	ldi	r24, 0x09	; 9
     89a:	0e 94 38 02 	call	0x470	; 0x470 <SchedulerBasicP__TaskBasic__postTask>
     89e:	16 c0       	rjmp	.+44     	; 0x8cc <FMClickP__I2CResource__release+0x96>
     8a0:	81 e0       	ldi	r24, 0x01	; 1
     8a2:	80 93 02 02 	sts	0x0202, r24
     8a6:	10 92 80 02 	sts	0x0280, r1
     8aa:	80 91 7f 02 	lds	r24, 0x027F
     8ae:	81 30       	cpi	r24, 0x01	; 1
     8b0:	69 f4       	brne	.+26     	; 0x8cc <FMClickP__I2CResource__release+0x96>
     8b2:	0e 94 5d 02 	call	0x4ba	; 0x4ba <HplAtm128I2CBusP__I2C__readCurrent>
     8b6:	80 91 ea 02 	lds	r24, 0x02EA
     8ba:	8a 76       	andi	r24, 0x6A	; 106
     8bc:	80 93 ea 02 	sts	0x02EA, r24
     8c0:	0e 94 1d 02 	call	0x43a	; 0x43a <HplAtm128I2CBusP__I2C__sendCommand>
     8c4:	58 98       	cbi	0x0b, 0	; 11
     8c6:	59 98       	cbi	0x0b, 1	; 11
     8c8:	10 92 7f 02 	sts	0x027F, r1
     8cc:	df bf       	out	0x3f, r29	; 63
     8ce:	02 c0       	rjmp	.+4      	; 0x8d4 <FMClickP__I2CResource__release+0x9e>
     8d0:	df bf       	out	0x3f, r29	; 63
     8d2:	c1 e0       	ldi	r28, 0x01	; 1
     8d4:	8c 2f       	mov	r24, r28
     8d6:	df 91       	pop	r29
     8d8:	cf 91       	pop	r28
     8da:	08 95       	ret

000008dc <FMClickP__I2C__readDone.isra.35>:
     8dc:	cf 93       	push	r28
     8de:	df 93       	push	r29
     8e0:	c0 91 18 03 	lds	r28, 0x0318
     8e4:	d0 91 19 03 	lds	r29, 0x0319
     8e8:	81 30       	cpi	r24, 0x01	; 1
     8ea:	21 f4       	brne	.+8      	; 0x8f4 <FMClickP__I2C__readDone.isra.35+0x18>
     8ec:	df 91       	pop	r29
     8ee:	cf 91       	pop	r28
     8f0:	0c 94 4d 03 	jmp	0x69a	; 0x69a <FMClickP__readRegisters>
     8f4:	0e 94 1b 04 	call	0x836	; 0x836 <FMClickP__I2CResource__release>
     8f8:	10 92 1f 03 	sts	0x031F, r1
     8fc:	10 92 1e 03 	sts	0x031E, r1
     900:	40 e0       	ldi	r20, 0x00	; 0
     902:	50 e0       	ldi	r21, 0x00	; 0
     904:	2a e0       	ldi	r18, 0x0A	; 10
     906:	da 01       	movw	r26, r20
     908:	af 50       	subi	r26, 0x0F	; 15
     90a:	bd 4f       	sbci	r27, 0xFD	; 253
     90c:	e2 2f       	mov	r30, r18
     90e:	f0 e0       	ldi	r31, 0x00	; 0
     910:	ee 0f       	add	r30, r30
     912:	ff 1f       	adc	r31, r31
     914:	e0 57       	subi	r30, 0x70	; 112
     916:	fd 4f       	sbci	r31, 0xFD	; 253
     918:	8c 91       	ld	r24, X
     91a:	90 e0       	ldi	r25, 0x00	; 0
     91c:	98 2f       	mov	r25, r24
     91e:	88 27       	eor	r24, r24
     920:	11 96       	adiw	r26, 0x01	; 1
     922:	3c 91       	ld	r19, X
     924:	83 2b       	or	r24, r19
     926:	91 83       	std	Z+1, r25	; 0x01
     928:	80 83       	st	Z, r24
     92a:	2f 5f       	subi	r18, 0xFF	; 255
     92c:	2f 70       	andi	r18, 0x0F	; 15
     92e:	4e 5f       	subi	r20, 0xFE	; 254
     930:	5f 4f       	sbci	r21, 0xFF	; 255
     932:	40 32       	cpi	r20, 0x20	; 32
     934:	51 05       	cpc	r21, r1
     936:	39 f7       	brne	.-50     	; 0x906 <FMClickP__I2C__readDone.isra.35+0x2a>
     938:	c2 30       	cpi	r28, 0x02	; 2
     93a:	d1 05       	cpc	r29, r1
     93c:	51 f0       	breq	.+20     	; 0x952 <FMClickP__I2C__readDone.isra.35+0x76>
     93e:	c3 30       	cpi	r28, 0x03	; 3
     940:	d1 05       	cpc	r29, r1
     942:	59 f0       	breq	.+22     	; 0x95a <FMClickP__I2C__readDone.isra.35+0x7e>
     944:	21 97       	sbiw	r28, 0x01	; 1
     946:	69 f4       	brne	.+26     	; 0x962 <FMClickP__I2C__readDone.isra.35+0x86>
     948:	86 e0       	ldi	r24, 0x06	; 6
     94a:	df 91       	pop	r29
     94c:	cf 91       	pop	r28
     94e:	0c 94 38 02 	jmp	0x470	; 0x470 <SchedulerBasicP__TaskBasic__postTask>
     952:	df 91       	pop	r29
     954:	cf 91       	pop	r28
     956:	0c 94 57 02 	jmp	0x4ae	; 0x4ae <FMClickP__tune__postTask>
     95a:	df 91       	pop	r29
     95c:	cf 91       	pop	r28
     95e:	0c 94 5a 02 	jmp	0x4b4	; 0x4b4 <FMClickP__seek__postTask>
     962:	df 91       	pop	r29
     964:	cf 91       	pop	r28
     966:	08 95       	ret

00000968 <Atm128I2CMasterPacketP__0__readNextByte>:
     968:	81 11       	cpse	r24, r1
     96a:	10 c0       	rjmp	.+32     	; 0x98c <Atm128I2CMasterPacketP__0__readNextByte+0x24>
     96c:	80 91 bb 00 	lds	r24, 0x00BB
     970:	90 91 13 03 	lds	r25, 0x0313
     974:	e0 91 c6 02 	lds	r30, 0x02C6
     978:	f0 91 c7 02 	lds	r31, 0x02C7
     97c:	e9 0f       	add	r30, r25
     97e:	f1 1d       	adc	r31, r1
     980:	80 83       	st	Z, r24
     982:	80 91 13 03 	lds	r24, 0x0313
     986:	8f 5f       	subi	r24, 0xFF	; 255
     988:	80 93 13 03 	sts	0x0313, r24
     98c:	20 91 13 03 	lds	r18, 0x0313
     990:	80 91 87 02 	lds	r24, 0x0287
     994:	28 17       	cp	r18, r24
     996:	88 f4       	brcc	.+34     	; 0x9ba <Atm128I2CMasterPacketP__0__readNextByte+0x52>
     998:	30 e0       	ldi	r19, 0x00	; 0
     99a:	90 e0       	ldi	r25, 0x00	; 0
     99c:	01 97       	sbiw	r24, 0x01	; 1
     99e:	28 17       	cp	r18, r24
     9a0:	39 07       	cpc	r19, r25
     9a2:	49 f4       	brne	.+18     	; 0x9b6 <Atm128I2CMasterPacketP__0__readNextByte+0x4e>
     9a4:	80 91 32 03 	lds	r24, 0x0332
     9a8:	82 fd       	sbrc	r24, 2
     9aa:	05 c0       	rjmp	.+10     	; 0x9b6 <Atm128I2CMasterPacketP__0__readNextByte+0x4e>
     9ac:	80 91 ea 02 	lds	r24, 0x02EA
     9b0:	8f 7b       	andi	r24, 0xBF	; 191
     9b2:	80 93 ea 02 	sts	0x02EA, r24
     9b6:	0c 94 1d 02 	jmp	0x43a	; 0x43a <HplAtm128I2CBusP__I2C__sendCommand>
     9ba:	80 91 ea 02 	lds	r24, 0x02EA
     9be:	28 2f       	mov	r18, r24
     9c0:	2e 7f       	andi	r18, 0xFE	; 254
     9c2:	90 91 32 03 	lds	r25, 0x0332
     9c6:	91 ff       	sbrs	r25, 1
     9c8:	0a c0       	rjmp	.+20     	; 0x9de <Atm128I2CMasterPacketP__0__readNextByte+0x76>
     9ca:	9d 7f       	andi	r25, 0xFD	; 253
     9cc:	90 93 32 03 	sts	0x0332, r25
     9d0:	82 2f       	mov	r24, r18
     9d2:	80 61       	ori	r24, 0x10	; 16
     9d4:	80 93 ea 02 	sts	0x02EA, r24
     9d8:	80 91 b9 00 	lds	r24, 0x00B9
     9dc:	03 c0       	rjmp	.+6      	; 0x9e4 <Atm128I2CMasterPacketP__0__readNextByte+0x7c>
     9de:	8e 77       	andi	r24, 0x7E	; 126
     9e0:	80 93 ea 02 	sts	0x02EA, r24
     9e4:	0e 94 1d 02 	call	0x43a	; 0x43a <HplAtm128I2CBusP__I2C__sendCommand>
     9e8:	81 e0       	ldi	r24, 0x01	; 1
     9ea:	80 93 7f 02 	sts	0x027F, r24
     9ee:	80 91 01 02 	lds	r24, 0x0201
     9f2:	81 11       	cpse	r24, r1
     9f4:	02 c0       	rjmp	.+4      	; 0x9fa <Atm128I2CMasterPacketP__0__readNextByte+0x92>
     9f6:	0c 94 6e 04 	jmp	0x8dc	; 0x8dc <FMClickP__I2C__readDone.isra.35>
     9fa:	08 95       	ret

000009fc <VirtualizeTimerC__0__fireTimers>:
     9fc:	cf 92       	push	r12
     9fe:	df 92       	push	r13
     a00:	ef 92       	push	r14
     a02:	ff 92       	push	r15
     a04:	0f 93       	push	r16
     a06:	1f 93       	push	r17
     a08:	8b 01       	movw	r16, r22
     a0a:	9c 01       	movw	r18, r24
     a0c:	e0 91 e0 02 	lds	r30, 0x02E0
     a10:	e1 ff       	sbrs	r30, 1
     a12:	1b c0       	rjmp	.+54     	; 0xa4a <VirtualizeTimerC__0__fireTimers+0x4e>
     a14:	40 91 d8 02 	lds	r20, 0x02D8
     a18:	50 91 d9 02 	lds	r21, 0x02D9
     a1c:	60 91 da 02 	lds	r22, 0x02DA
     a20:	70 91 db 02 	lds	r23, 0x02DB
     a24:	80 91 dc 02 	lds	r24, 0x02DC
     a28:	90 91 dd 02 	lds	r25, 0x02DD
     a2c:	a0 91 de 02 	lds	r26, 0x02DE
     a30:	b0 91 df 02 	lds	r27, 0x02DF
     a34:	68 01       	movw	r12, r16
     a36:	79 01       	movw	r14, r18
     a38:	c4 1a       	sub	r12, r20
     a3a:	d5 0a       	sbc	r13, r21
     a3c:	e6 0a       	sbc	r14, r22
     a3e:	f7 0a       	sbc	r15, r23
     a40:	c8 16       	cp	r12, r24
     a42:	d9 06       	cpc	r13, r25
     a44:	ea 06       	cpc	r14, r26
     a46:	fb 06       	cpc	r15, r27
     a48:	08 f5       	brcc	.+66     	; 0xa8c <VirtualizeTimerC__0__fireTimers+0x90>
     a4a:	e0 91 e9 02 	lds	r30, 0x02E9
     a4e:	e1 ff       	sbrs	r30, 1
     a50:	86 c0       	rjmp	.+268    	; 0xb5e <VirtualizeTimerC__0__fireTimers+0x162>
     a52:	40 91 e1 02 	lds	r20, 0x02E1
     a56:	50 91 e2 02 	lds	r21, 0x02E2
     a5a:	60 91 e3 02 	lds	r22, 0x02E3
     a5e:	70 91 e4 02 	lds	r23, 0x02E4
     a62:	80 91 e5 02 	lds	r24, 0x02E5
     a66:	90 91 e6 02 	lds	r25, 0x02E6
     a6a:	a0 91 e7 02 	lds	r26, 0x02E7
     a6e:	b0 91 e8 02 	lds	r27, 0x02E8
     a72:	04 1b       	sub	r16, r20
     a74:	15 0b       	sbc	r17, r21
     a76:	26 0b       	sbc	r18, r22
     a78:	37 0b       	sbc	r19, r23
     a7a:	08 17       	cp	r16, r24
     a7c:	19 07       	cpc	r17, r25
     a7e:	2a 07       	cpc	r18, r26
     a80:	3b 07       	cpc	r19, r27
     a82:	08 f4       	brcc	.+2      	; 0xa86 <VirtualizeTimerC__0__fireTimers+0x8a>
     a84:	6c c0       	rjmp	.+216    	; 0xb5e <VirtualizeTimerC__0__fireTimers+0x162>
     a86:	21 e0       	ldi	r18, 0x01	; 1
     a88:	30 e0       	ldi	r19, 0x00	; 0
     a8a:	02 c0       	rjmp	.+4      	; 0xa90 <VirtualizeTimerC__0__fireTimers+0x94>
     a8c:	20 e0       	ldi	r18, 0x00	; 0
     a8e:	30 e0       	ldi	r19, 0x00	; 0
     a90:	e0 ff       	sbrs	r30, 0
     a92:	0c c0       	rjmp	.+24     	; 0xaac <VirtualizeTimerC__0__fireTimers+0xb0>
     a94:	89 e0       	ldi	r24, 0x09	; 9
     a96:	82 9f       	mul	r24, r18
     a98:	f0 01       	movw	r30, r0
     a9a:	83 9f       	mul	r24, r19
     a9c:	f0 0d       	add	r31, r0
     a9e:	11 24       	eor	r1, r1
     aa0:	e0 52       	subi	r30, 0x20	; 32
     aa2:	fd 4f       	sbci	r31, 0xFD	; 253
     aa4:	80 81       	ld	r24, Z
     aa6:	8d 7f       	andi	r24, 0xFD	; 253
     aa8:	80 83       	st	Z, r24
     aaa:	10 c0       	rjmp	.+32     	; 0xacc <VirtualizeTimerC__0__fireTimers+0xd0>
     aac:	19 e0       	ldi	r17, 0x09	; 9
     aae:	12 9f       	mul	r17, r18
     ab0:	f0 01       	movw	r30, r0
     ab2:	13 9f       	mul	r17, r19
     ab4:	f0 0d       	add	r31, r0
     ab6:	11 24       	eor	r1, r1
     ab8:	e8 52       	subi	r30, 0x28	; 40
     aba:	fd 4f       	sbci	r31, 0xFD	; 253
     abc:	84 0f       	add	r24, r20
     abe:	95 1f       	adc	r25, r21
     ac0:	a6 1f       	adc	r26, r22
     ac2:	b7 1f       	adc	r27, r23
     ac4:	80 83       	st	Z, r24
     ac6:	91 83       	std	Z+1, r25	; 0x01
     ac8:	a2 83       	std	Z+2, r26	; 0x02
     aca:	b3 83       	std	Z+3, r27	; 0x03
     acc:	21 30       	cpi	r18, 0x01	; 1
     ace:	71 f0       	breq	.+28     	; 0xaec <VirtualizeTimerC__0__fireTimers+0xf0>
     ad0:	2f b7       	in	r18, 0x3f	; 63
     ad2:	f8 94       	cli
     ad4:	80 91 18 03 	lds	r24, 0x0318
     ad8:	90 91 19 03 	lds	r25, 0x0319
     adc:	2f bf       	out	0x3f, r18	; 63
     ade:	01 97       	sbiw	r24, 0x01	; 1
     ae0:	09 f0       	breq	.+2      	; 0xae4 <VirtualizeTimerC__0__fireTimers+0xe8>
     ae2:	3d c0       	rjmp	.+122    	; 0xb5e <VirtualizeTimerC__0__fireTimers+0x162>
     ae4:	86 e0       	ldi	r24, 0x06	; 6
     ae6:	0e 94 38 02 	call	0x470	; 0x470 <SchedulerBasicP__TaskBasic__postTask>
     aea:	39 c0       	rjmp	.+114    	; 0xb5e <VirtualizeTimerC__0__fireTimers+0x162>
     aec:	9f b7       	in	r25, 0x3f	; 63
     aee:	f8 94       	cli
     af0:	80 91 7c 02 	lds	r24, 0x027C
     af4:	81 11       	cpse	r24, r1
     af6:	27 c0       	rjmp	.+78     	; 0xb46 <VirtualizeTimerC__0__fireTimers+0x14a>
     af8:	81 e0       	ldi	r24, 0x01	; 1
     afa:	80 93 7c 02 	sts	0x027C, r24
     afe:	10 92 ce 02 	sts	0x02CE, r1
     b02:	9f bf       	out	0x3f, r25	; 63
     b04:	9f b7       	in	r25, 0x3f	; 63
     b06:	f8 94       	cli
     b08:	80 91 7a 00 	lds	r24, 0x007A
     b0c:	80 68       	ori	r24, 0x80	; 128
     b0e:	80 93 7a 00 	sts	0x007A, r24
     b12:	9f bf       	out	0x3f, r25	; 63
     b14:	1f b7       	in	r17, 0x3f	; 63
     b16:	f8 94       	cli
     b18:	80 91 00 02 	lds	r24, 0x0200
     b1c:	81 30       	cpi	r24, 0x01	; 1
     b1e:	89 f4       	brne	.+34     	; 0xb42 <VirtualizeTimerC__0__fireTimers+0x146>
     b20:	80 91 7c 02 	lds	r24, 0x027C
     b24:	81 30       	cpi	r24, 0x01	; 1
     b26:	21 f4       	brne	.+8      	; 0xb30 <VirtualizeTimerC__0__fireTimers+0x134>
     b28:	8d e0       	ldi	r24, 0x0D	; 13
     b2a:	0e 94 38 02 	call	0x470	; 0x470 <SchedulerBasicP__TaskBasic__postTask>
     b2e:	09 c0       	rjmp	.+18     	; 0xb42 <VirtualizeTimerC__0__fireTimers+0x146>
     b30:	82 30       	cpi	r24, 0x02	; 2
     b32:	39 f4       	brne	.+14     	; 0xb42 <VirtualizeTimerC__0__fireTimers+0x146>
     b34:	80 91 ce 02 	lds	r24, 0x02CE
     b38:	80 93 00 02 	sts	0x0200, r24
     b3c:	83 e0       	ldi	r24, 0x03	; 3
     b3e:	80 93 7c 02 	sts	0x027C, r24
     b42:	1f bf       	out	0x3f, r17	; 63
     b44:	0c c0       	rjmp	.+24     	; 0xb5e <VirtualizeTimerC__0__fireTimers+0x162>
     b46:	80 91 ce 02 	lds	r24, 0x02CE
     b4a:	88 23       	and	r24, r24
     b4c:	39 f0       	breq	.+14     	; 0xb5c <VirtualizeTimerC__0__fireTimers+0x160>
     b4e:	80 91 d7 02 	lds	r24, 0x02D7
     b52:	80 fd       	sbrc	r24, 0
     b54:	03 c0       	rjmp	.+6      	; 0xb5c <VirtualizeTimerC__0__fireTimers+0x160>
     b56:	81 60       	ori	r24, 0x01	; 1
     b58:	80 93 d7 02 	sts	0x02D7, r24
     b5c:	9f bf       	out	0x3f, r25	; 63
     b5e:	8c e0       	ldi	r24, 0x0C	; 12
     b60:	1f 91       	pop	r17
     b62:	0f 91       	pop	r16
     b64:	ff 90       	pop	r15
     b66:	ef 90       	pop	r14
     b68:	df 90       	pop	r13
     b6a:	cf 90       	pop	r12
     b6c:	0c 94 38 02 	jmp	0x470	; 0x470 <SchedulerBasicP__TaskBasic__postTask>

00000b70 <FMClickP__writeRegisters>:
     b70:	cf 93       	push	r28
     b72:	2f b7       	in	r18, 0x3f	; 63
     b74:	f8 94       	cli
     b76:	80 91 1c 03 	lds	r24, 0x031C
     b7a:	90 91 1d 03 	lds	r25, 0x031D
     b7e:	2f bf       	out	0x3f, r18	; 63
     b80:	00 97       	sbiw	r24, 0x00	; 0
     b82:	99 f5       	brne	.+102    	; 0xbea <FMClickP__writeRegisters+0x7a>
     b84:	9f b7       	in	r25, 0x3f	; 63
     b86:	f8 94       	cli
     b88:	80 91 12 03 	lds	r24, 0x0312
     b8c:	88 0f       	add	r24, r24
     b8e:	82 50       	subi	r24, 0x02	; 2
     b90:	9f bf       	out	0x3f, r25	; 63
     b92:	20 e0       	ldi	r18, 0x00	; 0
     b94:	92 e0       	ldi	r25, 0x02	; 2
     b96:	28 17       	cp	r18, r24
     b98:	b0 f4       	brcc	.+44     	; 0xbc6 <FMClickP__writeRegisters+0x56>
     b9a:	3f b7       	in	r19, 0x3f	; 63
     b9c:	f8 94       	cli
     b9e:	42 2f       	mov	r20, r18
     ba0:	50 e0       	ldi	r21, 0x00	; 0
     ba2:	e9 2f       	mov	r30, r25
     ba4:	f0 e0       	ldi	r31, 0x00	; 0
     ba6:	ee 0f       	add	r30, r30
     ba8:	ff 1f       	adc	r31, r31
     baa:	e0 57       	subi	r30, 0x70	; 112
     bac:	fd 4f       	sbci	r31, 0xFD	; 253
     bae:	60 81       	ld	r22, Z
     bb0:	71 81       	ldd	r23, Z+1	; 0x01
     bb2:	fa 01       	movw	r30, r20
     bb4:	ef 50       	subi	r30, 0x0F	; 15
     bb6:	fd 4f       	sbci	r31, 0xFD	; 253
     bb8:	70 83       	st	Z, r23
     bba:	61 83       	std	Z+1, r22	; 0x01
     bbc:	3f bf       	out	0x3f, r19	; 63
     bbe:	9f 5f       	subi	r25, 0xFF	; 255
     bc0:	9f 70       	andi	r25, 0x0F	; 15
     bc2:	2e 5f       	subi	r18, 0xFE	; 254
     bc4:	e8 cf       	rjmp	.-48     	; 0xb96 <FMClickP__writeRegisters+0x26>
     bc6:	8f b7       	in	r24, 0x3f	; 63
     bc8:	f8 94       	cli
     bca:	22 e0       	ldi	r18, 0x02	; 2
     bcc:	30 e0       	ldi	r19, 0x00	; 0
     bce:	30 93 1f 03 	sts	0x031F, r19
     bd2:	20 93 1e 03 	sts	0x031E, r18
     bd6:	21 e0       	ldi	r18, 0x01	; 1
     bd8:	30 e0       	ldi	r19, 0x00	; 0
     bda:	30 93 1d 03 	sts	0x031D, r19
     bde:	20 93 1c 03 	sts	0x031C, r18
     be2:	8f bf       	out	0x3f, r24	; 63
     be4:	cf 91       	pop	r28
     be6:	0c 94 e5 02 	jmp	0x5ca	; 0x5ca <ArbiterP__0__Resource__request.constprop.70>
     bea:	01 97       	sbiw	r24, 0x01	; 1
     bec:	09 f0       	breq	.+2      	; 0xbf0 <FMClickP__writeRegisters+0x80>
     bee:	47 c0       	rjmp	.+142    	; 0xc7e <FMClickP__writeRegisters+0x10e>
     bf0:	9f b7       	in	r25, 0x3f	; 63
     bf2:	f8 94       	cli
     bf4:	80 91 12 03 	lds	r24, 0x0312
     bf8:	9f bf       	out	0x3f, r25	; 63
     bfa:	9f b7       	in	r25, 0x3f	; 63
     bfc:	f8 94       	cli
     bfe:	20 91 01 02 	lds	r18, 0x0201
     c02:	21 11       	cpse	r18, r1
     c04:	f9 cf       	rjmp	.-14     	; 0xbf8 <FMClickP__writeRegisters+0x88>
     c06:	9f bf       	out	0x3f, r25	; 63
     c08:	9f b7       	in	r25, 0x3f	; 63
     c0a:	f8 94       	cli
     c0c:	20 91 7f 02 	lds	r18, 0x027F
     c10:	21 30       	cpi	r18, 0x01	; 1
     c12:	91 f7       	brne	.-28     	; 0xbf8 <FMClickP__writeRegisters+0x88>
     c14:	22 e0       	ldi	r18, 0x02	; 2
     c16:	20 93 7f 02 	sts	0x027F, r18
     c1a:	9f bf       	out	0x3f, r25	; 63
     c1c:	9f b7       	in	r25, 0x3f	; 63
     c1e:	f8 94       	cli
     c20:	20 e1       	ldi	r18, 0x10	; 16
     c22:	30 e0       	ldi	r19, 0x00	; 0
     c24:	30 93 d0 02 	sts	0x02D0, r19
     c28:	20 93 cf 02 	sts	0x02CF, r18
     c2c:	21 ef       	ldi	r18, 0xF1	; 241
     c2e:	32 e0       	ldi	r19, 0x02	; 2
     c30:	30 93 c7 02 	sts	0x02C7, r19
     c34:	20 93 c6 02 	sts	0x02C6, r18
     c38:	88 0f       	add	r24, r24
     c3a:	82 50       	subi	r24, 0x02	; 2
     c3c:	80 93 87 02 	sts	0x0287, r24
     c40:	83 e0       	ldi	r24, 0x03	; 3
     c42:	80 93 32 03 	sts	0x0332, r24
     c46:	10 92 13 03 	sts	0x0313, r1
     c4a:	10 92 7e 02 	sts	0x027E, r1
     c4e:	9f bf       	out	0x3f, r25	; 63
     c50:	0e 94 5d 02 	call	0x4ba	; 0x4ba <HplAtm128I2CBusP__I2C__readCurrent>
     c54:	cf b7       	in	r28, 0x3f	; 63
     c56:	f8 94       	cli
     c58:	80 91 ea 02 	lds	r24, 0x02EA
     c5c:	8f 7e       	andi	r24, 0xEF	; 239
     c5e:	81 6e       	ori	r24, 0xE1	; 225
     c60:	80 93 ea 02 	sts	0x02EA, r24
     c64:	84 e0       	ldi	r24, 0x04	; 4
     c66:	80 93 7f 02 	sts	0x027F, r24
     c6a:	0e 94 1d 02 	call	0x43a	; 0x43a <HplAtm128I2CBusP__I2C__sendCommand>
     c6e:	cf bf       	out	0x3f, r28	; 63
     c70:	8f b7       	in	r24, 0x3f	; 63
     c72:	f8 94       	cli
     c74:	10 92 1d 03 	sts	0x031D, r1
     c78:	10 92 1c 03 	sts	0x031C, r1
     c7c:	8f bf       	out	0x3f, r24	; 63
     c7e:	cf 91       	pop	r28
     c80:	08 95       	ret

00000c82 <Atm128I2CMasterImplP__0__SubPacket__writeDone.isra.31>:
     c82:	cf 93       	push	r28
     c84:	df 93       	push	r29
     c86:	90 91 01 02 	lds	r25, 0x0201
     c8a:	91 11       	cpse	r25, r1
     c8c:	30 c0       	rjmp	.+96     	; 0xcee <Atm128I2CMasterImplP__0__SubPacket__writeDone.isra.31+0x6c>
     c8e:	c0 91 18 03 	lds	r28, 0x0318
     c92:	d0 91 19 03 	lds	r29, 0x0319
     c96:	81 30       	cpi	r24, 0x01	; 1
     c98:	21 f4       	brne	.+8      	; 0xca2 <Atm128I2CMasterImplP__0__SubPacket__writeDone.isra.31+0x20>
     c9a:	df 91       	pop	r29
     c9c:	cf 91       	pop	r28
     c9e:	0c 94 b8 05 	jmp	0xb70	; 0xb70 <FMClickP__writeRegisters>
     ca2:	0e 94 1b 04 	call	0x836	; 0x836 <FMClickP__I2CResource__release>
     ca6:	10 92 1f 03 	sts	0x031F, r1
     caa:	10 92 1e 03 	sts	0x031E, r1
     cae:	c3 30       	cpi	r28, 0x03	; 3
     cb0:	d1 05       	cpc	r29, r1
     cb2:	a9 f0       	breq	.+42     	; 0xcde <Atm128I2CMasterImplP__0__SubPacket__writeDone.isra.31+0x5c>
     cb4:	48 f4       	brcc	.+18     	; 0xcc8 <Atm128I2CMasterImplP__0__SubPacket__writeDone.isra.31+0x46>
     cb6:	c1 30       	cpi	r28, 0x01	; 1
     cb8:	d1 05       	cpc	r29, r1
     cba:	61 f0       	breq	.+24     	; 0xcd4 <Atm128I2CMasterImplP__0__SubPacket__writeDone.isra.31+0x52>
     cbc:	22 97       	sbiw	r28, 0x02	; 2
     cbe:	b9 f4       	brne	.+46     	; 0xcee <Atm128I2CMasterImplP__0__SubPacket__writeDone.isra.31+0x6c>
     cc0:	df 91       	pop	r29
     cc2:	cf 91       	pop	r28
     cc4:	0c 94 57 02 	jmp	0x4ae	; 0x4ae <FMClickP__tune__postTask>
     cc8:	c4 30       	cpi	r28, 0x04	; 4
     cca:	d1 05       	cpc	r29, r1
     ccc:	61 f0       	breq	.+24     	; 0xce6 <Atm128I2CMasterImplP__0__SubPacket__writeDone.isra.31+0x64>
     cce:	25 97       	sbiw	r28, 0x05	; 5
     cd0:	51 f0       	breq	.+20     	; 0xce6 <Atm128I2CMasterImplP__0__SubPacket__writeDone.isra.31+0x64>
     cd2:	0d c0       	rjmp	.+26     	; 0xcee <Atm128I2CMasterImplP__0__SubPacket__writeDone.isra.31+0x6c>
     cd4:	86 e0       	ldi	r24, 0x06	; 6
     cd6:	df 91       	pop	r29
     cd8:	cf 91       	pop	r28
     cda:	0c 94 38 02 	jmp	0x470	; 0x470 <SchedulerBasicP__TaskBasic__postTask>
     cde:	df 91       	pop	r29
     ce0:	cf 91       	pop	r28
     ce2:	0c 94 5a 02 	jmp	0x4b4	; 0x4b4 <FMClickP__seek__postTask>
     ce6:	10 92 19 03 	sts	0x0319, r1
     cea:	10 92 18 03 	sts	0x0318, r1
     cee:	df 91       	pop	r29
     cf0:	cf 91       	pop	r28
     cf2:	08 95       	ret

00000cf4 <Atm128I2CMasterPacketP__0__writeNextByte>:
     cf4:	80 91 13 03 	lds	r24, 0x0313
     cf8:	90 91 87 02 	lds	r25, 0x0287
     cfc:	89 17       	cp	r24, r25
     cfe:	80 f4       	brcc	.+32     	; 0xd20 <Atm128I2CMasterPacketP__0__writeNextByte+0x2c>
     d00:	e0 91 c6 02 	lds	r30, 0x02C6
     d04:	f0 91 c7 02 	lds	r31, 0x02C7
     d08:	e8 0f       	add	r30, r24
     d0a:	f1 1d       	adc	r31, r1
     d0c:	80 81       	ld	r24, Z
     d0e:	80 93 bb 00 	sts	0x00BB, r24
     d12:	80 91 13 03 	lds	r24, 0x0313
     d16:	8f 5f       	subi	r24, 0xFF	; 255
     d18:	80 93 13 03 	sts	0x0313, r24
     d1c:	0c 94 1d 02 	jmp	0x43a	; 0x43a <HplAtm128I2CBusP__I2C__sendCommand>
     d20:	80 91 ea 02 	lds	r24, 0x02EA
     d24:	28 2f       	mov	r18, r24
     d26:	2e 7f       	andi	r18, 0xFE	; 254
     d28:	90 91 32 03 	lds	r25, 0x0332
     d2c:	91 ff       	sbrs	r25, 1
     d2e:	06 c0       	rjmp	.+12     	; 0xd3c <Atm128I2CMasterPacketP__0__writeNextByte+0x48>
     d30:	9d 7f       	andi	r25, 0xFD	; 253
     d32:	90 93 32 03 	sts	0x0332, r25
     d36:	82 2f       	mov	r24, r18
     d38:	80 61       	ori	r24, 0x10	; 16
     d3a:	01 c0       	rjmp	.+2      	; 0xd3e <Atm128I2CMasterPacketP__0__writeNextByte+0x4a>
     d3c:	8e 77       	andi	r24, 0x7E	; 126
     d3e:	80 93 ea 02 	sts	0x02EA, r24
     d42:	0e 94 1d 02 	call	0x43a	; 0x43a <HplAtm128I2CBusP__I2C__sendCommand>
     d46:	81 e0       	ldi	r24, 0x01	; 1
     d48:	80 93 7f 02 	sts	0x027F, r24
     d4c:	80 e0       	ldi	r24, 0x00	; 0
     d4e:	0c 94 41 06 	jmp	0xc82	; 0xc82 <Atm128I2CMasterImplP__0__SubPacket__writeDone.isra.31>

00000d52 <Atm128I2CMasterPacketP__0__i2c_abort>:
     d52:	cf 93       	push	r28
     d54:	df 93       	push	r29
     d56:	1f 92       	push	r1
     d58:	cd b7       	in	r28, 0x3d	; 61
     d5a:	de b7       	in	r29, 0x3e	; 62
     d5c:	89 83       	std	Y+1, r24	; 0x01
     d5e:	0e 94 5d 02 	call	0x4ba	; 0x4ba <HplAtm128I2CBusP__I2C__readCurrent>
     d62:	90 91 ea 02 	lds	r25, 0x02EA
     d66:	9a 7f       	andi	r25, 0xFA	; 250
     d68:	90 93 ea 02 	sts	0x02EA, r25
     d6c:	0e 94 1d 02 	call	0x43a	; 0x43a <HplAtm128I2CBusP__I2C__sendCommand>
     d70:	0e 94 5d 02 	call	0x4ba	; 0x4ba <HplAtm128I2CBusP__I2C__readCurrent>
     d74:	90 91 ea 02 	lds	r25, 0x02EA
     d78:	94 60       	ori	r25, 0x04	; 4
     d7a:	90 93 ea 02 	sts	0x02EA, r25
     d7e:	0e 94 1d 02 	call	0x43a	; 0x43a <HplAtm128I2CBusP__I2C__sendCommand>
     d82:	91 e0       	ldi	r25, 0x01	; 1
     d84:	90 93 7f 02 	sts	0x027F, r25
     d88:	90 91 7e 02 	lds	r25, 0x027E
     d8c:	89 81       	ldd	r24, Y+1	; 0x01
     d8e:	99 23       	and	r25, r25
     d90:	49 f0       	breq	.+18     	; 0xda4 <Atm128I2CMasterPacketP__0__i2c_abort+0x52>
     d92:	90 91 01 02 	lds	r25, 0x0201
     d96:	91 11       	cpse	r25, r1
     d98:	0a c0       	rjmp	.+20     	; 0xdae <Atm128I2CMasterPacketP__0__i2c_abort+0x5c>
     d9a:	0f 90       	pop	r0
     d9c:	df 91       	pop	r29
     d9e:	cf 91       	pop	r28
     da0:	0c 94 6e 04 	jmp	0x8dc	; 0x8dc <FMClickP__I2C__readDone.isra.35>
     da4:	0f 90       	pop	r0
     da6:	df 91       	pop	r29
     da8:	cf 91       	pop	r28
     daa:	0c 94 41 06 	jmp	0xc82	; 0xc82 <Atm128I2CMasterImplP__0__SubPacket__writeDone.isra.31>
     dae:	0f 90       	pop	r0
     db0:	df 91       	pop	r29
     db2:	cf 91       	pop	r28
     db4:	08 95       	ret

00000db6 <HplKS0108P__busy_wait_controller>:
     db6:	88 23       	and	r24, r24
     db8:	29 f0       	breq	.+10     	; 0xdc4 <HplKS0108P__busy_wait_controller+0xe>
     dba:	81 30       	cpi	r24, 0x01	; 1
     dbc:	29 f4       	brne	.+10     	; 0xdc8 <HplKS0108P__busy_wait_controller+0x12>
     dbe:	72 98       	cbi	0x0e, 2	; 14
     dc0:	73 9a       	sbi	0x0e, 3	; 14
     dc2:	02 c0       	rjmp	.+4      	; 0xdc8 <HplKS0108P__busy_wait_controller+0x12>
     dc4:	73 98       	cbi	0x0e, 3	; 14
     dc6:	72 9a       	sbi	0x0e, 2	; 14
     dc8:	82 b1       	in	r24, 0x02	; 2
     dca:	82 b9       	out	0x02, r24	; 2
     dcc:	81 b1       	in	r24, 0x01	; 1
     dce:	11 b8       	out	0x01, r1	; 1
     dd0:	74 98       	cbi	0x0e, 4	; 14
     dd2:	75 9a       	sbi	0x0e, 5	; 14
     dd4:	0e 94 24 02 	call	0x448	; 0x448 <HplAtm128GeneralIOPinP__38__IO__set>
     dd8:	82 e0       	ldi	r24, 0x02	; 2
     dda:	90 e0       	ldi	r25, 0x00	; 0
     ddc:	0e 94 dc 02 	call	0x5b8	; 0x5b8 <BusyWaitMicroC__BusyWait__wait.part.22>
     de0:	80 b1       	in	r24, 0x00	; 0
     de2:	07 9b       	sbis	0x00, 7	; 0
     de4:	0d c0       	rjmp	.+26     	; 0xe00 <HplKS0108P__busy_wait_controller+0x4a>
     de6:	0e 94 22 02 	call	0x444	; 0x444 <HplAtm128GeneralIOPinP__38__IO__clr>
     dea:	82 e0       	ldi	r24, 0x02	; 2
     dec:	90 e0       	ldi	r25, 0x00	; 0
     dee:	0e 94 dc 02 	call	0x5b8	; 0x5b8 <BusyWaitMicroC__BusyWait__wait.part.22>
     df2:	0e 94 24 02 	call	0x448	; 0x448 <HplAtm128GeneralIOPinP__38__IO__set>
     df6:	82 e0       	ldi	r24, 0x02	; 2
     df8:	90 e0       	ldi	r25, 0x00	; 0
     dfa:	0e 94 dc 02 	call	0x5b8	; 0x5b8 <BusyWaitMicroC__BusyWait__wait.part.22>
     dfe:	f1 cf       	rjmp	.-30     	; 0xde2 <HplKS0108P__busy_wait_controller+0x2c>
     e00:	0e 94 22 02 	call	0x444	; 0x444 <HplAtm128GeneralIOPinP__38__IO__clr>
     e04:	75 98       	cbi	0x0e, 5	; 14
     e06:	81 b1       	in	r24, 0x01	; 1
     e08:	8f ef       	ldi	r24, 0xFF	; 255
     e0a:	81 b9       	out	0x01, r24	; 1
     e0c:	08 95       	ret

00000e0e <HplKS0108P__HplKS0108__dataRead>:
     e0e:	cf 93       	push	r28
     e10:	df 93       	push	r29
     e12:	1f 92       	push	r1
     e14:	cd b7       	in	r28, 0x3d	; 61
     e16:	de b7       	in	r29, 0x3e	; 62
     e18:	0e 94 db 06 	call	0xdb6	; 0xdb6 <HplKS0108P__busy_wait_controller>
     e1c:	81 b1       	in	r24, 0x01	; 1
     e1e:	11 b8       	out	0x01, r1	; 1
     e20:	74 9a       	sbi	0x0e, 4	; 14
     e22:	75 9a       	sbi	0x0e, 5	; 14
     e24:	0e 94 24 02 	call	0x448	; 0x448 <HplAtm128GeneralIOPinP__38__IO__set>
     e28:	82 e0       	ldi	r24, 0x02	; 2
     e2a:	90 e0       	ldi	r25, 0x00	; 0
     e2c:	0e 94 dc 02 	call	0x5b8	; 0x5b8 <BusyWaitMicroC__BusyWait__wait.part.22>
     e30:	80 b1       	in	r24, 0x00	; 0
     e32:	0e 94 22 02 	call	0x444	; 0x444 <HplAtm128GeneralIOPinP__38__IO__clr>
     e36:	82 e0       	ldi	r24, 0x02	; 2
     e38:	90 e0       	ldi	r25, 0x00	; 0
     e3a:	0e 94 dc 02 	call	0x5b8	; 0x5b8 <BusyWaitMicroC__BusyWait__wait.part.22>
     e3e:	0e 94 24 02 	call	0x448	; 0x448 <HplAtm128GeneralIOPinP__38__IO__set>
     e42:	82 e0       	ldi	r24, 0x02	; 2
     e44:	90 e0       	ldi	r25, 0x00	; 0
     e46:	0e 94 dc 02 	call	0x5b8	; 0x5b8 <BusyWaitMicroC__BusyWait__wait.part.22>
     e4a:	80 b1       	in	r24, 0x00	; 0
     e4c:	89 83       	std	Y+1, r24	; 0x01
     e4e:	0e 94 22 02 	call	0x444	; 0x444 <HplAtm128GeneralIOPinP__38__IO__clr>
     e52:	89 81       	ldd	r24, Y+1	; 0x01
     e54:	0f 90       	pop	r0
     e56:	df 91       	pop	r29
     e58:	cf 91       	pop	r28
     e5a:	08 95       	ret

00000e5c <HplKS0108P__HplKS0108__dataWrite>:
     e5c:	cf 93       	push	r28
     e5e:	df 93       	push	r29
     e60:	1f 92       	push	r1
     e62:	cd b7       	in	r28, 0x3d	; 61
     e64:	de b7       	in	r29, 0x3e	; 62
     e66:	69 83       	std	Y+1, r22	; 0x01
     e68:	0e 94 db 06 	call	0xdb6	; 0xdb6 <HplKS0108P__busy_wait_controller>
     e6c:	69 81       	ldd	r22, Y+1	; 0x01
     e6e:	62 b9       	out	0x02, r22	; 2
     e70:	81 b1       	in	r24, 0x01	; 1
     e72:	8f ef       	ldi	r24, 0xFF	; 255
     e74:	81 b9       	out	0x01, r24	; 1
     e76:	74 9a       	sbi	0x0e, 4	; 14
     e78:	75 98       	cbi	0x0e, 5	; 14
     e7a:	0e 94 24 02 	call	0x448	; 0x448 <HplAtm128GeneralIOPinP__38__IO__set>
     e7e:	82 e0       	ldi	r24, 0x02	; 2
     e80:	90 e0       	ldi	r25, 0x00	; 0
     e82:	0e 94 dc 02 	call	0x5b8	; 0x5b8 <BusyWaitMicroC__BusyWait__wait.part.22>
     e86:	0e 94 22 02 	call	0x444	; 0x444 <HplAtm128GeneralIOPinP__38__IO__clr>
     e8a:	80 e0       	ldi	r24, 0x00	; 0
     e8c:	0f 90       	pop	r0
     e8e:	df 91       	pop	r29
     e90:	cf 91       	pop	r28
     e92:	08 95       	ret

00000e94 <HplKS0108P__HplKS0108__controlWrite>:
     e94:	cf 93       	push	r28
     e96:	df 93       	push	r29
     e98:	1f 92       	push	r1
     e9a:	cd b7       	in	r28, 0x3d	; 61
     e9c:	de b7       	in	r29, 0x3e	; 62
     e9e:	69 83       	std	Y+1, r22	; 0x01
     ea0:	0e 94 db 06 	call	0xdb6	; 0xdb6 <HplKS0108P__busy_wait_controller>
     ea4:	74 98       	cbi	0x0e, 4	; 14
     ea6:	75 98       	cbi	0x0e, 5	; 14
     ea8:	0e 94 24 02 	call	0x448	; 0x448 <HplAtm128GeneralIOPinP__38__IO__set>
     eac:	81 b1       	in	r24, 0x01	; 1
     eae:	8f ef       	ldi	r24, 0xFF	; 255
     eb0:	81 b9       	out	0x01, r24	; 1
     eb2:	69 81       	ldd	r22, Y+1	; 0x01
     eb4:	62 b9       	out	0x02, r22	; 2
     eb6:	82 e0       	ldi	r24, 0x02	; 2
     eb8:	90 e0       	ldi	r25, 0x00	; 0
     eba:	0e 94 dc 02 	call	0x5b8	; 0x5b8 <BusyWaitMicroC__BusyWait__wait.part.22>
     ebe:	0e 94 22 02 	call	0x444	; 0x444 <HplAtm128GeneralIOPinP__38__IO__clr>
     ec2:	80 e0       	ldi	r24, 0x00	; 0
     ec4:	0f 90       	pop	r0
     ec6:	df 91       	pop	r29
     ec8:	cf 91       	pop	r28
     eca:	08 95       	ret

00000ecc <GlcdP__setAddress>:
     ecc:	cf 93       	push	r28
     ece:	df 93       	push	r29
     ed0:	98 2f       	mov	r25, r24
     ed2:	c6 2f       	mov	r28, r22
     ed4:	d8 2f       	mov	r29, r24
     ed6:	d2 95       	swap	r29
     ed8:	d6 95       	lsr	r29
     eda:	d6 95       	lsr	r29
     edc:	d3 70       	andi	r29, 0x03	; 3
     ede:	81 e0       	ldi	r24, 0x01	; 1
     ee0:	d8 27       	eor	r29, r24
     ee2:	9f 73       	andi	r25, 0x3F	; 63
     ee4:	69 2f       	mov	r22, r25
     ee6:	60 64       	ori	r22, 0x40	; 64
     ee8:	8d 2f       	mov	r24, r29
     eea:	0e 94 4a 07 	call	0xe94	; 0xe94 <HplKS0108P__HplKS0108__controlWrite>
     eee:	6c 2f       	mov	r22, r28
     ef0:	67 70       	andi	r22, 0x07	; 7
     ef2:	68 6b       	ori	r22, 0xB8	; 184
     ef4:	8d 2f       	mov	r24, r29
     ef6:	df 91       	pop	r29
     ef8:	cf 91       	pop	r28
     efa:	0c 94 4a 07 	jmp	0xe94	; 0xe94 <HplKS0108P__HplKS0108__controlWrite>

00000efe <GlcdP__Glcd__drawText.constprop.51>:
     efe:	2f 92       	push	r2
     f00:	3f 92       	push	r3
     f02:	4f 92       	push	r4
     f04:	5f 92       	push	r5
     f06:	6f 92       	push	r6
     f08:	7f 92       	push	r7
     f0a:	8f 92       	push	r8
     f0c:	9f 92       	push	r9
     f0e:	af 92       	push	r10
     f10:	bf 92       	push	r11
     f12:	cf 92       	push	r12
     f14:	df 92       	push	r13
     f16:	ef 92       	push	r14
     f18:	ff 92       	push	r15
     f1a:	0f 93       	push	r16
     f1c:	1f 93       	push	r17
     f1e:	cf 93       	push	r28
     f20:	df 93       	push	r29
     f22:	8c 01       	movw	r16, r24
     f24:	d6 2f       	mov	r29, r22
     f26:	90 e0       	ldi	r25, 0x00	; 0
     f28:	55 e0       	ldi	r21, 0x05	; 5
     f2a:	95 2e       	mov	r9, r21
     f2c:	88 24       	eor	r8, r8
     f2e:	83 94       	inc	r8
     f30:	ee 24       	eor	r14, r14
     f32:	e3 94       	inc	r14
     f34:	f1 2c       	mov	r15, r1
     f36:	f8 01       	movw	r30, r16
     f38:	21 91       	ld	r18, Z+
     f3a:	8f 01       	movw	r16, r30
     f3c:	22 23       	and	r18, r18
     f3e:	09 f4       	brne	.+2      	; 0xf42 <GlcdP__Glcd__drawText.constprop.51+0x44>
     f40:	69 c0       	rjmp	.+210    	; 0x1014 <GlcdP__Glcd__drawText.constprop.51+0x116>
     f42:	2a 30       	cpi	r18, 0x0A	; 10
     f44:	11 f0       	breq	.+4      	; 0xf4a <GlcdP__Glcd__drawText.constprop.51+0x4c>
     f46:	2d 30       	cpi	r18, 0x0D	; 13
     f48:	19 f4       	brne	.+6      	; 0xf50 <GlcdP__Glcd__drawText.constprop.51+0x52>
     f4a:	d8 5f       	subi	r29, 0xF8	; 248
     f4c:	51 2c       	mov	r5, r1
     f4e:	60 c0       	rjmp	.+192    	; 0x1010 <GlcdP__Glcd__drawText.constprop.51+0x112>
     f50:	29 30       	cpi	r18, 0x09	; 9
     f52:	21 f4       	brne	.+8      	; 0xf5c <GlcdP__Glcd__drawText.constprop.51+0x5e>
     f54:	4a e0       	ldi	r20, 0x0A	; 10
     f56:	54 2e       	mov	r5, r20
     f58:	59 0e       	add	r5, r25
     f5a:	5a c0       	rjmp	.+180    	; 0x1010 <GlcdP__Glcd__drawText.constprop.51+0x112>
     f5c:	36 e0       	ldi	r19, 0x06	; 6
     f5e:	53 2e       	mov	r5, r19
     f60:	59 0e       	add	r5, r25
     f62:	33 27       	eor	r19, r19
     f64:	27 fd       	sbrc	r18, 7
     f66:	30 95       	com	r19
     f68:	20 32       	cpi	r18, 0x20	; 32
     f6a:	31 05       	cpc	r19, r1
     f6c:	0c f4       	brge	.+2      	; 0xf70 <GlcdP__Glcd__drawText.constprop.51+0x72>
     f6e:	50 c0       	rjmp	.+160    	; 0x1010 <GlcdP__Glcd__drawText.constprop.51+0x112>
     f70:	20 52       	subi	r18, 0x20	; 32
     f72:	31 09       	sbc	r19, r1
     f74:	92 9e       	mul	r9, r18
     f76:	a0 01       	movw	r20, r0
     f78:	93 9e       	mul	r9, r19
     f7a:	50 0d       	add	r21, r0
     f7c:	11 24       	eor	r1, r1
     f7e:	9a 01       	movw	r18, r20
     f80:	28 5e       	subi	r18, 0xE8	; 232
     f82:	3d 4f       	sbci	r19, 0xFD	; 253
     f84:	59 01       	movw	r10, r18
     f86:	8b e0       	ldi	r24, 0x0B	; 11
     f88:	d8 2e       	mov	r13, r24
     f8a:	d9 0e       	add	r13, r25
     f8c:	c5 2d       	mov	r28, r5
     f8e:	99 ef       	ldi	r25, 0xF9	; 249
     f90:	49 2e       	mov	r4, r25
     f92:	4d 0e       	add	r4, r29
     f94:	74 2c       	mov	r7, r4
     f96:	f5 01       	movw	r30, r10
     f98:	24 90       	lpm	r2, Z
     f9a:	c6 fb       	bst	r28, 6
     f9c:	cc 24       	eor	r12, r12
     f9e:	c0 f8       	bld	r12, 0
     fa0:	c8 24       	eor	r12, r8
     fa2:	37 2c       	mov	r3, r7
     fa4:	36 94       	lsr	r3
     fa6:	36 94       	lsr	r3
     fa8:	36 94       	lsr	r3
     faa:	f7 2d       	mov	r31, r7
     fac:	f7 70       	andi	r31, 0x07	; 7
     fae:	6f 2e       	mov	r6, r31
     fb0:	63 2d       	mov	r22, r3
     fb2:	8c 2f       	mov	r24, r28
     fb4:	20 fe       	sbrs	r2, 0
     fb6:	0d c0       	rjmp	.+26     	; 0xfd2 <GlcdP__Glcd__drawText.constprop.51+0xd4>
     fb8:	0e 94 66 07 	call	0xecc	; 0xecc <GlcdP__setAddress>
     fbc:	8c 2d       	mov	r24, r12
     fbe:	0e 94 07 07 	call	0xe0e	; 0xe0e <HplKS0108P__HplKS0108__dataRead>
     fc2:	b7 01       	movw	r22, r14
     fc4:	01 c0       	rjmp	.+2      	; 0xfc8 <GlcdP__Glcd__drawText.constprop.51+0xca>
     fc6:	66 0f       	add	r22, r22
     fc8:	6a 94       	dec	r6
     fca:	ea f7       	brpl	.-6      	; 0xfc6 <GlcdP__Glcd__drawText.constprop.51+0xc8>
     fcc:	68 2e       	mov	r6, r24
     fce:	66 2a       	or	r6, r22
     fd0:	0d c0       	rjmp	.+26     	; 0xfec <GlcdP__Glcd__drawText.constprop.51+0xee>
     fd2:	0e 94 66 07 	call	0xecc	; 0xecc <GlcdP__setAddress>
     fd6:	8c 2d       	mov	r24, r12
     fd8:	0e 94 07 07 	call	0xe0e	; 0xe0e <HplKS0108P__HplKS0108__dataRead>
     fdc:	97 01       	movw	r18, r14
     fde:	01 c0       	rjmp	.+2      	; 0xfe2 <GlcdP__Glcd__drawText.constprop.51+0xe4>
     fe0:	22 0f       	add	r18, r18
     fe2:	6a 94       	dec	r6
     fe4:	ea f7       	brpl	.-6      	; 0xfe0 <GlcdP__Glcd__drawText.constprop.51+0xe2>
     fe6:	20 95       	com	r18
     fe8:	68 2e       	mov	r6, r24
     fea:	62 22       	and	r6, r18
     fec:	63 2d       	mov	r22, r3
     fee:	8c 2f       	mov	r24, r28
     ff0:	0e 94 66 07 	call	0xecc	; 0xecc <GlcdP__setAddress>
     ff4:	66 2d       	mov	r22, r6
     ff6:	8c 2d       	mov	r24, r12
     ff8:	0e 94 2e 07 	call	0xe5c	; 0xe5c <HplKS0108P__HplKS0108__dataWrite>
     ffc:	26 94       	lsr	r2
     ffe:	73 94       	inc	r7
    1000:	7d 12       	cpse	r7, r29
    1002:	cf cf       	rjmp	.-98     	; 0xfa2 <GlcdP__Glcd__drawText.constprop.51+0xa4>
    1004:	cf 5f       	subi	r28, 0xFF	; 255
    1006:	2f ef       	ldi	r18, 0xFF	; 255
    1008:	a2 1a       	sub	r10, r18
    100a:	b2 0a       	sbc	r11, r18
    100c:	cd 11       	cpse	r28, r13
    100e:	c2 cf       	rjmp	.-124    	; 0xf94 <GlcdP__Glcd__drawText.constprop.51+0x96>
    1010:	95 2d       	mov	r25, r5
    1012:	91 cf       	rjmp	.-222    	; 0xf36 <GlcdP__Glcd__drawText.constprop.51+0x38>
    1014:	df 91       	pop	r29
    1016:	cf 91       	pop	r28
    1018:	1f 91       	pop	r17
    101a:	0f 91       	pop	r16
    101c:	ff 90       	pop	r15
    101e:	ef 90       	pop	r14
    1020:	df 90       	pop	r13
    1022:	cf 90       	pop	r12
    1024:	bf 90       	pop	r11
    1026:	af 90       	pop	r10
    1028:	9f 90       	pop	r9
    102a:	8f 90       	pop	r8
    102c:	7f 90       	pop	r7
    102e:	6f 90       	pop	r6
    1030:	5f 90       	pop	r5
    1032:	4f 90       	pop	r4
    1034:	3f 90       	pop	r3
    1036:	2f 90       	pop	r2
    1038:	08 95       	ret

0000103a <GlcdP__Glcd__fill.constprop.47>:
    103a:	cf 93       	push	r28
    103c:	df 93       	push	r29
    103e:	c0 e0       	ldi	r28, 0x00	; 0
    1040:	6c 2f       	mov	r22, r28
    1042:	80 e0       	ldi	r24, 0x00	; 0
    1044:	0e 94 66 07 	call	0xecc	; 0xecc <GlcdP__setAddress>
    1048:	6c 2f       	mov	r22, r28
    104a:	80 e4       	ldi	r24, 0x40	; 64
    104c:	0e 94 66 07 	call	0xecc	; 0xecc <GlcdP__setAddress>
    1050:	d0 e0       	ldi	r29, 0x00	; 0
    1052:	60 e0       	ldi	r22, 0x00	; 0
    1054:	80 e0       	ldi	r24, 0x00	; 0
    1056:	0e 94 2e 07 	call	0xe5c	; 0xe5c <HplKS0108P__HplKS0108__dataWrite>
    105a:	60 e0       	ldi	r22, 0x00	; 0
    105c:	81 e0       	ldi	r24, 0x01	; 1
    105e:	0e 94 2e 07 	call	0xe5c	; 0xe5c <HplKS0108P__HplKS0108__dataWrite>
    1062:	df 5f       	subi	r29, 0xFF	; 255
    1064:	d0 38       	cpi	r29, 0x80	; 128
    1066:	a9 f7       	brne	.-22     	; 0x1052 <GlcdP__Glcd__fill.constprop.47+0x18>
    1068:	cf 5f       	subi	r28, 0xFF	; 255
    106a:	c8 30       	cpi	r28, 0x08	; 8
    106c:	49 f7       	brne	.-46     	; 0x1040 <GlcdP__Glcd__fill.constprop.47+0x6>
    106e:	80 e0       	ldi	r24, 0x00	; 0
    1070:	df 91       	pop	r29
    1072:	cf 91       	pop	r28
    1074:	08 95       	ret

00001076 <SchedulerBasicP__TaskBasic__runTask>:
    1076:	8f 92       	push	r8
    1078:	9f 92       	push	r9
    107a:	af 92       	push	r10
    107c:	bf 92       	push	r11
    107e:	cf 92       	push	r12
    1080:	df 92       	push	r13
    1082:	ef 92       	push	r14
    1084:	ff 92       	push	r15
    1086:	0f 93       	push	r16
    1088:	1f 93       	push	r17
    108a:	cf 93       	push	r28
    108c:	df 93       	push	r29
    108e:	00 d0       	rcall	.+0      	; 0x1090 <SchedulerBasicP__TaskBasic__runTask+0x1a>
    1090:	00 d0       	rcall	.+0      	; 0x1092 <SchedulerBasicP__TaskBasic__runTask+0x1c>
    1092:	1f 92       	push	r1
    1094:	cd b7       	in	r28, 0x3d	; 61
    1096:	de b7       	in	r29, 0x3e	; 62
    1098:	90 e0       	ldi	r25, 0x00	; 0
    109a:	8f 30       	cpi	r24, 0x0F	; 15
    109c:	91 05       	cpc	r25, r1
    109e:	08 f0       	brcs	.+2      	; 0x10a2 <SchedulerBasicP__TaskBasic__runTask+0x2c>
    10a0:	2d c5       	rjmp	.+2650   	; 0x1afc <SchedulerBasicP__TaskBasic__runTask+0xa86>
    10a2:	fc 01       	movw	r30, r24
    10a4:	ee 58       	subi	r30, 0x8E	; 142
    10a6:	ff 4f       	sbci	r31, 0xFF	; 255
    10a8:	0c 94 64 11 	jmp	0x22c8	; 0x22c8 <__tablejump2__>
    10ac:	8f b7       	in	r24, 0x3f	; 63
    10ae:	f8 94       	cli
    10b0:	10 91 d3 02 	lds	r17, 0x02D3
    10b4:	8f bf       	out	0x3f, r24	; 63
    10b6:	0e 94 1d 08 	call	0x103a	; 0x103a <GlcdP__Glcd__fill.constprop.47>
    10ba:	6a e0       	ldi	r22, 0x0A	; 10
    10bc:	8d e0       	ldi	r24, 0x0D	; 13
    10be:	92 e0       	ldi	r25, 0x02	; 2
    10c0:	0e 94 7f 07 	call	0xefe	; 0xefe <GlcdP__Glcd__drawText.constprop.51>
    10c4:	81 2f       	mov	r24, r17
    10c6:	99 27       	eor	r25, r25
    10c8:	87 fd       	sbrc	r24, 7
    10ca:	90 95       	com	r25
    10cc:	c0 97       	sbiw	r24, 0x30	; 48
    10ce:	0a 97       	sbiw	r24, 0x0a	; 10
    10d0:	a0 f4       	brcc	.+40     	; 0x10fa <SchedulerBasicP__TaskBasic__runTask+0x84>
    10d2:	9f b7       	in	r25, 0x3f	; 63
    10d4:	f8 94       	cli
    10d6:	80 91 89 02 	lds	r24, 0x0289
    10da:	9f bf       	out	0x3f, r25	; 63
    10dc:	84 30       	cpi	r24, 0x04	; 4
    10de:	68 f4       	brcc	.+26     	; 0x10fa <SchedulerBasicP__TaskBasic__runTask+0x84>
    10e0:	9f b7       	in	r25, 0x3f	; 63
    10e2:	f8 94       	cli
    10e4:	80 91 89 02 	lds	r24, 0x0289
    10e8:	e8 2f       	mov	r30, r24
    10ea:	f0 e0       	ldi	r31, 0x00	; 0
    10ec:	e7 57       	subi	r30, 0x77	; 119
    10ee:	fd 4f       	sbci	r31, 0xFD	; 253
    10f0:	11 83       	std	Z+1, r17	; 0x01
    10f2:	8f 5f       	subi	r24, 0xFF	; 255
    10f4:	80 93 89 02 	sts	0x0289, r24
    10f8:	9f bf       	out	0x3f, r25	; 63
    10fa:	9f b7       	in	r25, 0x3f	; 63
    10fc:	f8 94       	cli
    10fe:	85 e0       	ldi	r24, 0x05	; 5
    1100:	ea e8       	ldi	r30, 0x8A	; 138
    1102:	f2 e0       	ldi	r31, 0x02	; 2
    1104:	de 01       	movw	r26, r28
    1106:	11 96       	adiw	r26, 0x01	; 1
    1108:	01 90       	ld	r0, Z+
    110a:	0d 92       	st	X+, r0
    110c:	8a 95       	dec	r24
    110e:	e1 f7       	brne	.-8      	; 0x1108 <SchedulerBasicP__TaskBasic__runTask+0x92>
    1110:	9f bf       	out	0x3f, r25	; 63
    1112:	64 e1       	ldi	r22, 0x14	; 20
    1114:	ce 01       	movw	r24, r28
    1116:	01 96       	adiw	r24, 0x01	; 1
    1118:	0e 94 7f 07 	call	0xefe	; 0xefe <GlcdP__Glcd__drawText.constprop.51>
    111c:	17 36       	cpi	r17, 0x67	; 103
    111e:	09 f0       	breq	.+2      	; 0x1122 <SchedulerBasicP__TaskBasic__runTask+0xac>
    1120:	ed c4       	rjmp	.+2522   	; 0x1afc <SchedulerBasicP__TaskBasic__runTask+0xa86>
    1122:	4a e0       	ldi	r20, 0x0A	; 10
    1124:	50 e0       	ldi	r21, 0x00	; 0
    1126:	60 e0       	ldi	r22, 0x00	; 0
    1128:	70 e0       	ldi	r23, 0x00	; 0
    112a:	ce 01       	movw	r24, r28
    112c:	01 96       	adiw	r24, 0x01	; 1
    112e:	0e 94 6a 11 	call	0x22d4	; 0x22d4 <strtoul>
    1132:	2f b7       	in	r18, 0x3f	; 63
    1134:	f8 94       	cli
    1136:	41 e0       	ldi	r20, 0x01	; 1
    1138:	50 e0       	ldi	r21, 0x00	; 0
    113a:	50 93 2d 03 	sts	0x032D, r21
    113e:	40 93 2c 03 	sts	0x032C, r20
    1142:	2f bf       	out	0x3f, r18	; 63
    1144:	4f b7       	in	r20, 0x3f	; 63
    1146:	f8 94       	cli
    1148:	20 91 18 03 	lds	r18, 0x0318
    114c:	30 91 19 03 	lds	r19, 0x0319
    1150:	4f bf       	out	0x3f, r20	; 63
    1152:	23 2b       	or	r18, r19
    1154:	09 f0       	breq	.+2      	; 0x1158 <SchedulerBasicP__TaskBasic__runTask+0xe2>
    1156:	d2 c4       	rjmp	.+2468   	; 0x1afc <SchedulerBasicP__TaskBasic__runTask+0xa86>
    1158:	9b 01       	movw	r18, r22
    115a:	2b 56       	subi	r18, 0x6B	; 107
    115c:	33 40       	sbci	r19, 0x03	; 3
    115e:	2e 3c       	cpi	r18, 0xCE	; 206
    1160:	31 05       	cpc	r19, r1
    1162:	08 f0       	brcs	.+2      	; 0x1166 <SchedulerBasicP__TaskBasic__runTask+0xf0>
    1164:	cb c4       	rjmp	.+2454   	; 0x1afc <SchedulerBasicP__TaskBasic__runTask+0xa86>
    1166:	2f b7       	in	r18, 0x3f	; 63
    1168:	f8 94       	cli
    116a:	42 e0       	ldi	r20, 0x02	; 2
    116c:	50 e0       	ldi	r21, 0x00	; 0
    116e:	50 93 19 03 	sts	0x0319, r21
    1172:	40 93 18 03 	sts	0x0318, r20
    1176:	10 92 23 03 	sts	0x0323, r1
    117a:	10 92 22 03 	sts	0x0322, r1
    117e:	70 93 30 03 	sts	0x0330, r23
    1182:	60 93 2f 03 	sts	0x032F, r22
    1186:	2f bf       	out	0x3f, r18	; 63
    1188:	2a c2       	rjmp	.+1108   	; 0x15de <SchedulerBasicP__TaskBasic__runTask+0x568>
    118a:	9f b7       	in	r25, 0x3f	; 63
    118c:	f8 94       	cli
    118e:	80 91 d3 02 	lds	r24, 0x02D3
    1192:	20 91 2c 03 	lds	r18, 0x032C
    1196:	30 91 2d 03 	lds	r19, 0x032D
    119a:	9f bf       	out	0x3f, r25	; 63
    119c:	40 91 2c 03 	lds	r20, 0x032C
    11a0:	50 91 2d 03 	lds	r21, 0x032D
    11a4:	41 30       	cpi	r20, 0x01	; 1
    11a6:	51 05       	cpc	r21, r1
    11a8:	49 f5       	brne	.+82     	; 0x11fc <SchedulerBasicP__TaskBasic__runTask+0x186>
    11aa:	88 36       	cpi	r24, 0x68	; 104
    11ac:	f9 f0       	breq	.+62     	; 0x11ec <SchedulerBasicP__TaskBasic__runTask+0x176>
    11ae:	34 f4       	brge	.+12     	; 0x11bc <SchedulerBasicP__TaskBasic__runTask+0x146>
    11b0:	82 36       	cpi	r24, 0x62	; 98
    11b2:	09 f0       	breq	.+2      	; 0x11b6 <SchedulerBasicP__TaskBasic__runTask+0x140>
    11b4:	a3 c4       	rjmp	.+2374   	; 0x1afc <SchedulerBasicP__TaskBasic__runTask+0xa86>
    11b6:	82 e0       	ldi	r24, 0x02	; 2
    11b8:	90 e0       	ldi	r25, 0x00	; 0
    11ba:	1a c0       	rjmp	.+52     	; 0x11f0 <SchedulerBasicP__TaskBasic__runTask+0x17a>
    11bc:	8c 36       	cpi	r24, 0x6C	; 108
    11be:	d9 f0       	breq	.+54     	; 0x11f6 <SchedulerBasicP__TaskBasic__runTask+0x180>
    11c0:	84 37       	cpi	r24, 0x74	; 116
    11c2:	09 f0       	breq	.+2      	; 0x11c6 <SchedulerBasicP__TaskBasic__runTask+0x150>
    11c4:	9b c4       	rjmp	.+2358   	; 0x1afc <SchedulerBasicP__TaskBasic__runTask+0xa86>
    11c6:	8f b7       	in	r24, 0x3f	; 63
    11c8:	f8 94       	cli
    11ca:	10 92 89 02 	sts	0x0289, r1
    11ce:	95 e0       	ldi	r25, 0x05	; 5
    11d0:	ea e8       	ldi	r30, 0x8A	; 138
    11d2:	f2 e0       	ldi	r31, 0x02	; 2
    11d4:	df 01       	movw	r26, r30
    11d6:	1d 92       	st	X+, r1
    11d8:	9a 95       	dec	r25
    11da:	e9 f7       	brne	.-6      	; 0x11d6 <SchedulerBasicP__TaskBasic__runTask+0x160>
    11dc:	22 e0       	ldi	r18, 0x02	; 2
    11de:	30 e0       	ldi	r19, 0x00	; 0
    11e0:	30 93 2d 03 	sts	0x032D, r19
    11e4:	20 93 2c 03 	sts	0x032C, r18
    11e8:	8f bf       	out	0x3f, r24	; 63
    11ea:	0c c0       	rjmp	.+24     	; 0x1204 <SchedulerBasicP__TaskBasic__runTask+0x18e>
    11ec:	81 e0       	ldi	r24, 0x01	; 1
    11ee:	90 e0       	ldi	r25, 0x00	; 0
    11f0:	0e 94 bc 02 	call	0x578	; 0x578 <FMClickP__FMClick__seek>
    11f4:	83 c4       	rjmp	.+2310   	; 0x1afc <SchedulerBasicP__TaskBasic__runTask+0xa86>
    11f6:	80 e0       	ldi	r24, 0x00	; 0
    11f8:	90 e0       	ldi	r25, 0x00	; 0
    11fa:	fa cf       	rjmp	.-12     	; 0x11f0 <SchedulerBasicP__TaskBasic__runTask+0x17a>
    11fc:	22 30       	cpi	r18, 0x02	; 2
    11fe:	31 05       	cpc	r19, r1
    1200:	09 f0       	breq	.+2      	; 0x1204 <SchedulerBasicP__TaskBasic__runTask+0x18e>
    1202:	7c c4       	rjmp	.+2296   	; 0x1afc <SchedulerBasicP__TaskBasic__runTask+0xa86>
    1204:	80 e0       	ldi	r24, 0x00	; 0
    1206:	e5 c0       	rjmp	.+458    	; 0x13d2 <SchedulerBasicP__TaskBasic__runTask+0x35c>
    1208:	0e 94 1d 08 	call	0x103a	; 0x103a <GlcdP__Glcd__fill.constprop.47>
    120c:	6a e0       	ldi	r22, 0x0A	; 10
    120e:	8c e1       	ldi	r24, 0x1C	; 28
    1210:	92 e0       	ldi	r25, 0x02	; 2
    1212:	03 c0       	rjmp	.+6      	; 0x121a <SchedulerBasicP__TaskBasic__runTask+0x1a4>
    1214:	6a e0       	ldi	r22, 0x0A	; 10
    1216:	8f e2       	ldi	r24, 0x2F	; 47
    1218:	92 e0       	ldi	r25, 0x02	; 2
    121a:	0e 94 7f 07 	call	0xefe	; 0xefe <GlcdP__Glcd__drawText.constprop.51>
    121e:	6e c4       	rjmp	.+2268   	; 0x1afc <SchedulerBasicP__TaskBasic__runTask+0xa86>
    1220:	2f b7       	in	r18, 0x3f	; 63
    1222:	f8 94       	cli
    1224:	80 91 d5 02 	lds	r24, 0x02D5
    1228:	90 91 d6 02 	lds	r25, 0x02D6
    122c:	2f bf       	out	0x3f, r18	; 63
    122e:	9f 93       	push	r25
    1230:	8f 93       	push	r24
    1232:	82 e4       	ldi	r24, 0x42	; 66
    1234:	92 e0       	ldi	r25, 0x02	; 2
    1236:	9f 93       	push	r25
    1238:	8f 93       	push	r24
    123a:	8e 01       	movw	r16, r28
    123c:	0f 5f       	subi	r16, 0xFF	; 255
    123e:	1f 4f       	sbci	r17, 0xFF	; 255
    1240:	1f 93       	push	r17
    1242:	0f 93       	push	r16
    1244:	0e 94 b1 12 	call	0x2562	; 0x2562 <sprintf>
    1248:	6a e0       	ldi	r22, 0x0A	; 10
    124a:	85 e4       	ldi	r24, 0x45	; 69
    124c:	92 e0       	ldi	r25, 0x02	; 2
    124e:	17 c0       	rjmp	.+46     	; 0x127e <SchedulerBasicP__TaskBasic__runTask+0x208>
    1250:	2f b7       	in	r18, 0x3f	; 63
    1252:	f8 94       	cli
    1254:	80 91 d5 02 	lds	r24, 0x02D5
    1258:	90 91 d6 02 	lds	r25, 0x02D6
    125c:	2f bf       	out	0x3f, r18	; 63
    125e:	9f 93       	push	r25
    1260:	8f 93       	push	r24
    1262:	82 e4       	ldi	r24, 0x42	; 66
    1264:	92 e0       	ldi	r25, 0x02	; 2
    1266:	9f 93       	push	r25
    1268:	8f 93       	push	r24
    126a:	8e 01       	movw	r16, r28
    126c:	0f 5f       	subi	r16, 0xFF	; 255
    126e:	1f 4f       	sbci	r17, 0xFF	; 255
    1270:	1f 93       	push	r17
    1272:	0f 93       	push	r16
    1274:	0e 94 b1 12 	call	0x2562	; 0x2562 <sprintf>
    1278:	6a e0       	ldi	r22, 0x0A	; 10
    127a:	86 e5       	ldi	r24, 0x56	; 86
    127c:	92 e0       	ldi	r25, 0x02	; 2
    127e:	0e 94 7f 07 	call	0xefe	; 0xefe <GlcdP__Glcd__drawText.constprop.51>
    1282:	68 e2       	ldi	r22, 0x28	; 40
    1284:	c8 01       	movw	r24, r16
    1286:	0e 94 7f 07 	call	0xefe	; 0xefe <GlcdP__Glcd__drawText.constprop.51>
    128a:	0f 90       	pop	r0
    128c:	0f 90       	pop	r0
    128e:	0f 90       	pop	r0
    1290:	0f 90       	pop	r0
    1292:	0f 90       	pop	r0
    1294:	0f 90       	pop	r0
    1296:	32 c4       	rjmp	.+2148   	; 0x1afc <SchedulerBasicP__TaskBasic__runTask+0xa86>
    1298:	2f b7       	in	r18, 0x3f	; 63
    129a:	f8 94       	cli
    129c:	80 91 20 03 	lds	r24, 0x0320
    12a0:	90 91 21 03 	lds	r25, 0x0321
    12a4:	2f bf       	out	0x3f, r18	; 63
    12a6:	00 97       	sbiw	r24, 0x00	; 0
    12a8:	81 f4       	brne	.+32     	; 0x12ca <SchedulerBasicP__TaskBasic__runTask+0x254>
    12aa:	5a 9a       	sbi	0x0b, 2	; 11
    12ac:	68 ee       	ldi	r22, 0xE8	; 232
    12ae:	73 e0       	ldi	r23, 0x03	; 3
    12b0:	80 e0       	ldi	r24, 0x00	; 0
    12b2:	90 e0       	ldi	r25, 0x00	; 0
    12b4:	0e 94 b0 03 	call	0x760	; 0x760 <VirtualizeTimerC__0__Timer__startOneShot.constprop.50>
    12b8:	8f b7       	in	r24, 0x3f	; 63
    12ba:	f8 94       	cli
    12bc:	21 e0       	ldi	r18, 0x01	; 1
    12be:	30 e0       	ldi	r19, 0x00	; 0
    12c0:	30 93 21 03 	sts	0x0321, r19
    12c4:	20 93 20 03 	sts	0x0320, r18
    12c8:	57 c2       	rjmp	.+1198   	; 0x1778 <SchedulerBasicP__TaskBasic__runTask+0x702>
    12ca:	81 30       	cpi	r24, 0x01	; 1
    12cc:	91 05       	cpc	r25, r1
    12ce:	29 f4       	brne	.+10     	; 0x12da <SchedulerBasicP__TaskBasic__runTask+0x264>
    12d0:	8f b7       	in	r24, 0x3f	; 63
    12d2:	f8 94       	cli
    12d4:	22 e0       	ldi	r18, 0x02	; 2
    12d6:	30 e0       	ldi	r19, 0x00	; 0
    12d8:	5f c0       	rjmp	.+190    	; 0x1398 <SchedulerBasicP__TaskBasic__runTask+0x322>
    12da:	82 30       	cpi	r24, 0x02	; 2
    12dc:	91 05       	cpc	r25, r1
    12de:	a9 f4       	brne	.+42     	; 0x130a <SchedulerBasicP__TaskBasic__runTask+0x294>
    12e0:	2f b7       	in	r18, 0x3f	; 63
    12e2:	f8 94       	cli
    12e4:	80 91 9e 02 	lds	r24, 0x029E
    12e8:	90 91 9f 02 	lds	r25, 0x029F
    12ec:	90 68       	ori	r25, 0x80	; 128
    12ee:	90 93 9f 02 	sts	0x029F, r25
    12f2:	80 93 9e 02 	sts	0x029E, r24
    12f6:	10 92 af 02 	sts	0x02AF, r1
    12fa:	10 92 ae 02 	sts	0x02AE, r1
    12fe:	8f e0       	ldi	r24, 0x0F	; 15
    1300:	80 93 12 03 	sts	0x0312, r24
    1304:	83 e0       	ldi	r24, 0x03	; 3
    1306:	90 e0       	ldi	r25, 0x00	; 0
    1308:	27 c0       	rjmp	.+78     	; 0x1358 <SchedulerBasicP__TaskBasic__runTask+0x2e2>
    130a:	83 30       	cpi	r24, 0x03	; 3
    130c:	91 05       	cpc	r25, r1
    130e:	71 f4       	brne	.+28     	; 0x132c <SchedulerBasicP__TaskBasic__runTask+0x2b6>
    1310:	8f b7       	in	r24, 0x3f	; 63
    1312:	f8 94       	cli
    1314:	24 e0       	ldi	r18, 0x04	; 4
    1316:	30 e0       	ldi	r19, 0x00	; 0
    1318:	30 93 21 03 	sts	0x0321, r19
    131c:	20 93 20 03 	sts	0x0320, r18
    1320:	8f bf       	out	0x3f, r24	; 63
    1322:	68 e5       	ldi	r22, 0x58	; 88
    1324:	72 e0       	ldi	r23, 0x02	; 2
    1326:	80 e0       	ldi	r24, 0x00	; 0
    1328:	90 e0       	ldi	r25, 0x00	; 0
    132a:	2c c0       	rjmp	.+88     	; 0x1384 <SchedulerBasicP__TaskBasic__runTask+0x30e>
    132c:	84 30       	cpi	r24, 0x04	; 4
    132e:	91 05       	cpc	r25, r1
    1330:	c9 f4       	brne	.+50     	; 0x1364 <SchedulerBasicP__TaskBasic__runTask+0x2ee>
    1332:	2f b7       	in	r18, 0x3f	; 63
    1334:	f8 94       	cli
    1336:	80 91 94 02 	lds	r24, 0x0294
    133a:	90 91 95 02 	lds	r25, 0x0295
    133e:	8e 7b       	andi	r24, 0xBE	; 190
    1340:	9f 7b       	andi	r25, 0xBF	; 191
    1342:	81 60       	ori	r24, 0x01	; 1
    1344:	90 64       	ori	r25, 0x40	; 64
    1346:	90 93 95 02 	sts	0x0295, r25
    134a:	80 93 94 02 	sts	0x0294, r24
    134e:	82 e0       	ldi	r24, 0x02	; 2
    1350:	80 93 12 03 	sts	0x0312, r24
    1354:	85 e0       	ldi	r24, 0x05	; 5
    1356:	90 e0       	ldi	r25, 0x00	; 0
    1358:	90 93 21 03 	sts	0x0321, r25
    135c:	80 93 20 03 	sts	0x0320, r24
    1360:	2f bf       	out	0x3f, r18	; 63
    1362:	b6 c3       	rjmp	.+1900   	; 0x1ad0 <SchedulerBasicP__TaskBasic__runTask+0xa5a>
    1364:	85 30       	cpi	r24, 0x05	; 5
    1366:	91 05       	cpc	r25, r1
    1368:	81 f4       	brne	.+32     	; 0x138a <SchedulerBasicP__TaskBasic__runTask+0x314>
    136a:	8f b7       	in	r24, 0x3f	; 63
    136c:	f8 94       	cli
    136e:	26 e0       	ldi	r18, 0x06	; 6
    1370:	30 e0       	ldi	r19, 0x00	; 0
    1372:	30 93 21 03 	sts	0x0321, r19
    1376:	20 93 20 03 	sts	0x0320, r18
    137a:	8f bf       	out	0x3f, r24	; 63
    137c:	66 e9       	ldi	r22, 0x96	; 150
    137e:	70 e0       	ldi	r23, 0x00	; 0
    1380:	80 e0       	ldi	r24, 0x00	; 0
    1382:	90 e0       	ldi	r25, 0x00	; 0
    1384:	0e 94 b0 03 	call	0x760	; 0x760 <VirtualizeTimerC__0__Timer__startOneShot.constprop.50>
    1388:	b9 c3       	rjmp	.+1906   	; 0x1afc <SchedulerBasicP__TaskBasic__runTask+0xa86>
    138a:	86 30       	cpi	r24, 0x06	; 6
    138c:	91 05       	cpc	r25, r1
    138e:	61 f4       	brne	.+24     	; 0x13a8 <SchedulerBasicP__TaskBasic__runTask+0x332>
    1390:	8f b7       	in	r24, 0x3f	; 63
    1392:	f8 94       	cli
    1394:	27 e0       	ldi	r18, 0x07	; 7
    1396:	30 e0       	ldi	r19, 0x00	; 0
    1398:	30 93 21 03 	sts	0x0321, r19
    139c:	20 93 20 03 	sts	0x0320, r18
    13a0:	8f bf       	out	0x3f, r24	; 63
    13a2:	0e 94 4d 03 	call	0x69a	; 0x69a <FMClickP__readRegisters>
    13a6:	aa c3       	rjmp	.+1876   	; 0x1afc <SchedulerBasicP__TaskBasic__runTask+0xa86>
    13a8:	87 30       	cpi	r24, 0x07	; 7
    13aa:	91 05       	cpc	r25, r1
    13ac:	d1 f5       	brne	.+116    	; 0x1422 <SchedulerBasicP__TaskBasic__runTask+0x3ac>
    13ae:	2f b7       	in	r18, 0x3f	; 63
    13b0:	f8 94       	cli
    13b2:	80 91 92 02 	lds	r24, 0x0292
    13b6:	90 91 93 02 	lds	r25, 0x0293
    13ba:	2f bf       	out	0x3f, r18	; 63
    13bc:	83 35       	cpi	r24, 0x53	; 83
    13be:	92 41       	sbci	r25, 0x12	; 18
    13c0:	59 f0       	breq	.+22     	; 0x13d8 <SchedulerBasicP__TaskBasic__runTask+0x362>
    13c2:	8f b7       	in	r24, 0x3f	; 63
    13c4:	f8 94       	cli
    13c6:	10 92 19 03 	sts	0x0319, r1
    13ca:	10 92 18 03 	sts	0x0318, r1
    13ce:	8f bf       	out	0x3f, r24	; 63
    13d0:	83 e0       	ldi	r24, 0x03	; 3
    13d2:	0e 94 38 02 	call	0x470	; 0x470 <SchedulerBasicP__TaskBasic__postTask>
    13d6:	92 c3       	rjmp	.+1828   	; 0x1afc <SchedulerBasicP__TaskBasic__runTask+0xa86>
    13d8:	2f b7       	in	r18, 0x3f	; 63
    13da:	f8 94       	cli
    13dc:	80 91 98 02 	lds	r24, 0x0298
    13e0:	90 91 99 02 	lds	r25, 0x0299
    13e4:	83 73       	andi	r24, 0x33	; 51
    13e6:	97 7b       	andi	r25, 0xB7	; 183
    13e8:	84 60       	ori	r24, 0x04	; 4
    13ea:	98 64       	ori	r25, 0x48	; 72
    13ec:	90 93 99 02 	sts	0x0299, r25
    13f0:	80 93 98 02 	sts	0x0298, r24
    13f4:	80 e1       	ldi	r24, 0x10	; 16
    13f6:	99 e1       	ldi	r25, 0x19	; 25
    13f8:	90 93 9b 02 	sts	0x029B, r25
    13fc:	80 93 9a 02 	sts	0x029A, r24
    1400:	80 91 9c 02 	lds	r24, 0x029C
    1404:	90 91 9d 02 	lds	r25, 0x029D
    1408:	88 27       	eor	r24, r24
    140a:	9e 7f       	andi	r25, 0xFE	; 254
    140c:	8f 64       	ori	r24, 0x4F	; 79
    140e:	90 93 9d 02 	sts	0x029D, r25
    1412:	80 93 9c 02 	sts	0x029C, r24
    1416:	86 e0       	ldi	r24, 0x06	; 6
    1418:	80 93 12 03 	sts	0x0312, r24
    141c:	88 e0       	ldi	r24, 0x08	; 8
    141e:	90 e0       	ldi	r25, 0x00	; 0
    1420:	9b cf       	rjmp	.-202    	; 0x1358 <SchedulerBasicP__TaskBasic__runTask+0x2e2>
    1422:	08 97       	sbiw	r24, 0x08	; 8
    1424:	09 f0       	breq	.+2      	; 0x1428 <SchedulerBasicP__TaskBasic__runTask+0x3b2>
    1426:	6a c3       	rjmp	.+1748   	; 0x1afc <SchedulerBasicP__TaskBasic__runTask+0xa86>
    1428:	8f b7       	in	r24, 0x3f	; 63
    142a:	f8 94       	cli
    142c:	10 92 19 03 	sts	0x0319, r1
    1430:	10 92 18 03 	sts	0x0318, r1
    1434:	8f bf       	out	0x3f, r24	; 63
    1436:	0e 94 81 02 	call	0x502	; 0x502 <Atm1280AlarmSyncP__0__Counter__get>
    143a:	60 93 e1 02 	sts	0x02E1, r22
    143e:	70 93 e2 02 	sts	0x02E2, r23
    1442:	80 93 e3 02 	sts	0x02E3, r24
    1446:	90 93 e4 02 	sts	0x02E4, r25
    144a:	8c e2       	ldi	r24, 0x2C	; 44
    144c:	91 e0       	ldi	r25, 0x01	; 1
    144e:	a0 e0       	ldi	r26, 0x00	; 0
    1450:	b0 e0       	ldi	r27, 0x00	; 0
    1452:	80 93 e5 02 	sts	0x02E5, r24
    1456:	90 93 e6 02 	sts	0x02E6, r25
    145a:	a0 93 e7 02 	sts	0x02E7, r26
    145e:	b0 93 e8 02 	sts	0x02E8, r27
    1462:	80 91 e9 02 	lds	r24, 0x02E9
    1466:	8e 7f       	andi	r24, 0xFE	; 254
    1468:	82 60       	ori	r24, 0x02	; 2
    146a:	80 93 e9 02 	sts	0x02E9, r24
    146e:	8c e0       	ldi	r24, 0x0C	; 12
    1470:	0e 94 38 02 	call	0x470	; 0x470 <SchedulerBasicP__TaskBasic__postTask>
    1474:	8f b7       	in	r24, 0x3f	; 63
    1476:	f8 94       	cli
    1478:	21 e0       	ldi	r18, 0x01	; 1
    147a:	30 e0       	ldi	r19, 0x00	; 0
    147c:	30 93 2d 03 	sts	0x032D, r19
    1480:	20 93 2c 03 	sts	0x032C, r18
    1484:	8f bf       	out	0x3f, r24	; 63
    1486:	82 e0       	ldi	r24, 0x02	; 2
    1488:	a4 cf       	rjmp	.-184    	; 0x13d2 <SchedulerBasicP__TaskBasic__runTask+0x35c>
    148a:	2f b7       	in	r18, 0x3f	; 63
    148c:	f8 94       	cli
    148e:	80 91 22 03 	lds	r24, 0x0322
    1492:	90 91 23 03 	lds	r25, 0x0323
    1496:	2f bf       	out	0x3f, r18	; 63
    1498:	00 97       	sbiw	r24, 0x00	; 0
    149a:	c9 f4       	brne	.+50     	; 0x14ce <SchedulerBasicP__TaskBasic__runTask+0x458>
    149c:	6e e1       	ldi	r22, 0x1E	; 30
    149e:	83 e6       	ldi	r24, 0x63	; 99
    14a0:	92 e0       	ldi	r25, 0x02	; 2
    14a2:	0e 94 7f 07 	call	0xefe	; 0xefe <GlcdP__Glcd__drawText.constprop.51>
    14a6:	2f b7       	in	r18, 0x3f	; 63
    14a8:	f8 94       	cli
    14aa:	80 91 2f 03 	lds	r24, 0x032F
    14ae:	90 91 30 03 	lds	r25, 0x0330
    14b2:	8b 56       	subi	r24, 0x6B	; 107
    14b4:	93 40       	sbci	r25, 0x03	; 3
    14b6:	93 70       	andi	r25, 0x03	; 3
    14b8:	90 68       	ori	r25, 0x80	; 128
    14ba:	90 93 97 02 	sts	0x0297, r25
    14be:	80 93 96 02 	sts	0x0296, r24
    14c2:	83 e0       	ldi	r24, 0x03	; 3
    14c4:	80 93 12 03 	sts	0x0312, r24
    14c8:	81 e0       	ldi	r24, 0x01	; 1
    14ca:	90 e0       	ldi	r25, 0x00	; 0
    14cc:	41 c0       	rjmp	.+130    	; 0x1550 <SchedulerBasicP__TaskBasic__runTask+0x4da>
    14ce:	81 30       	cpi	r24, 0x01	; 1
    14d0:	91 05       	cpc	r25, r1
    14d2:	71 f4       	brne	.+28     	; 0x14f0 <SchedulerBasicP__TaskBasic__runTask+0x47a>
    14d4:	6e e1       	ldi	r22, 0x1E	; 30
    14d6:	85 e6       	ldi	r24, 0x65	; 101
    14d8:	92 e0       	ldi	r25, 0x02	; 2
    14da:	0e 94 7f 07 	call	0xefe	; 0xefe <GlcdP__Glcd__drawText.constprop.51>
    14de:	8f b7       	in	r24, 0x3f	; 63
    14e0:	f8 94       	cli
    14e2:	22 e0       	ldi	r18, 0x02	; 2
    14e4:	30 e0       	ldi	r19, 0x00	; 0
    14e6:	30 93 23 03 	sts	0x0323, r19
    14ea:	20 93 22 03 	sts	0x0322, r18
    14ee:	ce c0       	rjmp	.+412    	; 0x168c <SchedulerBasicP__TaskBasic__runTask+0x616>
    14f0:	82 30       	cpi	r24, 0x02	; 2
    14f2:	91 05       	cpc	r25, r1
    14f4:	51 f4       	brne	.+20     	; 0x150a <SchedulerBasicP__TaskBasic__runTask+0x494>
    14f6:	6e e1       	ldi	r22, 0x1E	; 30
    14f8:	87 e6       	ldi	r24, 0x67	; 103
    14fa:	92 e0       	ldi	r25, 0x02	; 2
    14fc:	0e 94 7f 07 	call	0xefe	; 0xefe <GlcdP__Glcd__drawText.constprop.51>
    1500:	8f b7       	in	r24, 0x3f	; 63
    1502:	f8 94       	cli
    1504:	23 e0       	ldi	r18, 0x03	; 3
    1506:	30 e0       	ldi	r19, 0x00	; 0
    1508:	34 c0       	rjmp	.+104    	; 0x1572 <SchedulerBasicP__TaskBasic__runTask+0x4fc>
    150a:	83 30       	cpi	r24, 0x03	; 3
    150c:	91 05       	cpc	r25, r1
    150e:	29 f5       	brne	.+74     	; 0x155a <SchedulerBasicP__TaskBasic__runTask+0x4e4>
    1510:	6e e1       	ldi	r22, 0x1E	; 30
    1512:	89 e6       	ldi	r24, 0x69	; 105
    1514:	92 e0       	ldi	r25, 0x02	; 2
    1516:	0e 94 7f 07 	call	0xefe	; 0xefe <GlcdP__Glcd__drawText.constprop.51>
    151a:	2f b7       	in	r18, 0x3f	; 63
    151c:	f8 94       	cli
    151e:	80 91 a6 02 	lds	r24, 0x02A6
    1522:	90 91 a7 02 	lds	r25, 0x02A7
    1526:	93 70       	andi	r25, 0x03	; 3
    1528:	85 59       	subi	r24, 0x95	; 149
    152a:	9c 4f       	sbci	r25, 0xFC	; 252
    152c:	90 93 86 02 	sts	0x0286, r25
    1530:	80 93 85 02 	sts	0x0285, r24
    1534:	80 91 96 02 	lds	r24, 0x0296
    1538:	90 91 97 02 	lds	r25, 0x0297
    153c:	9f 77       	andi	r25, 0x7F	; 127
    153e:	90 93 97 02 	sts	0x0297, r25
    1542:	80 93 96 02 	sts	0x0296, r24
    1546:	83 e0       	ldi	r24, 0x03	; 3
    1548:	80 93 12 03 	sts	0x0312, r24
    154c:	84 e0       	ldi	r24, 0x04	; 4
    154e:	90 e0       	ldi	r25, 0x00	; 0
    1550:	90 93 23 03 	sts	0x0323, r25
    1554:	80 93 22 03 	sts	0x0322, r24
    1558:	03 cf       	rjmp	.-506    	; 0x1360 <SchedulerBasicP__TaskBasic__runTask+0x2ea>
    155a:	84 30       	cpi	r24, 0x04	; 4
    155c:	91 05       	cpc	r25, r1
    155e:	71 f4       	brne	.+28     	; 0x157c <SchedulerBasicP__TaskBasic__runTask+0x506>
    1560:	6e e1       	ldi	r22, 0x1E	; 30
    1562:	8b e6       	ldi	r24, 0x6B	; 107
    1564:	92 e0       	ldi	r25, 0x02	; 2
    1566:	0e 94 7f 07 	call	0xefe	; 0xefe <GlcdP__Glcd__drawText.constprop.51>
    156a:	8f b7       	in	r24, 0x3f	; 63
    156c:	f8 94       	cli
    156e:	25 e0       	ldi	r18, 0x05	; 5
    1570:	30 e0       	ldi	r19, 0x00	; 0
    1572:	30 93 23 03 	sts	0x0323, r19
    1576:	20 93 22 03 	sts	0x0322, r18
    157a:	12 cf       	rjmp	.-476    	; 0x13a0 <SchedulerBasicP__TaskBasic__runTask+0x32a>
    157c:	05 97       	sbiw	r24, 0x05	; 5
    157e:	09 f0       	breq	.+2      	; 0x1582 <SchedulerBasicP__TaskBasic__runTask+0x50c>
    1580:	bd c2       	rjmp	.+1402   	; 0x1afc <SchedulerBasicP__TaskBasic__runTask+0xa86>
    1582:	8f b7       	in	r24, 0x3f	; 63
    1584:	f8 94       	cli
    1586:	00 91 a4 02 	lds	r16, 0x02A4
    158a:	10 91 a5 02 	lds	r17, 0x02A5
    158e:	00 27       	eor	r16, r16
    1590:	10 74       	andi	r17, 0x40	; 64
    1592:	01 2f       	mov	r16, r17
    1594:	11 27       	eor	r17, r17
    1596:	8f bf       	out	0x3f, r24	; 63
    1598:	6e e1       	ldi	r22, 0x1E	; 30
    159a:	8d e6       	ldi	r24, 0x6D	; 109
    159c:	92 e0       	ldi	r25, 0x02	; 2
    159e:	0e 94 7f 07 	call	0xefe	; 0xefe <GlcdP__Glcd__drawText.constprop.51>
    15a2:	8f b7       	in	r24, 0x3f	; 63
    15a4:	01 2b       	or	r16, r17
    15a6:	99 f4       	brne	.+38     	; 0x15ce <SchedulerBasicP__TaskBasic__runTask+0x558>
    15a8:	f8 94       	cli
    15aa:	10 92 19 03 	sts	0x0319, r1
    15ae:	10 92 18 03 	sts	0x0318, r1
    15b2:	8f bf       	out	0x3f, r24	; 63
    15b4:	20 91 85 02 	lds	r18, 0x0285
    15b8:	30 91 86 02 	lds	r19, 0x0286
    15bc:	8f b7       	in	r24, 0x3f	; 63
    15be:	f8 94       	cli
    15c0:	30 93 d6 02 	sts	0x02D6, r19
    15c4:	20 93 d5 02 	sts	0x02D5, r18
    15c8:	8f bf       	out	0x3f, r24	; 63
    15ca:	84 e0       	ldi	r24, 0x04	; 4
    15cc:	02 cf       	rjmp	.-508    	; 0x13d2 <SchedulerBasicP__TaskBasic__runTask+0x35c>
    15ce:	f8 94       	cli
    15d0:	24 e0       	ldi	r18, 0x04	; 4
    15d2:	30 e0       	ldi	r19, 0x00	; 0
    15d4:	30 93 23 03 	sts	0x0323, r19
    15d8:	20 93 22 03 	sts	0x0322, r18
    15dc:	8f bf       	out	0x3f, r24	; 63
    15de:	0e 94 57 02 	call	0x4ae	; 0x4ae <FMClickP__tune__postTask>
    15e2:	8c c2       	rjmp	.+1304   	; 0x1afc <SchedulerBasicP__TaskBasic__runTask+0xa86>
    15e4:	6e e1       	ldi	r22, 0x1E	; 30
    15e6:	8f e6       	ldi	r24, 0x6F	; 111
    15e8:	92 e0       	ldi	r25, 0x02	; 2
    15ea:	0e 94 7f 07 	call	0xefe	; 0xefe <GlcdP__Glcd__drawText.constprop.51>
    15ee:	2f b7       	in	r18, 0x3f	; 63
    15f0:	f8 94       	cli
    15f2:	00 91 d1 02 	lds	r16, 0x02D1
    15f6:	10 91 d2 02 	lds	r17, 0x02D2
    15fa:	80 91 24 03 	lds	r24, 0x0324
    15fe:	90 91 25 03 	lds	r25, 0x0325
    1602:	2f bf       	out	0x3f, r18	; 63
    1604:	00 97       	sbiw	r24, 0x00	; 0
    1606:	b9 f5       	brne	.+110    	; 0x1676 <SchedulerBasicP__TaskBasic__runTask+0x600>
    1608:	2f b7       	in	r18, 0x3f	; 63
    160a:	02 30       	cpi	r16, 0x02	; 2
    160c:	11 05       	cpc	r17, r1
    160e:	61 f4       	brne	.+24     	; 0x1628 <SchedulerBasicP__TaskBasic__runTask+0x5b2>
    1610:	f8 94       	cli
    1612:	80 91 94 02 	lds	r24, 0x0294
    1616:	90 91 95 02 	lds	r25, 0x0295
    161a:	95 60       	ori	r25, 0x05	; 5
    161c:	90 93 95 02 	sts	0x0295, r25
    1620:	80 93 94 02 	sts	0x0294, r24
    1624:	2f bf       	out	0x3f, r18	; 63
    1626:	0f c0       	rjmp	.+30     	; 0x1646 <SchedulerBasicP__TaskBasic__runTask+0x5d0>
    1628:	f8 94       	cli
    162a:	80 91 94 02 	lds	r24, 0x0294
    162e:	90 91 95 02 	lds	r25, 0x0295
    1632:	9a 7f       	andi	r25, 0xFA	; 250
    1634:	91 60       	ori	r25, 0x01	; 1
    1636:	90 93 95 02 	sts	0x0295, r25
    163a:	80 93 94 02 	sts	0x0294, r24
    163e:	2f bf       	out	0x3f, r18	; 63
    1640:	01 2b       	or	r16, r17
    1642:	09 f0       	breq	.+2      	; 0x1646 <SchedulerBasicP__TaskBasic__runTask+0x5d0>
    1644:	53 c2       	rjmp	.+1190   	; 0x1aec <SchedulerBasicP__TaskBasic__runTask+0xa76>
    1646:	2f b7       	in	r18, 0x3f	; 63
    1648:	f8 94       	cli
    164a:	80 91 94 02 	lds	r24, 0x0294
    164e:	90 91 95 02 	lds	r25, 0x0295
    1652:	92 60       	ori	r25, 0x02	; 2
    1654:	90 93 95 02 	sts	0x0295, r25
    1658:	80 93 94 02 	sts	0x0294, r24
    165c:	2f bf       	out	0x3f, r18	; 63
    165e:	8f b7       	in	r24, 0x3f	; 63
    1660:	f8 94       	cli
    1662:	92 e0       	ldi	r25, 0x02	; 2
    1664:	90 93 12 03 	sts	0x0312, r25
    1668:	21 e0       	ldi	r18, 0x01	; 1
    166a:	30 e0       	ldi	r19, 0x00	; 0
    166c:	30 93 25 03 	sts	0x0325, r19
    1670:	20 93 24 03 	sts	0x0324, r18
    1674:	2c c2       	rjmp	.+1112   	; 0x1ace <SchedulerBasicP__TaskBasic__runTask+0xa58>
    1676:	81 30       	cpi	r24, 0x01	; 1
    1678:	91 05       	cpc	r25, r1
    167a:	69 f4       	brne	.+26     	; 0x1696 <SchedulerBasicP__TaskBasic__runTask+0x620>
    167c:	8f b7       	in	r24, 0x3f	; 63
    167e:	f8 94       	cli
    1680:	22 e0       	ldi	r18, 0x02	; 2
    1682:	30 e0       	ldi	r19, 0x00	; 0
    1684:	30 93 25 03 	sts	0x0325, r19
    1688:	20 93 24 03 	sts	0x0324, r18
    168c:	8f bf       	out	0x3f, r24	; 63
    168e:	88 e0       	ldi	r24, 0x08	; 8
    1690:	8c bb       	out	0x1c, r24	; 28
    1692:	eb 9a       	sbi	0x1d, 3	; 29
    1694:	33 c2       	rjmp	.+1126   	; 0x1afc <SchedulerBasicP__TaskBasic__runTask+0xa86>
    1696:	82 30       	cpi	r24, 0x02	; 2
    1698:	91 05       	cpc	r25, r1
    169a:	29 f4       	brne	.+10     	; 0x16a6 <SchedulerBasicP__TaskBasic__runTask+0x630>
    169c:	8f b7       	in	r24, 0x3f	; 63
    169e:	f8 94       	cli
    16a0:	23 e0       	ldi	r18, 0x03	; 3
    16a2:	30 e0       	ldi	r19, 0x00	; 0
    16a4:	32 c0       	rjmp	.+100    	; 0x170a <SchedulerBasicP__TaskBasic__runTask+0x694>
    16a6:	83 30       	cpi	r24, 0x03	; 3
    16a8:	91 05       	cpc	r25, r1
    16aa:	41 f5       	brne	.+80     	; 0x16fc <SchedulerBasicP__TaskBasic__runTask+0x686>
    16ac:	2f b7       	in	r18, 0x3f	; 63
    16ae:	f8 94       	cli
    16b0:	80 91 a4 02 	lds	r24, 0x02A4
    16b4:	90 91 a5 02 	lds	r25, 0x02A5
    16b8:	88 27       	eor	r24, r24
    16ba:	90 72       	andi	r25, 0x20	; 32
    16bc:	90 93 84 02 	sts	0x0284, r25
    16c0:	80 91 a6 02 	lds	r24, 0x02A6
    16c4:	90 91 a7 02 	lds	r25, 0x02A7
    16c8:	93 70       	andi	r25, 0x03	; 3
    16ca:	85 59       	subi	r24, 0x95	; 149
    16cc:	9c 4f       	sbci	r25, 0xFC	; 252
    16ce:	90 93 83 02 	sts	0x0283, r25
    16d2:	80 93 82 02 	sts	0x0282, r24
    16d6:	80 91 94 02 	lds	r24, 0x0294
    16da:	90 91 95 02 	lds	r25, 0x0295
    16de:	9e 7f       	andi	r25, 0xFE	; 254
    16e0:	90 93 95 02 	sts	0x0295, r25
    16e4:	80 93 94 02 	sts	0x0294, r24
    16e8:	82 e0       	ldi	r24, 0x02	; 2
    16ea:	80 93 12 03 	sts	0x0312, r24
    16ee:	84 e0       	ldi	r24, 0x04	; 4
    16f0:	90 e0       	ldi	r25, 0x00	; 0
    16f2:	90 93 25 03 	sts	0x0325, r25
    16f6:	80 93 24 03 	sts	0x0324, r24
    16fa:	32 ce       	rjmp	.-924    	; 0x1360 <SchedulerBasicP__TaskBasic__runTask+0x2ea>
    16fc:	84 30       	cpi	r24, 0x04	; 4
    16fe:	91 05       	cpc	r25, r1
    1700:	49 f4       	brne	.+18     	; 0x1714 <SchedulerBasicP__TaskBasic__runTask+0x69e>
    1702:	8f b7       	in	r24, 0x3f	; 63
    1704:	f8 94       	cli
    1706:	25 e0       	ldi	r18, 0x05	; 5
    1708:	30 e0       	ldi	r19, 0x00	; 0
    170a:	30 93 25 03 	sts	0x0325, r19
    170e:	20 93 24 03 	sts	0x0324, r18
    1712:	46 ce       	rjmp	.-884    	; 0x13a0 <SchedulerBasicP__TaskBasic__runTask+0x32a>
    1714:	05 97       	sbiw	r24, 0x05	; 5
    1716:	09 f0       	breq	.+2      	; 0x171a <SchedulerBasicP__TaskBasic__runTask+0x6a4>
    1718:	f1 c1       	rjmp	.+994    	; 0x1afc <SchedulerBasicP__TaskBasic__runTask+0xa86>
    171a:	2f b7       	in	r18, 0x3f	; 63
    171c:	f8 94       	cli
    171e:	80 91 a4 02 	lds	r24, 0x02A4
    1722:	90 91 a5 02 	lds	r25, 0x02A5
    1726:	88 27       	eor	r24, r24
    1728:	90 74       	andi	r25, 0x40	; 64
    172a:	89 2f       	mov	r24, r25
    172c:	99 27       	eor	r25, r25
    172e:	2f bf       	out	0x3f, r18	; 63
    1730:	89 2b       	or	r24, r25
    1732:	21 f5       	brne	.+72     	; 0x177c <SchedulerBasicP__TaskBasic__runTask+0x706>
    1734:	80 91 84 02 	lds	r24, 0x0284
    1738:	81 11       	cpse	r24, r1
    173a:	18 c0       	rjmp	.+48     	; 0x176c <SchedulerBasicP__TaskBasic__runTask+0x6f6>
    173c:	20 91 82 02 	lds	r18, 0x0282
    1740:	30 91 83 02 	lds	r19, 0x0283
    1744:	8f b7       	in	r24, 0x3f	; 63
    1746:	f8 94       	cli
    1748:	30 93 d6 02 	sts	0x02D6, r19
    174c:	20 93 d5 02 	sts	0x02D5, r18
    1750:	8f bf       	out	0x3f, r24	; 63
    1752:	85 e0       	ldi	r24, 0x05	; 5
    1754:	0e 94 38 02 	call	0x470	; 0x470 <SchedulerBasicP__TaskBasic__postTask>
    1758:	8f b7       	in	r24, 0x3f	; 63
    175a:	02 30       	cpi	r16, 0x02	; 2
    175c:	11 05       	cpc	r17, r1
    175e:	39 f4       	brne	.+14     	; 0x176e <SchedulerBasicP__TaskBasic__runTask+0x6f8>
    1760:	f8 94       	cli
    1762:	10 92 25 03 	sts	0x0325, r1
    1766:	10 92 24 03 	sts	0x0324, r1
    176a:	10 c0       	rjmp	.+32     	; 0x178c <SchedulerBasicP__TaskBasic__runTask+0x716>
    176c:	8f b7       	in	r24, 0x3f	; 63
    176e:	f8 94       	cli
    1770:	10 92 19 03 	sts	0x0319, r1
    1774:	10 92 18 03 	sts	0x0318, r1
    1778:	8f bf       	out	0x3f, r24	; 63
    177a:	c0 c1       	rjmp	.+896    	; 0x1afc <SchedulerBasicP__TaskBasic__runTask+0xa86>
    177c:	8f b7       	in	r24, 0x3f	; 63
    177e:	f8 94       	cli
    1780:	24 e0       	ldi	r18, 0x04	; 4
    1782:	30 e0       	ldi	r19, 0x00	; 0
    1784:	30 93 25 03 	sts	0x0325, r19
    1788:	20 93 24 03 	sts	0x0324, r18
    178c:	8f bf       	out	0x3f, r24	; 63
    178e:	0e 94 5a 02 	call	0x4b4	; 0x4b4 <FMClickP__seek__postTask>
    1792:	b4 c1       	rjmp	.+872    	; 0x1afc <SchedulerBasicP__TaskBasic__runTask+0xa86>
    1794:	8f b7       	in	r24, 0x3f	; 63
    1796:	f8 94       	cli
    1798:	90 91 11 03 	lds	r25, 0x0311
    179c:	90 93 02 02 	sts	0x0202, r25
    17a0:	93 e0       	ldi	r25, 0x03	; 3
    17a2:	90 93 80 02 	sts	0x0280, r25
    17a6:	8f bf       	out	0x3f, r24	; 63
    17a8:	80 91 02 02 	lds	r24, 0x0202
    17ac:	9f b7       	in	r25, 0x3f	; 63
    17ae:	f8 94       	cli
    17b0:	80 93 01 02 	sts	0x0201, r24
    17b4:	9f bf       	out	0x3f, r25	; 63
    17b6:	81 11       	cpse	r24, r1
    17b8:	a1 c1       	rjmp	.+834    	; 0x1afc <SchedulerBasicP__TaskBasic__runTask+0xa86>
    17ba:	2f b7       	in	r18, 0x3f	; 63
    17bc:	f8 94       	cli
    17be:	80 91 1e 03 	lds	r24, 0x031E
    17c2:	90 91 1f 03 	lds	r25, 0x031F
    17c6:	2f bf       	out	0x3f, r18	; 63
    17c8:	81 30       	cpi	r24, 0x01	; 1
    17ca:	91 05       	cpc	r25, r1
    17cc:	09 f4       	brne	.+2      	; 0x17d0 <SchedulerBasicP__TaskBasic__runTask+0x75a>
    17ce:	e9 cd       	rjmp	.-1070   	; 0x13a2 <SchedulerBasicP__TaskBasic__runTask+0x32c>
    17d0:	02 97       	sbiw	r24, 0x02	; 2
    17d2:	09 f4       	brne	.+2      	; 0x17d6 <SchedulerBasicP__TaskBasic__runTask+0x760>
    17d4:	7d c1       	rjmp	.+762    	; 0x1ad0 <SchedulerBasicP__TaskBasic__runTask+0xa5a>
    17d6:	0e 94 1b 04 	call	0x836	; 0x836 <FMClickP__I2CResource__release>
    17da:	90 c1       	rjmp	.+800    	; 0x1afc <SchedulerBasicP__TaskBasic__runTask+0xa86>
    17dc:	1f b7       	in	r17, 0x3f	; 63
    17de:	f8 94       	cli
    17e0:	80 91 7e 02 	lds	r24, 0x027E
    17e4:	88 23       	and	r24, r24
    17e6:	21 f0       	breq	.+8      	; 0x17f0 <SchedulerBasicP__TaskBasic__runTask+0x77a>
    17e8:	81 e0       	ldi	r24, 0x01	; 1
    17ea:	0e 94 b4 04 	call	0x968	; 0x968 <Atm128I2CMasterPacketP__0__readNextByte>
    17ee:	02 c0       	rjmp	.+4      	; 0x17f4 <SchedulerBasicP__TaskBasic__runTask+0x77e>
    17f0:	0e 94 7a 06 	call	0xcf4	; 0xcf4 <Atm128I2CMasterPacketP__0__writeNextByte>
    17f4:	1f bf       	out	0x3f, r17	; 63
    17f6:	82 c1       	rjmp	.+772    	; 0x1afc <SchedulerBasicP__TaskBasic__runTask+0xa86>
    17f8:	80 91 c5 02 	lds	r24, 0x02C5
    17fc:	81 11       	cpse	r24, r1
    17fe:	41 c0       	rjmp	.+130    	; 0x1882 <SchedulerBasicP__TaskBasic__runTask+0x80c>
    1800:	40 91 14 03 	lds	r20, 0x0314
    1804:	50 91 15 03 	lds	r21, 0x0315
    1808:	60 91 16 03 	lds	r22, 0x0316
    180c:	70 91 17 03 	lds	r23, 0x0317
    1810:	2f b7       	in	r18, 0x3f	; 63
    1812:	f8 94       	cli
    1814:	c0 90 ed 02 	lds	r12, 0x02ED
    1818:	d0 90 ee 02 	lds	r13, 0x02EE
    181c:	e0 90 ef 02 	lds	r14, 0x02EF
    1820:	f0 90 f0 02 	lds	r15, 0x02F0
    1824:	80 91 c1 02 	lds	r24, 0x02C1
    1828:	90 91 c2 02 	lds	r25, 0x02C2
    182c:	a0 91 c3 02 	lds	r26, 0x02C3
    1830:	b0 91 c4 02 	lds	r27, 0x02C4
    1834:	8c 0d       	add	r24, r12
    1836:	9d 1d       	adc	r25, r13
    1838:	ae 1d       	adc	r26, r14
    183a:	bf 1d       	adc	r27, r15
    183c:	2f bf       	out	0x3f, r18	; 63
    183e:	40 93 14 03 	sts	0x0314, r20
    1842:	50 93 15 03 	sts	0x0315, r21
    1846:	60 93 16 03 	sts	0x0316, r22
    184a:	70 93 17 03 	sts	0x0317, r23
    184e:	10 92 c5 02 	sts	0x02C5, r1
    1852:	2f b7       	in	r18, 0x3f	; 63
    1854:	f8 94       	cli
    1856:	31 e0       	ldi	r19, 0x01	; 1
    1858:	30 93 88 02 	sts	0x0288, r19
    185c:	80 93 c1 02 	sts	0x02C1, r24
    1860:	90 93 c2 02 	sts	0x02C2, r25
    1864:	a0 93 c3 02 	sts	0x02C3, r26
    1868:	b0 93 c4 02 	sts	0x02C4, r27
    186c:	40 93 ed 02 	sts	0x02ED, r20
    1870:	50 93 ee 02 	sts	0x02EE, r21
    1874:	60 93 ef 02 	sts	0x02EF, r22
    1878:	70 93 f0 02 	sts	0x02F0, r23
    187c:	2f bf       	out	0x3f, r18	; 63
    187e:	0e 94 8d 02 	call	0x51a	; 0x51a <Atm1280AlarmSyncP__0__checkAlarm>
    1882:	0e 94 81 02 	call	0x502	; 0x502 <Atm1280AlarmSyncP__0__Counter__get>
    1886:	68 c0       	rjmp	.+208    	; 0x1958 <SchedulerBasicP__TaskBasic__runTask+0x8e2>
    1888:	0e 94 81 02 	call	0x502	; 0x502 <Atm1280AlarmSyncP__0__Counter__get>
    188c:	2f b7       	in	r18, 0x3f	; 63
    188e:	f8 94       	cli
    1890:	10 92 88 02 	sts	0x0288, r1
    1894:	2f bf       	out	0x3f, r18	; 63
    1896:	20 91 e0 02 	lds	r18, 0x02E0
    189a:	21 ff       	sbrs	r18, 1
    189c:	28 c0       	rjmp	.+80     	; 0x18ee <SchedulerBasicP__TaskBasic__runTask+0x878>
    189e:	00 91 d8 02 	lds	r16, 0x02D8
    18a2:	10 91 d9 02 	lds	r17, 0x02D9
    18a6:	20 91 da 02 	lds	r18, 0x02DA
    18aa:	30 91 db 02 	lds	r19, 0x02DB
    18ae:	6b 01       	movw	r12, r22
    18b0:	7c 01       	movw	r14, r24
    18b2:	c0 1a       	sub	r12, r16
    18b4:	d1 0a       	sbc	r13, r17
    18b6:	e2 0a       	sbc	r14, r18
    18b8:	f3 0a       	sbc	r15, r19
    18ba:	97 01       	movw	r18, r14
    18bc:	86 01       	movw	r16, r12
    18be:	c0 90 dc 02 	lds	r12, 0x02DC
    18c2:	d0 90 dd 02 	lds	r13, 0x02DD
    18c6:	e0 90 de 02 	lds	r14, 0x02DE
    18ca:	f0 90 df 02 	lds	r15, 0x02DF
    18ce:	46 01       	movw	r8, r12
    18d0:	57 01       	movw	r10, r14
    18d2:	80 1a       	sub	r8, r16
    18d4:	91 0a       	sbc	r9, r17
    18d6:	a2 0a       	sbc	r10, r18
    18d8:	b3 0a       	sbc	r11, r19
    18da:	e1 e0       	ldi	r30, 0x01	; 1
    18dc:	2f ef       	ldi	r18, 0xFF	; 255
    18de:	82 16       	cp	r8, r18
    18e0:	92 06       	cpc	r9, r18
    18e2:	a2 06       	cpc	r10, r18
    18e4:	2f e7       	ldi	r18, 0x7F	; 127
    18e6:	b2 06       	cpc	r11, r18
    18e8:	49 f4       	brne	.+18     	; 0x18fc <SchedulerBasicP__TaskBasic__runTask+0x886>
    18ea:	e0 e0       	ldi	r30, 0x00	; 0
    18ec:	07 c0       	rjmp	.+14     	; 0x18fc <SchedulerBasicP__TaskBasic__runTask+0x886>
    18ee:	e0 e0       	ldi	r30, 0x00	; 0
    18f0:	88 24       	eor	r8, r8
    18f2:	8a 94       	dec	r8
    18f4:	98 2c       	mov	r9, r8
    18f6:	a8 2c       	mov	r10, r8
    18f8:	2f e7       	ldi	r18, 0x7F	; 127
    18fa:	b2 2e       	mov	r11, r18
    18fc:	20 91 e9 02 	lds	r18, 0x02E9
    1900:	21 ff       	sbrs	r18, 1
    1902:	22 c0       	rjmp	.+68     	; 0x1948 <SchedulerBasicP__TaskBasic__runTask+0x8d2>
    1904:	00 91 e1 02 	lds	r16, 0x02E1
    1908:	10 91 e2 02 	lds	r17, 0x02E2
    190c:	20 91 e3 02 	lds	r18, 0x02E3
    1910:	30 91 e4 02 	lds	r19, 0x02E4
    1914:	6b 01       	movw	r12, r22
    1916:	7c 01       	movw	r14, r24
    1918:	c0 1a       	sub	r12, r16
    191a:	d1 0a       	sbc	r13, r17
    191c:	e2 0a       	sbc	r14, r18
    191e:	f3 0a       	sbc	r15, r19
    1920:	00 91 e5 02 	lds	r16, 0x02E5
    1924:	10 91 e6 02 	lds	r17, 0x02E6
    1928:	20 91 e7 02 	lds	r18, 0x02E7
    192c:	30 91 e8 02 	lds	r19, 0x02E8
    1930:	0c 19       	sub	r16, r12
    1932:	1d 09       	sbc	r17, r13
    1934:	2e 09       	sbc	r18, r14
    1936:	3f 09       	sbc	r19, r15
    1938:	08 15       	cp	r16, r8
    193a:	19 05       	cpc	r17, r9
    193c:	2a 05       	cpc	r18, r10
    193e:	3b 05       	cpc	r19, r11
    1940:	1c f4       	brge	.+6      	; 0x1948 <SchedulerBasicP__TaskBasic__runTask+0x8d2>
    1942:	48 01       	movw	r8, r16
    1944:	59 01       	movw	r10, r18
    1946:	03 c0       	rjmp	.+6      	; 0x194e <SchedulerBasicP__TaskBasic__runTask+0x8d8>
    1948:	ee 23       	and	r30, r30
    194a:	09 f4       	brne	.+2      	; 0x194e <SchedulerBasicP__TaskBasic__runTask+0x8d8>
    194c:	d7 c0       	rjmp	.+430    	; 0x1afc <SchedulerBasicP__TaskBasic__runTask+0xa86>
    194e:	18 14       	cp	r1, r8
    1950:	19 04       	cpc	r1, r9
    1952:	1a 04       	cpc	r1, r10
    1954:	1b 04       	cpc	r1, r11
    1956:	1c f0       	brlt	.+6      	; 0x195e <SchedulerBasicP__TaskBasic__runTask+0x8e8>
    1958:	0e 94 fe 04 	call	0x9fc	; 0x9fc <VirtualizeTimerC__0__fireTimers>
    195c:	cf c0       	rjmp	.+414    	; 0x1afc <SchedulerBasicP__TaskBasic__runTask+0xa86>
    195e:	80 92 14 03 	sts	0x0314, r8
    1962:	90 92 15 03 	sts	0x0315, r9
    1966:	a0 92 16 03 	sts	0x0316, r10
    196a:	b0 92 17 03 	sts	0x0317, r11
    196e:	21 e0       	ldi	r18, 0x01	; 1
    1970:	20 93 c5 02 	sts	0x02C5, r18
    1974:	3f b7       	in	r19, 0x3f	; 63
    1976:	f8 94       	cli
    1978:	20 93 88 02 	sts	0x0288, r18
    197c:	60 93 c1 02 	sts	0x02C1, r22
    1980:	70 93 c2 02 	sts	0x02C2, r23
    1984:	80 93 c3 02 	sts	0x02C3, r24
    1988:	90 93 c4 02 	sts	0x02C4, r25
    198c:	80 92 ed 02 	sts	0x02ED, r8
    1990:	90 92 ee 02 	sts	0x02EE, r9
    1994:	a0 92 ef 02 	sts	0x02EF, r10
    1998:	b0 92 f0 02 	sts	0x02F0, r11
    199c:	3f bf       	out	0x3f, r19	; 63
    199e:	0e 94 8d 02 	call	0x51a	; 0x51a <Atm1280AlarmSyncP__0__checkAlarm>
    19a2:	ac c0       	rjmp	.+344    	; 0x1afc <SchedulerBasicP__TaskBasic__runTask+0xa86>
    19a4:	8f b7       	in	r24, 0x3f	; 63
    19a6:	f8 94       	cli
    19a8:	90 91 ce 02 	lds	r25, 0x02CE
    19ac:	90 93 00 02 	sts	0x0200, r25
    19b0:	93 e0       	ldi	r25, 0x03	; 3
    19b2:	90 93 7c 02 	sts	0x027C, r25
    19b6:	8f bf       	out	0x3f, r24	; 63
    19b8:	80 91 00 02 	lds	r24, 0x0200
    19bc:	81 11       	cpse	r24, r1
    19be:	01 c0       	rjmp	.+2      	; 0x19c2 <SchedulerBasicP__TaskBasic__runTask+0x94c>
    19c0:	80 98       	cbi	0x10, 0	; 16
    19c2:	80 91 00 02 	lds	r24, 0x0200
    19c6:	81 11       	cpse	r24, r1
    19c8:	99 c0       	rjmp	.+306    	; 0x1afc <SchedulerBasicP__TaskBasic__runTask+0xa86>
    19ca:	81 e0       	ldi	r24, 0x01	; 1
    19cc:	80 93 d4 02 	sts	0x02D4, r24
    19d0:	10 92 2b 03 	sts	0x032B, r1
    19d4:	0e 94 cf 03 	call	0x79e	; 0x79e <AdcP__sample>
    19d8:	91 c0       	rjmp	.+290    	; 0x1afc <SchedulerBasicP__TaskBasic__runTask+0xa86>
    19da:	10 92 d4 02 	sts	0x02D4, r1
    19de:	00 91 eb 02 	lds	r16, 0x02EB
    19e2:	10 91 ec 02 	lds	r17, 0x02EC
    19e6:	80 91 2b 03 	lds	r24, 0x032B
    19ea:	81 11       	cpse	r24, r1
    19ec:	87 c0       	rjmp	.+270    	; 0x1afc <SchedulerBasicP__TaskBasic__runTask+0xa86>
    19ee:	ff b6       	in	r15, 0x3f	; 63
    19f0:	f8 94       	cli
    19f2:	80 91 7c 02 	lds	r24, 0x027C
    19f6:	83 30       	cpi	r24, 0x03	; 3
    19f8:	09 f0       	breq	.+2      	; 0x19fc <SchedulerBasicP__TaskBasic__runTask+0x986>
    19fa:	3e c0       	rjmp	.+124    	; 0x1a78 <SchedulerBasicP__TaskBasic__runTask+0xa02>
    19fc:	80 91 00 02 	lds	r24, 0x0200
    1a00:	81 11       	cpse	r24, r1
    1a02:	3a c0       	rjmp	.+116    	; 0x1a78 <SchedulerBasicP__TaskBasic__runTask+0xa02>
    1a04:	80 91 d7 02 	lds	r24, 0x02D7
    1a08:	88 23       	and	r24, r24
    1a0a:	09 f4       	brne	.+2      	; 0x1a0e <SchedulerBasicP__TaskBasic__runTask+0x998>
    1a0c:	64 c0       	rjmp	.+200    	; 0x1ad6 <SchedulerBasicP__TaskBasic__runTask+0xa60>
    1a0e:	60 91 7d 02 	lds	r22, 0x027D
    1a12:	70 e0       	ldi	r23, 0x00	; 0
    1a14:	cb 01       	movw	r24, r22
    1a16:	01 96       	adiw	r24, 0x01	; 1
    1a18:	a1 e0       	ldi	r26, 0x01	; 1
    1a1a:	b0 e0       	ldi	r27, 0x00	; 0
    1a1c:	81 30       	cpi	r24, 0x01	; 1
    1a1e:	91 05       	cpc	r25, r1
    1a20:	11 f4       	brne	.+4      	; 0x1a26 <SchedulerBasicP__TaskBasic__runTask+0x9b0>
    1a22:	80 e0       	ldi	r24, 0x00	; 0
    1a24:	90 e0       	ldi	r25, 0x00	; 0
    1a26:	e8 2f       	mov	r30, r24
    1a28:	e6 95       	lsr	r30
    1a2a:	e6 95       	lsr	r30
    1a2c:	e6 95       	lsr	r30
    1a2e:	f0 e0       	ldi	r31, 0x00	; 0
    1a30:	e9 52       	subi	r30, 0x29	; 41
    1a32:	fd 4f       	sbci	r31, 0xFD	; 253
    1a34:	20 81       	ld	r18, Z
    1a36:	38 2f       	mov	r19, r24
    1a38:	37 70       	andi	r19, 0x07	; 7
    1a3a:	ad 01       	movw	r20, r26
    1a3c:	01 c0       	rjmp	.+2      	; 0x1a40 <SchedulerBasicP__TaskBasic__runTask+0x9ca>
    1a3e:	44 0f       	add	r20, r20
    1a40:	3a 95       	dec	r19
    1a42:	ea f7       	brpl	.-6      	; 0x1a3e <SchedulerBasicP__TaskBasic__runTask+0x9c8>
    1a44:	32 2f       	mov	r19, r18
    1a46:	34 23       	and	r19, r20
    1a48:	31 f0       	breq	.+12     	; 0x1a56 <SchedulerBasicP__TaskBasic__runTask+0x9e0>
    1a4a:	40 95       	com	r20
    1a4c:	24 23       	and	r18, r20
    1a4e:	20 83       	st	Z, r18
    1a50:	80 93 7d 02 	sts	0x027D, r24
    1a54:	06 c0       	rjmp	.+12     	; 0x1a62 <SchedulerBasicP__TaskBasic__runTask+0x9ec>
    1a56:	86 17       	cp	r24, r22
    1a58:	97 07       	cpc	r25, r23
    1a5a:	11 f0       	breq	.+4      	; 0x1a60 <SchedulerBasicP__TaskBasic__runTask+0x9ea>
    1a5c:	01 96       	adiw	r24, 0x01	; 1
    1a5e:	de cf       	rjmp	.-68     	; 0x1a1c <SchedulerBasicP__TaskBasic__runTask+0x9a6>
    1a60:	8f ef       	ldi	r24, 0xFF	; 255
    1a62:	80 93 ce 02 	sts	0x02CE, r24
    1a66:	8f ef       	ldi	r24, 0xFF	; 255
    1a68:	80 93 00 02 	sts	0x0200, r24
    1a6c:	81 e0       	ldi	r24, 0x01	; 1
    1a6e:	80 93 7c 02 	sts	0x027C, r24
    1a72:	8d e0       	ldi	r24, 0x0D	; 13
    1a74:	0e 94 38 02 	call	0x470	; 0x470 <SchedulerBasicP__TaskBasic__postTask>
    1a78:	ff be       	out	0x3f, r15	; 63
    1a7a:	2f b7       	in	r18, 0x3f	; 63
    1a7c:	f8 94       	cli
    1a7e:	80 91 18 03 	lds	r24, 0x0318
    1a82:	90 91 19 03 	lds	r25, 0x0319
    1a86:	2f bf       	out	0x3f, r18	; 63
    1a88:	89 2b       	or	r24, r25
    1a8a:	c1 f5       	brne	.+112    	; 0x1afc <SchedulerBasicP__TaskBasic__runTask+0xa86>
    1a8c:	8f b7       	in	r24, 0x3f	; 63
    1a8e:	f8 94       	cli
    1a90:	24 e0       	ldi	r18, 0x04	; 4
    1a92:	30 e0       	ldi	r19, 0x00	; 0
    1a94:	30 93 19 03 	sts	0x0319, r19
    1a98:	20 93 18 03 	sts	0x0318, r18
    1a9c:	8f bf       	out	0x3f, r24	; 63
    1a9e:	2f b7       	in	r18, 0x3f	; 63
    1aa0:	f8 94       	cli
    1aa2:	86 e0       	ldi	r24, 0x06	; 6
    1aa4:	16 95       	lsr	r17
    1aa6:	07 95       	ror	r16
    1aa8:	8a 95       	dec	r24
    1aaa:	e1 f7       	brne	.-8      	; 0x1aa4 <SchedulerBasicP__TaskBasic__runTask+0xa2e>
    1aac:	0f 70       	andi	r16, 0x0F	; 15
    1aae:	80 91 9a 02 	lds	r24, 0x029A
    1ab2:	90 91 9b 02 	lds	r25, 0x029B
    1ab6:	80 7f       	andi	r24, 0xF0	; 240
    1ab8:	80 2b       	or	r24, r16
    1aba:	90 93 9b 02 	sts	0x029B, r25
    1abe:	80 93 9a 02 	sts	0x029A, r24
    1ac2:	2f bf       	out	0x3f, r18	; 63
    1ac4:	8f b7       	in	r24, 0x3f	; 63
    1ac6:	f8 94       	cli
    1ac8:	95 e0       	ldi	r25, 0x05	; 5
    1aca:	90 93 12 03 	sts	0x0312, r25
    1ace:	8f bf       	out	0x3f, r24	; 63
    1ad0:	0e 94 b8 05 	call	0xb70	; 0xb70 <FMClickP__writeRegisters>
    1ad4:	13 c0       	rjmp	.+38     	; 0x1afc <SchedulerBasicP__TaskBasic__runTask+0xa86>
    1ad6:	81 e0       	ldi	r24, 0x01	; 1
    1ad8:	80 93 00 02 	sts	0x0200, r24
    1adc:	10 92 7c 02 	sts	0x027C, r1
    1ae0:	80 91 7a 00 	lds	r24, 0x007A
    1ae4:	8f 77       	andi	r24, 0x7F	; 127
    1ae6:	80 93 7a 00 	sts	0x007A, r24
    1aea:	c6 cf       	rjmp	.-116    	; 0x1a78 <SchedulerBasicP__TaskBasic__runTask+0xa02>
    1aec:	2f b7       	in	r18, 0x3f	; 63
    1aee:	f8 94       	cli
    1af0:	80 91 94 02 	lds	r24, 0x0294
    1af4:	90 91 95 02 	lds	r25, 0x0295
    1af8:	9d 7f       	andi	r25, 0xFD	; 253
    1afa:	ac cd       	rjmp	.-1192   	; 0x1654 <SchedulerBasicP__TaskBasic__runTask+0x5de>
    1afc:	0f 90       	pop	r0
    1afe:	0f 90       	pop	r0
    1b00:	0f 90       	pop	r0
    1b02:	0f 90       	pop	r0
    1b04:	0f 90       	pop	r0
    1b06:	df 91       	pop	r29
    1b08:	cf 91       	pop	r28
    1b0a:	1f 91       	pop	r17
    1b0c:	0f 91       	pop	r16
    1b0e:	ff 90       	pop	r15
    1b10:	ef 90       	pop	r14
    1b12:	df 90       	pop	r13
    1b14:	cf 90       	pop	r12
    1b16:	bf 90       	pop	r11
    1b18:	af 90       	pop	r10
    1b1a:	9f 90       	pop	r9
    1b1c:	8f 90       	pop	r8
    1b1e:	08 95       	ret

00001b20 <__nesc_atomic_start>:
    1b20:	8f b7       	in	r24, 0x3f	; 63
    1b22:	f8 94       	cli
    1b24:	08 95       	ret

00001b26 <__nesc_atomic_end>:
    1b26:	8f bf       	out	0x3f, r24	; 63
    1b28:	08 95       	ret

00001b2a <__vector_1>:
    1b2a:	1f 92       	push	r1
    1b2c:	0f 92       	push	r0
    1b2e:	0f b6       	in	r0, 0x3f	; 63
    1b30:	0f 92       	push	r0
    1b32:	11 24       	eor	r1, r1
    1b34:	0f 90       	pop	r0
    1b36:	0f be       	out	0x3f, r0	; 63
    1b38:	0f 90       	pop	r0
    1b3a:	1f 90       	pop	r1
    1b3c:	18 95       	reti

00001b3e <__vector_2>:
    1b3e:	1f 92       	push	r1
    1b40:	0f 92       	push	r0
    1b42:	0f b6       	in	r0, 0x3f	; 63
    1b44:	0f 92       	push	r0
    1b46:	11 24       	eor	r1, r1
    1b48:	0f 90       	pop	r0
    1b4a:	0f be       	out	0x3f, r0	; 63
    1b4c:	0f 90       	pop	r0
    1b4e:	1f 90       	pop	r1
    1b50:	18 95       	reti

00001b52 <__vector_3>:
    1b52:	1f 92       	push	r1
    1b54:	0f 92       	push	r0
    1b56:	0f b6       	in	r0, 0x3f	; 63
    1b58:	0f 92       	push	r0
    1b5a:	11 24       	eor	r1, r1
    1b5c:	0f 90       	pop	r0
    1b5e:	0f be       	out	0x3f, r0	; 63
    1b60:	0f 90       	pop	r0
    1b62:	1f 90       	pop	r1
    1b64:	18 95       	reti

00001b66 <__vector_4>:
    1b66:	1f 92       	push	r1
    1b68:	0f 92       	push	r0
    1b6a:	0f b6       	in	r0, 0x3f	; 63
    1b6c:	0f 92       	push	r0
    1b6e:	11 24       	eor	r1, r1
    1b70:	0b b6       	in	r0, 0x3b	; 59
    1b72:	0f 92       	push	r0
    1b74:	2f 93       	push	r18
    1b76:	3f 93       	push	r19
    1b78:	4f 93       	push	r20
    1b7a:	5f 93       	push	r21
    1b7c:	6f 93       	push	r22
    1b7e:	7f 93       	push	r23
    1b80:	8f 93       	push	r24
    1b82:	9f 93       	push	r25
    1b84:	af 93       	push	r26
    1b86:	bf 93       	push	r27
    1b88:	ef 93       	push	r30
    1b8a:	ff 93       	push	r31
    1b8c:	80 91 18 03 	lds	r24, 0x0318
    1b90:	90 91 19 03 	lds	r25, 0x0319
    1b94:	eb 98       	cbi	0x1d, 3	; 29
    1b96:	82 30       	cpi	r24, 0x02	; 2
    1b98:	91 05       	cpc	r25, r1
    1b9a:	29 f0       	breq	.+10     	; 0x1ba6 <__vector_4+0x40>
    1b9c:	03 97       	sbiw	r24, 0x03	; 3
    1b9e:	29 f4       	brne	.+10     	; 0x1baa <__vector_4+0x44>
    1ba0:	0e 94 5a 02 	call	0x4b4	; 0x4b4 <FMClickP__seek__postTask>
    1ba4:	02 c0       	rjmp	.+4      	; 0x1baa <__vector_4+0x44>
    1ba6:	0e 94 57 02 	call	0x4ae	; 0x4ae <FMClickP__tune__postTask>
    1baa:	ff 91       	pop	r31
    1bac:	ef 91       	pop	r30
    1bae:	bf 91       	pop	r27
    1bb0:	af 91       	pop	r26
    1bb2:	9f 91       	pop	r25
    1bb4:	8f 91       	pop	r24
    1bb6:	7f 91       	pop	r23
    1bb8:	6f 91       	pop	r22
    1bba:	5f 91       	pop	r21
    1bbc:	4f 91       	pop	r20
    1bbe:	3f 91       	pop	r19
    1bc0:	2f 91       	pop	r18
    1bc2:	0f 90       	pop	r0
    1bc4:	0b be       	out	0x3b, r0	; 59
    1bc6:	0f 90       	pop	r0
    1bc8:	0f be       	out	0x3f, r0	; 63
    1bca:	0f 90       	pop	r0
    1bcc:	1f 90       	pop	r1
    1bce:	18 95       	reti

00001bd0 <__vector_5>:
    1bd0:	1f 92       	push	r1
    1bd2:	0f 92       	push	r0
    1bd4:	0f b6       	in	r0, 0x3f	; 63
    1bd6:	0f 92       	push	r0
    1bd8:	11 24       	eor	r1, r1
    1bda:	0f 90       	pop	r0
    1bdc:	0f be       	out	0x3f, r0	; 63
    1bde:	0f 90       	pop	r0
    1be0:	1f 90       	pop	r1
    1be2:	18 95       	reti

00001be4 <__vector_6>:
    1be4:	1f 92       	push	r1
    1be6:	0f 92       	push	r0
    1be8:	0f b6       	in	r0, 0x3f	; 63
    1bea:	0f 92       	push	r0
    1bec:	11 24       	eor	r1, r1
    1bee:	0f 90       	pop	r0
    1bf0:	0f be       	out	0x3f, r0	; 63
    1bf2:	0f 90       	pop	r0
    1bf4:	1f 90       	pop	r1
    1bf6:	18 95       	reti

00001bf8 <__vector_7>:
    1bf8:	1f 92       	push	r1
    1bfa:	0f 92       	push	r0
    1bfc:	0f b6       	in	r0, 0x3f	; 63
    1bfe:	0f 92       	push	r0
    1c00:	11 24       	eor	r1, r1
    1c02:	0f 90       	pop	r0
    1c04:	0f be       	out	0x3f, r0	; 63
    1c06:	0f 90       	pop	r0
    1c08:	1f 90       	pop	r1
    1c0a:	18 95       	reti

00001c0c <__vector_8>:
    1c0c:	1f 92       	push	r1
    1c0e:	0f 92       	push	r0
    1c10:	0f b6       	in	r0, 0x3f	; 63
    1c12:	0f 92       	push	r0
    1c14:	11 24       	eor	r1, r1
    1c16:	0f 90       	pop	r0
    1c18:	0f be       	out	0x3f, r0	; 63
    1c1a:	0f 90       	pop	r0
    1c1c:	1f 90       	pop	r1
    1c1e:	18 95       	reti

00001c20 <__vector_39>:
    1c20:	1f 92       	push	r1
    1c22:	0f 92       	push	r0
    1c24:	0f b6       	in	r0, 0x3f	; 63
    1c26:	0f 92       	push	r0
    1c28:	11 24       	eor	r1, r1
    1c2a:	0b b6       	in	r0, 0x3b	; 59
    1c2c:	0f 92       	push	r0
    1c2e:	2f 93       	push	r18
    1c30:	3f 93       	push	r19
    1c32:	4f 93       	push	r20
    1c34:	5f 93       	push	r21
    1c36:	6f 93       	push	r22
    1c38:	7f 93       	push	r23
    1c3a:	8f 93       	push	r24
    1c3c:	9f 93       	push	r25
    1c3e:	af 93       	push	r26
    1c40:	bf 93       	push	r27
    1c42:	ef 93       	push	r30
    1c44:	ff 93       	push	r31
    1c46:	0e 94 5d 02 	call	0x4ba	; 0x4ba <HplAtm128I2CBusP__I2C__readCurrent>
    1c4a:	80 91 b9 00 	lds	r24, 0x00B9
    1c4e:	98 2f       	mov	r25, r24
    1c50:	98 7f       	andi	r25, 0xF8	; 248
    1c52:	20 91 7f 02 	lds	r18, 0x027F
    1c56:	24 30       	cpi	r18, 0x04	; 4
    1c58:	79 f1       	breq	.+94     	; 0x1cb8 <__vector_39+0x98>
    1c5a:	26 30       	cpi	r18, 0x06	; 6
    1c5c:	21 f0       	breq	.+8      	; 0x1c66 <__vector_39+0x46>
    1c5e:	23 30       	cpi	r18, 0x03	; 3
    1c60:	09 f0       	breq	.+2      	; 0x1c64 <__vector_39+0x44>
    1c62:	4d c0       	rjmp	.+154    	; 0x1cfe <__vector_39+0xde>
    1c64:	13 c0       	rjmp	.+38     	; 0x1c8c <__vector_39+0x6c>
    1c66:	80 91 7e 02 	lds	r24, 0x027E
    1c6a:	81 30       	cpi	r24, 0x01	; 1
    1c6c:	49 f4       	brne	.+18     	; 0x1c80 <__vector_39+0x60>
    1c6e:	90 34       	cpi	r25, 0x40	; 64
    1c70:	29 f4       	brne	.+10     	; 0x1c7c <__vector_39+0x5c>
    1c72:	83 e0       	ldi	r24, 0x03	; 3
    1c74:	80 93 7f 02 	sts	0x027F, r24
    1c78:	81 e0       	ldi	r24, 0x01	; 1
    1c7a:	10 c0       	rjmp	.+32     	; 0x1c9c <__vector_39+0x7c>
    1c7c:	84 e0       	ldi	r24, 0x04	; 4
    1c7e:	16 c0       	rjmp	.+44     	; 0x1cac <__vector_39+0x8c>
    1c80:	98 31       	cpi	r25, 0x18	; 24
    1c82:	e1 f7       	brne	.-8      	; 0x1c7c <__vector_39+0x5c>
    1c84:	83 e0       	ldi	r24, 0x03	; 3
    1c86:	80 93 7f 02 	sts	0x027F, r24
    1c8a:	13 c0       	rjmp	.+38     	; 0x1cb2 <__vector_39+0x92>
    1c8c:	20 91 7e 02 	lds	r18, 0x027E
    1c90:	21 30       	cpi	r18, 0x01	; 1
    1c92:	39 f4       	brne	.+14     	; 0x1ca2 <__vector_39+0x82>
    1c94:	80 7f       	andi	r24, 0xF0	; 240
    1c96:	80 35       	cpi	r24, 0x50	; 80
    1c98:	41 f4       	brne	.+16     	; 0x1caa <__vector_39+0x8a>
    1c9a:	80 e0       	ldi	r24, 0x00	; 0
    1c9c:	0e 94 b4 04 	call	0x968	; 0x968 <Atm128I2CMasterPacketP__0__readNextByte>
    1ca0:	2e c0       	rjmp	.+92     	; 0x1cfe <__vector_39+0xde>
    1ca2:	98 32       	cpi	r25, 0x28	; 40
    1ca4:	31 f0       	breq	.+12     	; 0x1cb2 <__vector_39+0x92>
    1ca6:	90 33       	cpi	r25, 0x30	; 48
    1ca8:	21 f0       	breq	.+8      	; 0x1cb2 <__vector_39+0x92>
    1caa:	81 e0       	ldi	r24, 0x01	; 1
    1cac:	0e 94 a9 06 	call	0xd52	; 0xd52 <Atm128I2CMasterPacketP__0__i2c_abort>
    1cb0:	26 c0       	rjmp	.+76     	; 0x1cfe <__vector_39+0xde>
    1cb2:	0e 94 7a 06 	call	0xcf4	; 0xcf4 <Atm128I2CMasterPacketP__0__writeNextByte>
    1cb6:	23 c0       	rjmp	.+70     	; 0x1cfe <__vector_39+0xde>
    1cb8:	80 91 32 03 	lds	r24, 0x0332
    1cbc:	8e 7f       	andi	r24, 0xFE	; 254
    1cbe:	80 93 32 03 	sts	0x0332, r24
    1cc2:	80 91 ea 02 	lds	r24, 0x02EA
    1cc6:	8f 7d       	andi	r24, 0xDF	; 223
    1cc8:	98 30       	cpi	r25, 0x08	; 8
    1cca:	29 f0       	breq	.+10     	; 0x1cd6 <__vector_39+0xb6>
    1ccc:	90 31       	cpi	r25, 0x10	; 16
    1cce:	19 f0       	breq	.+6      	; 0x1cd6 <__vector_39+0xb6>
    1cd0:	80 93 ea 02 	sts	0x02EA, r24
    1cd4:	ea cf       	rjmp	.-44     	; 0x1caa <__vector_39+0x8a>
    1cd6:	80 64       	ori	r24, 0x40	; 64
    1cd8:	80 93 ea 02 	sts	0x02EA, r24
    1cdc:	91 e0       	ldi	r25, 0x01	; 1
    1cde:	80 91 7e 02 	lds	r24, 0x027E
    1ce2:	81 30       	cpi	r24, 0x01	; 1
    1ce4:	09 f0       	breq	.+2      	; 0x1ce8 <__vector_39+0xc8>
    1ce6:	90 e0       	ldi	r25, 0x00	; 0
    1ce8:	80 91 cf 02 	lds	r24, 0x02CF
    1cec:	88 0f       	add	r24, r24
    1cee:	89 2b       	or	r24, r25
    1cf0:	80 93 bb 00 	sts	0x00BB, r24
    1cf4:	86 e0       	ldi	r24, 0x06	; 6
    1cf6:	80 93 7f 02 	sts	0x027F, r24
    1cfa:	0e 94 1d 02 	call	0x43a	; 0x43a <HplAtm128I2CBusP__I2C__sendCommand>
    1cfe:	ff 91       	pop	r31
    1d00:	ef 91       	pop	r30
    1d02:	bf 91       	pop	r27
    1d04:	af 91       	pop	r26
    1d06:	9f 91       	pop	r25
    1d08:	8f 91       	pop	r24
    1d0a:	7f 91       	pop	r23
    1d0c:	6f 91       	pop	r22
    1d0e:	5f 91       	pop	r21
    1d10:	4f 91       	pop	r20
    1d12:	3f 91       	pop	r19
    1d14:	2f 91       	pop	r18
    1d16:	0f 90       	pop	r0
    1d18:	0b be       	out	0x3b, r0	; 59
    1d1a:	0f 90       	pop	r0
    1d1c:	0f be       	out	0x3f, r0	; 63
    1d1e:	0f 90       	pop	r0
    1d20:	1f 90       	pop	r1
    1d22:	18 95       	reti

00001d24 <__vector_13>:
    1d24:	1f 92       	push	r1
    1d26:	0f 92       	push	r0
    1d28:	0f b6       	in	r0, 0x3f	; 63
    1d2a:	0f 92       	push	r0
    1d2c:	11 24       	eor	r1, r1
    1d2e:	0b b6       	in	r0, 0x3b	; 59
    1d30:	0f 92       	push	r0
    1d32:	2f 93       	push	r18
    1d34:	3f 93       	push	r19
    1d36:	4f 93       	push	r20
    1d38:	5f 93       	push	r21
    1d3a:	6f 93       	push	r22
    1d3c:	7f 93       	push	r23
    1d3e:	8f 93       	push	r24
    1d40:	9f 93       	push	r25
    1d42:	af 93       	push	r26
    1d44:	bf 93       	push	r27
    1d46:	ef 93       	push	r30
    1d48:	ff 93       	push	r31
    1d4a:	2f b7       	in	r18, 0x3f	; 63
    1d4c:	f8 94       	cli
    1d4e:	80 91 ca 02 	lds	r24, 0x02CA
    1d52:	90 91 cb 02 	lds	r25, 0x02CB
    1d56:	a0 91 cc 02 	lds	r26, 0x02CC
    1d5a:	b0 91 cd 02 	lds	r27, 0x02CD
    1d5e:	01 96       	adiw	r24, 0x01	; 1
    1d60:	a1 1d       	adc	r26, r1
    1d62:	b1 1d       	adc	r27, r1
    1d64:	80 93 ca 02 	sts	0x02CA, r24
    1d68:	90 93 cb 02 	sts	0x02CB, r25
    1d6c:	a0 93 cc 02 	sts	0x02CC, r26
    1d70:	b0 93 cd 02 	sts	0x02CD, r27
    1d74:	2f bf       	out	0x3f, r18	; 63
    1d76:	78 94       	sei
    1d78:	0e 94 8d 02 	call	0x51a	; 0x51a <Atm1280AlarmSyncP__0__checkAlarm>
    1d7c:	ff 91       	pop	r31
    1d7e:	ef 91       	pop	r30
    1d80:	bf 91       	pop	r27
    1d82:	af 91       	pop	r26
    1d84:	9f 91       	pop	r25
    1d86:	8f 91       	pop	r24
    1d88:	7f 91       	pop	r23
    1d8a:	6f 91       	pop	r22
    1d8c:	5f 91       	pop	r21
    1d8e:	4f 91       	pop	r20
    1d90:	3f 91       	pop	r19
    1d92:	2f 91       	pop	r18
    1d94:	0f 90       	pop	r0
    1d96:	0b be       	out	0x3b, r0	; 59
    1d98:	0f 90       	pop	r0
    1d9a:	0f be       	out	0x3f, r0	; 63
    1d9c:	0f 90       	pop	r0
    1d9e:	1f 90       	pop	r1
    1da0:	18 95       	reti

00001da2 <__vector_15>:
    1da2:	1f 92       	push	r1
    1da4:	0f 92       	push	r0
    1da6:	0f b6       	in	r0, 0x3f	; 63
    1da8:	0f 92       	push	r0
    1daa:	11 24       	eor	r1, r1
    1dac:	0f 90       	pop	r0
    1dae:	0f be       	out	0x3f, r0	; 63
    1db0:	0f 90       	pop	r0
    1db2:	1f 90       	pop	r1
    1db4:	18 95       	reti

00001db6 <__vector_11>:
    1db6:	1f 92       	push	r1
    1db8:	0f 92       	push	r0
    1dba:	0f b6       	in	r0, 0x3f	; 63
    1dbc:	0f 92       	push	r0
    1dbe:	11 24       	eor	r1, r1
    1dc0:	0b b6       	in	r0, 0x3b	; 59
    1dc2:	0f 92       	push	r0
    1dc4:	2f 93       	push	r18
    1dc6:	3f 93       	push	r19
    1dc8:	4f 93       	push	r20
    1dca:	5f 93       	push	r21
    1dcc:	6f 93       	push	r22
    1dce:	7f 93       	push	r23
    1dd0:	8f 93       	push	r24
    1dd2:	9f 93       	push	r25
    1dd4:	af 93       	push	r26
    1dd6:	bf 93       	push	r27
    1dd8:	ef 93       	push	r30
    1dda:	ff 93       	push	r31
    1ddc:	90 91 06 01 	lds	r25, 0x0106
    1de0:	80 91 c9 02 	lds	r24, 0x02C9
    1de4:	97 fd       	sbrc	r25, 7
    1de6:	11 c0       	rjmp	.+34     	; 0x1e0a <__vector_11+0x54>
    1de8:	83 50       	subi	r24, 0x03	; 3
    1dea:	88 30       	cpi	r24, 0x08	; 8
    1dec:	08 f0       	brcs	.+2      	; 0x1df0 <__vector_11+0x3a>
    1dee:	8a c0       	rjmp	.+276    	; 0x1f04 <__vector_11+0x14e>
    1df0:	80 91 81 02 	lds	r24, 0x0281
    1df4:	86 95       	lsr	r24
    1df6:	80 93 81 02 	sts	0x0281, r24
    1dfa:	90 91 06 01 	lds	r25, 0x0106
    1dfe:	96 ff       	sbrs	r25, 6
    1e00:	81 c0       	rjmp	.+258    	; 0x1f04 <__vector_11+0x14e>
    1e02:	80 68       	ori	r24, 0x80	; 128
    1e04:	80 93 81 02 	sts	0x0281, r24
    1e08:	7d c0       	rjmp	.+250    	; 0x1f04 <__vector_11+0x14e>
    1e0a:	81 50       	subi	r24, 0x01	; 1
    1e0c:	80 93 c9 02 	sts	0x02C9, r24
    1e10:	81 11       	cpse	r24, r1
    1e12:	78 c0       	rjmp	.+240    	; 0x1f04 <__vector_11+0x14e>
    1e14:	80 91 81 02 	lds	r24, 0x0281
    1e18:	80 3e       	cpi	r24, 0xE0	; 224
    1e1a:	09 f4       	brne	.+2      	; 0x1e1e <__vector_11+0x68>
    1e1c:	70 c0       	rjmp	.+224    	; 0x1efe <__vector_11+0x148>
    1e1e:	20 91 29 03 	lds	r18, 0x0329
    1e22:	30 91 2a 03 	lds	r19, 0x032A
    1e26:	23 2b       	or	r18, r19
    1e28:	09 f0       	breq	.+2      	; 0x1e2c <__vector_11+0x76>
    1e2a:	5d c0       	rjmp	.+186    	; 0x1ee6 <__vector_11+0x130>
    1e2c:	89 35       	cpi	r24, 0x59	; 89
    1e2e:	61 f0       	breq	.+24     	; 0x1e48 <__vector_11+0x92>
    1e30:	80 3f       	cpi	r24, 0xF0	; 240
    1e32:	19 f0       	breq	.+6      	; 0x1e3a <__vector_11+0x84>
    1e34:	82 31       	cpi	r24, 0x12	; 18
    1e36:	79 f4       	brne	.+30     	; 0x1e56 <__vector_11+0xa0>
    1e38:	07 c0       	rjmp	.+14     	; 0x1e48 <__vector_11+0x92>
    1e3a:	81 e0       	ldi	r24, 0x01	; 1
    1e3c:	90 e0       	ldi	r25, 0x00	; 0
    1e3e:	90 93 2a 03 	sts	0x032A, r25
    1e42:	80 93 29 03 	sts	0x0329, r24
    1e46:	5b c0       	rjmp	.+182    	; 0x1efe <__vector_11+0x148>
    1e48:	81 e0       	ldi	r24, 0x01	; 1
    1e4a:	90 e0       	ldi	r25, 0x00	; 0
    1e4c:	90 93 c0 02 	sts	0x02C0, r25
    1e50:	80 93 bf 02 	sts	0x02BF, r24
    1e54:	54 c0       	rjmp	.+168    	; 0x1efe <__vector_11+0x148>
    1e56:	20 91 bf 02 	lds	r18, 0x02BF
    1e5a:	30 91 c0 02 	lds	r19, 0x02C0
    1e5e:	60 e0       	ldi	r22, 0x00	; 0
    1e60:	91 e4       	ldi	r25, 0x41	; 65
    1e62:	23 2b       	or	r18, r19
    1e64:	21 f5       	brne	.+72     	; 0x1eae <__vector_11+0xf8>
    1e66:	26 2f       	mov	r18, r22
    1e68:	30 e0       	ldi	r19, 0x00	; 0
    1e6a:	29 0f       	add	r18, r25
    1e6c:	31 1d       	adc	r19, r1
    1e6e:	35 95       	asr	r19
    1e70:	27 95       	ror	r18
    1e72:	a9 01       	movw	r20, r18
    1e74:	44 0f       	add	r20, r20
    1e76:	55 1f       	adc	r21, r21
    1e78:	fa 01       	movw	r30, r20
    1e7a:	e0 57       	subi	r30, 0x70	; 112
    1e7c:	fe 4f       	sbci	r31, 0xFE	; 254
    1e7e:	e4 91       	lpm	r30, Z
    1e80:	e8 17       	cp	r30, r24
    1e82:	18 f4       	brcc	.+6      	; 0x1e8a <__vector_11+0xd4>
    1e84:	61 e0       	ldi	r22, 0x01	; 1
    1e86:	62 0f       	add	r22, r18
    1e88:	09 c0       	rjmp	.+18     	; 0x1e9c <__vector_11+0xe6>
    1e8a:	8e 17       	cp	r24, r30
    1e8c:	18 f4       	brcc	.+6      	; 0x1e94 <__vector_11+0xde>
    1e8e:	9f ef       	ldi	r25, 0xFF	; 255
    1e90:	92 0f       	add	r25, r18
    1e92:	04 c0       	rjmp	.+8      	; 0x1e9c <__vector_11+0xe6>
    1e94:	fa 01       	movw	r30, r20
    1e96:	ef 56       	subi	r30, 0x6F	; 111
    1e98:	fe 4f       	sbci	r31, 0xFE	; 254
    1e9a:	1e c0       	rjmp	.+60     	; 0x1ed8 <__vector_11+0x122>
    1e9c:	96 17       	cp	r25, r22
    1e9e:	18 f7       	brcc	.-58     	; 0x1e66 <__vector_11+0xb0>
    1ea0:	2e c0       	rjmp	.+92     	; 0x1efe <__vector_11+0x148>
    1ea2:	8e 17       	cp	r24, r30
    1ea4:	b0 f4       	brcc	.+44     	; 0x1ed2 <__vector_11+0x11c>
    1ea6:	9f ef       	ldi	r25, 0xFF	; 255
    1ea8:	92 0f       	add	r25, r18
    1eaa:	96 17       	cp	r25, r22
    1eac:	40 f1       	brcs	.+80     	; 0x1efe <__vector_11+0x148>
    1eae:	26 2f       	mov	r18, r22
    1eb0:	30 e0       	ldi	r19, 0x00	; 0
    1eb2:	29 0f       	add	r18, r25
    1eb4:	31 1d       	adc	r19, r1
    1eb6:	35 95       	asr	r19
    1eb8:	27 95       	ror	r18
    1eba:	a9 01       	movw	r20, r18
    1ebc:	44 0f       	add	r20, r20
    1ebe:	55 1f       	adc	r21, r21
    1ec0:	fa 01       	movw	r30, r20
    1ec2:	e8 5f       	subi	r30, 0xF8	; 248
    1ec4:	fe 4f       	sbci	r31, 0xFE	; 254
    1ec6:	e4 91       	lpm	r30, Z
    1ec8:	e8 17       	cp	r30, r24
    1eca:	58 f7       	brcc	.-42     	; 0x1ea2 <__vector_11+0xec>
    1ecc:	61 e0       	ldi	r22, 0x01	; 1
    1ece:	62 0f       	add	r22, r18
    1ed0:	ec cf       	rjmp	.-40     	; 0x1eaa <__vector_11+0xf4>
    1ed2:	fa 01       	movw	r30, r20
    1ed4:	e7 5f       	subi	r30, 0xF7	; 247
    1ed6:	fe 4f       	sbci	r31, 0xFE	; 254
    1ed8:	e4 91       	lpm	r30, Z
    1eda:	e0 93 d3 02 	sts	0x02D3, r30
    1ede:	81 e0       	ldi	r24, 0x01	; 1
    1ee0:	0e 94 38 02 	call	0x470	; 0x470 <SchedulerBasicP__TaskBasic__postTask>
    1ee4:	0c c0       	rjmp	.+24     	; 0x1efe <__vector_11+0x148>
    1ee6:	10 92 2a 03 	sts	0x032A, r1
    1eea:	10 92 29 03 	sts	0x0329, r1
    1eee:	82 31       	cpi	r24, 0x12	; 18
    1ef0:	11 f0       	breq	.+4      	; 0x1ef6 <__vector_11+0x140>
    1ef2:	89 35       	cpi	r24, 0x59	; 89
    1ef4:	21 f4       	brne	.+8      	; 0x1efe <__vector_11+0x148>
    1ef6:	10 92 c0 02 	sts	0x02C0, r1
    1efa:	10 92 bf 02 	sts	0x02BF, r1
    1efe:	8b e0       	ldi	r24, 0x0B	; 11
    1f00:	80 93 c9 02 	sts	0x02C9, r24
    1f04:	ff 91       	pop	r31
    1f06:	ef 91       	pop	r30
    1f08:	bf 91       	pop	r27
    1f0a:	af 91       	pop	r26
    1f0c:	9f 91       	pop	r25
    1f0e:	8f 91       	pop	r24
    1f10:	7f 91       	pop	r23
    1f12:	6f 91       	pop	r22
    1f14:	5f 91       	pop	r21
    1f16:	4f 91       	pop	r20
    1f18:	3f 91       	pop	r19
    1f1a:	2f 91       	pop	r18
    1f1c:	0f 90       	pop	r0
    1f1e:	0b be       	out	0x3b, r0	; 59
    1f20:	0f 90       	pop	r0
    1f22:	0f be       	out	0x3f, r0	; 63
    1f24:	0f 90       	pop	r0
    1f26:	1f 90       	pop	r1
    1f28:	18 95       	reti

00001f2a <__vector_29>:
    1f2a:	1f 92       	push	r1
    1f2c:	0f 92       	push	r0
    1f2e:	0f b6       	in	r0, 0x3f	; 63
    1f30:	0f 92       	push	r0
    1f32:	11 24       	eor	r1, r1
    1f34:	0b b6       	in	r0, 0x3b	; 59
    1f36:	0f 92       	push	r0
    1f38:	2f 93       	push	r18
    1f3a:	3f 93       	push	r19
    1f3c:	4f 93       	push	r20
    1f3e:	5f 93       	push	r21
    1f40:	6f 93       	push	r22
    1f42:	7f 93       	push	r23
    1f44:	8f 93       	push	r24
    1f46:	9f 93       	push	r25
    1f48:	af 93       	push	r26
    1f4a:	bf 93       	push	r27
    1f4c:	cf 93       	push	r28
    1f4e:	ef 93       	push	r30
    1f50:	ff 93       	push	r31
    1f52:	20 91 78 00 	lds	r18, 0x0078
    1f56:	30 91 79 00 	lds	r19, 0x0079
    1f5a:	78 94       	sei
    1f5c:	4f b7       	in	r20, 0x3f	; 63
    1f5e:	f8 94       	cli
    1f60:	80 91 2e 03 	lds	r24, 0x032E
    1f64:	81 fb       	bst	r24, 1
    1f66:	99 27       	eor	r25, r25
    1f68:	90 f9       	bld	r25, 0
    1f6a:	81 70       	andi	r24, 0x01	; 1
    1f6c:	4f bf       	out	0x3f, r20	; 63
    1f6e:	81 11       	cpse	r24, r1
    1f70:	22 c0       	rjmp	.+68     	; 0x1fb6 <__vector_29+0x8c>
    1f72:	80 91 7a 00 	lds	r24, 0x007A
    1f76:	87 7f       	andi	r24, 0xF7	; 247
    1f78:	80 93 7a 00 	sts	0x007A, r24
    1f7c:	80 91 d4 02 	lds	r24, 0x02D4
    1f80:	81 30       	cpi	r24, 0x01	; 1
    1f82:	19 f0       	breq	.+6      	; 0x1f8a <__vector_29+0x60>
    1f84:	82 30       	cpi	r24, 0x02	; 2
    1f86:	91 f0       	breq	.+36     	; 0x1fac <__vector_29+0x82>
    1f88:	36 c0       	rjmp	.+108    	; 0x1ff6 <__vector_29+0xcc>
    1f8a:	91 11       	cpse	r25, r1
    1f8c:	07 c0       	rjmp	.+14     	; 0x1f9c <__vector_29+0x72>
    1f8e:	8d e7       	ldi	r24, 0x7D	; 125
    1f90:	90 e0       	ldi	r25, 0x00	; 0
    1f92:	0e 94 dc 02 	call	0x5b8	; 0x5b8 <BusyWaitMicroC__BusyWait__wait.part.22>
    1f96:	0e 94 cf 03 	call	0x79e	; 0x79e <AdcP__sample>
    1f9a:	2d c0       	rjmp	.+90     	; 0x1ff6 <__vector_29+0xcc>
    1f9c:	30 93 ec 02 	sts	0x02EC, r19
    1fa0:	20 93 eb 02 	sts	0x02EB, r18
    1fa4:	8e e0       	ldi	r24, 0x0E	; 14
    1fa6:	0e 94 38 02 	call	0x470	; 0x470 <SchedulerBasicP__TaskBasic__postTask>
    1faa:	25 c0       	rjmp	.+74     	; 0x1ff6 <__vector_29+0xcc>
    1fac:	99 23       	and	r25, r25
    1fae:	79 f3       	breq	.-34     	; 0x1f8e <__vector_29+0x64>
    1fb0:	10 92 d4 02 	sts	0x02D4, r1
    1fb4:	20 c0       	rjmp	.+64     	; 0x1ff6 <__vector_29+0xcc>
    1fb6:	cf b7       	in	r28, 0x3f	; 63
    1fb8:	f8 94       	cli
    1fba:	0e 94 65 02 	call	0x4ca	; 0x4ca <HplAtm1280AdcP__HplAtm1280Adc__getAdmux>
    1fbe:	cf bf       	out	0x3f, r28	; 63
    1fc0:	2f b7       	in	r18, 0x3f	; 63
    1fc2:	f8 94       	cli
    1fc4:	80 91 7a 00 	lds	r24, 0x007A
    1fc8:	86 fb       	bst	r24, 6
    1fca:	99 27       	eor	r25, r25
    1fcc:	90 f9       	bld	r25, 0
    1fce:	87 7f       	andi	r24, 0xF7	; 247
    1fd0:	80 61       	ori	r24, 0x10	; 16
    1fd2:	90 fb       	bst	r25, 0
    1fd4:	86 f9       	bld	r24, 6
    1fd6:	8f 77       	andi	r24, 0x7F	; 127
    1fd8:	80 93 7a 00 	sts	0x007A, r24
    1fdc:	87 7f       	andi	r24, 0xF7	; 247
    1fde:	80 61       	ori	r24, 0x10	; 16
    1fe0:	8f 7b       	andi	r24, 0xBF	; 191
    1fe2:	8f 77       	andi	r24, 0x7F	; 127
    1fe4:	80 93 7a 00 	sts	0x007A, r24
    1fe8:	87 7f       	andi	r24, 0xF7	; 247
    1fea:	80 61       	ori	r24, 0x10	; 16
    1fec:	8f 7b       	andi	r24, 0xBF	; 191
    1fee:	80 68       	ori	r24, 0x80	; 128
    1ff0:	80 93 7a 00 	sts	0x007A, r24
    1ff4:	2f bf       	out	0x3f, r18	; 63
    1ff6:	ff 91       	pop	r31
    1ff8:	ef 91       	pop	r30
    1ffa:	cf 91       	pop	r28
    1ffc:	bf 91       	pop	r27
    1ffe:	af 91       	pop	r26
    2000:	9f 91       	pop	r25
    2002:	8f 91       	pop	r24
    2004:	7f 91       	pop	r23
    2006:	6f 91       	pop	r22
    2008:	5f 91       	pop	r21
    200a:	4f 91       	pop	r20
    200c:	3f 91       	pop	r19
    200e:	2f 91       	pop	r18
    2010:	0f 90       	pop	r0
    2012:	0b be       	out	0x3b, r0	; 59
    2014:	0f 90       	pop	r0
    2016:	0f be       	out	0x3f, r0	; 63
    2018:	0f 90       	pop	r0
    201a:	1f 90       	pop	r1
    201c:	18 95       	reti

0000201e <main>:
    201e:	df b7       	in	r29, 0x3f	; 63
    2020:	f8 94       	cli
    2022:	4f e0       	ldi	r20, 0x0F	; 15
    2024:	50 e0       	ldi	r21, 0x00	; 0
    2026:	6f ef       	ldi	r22, 0xFF	; 255
    2028:	70 e0       	ldi	r23, 0x00	; 0
    202a:	80 eb       	ldi	r24, 0xB0	; 176
    202c:	92 e0       	ldi	r25, 0x02	; 2
    202e:	0e 94 aa 12 	call	0x2554	; 0x2554 <memset>
    2032:	8f ef       	ldi	r24, 0xFF	; 255
    2034:	80 93 26 03 	sts	0x0326, r24
    2038:	80 93 31 03 	sts	0x0331, r24
    203c:	88 ee       	ldi	r24, 0xE8	; 232
    203e:	91 e0       	ldi	r25, 0x01	; 1
    2040:	90 93 28 03 	sts	0x0328, r25
    2044:	80 93 27 03 	sts	0x0327, r24
    2048:	08 9a       	sbi	0x01, 0	; 1
    204a:	09 9a       	sbi	0x01, 1	; 1
    204c:	0a 9a       	sbi	0x01, 2	; 1
    204e:	10 98       	cbi	0x02, 0	; 2
    2050:	11 98       	cbi	0x02, 1	; 2
    2052:	12 98       	cbi	0x02, 2	; 2
    2054:	80 e0       	ldi	r24, 0x00	; 0
    2056:	87 7f       	andi	r24, 0xF7	; 247
    2058:	8f 7e       	andi	r24, 0xEF	; 239
    205a:	8f 7d       	andi	r24, 0xDF	; 223
    205c:	8f 7b       	andi	r24, 0xBF	; 191
    205e:	8f 77       	andi	r24, 0x7F	; 127
    2060:	80 93 7a 00 	sts	0x007A, r24
    2064:	81 e0       	ldi	r24, 0x01	; 1
    2066:	83 bf       	out	0x33, r24	; 51
    2068:	0e 94 26 02 	call	0x44c	; 0x44c <SchedulerBasicP__popTask>
    206c:	8f 3f       	cpi	r24, 0xFF	; 255
    206e:	19 f0       	breq	.+6      	; 0x2076 <main+0x58>
    2070:	0e 94 3b 08 	call	0x1076	; 0x1076 <SchedulerBasicP__TaskBasic__runTask>
    2074:	f9 cf       	rjmp	.-14     	; 0x2068 <main+0x4a>
    2076:	10 92 d7 02 	sts	0x02D7, r1
    207a:	80 91 b6 00 	lds	r24, 0x00B6
    207e:	80 72       	andi	r24, 0x20	; 32
    2080:	80 93 b6 00 	sts	0x00B6, r24
    2084:	80 91 b6 00 	lds	r24, 0x00B6
    2088:	81 fd       	sbrc	r24, 1
    208a:	fc cf       	rjmp	.-8      	; 0x2084 <main+0x66>
    208c:	82 e0       	ldi	r24, 0x02	; 2
    208e:	80 93 b0 00 	sts	0x00B0, r24
    2092:	80 91 b6 00 	lds	r24, 0x00B6
    2096:	80 fd       	sbrc	r24, 0
    2098:	fc cf       	rjmp	.-8      	; 0x2092 <main+0x74>
    209a:	85 e0       	ldi	r24, 0x05	; 5
    209c:	80 93 b1 00 	sts	0x00B1, r24
    20a0:	8c e7       	ldi	r24, 0x7C	; 124
    20a2:	80 93 b3 00 	sts	0x00B3, r24
    20a6:	80 91 70 00 	lds	r24, 0x0070
    20aa:	82 60       	ori	r24, 0x02	; 2
    20ac:	80 93 70 00 	sts	0x0070, r24
    20b0:	cf ef       	ldi	r28, 0xFF	; 255
    20b2:	c0 93 c8 02 	sts	0x02C8, r28
    20b6:	72 9a       	sbi	0x0e, 2	; 14
    20b8:	73 9a       	sbi	0x0e, 3	; 14
    20ba:	74 98       	cbi	0x0e, 4	; 14
    20bc:	75 9a       	sbi	0x0e, 5	; 14
    20be:	0e 94 24 02 	call	0x448	; 0x448 <HplAtm128GeneralIOPinP__38__IO__set>
    20c2:	77 9a       	sbi	0x0e, 7	; 14
    20c4:	6a 9a       	sbi	0x0d, 2	; 13
    20c6:	6b 9a       	sbi	0x0d, 3	; 13
    20c8:	6c 9a       	sbi	0x0d, 4	; 13
    20ca:	6d 9a       	sbi	0x0d, 5	; 13
    20cc:	6e 9a       	sbi	0x0d, 6	; 13
    20ce:	6f 9a       	sbi	0x0d, 7	; 13
    20d0:	82 b1       	in	r24, 0x02	; 2
    20d2:	12 b8       	out	0x02, r1	; 2
    20d4:	81 b1       	in	r24, 0x01	; 1
    20d6:	c1 b9       	out	0x01, r28	; 1
    20d8:	6f e3       	ldi	r22, 0x3F	; 63
    20da:	80 e0       	ldi	r24, 0x00	; 0
    20dc:	0e 94 4a 07 	call	0xe94	; 0xe94 <HplKS0108P__HplKS0108__controlWrite>
    20e0:	6f e3       	ldi	r22, 0x3F	; 63
    20e2:	81 e0       	ldi	r24, 0x01	; 1
    20e4:	0e 94 4a 07 	call	0xe94	; 0xe94 <HplKS0108P__HplKS0108__controlWrite>
    20e8:	60 ec       	ldi	r22, 0xC0	; 192
    20ea:	80 e0       	ldi	r24, 0x00	; 0
    20ec:	0e 94 4a 07 	call	0xe94	; 0xe94 <HplKS0108P__HplKS0108__controlWrite>
    20f0:	60 ec       	ldi	r22, 0xC0	; 192
    20f2:	81 e0       	ldi	r24, 0x01	; 1
    20f4:	0e 94 4a 07 	call	0xe94	; 0xe94 <HplKS0108P__HplKS0108__controlWrite>
    20f8:	0e 94 26 02 	call	0x44c	; 0x44c <SchedulerBasicP__popTask>
    20fc:	8f 3f       	cpi	r24, 0xFF	; 255
    20fe:	19 f0       	breq	.+6      	; 0x2106 <main+0xe8>
    2100:	0e 94 3b 08 	call	0x1076	; 0x1076 <SchedulerBasicP__TaskBasic__runTask>
    2104:	f9 cf       	rjmp	.-14     	; 0x20f8 <main+0xda>
    2106:	df bf       	out	0x3f, r29	; 63
    2108:	78 94       	sei
    210a:	8f b7       	in	r24, 0x3f	; 63
    210c:	f8 94       	cli
    210e:	10 92 2d 03 	sts	0x032D, r1
    2112:	10 92 2c 03 	sts	0x032C, r1
    2116:	8f bf       	out	0x3f, r24	; 63
    2118:	9f b7       	in	r25, 0x3f	; 63
    211a:	f8 94       	cli
    211c:	80 91 07 01 	lds	r24, 0x0107
    2120:	8f 77       	andi	r24, 0x7F	; 127
    2122:	80 93 07 01 	sts	0x0107, r24
    2126:	9f bf       	out	0x3f, r25	; 63
    2128:	9f b7       	in	r25, 0x3f	; 63
    212a:	f8 94       	cli
    212c:	80 91 07 01 	lds	r24, 0x0107
    2130:	8f 7b       	andi	r24, 0xBF	; 191
    2132:	80 93 07 01 	sts	0x0107, r24
    2136:	9f bf       	out	0x3f, r25	; 63
    2138:	80 91 6d 00 	lds	r24, 0x006D
    213c:	80 68       	ori	r24, 0x80	; 128
    213e:	80 93 6d 00 	sts	0x006D, r24
    2142:	8f b7       	in	r24, 0x3f	; 63
    2144:	f8 94       	cli
    2146:	9b e0       	ldi	r25, 0x0B	; 11
    2148:	90 93 c9 02 	sts	0x02C9, r25
    214c:	10 92 c0 02 	sts	0x02C0, r1
    2150:	10 92 bf 02 	sts	0x02BF, r1
    2154:	10 92 2a 03 	sts	0x032A, r1
    2158:	10 92 29 03 	sts	0x0329, r1
    215c:	8f bf       	out	0x3f, r24	; 63
    215e:	80 91 68 00 	lds	r24, 0x0068
    2162:	84 60       	ori	r24, 0x04	; 4
    2164:	80 93 68 00 	sts	0x0068, r24
    2168:	2f b7       	in	r18, 0x3f	; 63
    216a:	f8 94       	cli
    216c:	80 91 18 03 	lds	r24, 0x0318
    2170:	90 91 19 03 	lds	r25, 0x0319
    2174:	2f bf       	out	0x3f, r18	; 63
    2176:	89 2b       	or	r24, r25
    2178:	e9 f5       	brne	.+122    	; 0x21f4 <main+0x1d6>
    217a:	9f b7       	in	r25, 0x3f	; 63
    217c:	f8 94       	cli
    217e:	21 e0       	ldi	r18, 0x01	; 1
    2180:	30 e0       	ldi	r19, 0x00	; 0
    2182:	30 93 19 03 	sts	0x0319, r19
    2186:	20 93 18 03 	sts	0x0318, r18
    218a:	10 92 1b 03 	sts	0x031B, r1
    218e:	10 92 1a 03 	sts	0x031A, r1
    2192:	10 92 1d 03 	sts	0x031D, r1
    2196:	10 92 1c 03 	sts	0x031C, r1
    219a:	10 92 1f 03 	sts	0x031F, r1
    219e:	10 92 1e 03 	sts	0x031E, r1
    21a2:	10 92 21 03 	sts	0x0321, r1
    21a6:	10 92 20 03 	sts	0x0320, r1
    21aa:	80 e2       	ldi	r24, 0x20	; 32
    21ac:	e0 e9       	ldi	r30, 0x90	; 144
    21ae:	f2 e0       	ldi	r31, 0x02	; 2
    21b0:	df 01       	movw	r26, r30
    21b2:	28 2f       	mov	r18, r24
    21b4:	1d 92       	st	X+, r1
    21b6:	2a 95       	dec	r18
    21b8:	e9 f7       	brne	.-6      	; 0x21b4 <main+0x196>
    21ba:	e1 ef       	ldi	r30, 0xF1	; 241
    21bc:	f2 e0       	ldi	r31, 0x02	; 2
    21be:	df 01       	movw	r26, r30
    21c0:	1d 92       	st	X+, r1
    21c2:	8a 95       	dec	r24
    21c4:	e9 f7       	brne	.-6      	; 0x21c0 <main+0x1a2>
    21c6:	9f bf       	out	0x3f, r25	; 63
    21c8:	52 9a       	sbi	0x0a, 2	; 10
    21ca:	5a 98       	cbi	0x0b, 2	; 11
    21cc:	51 9a       	sbi	0x0a, 1	; 10
    21ce:	59 98       	cbi	0x0b, 1	; 11
    21d0:	53 98       	cbi	0x0a, 3	; 10
    21d2:	5b 98       	cbi	0x0b, 3	; 11
    21d4:	80 91 69 00 	lds	r24, 0x0069
    21d8:	80 68       	ori	r24, 0x80	; 128
    21da:	80 93 69 00 	sts	0x0069, r24
    21de:	80 91 69 00 	lds	r24, 0x0069
    21e2:	8f 7b       	andi	r24, 0xBF	; 191
    21e4:	80 93 69 00 	sts	0x0069, r24
    21e8:	6a e0       	ldi	r22, 0x0A	; 10
    21ea:	70 e0       	ldi	r23, 0x00	; 0
    21ec:	80 e0       	ldi	r24, 0x00	; 0
    21ee:	90 e0       	ldi	r25, 0x00	; 0
    21f0:	0e 94 b0 03 	call	0x760	; 0x760 <VirtualizeTimerC__0__Timer__startOneShot.constprop.50>
    21f4:	0e 94 1d 08 	call	0x103a	; 0x103a <GlcdP__Glcd__fill.constprop.47>
    21f8:	6a e0       	ldi	r22, 0x0A	; 10
    21fa:	84 e7       	ldi	r24, 0x74	; 116
    21fc:	92 e0       	ldi	r25, 0x02	; 2
    21fe:	0e 94 7f 07 	call	0xefe	; 0xefe <GlcdP__Glcd__drawText.constprop.51>
    2202:	cf b7       	in	r28, 0x3f	; 63
    2204:	f8 94       	cli
    2206:	0e 94 26 02 	call	0x44c	; 0x44c <SchedulerBasicP__popTask>
    220a:	8f 3f       	cpi	r24, 0xFF	; 255
    220c:	09 f0       	breq	.+2      	; 0x2210 <__stack+0x11>
    220e:	58 c0       	rjmp	.+176    	; 0x22c0 <__stack+0xc1>
    2210:	80 91 70 00 	lds	r24, 0x0070
    2214:	83 70       	andi	r24, 0x03	; 3
    2216:	89 f0       	breq	.+34     	; 0x223a <__stack+0x3b>
    2218:	80 91 b6 00 	lds	r24, 0x00B6
    221c:	8a 71       	andi	r24, 0x1A	; 26
    221e:	e1 f7       	brne	.-8      	; 0x2218 <__stack+0x19>
    2220:	80 91 b3 00 	lds	r24, 0x00B3
    2224:	90 91 b2 00 	lds	r25, 0x00B2
    2228:	89 1b       	sub	r24, r25
    222a:	88 30       	cpi	r24, 0x08	; 8
    222c:	40 f0       	brcs	.+16     	; 0x223e <__stack+0x3f>
    222e:	80 91 b2 00 	lds	r24, 0x00B2
    2232:	89 3f       	cpi	r24, 0xF9	; 249
    2234:	20 f4       	brcc	.+8      	; 0x223e <__stack+0x3f>
    2236:	83 e0       	ldi	r24, 0x03	; 3
    2238:	03 c0       	rjmp	.+6      	; 0x2240 <__stack+0x41>
    223a:	85 e0       	ldi	r24, 0x05	; 5
    223c:	01 c0       	rjmp	.+2      	; 0x2240 <__stack+0x41>
    223e:	82 e0       	ldi	r24, 0x02	; 2
    2240:	e0 91 6e 00 	lds	r30, 0x006E
    2244:	e6 70       	andi	r30, 0x06	; 6
    2246:	29 f5       	brne	.+74     	; 0x2292 <__stack+0x93>
    2248:	90 91 6f 00 	lds	r25, 0x006F
    224c:	9e 72       	andi	r25, 0x2E	; 46
    224e:	21 f5       	brne	.+72     	; 0x2298 <__stack+0x99>
    2250:	e0 91 71 00 	lds	r30, 0x0071
    2254:	ee 72       	andi	r30, 0x2E	; 46
    2256:	e9 f4       	brne	.+58     	; 0x2292 <__stack+0x93>
    2258:	90 91 72 00 	lds	r25, 0x0072
    225c:	9e 72       	andi	r25, 0x2E	; 46
    225e:	e1 f4       	brne	.+56     	; 0x2298 <__stack+0x99>
    2260:	e0 91 73 00 	lds	r30, 0x0073
    2264:	ee 72       	andi	r30, 0x2E	; 46
    2266:	a9 f4       	brne	.+42     	; 0x2292 <__stack+0x93>
    2268:	0c b4       	in	r0, 0x2c	; 44
    226a:	07 fc       	sbrc	r0, 7
    226c:	15 c0       	rjmp	.+42     	; 0x2298 <__stack+0x99>
    226e:	90 91 c1 00 	lds	r25, 0x00C1
    2272:	98 71       	andi	r25, 0x18	; 24
    2274:	89 f4       	brne	.+34     	; 0x2298 <__stack+0x99>
    2276:	e0 91 c9 00 	lds	r30, 0x00C9
    227a:	e8 71       	andi	r30, 0x18	; 24
    227c:	51 f4       	brne	.+20     	; 0x2292 <__stack+0x93>
    227e:	90 91 bc 00 	lds	r25, 0x00BC
    2282:	92 fd       	sbrc	r25, 2
    2284:	09 c0       	rjmp	.+18     	; 0x2298 <__stack+0x99>
    2286:	90 91 7a 00 	lds	r25, 0x007A
    228a:	97 fd       	sbrc	r25, 7
    228c:	04 c0       	rjmp	.+8      	; 0x2296 <__stack+0x97>
    228e:	e5 e0       	ldi	r30, 0x05	; 5
    2290:	03 c0       	rjmp	.+6      	; 0x2298 <__stack+0x99>
    2292:	e0 e0       	ldi	r30, 0x00	; 0
    2294:	01 c0       	rjmp	.+2      	; 0x2298 <__stack+0x99>
    2296:	e1 e0       	ldi	r30, 0x01	; 1
    2298:	93 b7       	in	r25, 0x33	; 51
    229a:	8e 17       	cp	r24, r30
    229c:	08 f4       	brcc	.+2      	; 0x22a0 <__stack+0xa1>
    229e:	e8 2f       	mov	r30, r24
    22a0:	f0 e0       	ldi	r31, 0x00	; 0
    22a2:	ee 5f       	subi	r30, 0xFE	; 254
    22a4:	fe 4f       	sbci	r31, 0xFE	; 254
    22a6:	84 91       	lpm	r24, Z
    22a8:	e9 2f       	mov	r30, r25
    22aa:	e0 7f       	andi	r30, 0xF0	; 240
    22ac:	e1 60       	ori	r30, 0x01	; 1
    22ae:	e8 2b       	or	r30, r24
    22b0:	e3 bf       	out	0x33, r30	; 51
    22b2:	78 94       	sei
    22b4:	88 95       	sleep
    22b6:	f8 94       	cli
    22b8:	83 b7       	in	r24, 0x33	; 51
    22ba:	8e 7f       	andi	r24, 0xFE	; 254
    22bc:	83 bf       	out	0x33, r24	; 51
    22be:	a3 cf       	rjmp	.-186    	; 0x2206 <__stack+0x7>
    22c0:	cf bf       	out	0x3f, r28	; 63
    22c2:	0e 94 3b 08 	call	0x1076	; 0x1076 <SchedulerBasicP__TaskBasic__runTask>
    22c6:	9d cf       	rjmp	.-198    	; 0x2202 <__stack+0x3>

000022c8 <__tablejump2__>:
    22c8:	ee 0f       	add	r30, r30
    22ca:	ff 1f       	adc	r31, r31

000022cc <__tablejump__>:
    22cc:	05 90       	lpm	r0, Z+
    22ce:	f4 91       	lpm	r31, Z
    22d0:	e0 2d       	mov	r30, r0
    22d2:	09 94       	ijmp

000022d4 <strtoul>:
    22d4:	2f 92       	push	r2
    22d6:	3f 92       	push	r3
    22d8:	4f 92       	push	r4
    22da:	5f 92       	push	r5
    22dc:	6f 92       	push	r6
    22de:	7f 92       	push	r7
    22e0:	8f 92       	push	r8
    22e2:	9f 92       	push	r9
    22e4:	af 92       	push	r10
    22e6:	bf 92       	push	r11
    22e8:	cf 92       	push	r12
    22ea:	df 92       	push	r13
    22ec:	ef 92       	push	r14
    22ee:	ff 92       	push	r15
    22f0:	0f 93       	push	r16
    22f2:	1f 93       	push	r17
    22f4:	cf 93       	push	r28
    22f6:	df 93       	push	r29
    22f8:	00 d0       	rcall	.+0      	; 0x22fa <strtoul+0x26>
    22fa:	00 d0       	rcall	.+0      	; 0x22fc <strtoul+0x28>
    22fc:	00 d0       	rcall	.+0      	; 0x22fe <strtoul+0x2a>
    22fe:	cd b7       	in	r28, 0x3d	; 61
    2300:	de b7       	in	r29, 0x3e	; 62
    2302:	5c 01       	movw	r10, r24
    2304:	6b 01       	movw	r12, r22
    2306:	7a 01       	movw	r14, r20
    2308:	61 15       	cp	r22, r1
    230a:	71 05       	cpc	r23, r1
    230c:	19 f0       	breq	.+6      	; 0x2314 <strtoul+0x40>
    230e:	db 01       	movw	r26, r22
    2310:	8d 93       	st	X+, r24
    2312:	9c 93       	st	X, r25
    2314:	e1 14       	cp	r14, r1
    2316:	f1 04       	cpc	r15, r1
    2318:	29 f0       	breq	.+10     	; 0x2324 <strtoul+0x50>
    231a:	c7 01       	movw	r24, r14
    231c:	02 97       	sbiw	r24, 0x02	; 2
    231e:	83 97       	sbiw	r24, 0x23	; 35
    2320:	08 f0       	brcs	.+2      	; 0x2324 <strtoul+0x50>
    2322:	dc c0       	rjmp	.+440    	; 0x24dc <strtoul+0x208>
    2324:	35 01       	movw	r6, r10
    2326:	bf ef       	ldi	r27, 0xFF	; 255
    2328:	6b 1a       	sub	r6, r27
    232a:	7b 0a       	sbc	r7, r27
    232c:	f5 01       	movw	r30, r10
    232e:	10 81       	ld	r17, Z
    2330:	81 2f       	mov	r24, r17
    2332:	90 e0       	ldi	r25, 0x00	; 0
    2334:	0e 94 a2 12 	call	0x2544	; 0x2544 <isspace>
    2338:	89 2b       	or	r24, r25
    233a:	11 f0       	breq	.+4      	; 0x2340 <strtoul+0x6c>
    233c:	53 01       	movw	r10, r6
    233e:	f2 cf       	rjmp	.-28     	; 0x2324 <strtoul+0x50>
    2340:	1d 32       	cpi	r17, 0x2D	; 45
    2342:	49 f4       	brne	.+18     	; 0x2356 <strtoul+0x82>
    2344:	35 01       	movw	r6, r10
    2346:	f2 e0       	ldi	r31, 0x02	; 2
    2348:	6f 0e       	add	r6, r31
    234a:	71 1c       	adc	r7, r1
    234c:	d5 01       	movw	r26, r10
    234e:	11 96       	adiw	r26, 0x01	; 1
    2350:	1c 91       	ld	r17, X
    2352:	01 e0       	ldi	r16, 0x01	; 1
    2354:	09 c0       	rjmp	.+18     	; 0x2368 <strtoul+0x94>
    2356:	1b 32       	cpi	r17, 0x2B	; 43
    2358:	31 f4       	brne	.+12     	; 0x2366 <strtoul+0x92>
    235a:	35 01       	movw	r6, r10
    235c:	b2 e0       	ldi	r27, 0x02	; 2
    235e:	6b 0e       	add	r6, r27
    2360:	71 1c       	adc	r7, r1
    2362:	f5 01       	movw	r30, r10
    2364:	11 81       	ldd	r17, Z+1	; 0x01
    2366:	00 e0       	ldi	r16, 0x00	; 0
    2368:	e1 14       	cp	r14, r1
    236a:	f1 04       	cpc	r15, r1
    236c:	09 f4       	brne	.+2      	; 0x2370 <strtoul+0x9c>
    236e:	c4 c0       	rjmp	.+392    	; 0x24f8 <strtoul+0x224>
    2370:	f0 e1       	ldi	r31, 0x10	; 16
    2372:	ef 16       	cp	r14, r31
    2374:	f1 04       	cpc	r15, r1
    2376:	89 f4       	brne	.+34     	; 0x239a <strtoul+0xc6>
    2378:	10 33       	cpi	r17, 0x30	; 48
    237a:	99 f5       	brne	.+102    	; 0x23e2 <strtoul+0x10e>
    237c:	d3 01       	movw	r26, r6
    237e:	8c 91       	ld	r24, X
    2380:	8f 7d       	andi	r24, 0xDF	; 223
    2382:	88 35       	cpi	r24, 0x58	; 88
    2384:	09 f0       	breq	.+2      	; 0x2388 <strtoul+0xb4>
    2386:	b2 c0       	rjmp	.+356    	; 0x24ec <strtoul+0x218>
    2388:	11 96       	adiw	r26, 0x01	; 1
    238a:	1c 91       	ld	r17, X
    238c:	b2 e0       	ldi	r27, 0x02	; 2
    238e:	6b 0e       	add	r6, r27
    2390:	71 1c       	adc	r7, r1
    2392:	02 60       	ori	r16, 0x02	; 2
    2394:	50 e1       	ldi	r21, 0x10	; 16
    2396:	e5 2e       	mov	r14, r21
    2398:	f1 2c       	mov	r15, r1
    239a:	ea e0       	ldi	r30, 0x0A	; 10
    239c:	ee 16       	cp	r14, r30
    239e:	f1 04       	cpc	r15, r1
    23a0:	09 f4       	brne	.+2      	; 0x23a4 <strtoul+0xd0>
    23a2:	b0 c0       	rjmp	.+352    	; 0x2504 <strtoul+0x230>
    23a4:	f0 e1       	ldi	r31, 0x10	; 16
    23a6:	ef 16       	cp	r14, r31
    23a8:	f1 04       	cpc	r15, r1
    23aa:	d9 f0       	breq	.+54     	; 0x23e2 <strtoul+0x10e>
    23ac:	28 e0       	ldi	r18, 0x08	; 8
    23ae:	e2 16       	cp	r14, r18
    23b0:	f1 04       	cpc	r15, r1
    23b2:	51 f4       	brne	.+20     	; 0x23c8 <strtoul+0xf4>
    23b4:	38 e0       	ldi	r19, 0x08	; 8
    23b6:	e3 2e       	mov	r14, r19
    23b8:	f1 2c       	mov	r15, r1
    23ba:	88 24       	eor	r8, r8
    23bc:	8a 94       	dec	r8
    23be:	98 2c       	mov	r9, r8
    23c0:	a8 2c       	mov	r10, r8
    23c2:	4f e1       	ldi	r20, 0x1F	; 31
    23c4:	b4 2e       	mov	r11, r20
    23c6:	13 c0       	rjmp	.+38     	; 0x23ee <strtoul+0x11a>
    23c8:	6f ef       	ldi	r22, 0xFF	; 255
    23ca:	7f ef       	ldi	r23, 0xFF	; 255
    23cc:	cb 01       	movw	r24, r22
    23ce:	97 01       	movw	r18, r14
    23d0:	44 27       	eor	r20, r20
    23d2:	37 fd       	sbrc	r19, 7
    23d4:	40 95       	com	r20
    23d6:	54 2f       	mov	r21, r20
    23d8:	0e 94 9b 15 	call	0x2b36	; 0x2b36 <__udivmodsi4>
    23dc:	49 01       	movw	r8, r18
    23de:	5a 01       	movw	r10, r20
    23e0:	06 c0       	rjmp	.+12     	; 0x23ee <strtoul+0x11a>
    23e2:	88 24       	eor	r8, r8
    23e4:	8a 94       	dec	r8
    23e6:	98 2c       	mov	r9, r8
    23e8:	a8 2c       	mov	r10, r8
    23ea:	2f e0       	ldi	r18, 0x0F	; 15
    23ec:	b2 2e       	mov	r11, r18
    23ee:	7e 82       	std	Y+6, r7	; 0x06
    23f0:	6d 82       	std	Y+5, r6	; 0x05
    23f2:	60 e0       	ldi	r22, 0x00	; 0
    23f4:	20 e0       	ldi	r18, 0x00	; 0
    23f6:	30 e0       	ldi	r19, 0x00	; 0
    23f8:	a9 01       	movw	r20, r18
    23fa:	27 01       	movw	r4, r14
    23fc:	66 24       	eor	r6, r6
    23fe:	57 fc       	sbrc	r5, 7
    2400:	60 94       	com	r6
    2402:	76 2c       	mov	r7, r6
    2404:	2d 80       	ldd	r2, Y+5	; 0x05
    2406:	3e 80       	ldd	r3, Y+6	; 0x06
    2408:	e0 ed       	ldi	r30, 0xD0	; 208
    240a:	e1 0f       	add	r30, r17
    240c:	ea 30       	cpi	r30, 0x0A	; 10
    240e:	60 f0       	brcs	.+24     	; 0x2428 <strtoul+0x154>
    2410:	8f eb       	ldi	r24, 0xBF	; 191
    2412:	81 0f       	add	r24, r17
    2414:	8a 31       	cpi	r24, 0x1A	; 26
    2416:	10 f4       	brcc	.+4      	; 0x241c <strtoul+0x148>
    2418:	e9 ec       	ldi	r30, 0xC9	; 201
    241a:	05 c0       	rjmp	.+10     	; 0x2426 <strtoul+0x152>
    241c:	8f e9       	ldi	r24, 0x9F	; 159
    241e:	81 0f       	add	r24, r17
    2420:	8a 31       	cpi	r24, 0x1A	; 26
    2422:	90 f5       	brcc	.+100    	; 0x2488 <strtoul+0x1b4>
    2424:	e9 ea       	ldi	r30, 0xA9	; 169
    2426:	e1 0f       	add	r30, r17
    2428:	8e 2f       	mov	r24, r30
    242a:	90 e0       	ldi	r25, 0x00	; 0
    242c:	8e 15       	cp	r24, r14
    242e:	9f 05       	cpc	r25, r15
    2430:	5c f5       	brge	.+86     	; 0x2488 <strtoul+0x1b4>
    2432:	6f 3f       	cpi	r22, 0xFF	; 255
    2434:	09 f1       	breq	.+66     	; 0x2478 <strtoul+0x1a4>
    2436:	82 16       	cp	r8, r18
    2438:	93 06       	cpc	r9, r19
    243a:	a4 06       	cpc	r10, r20
    243c:	b5 06       	cpc	r11, r21
    243e:	d8 f0       	brcs	.+54     	; 0x2476 <strtoul+0x1a2>
    2440:	c3 01       	movw	r24, r6
    2442:	b2 01       	movw	r22, r4
    2444:	0e 94 8b 15 	call	0x2b16	; 0x2b16 <__mulsi3>
    2448:	2e 2f       	mov	r18, r30
    244a:	30 e0       	ldi	r19, 0x00	; 0
    244c:	40 e0       	ldi	r20, 0x00	; 0
    244e:	50 e0       	ldi	r21, 0x00	; 0
    2450:	29 83       	std	Y+1, r18	; 0x01
    2452:	3a 83       	std	Y+2, r19	; 0x02
    2454:	4b 83       	std	Y+3, r20	; 0x03
    2456:	5c 83       	std	Y+4, r21	; 0x04
    2458:	26 0f       	add	r18, r22
    245a:	37 1f       	adc	r19, r23
    245c:	48 1f       	adc	r20, r24
    245e:	59 1f       	adc	r21, r25
    2460:	89 81       	ldd	r24, Y+1	; 0x01
    2462:	9a 81       	ldd	r25, Y+2	; 0x02
    2464:	ab 81       	ldd	r26, Y+3	; 0x03
    2466:	bc 81       	ldd	r27, Y+4	; 0x04
    2468:	28 17       	cp	r18, r24
    246a:	39 07       	cpc	r19, r25
    246c:	4a 07       	cpc	r20, r26
    246e:	5b 07       	cpc	r21, r27
    2470:	10 f0       	brcs	.+4      	; 0x2476 <strtoul+0x1a2>
    2472:	61 e0       	ldi	r22, 0x01	; 1
    2474:	01 c0       	rjmp	.+2      	; 0x2478 <strtoul+0x1a4>
    2476:	6f ef       	ldi	r22, 0xFF	; 255
    2478:	ed 81       	ldd	r30, Y+5	; 0x05
    247a:	fe 81       	ldd	r31, Y+6	; 0x06
    247c:	31 96       	adiw	r30, 0x01	; 1
    247e:	fe 83       	std	Y+6, r31	; 0x06
    2480:	ed 83       	std	Y+5, r30	; 0x05
    2482:	d1 01       	movw	r26, r2
    2484:	1c 91       	ld	r17, X
    2486:	be cf       	rjmp	.-132    	; 0x2404 <strtoul+0x130>
    2488:	c1 14       	cp	r12, r1
    248a:	d1 04       	cpc	r13, r1
    248c:	89 f0       	breq	.+34     	; 0x24b0 <strtoul+0x1dc>
    248e:	66 23       	and	r22, r22
    2490:	39 f0       	breq	.+14     	; 0x24a0 <strtoul+0x1cc>
    2492:	8d 81       	ldd	r24, Y+5	; 0x05
    2494:	9e 81       	ldd	r25, Y+6	; 0x06
    2496:	01 97       	sbiw	r24, 0x01	; 1
    2498:	f6 01       	movw	r30, r12
    249a:	91 83       	std	Z+1, r25	; 0x01
    249c:	80 83       	st	Z, r24
    249e:	08 c0       	rjmp	.+16     	; 0x24b0 <strtoul+0x1dc>
    24a0:	01 ff       	sbrs	r16, 1
    24a2:	06 c0       	rjmp	.+12     	; 0x24b0 <strtoul+0x1dc>
    24a4:	8d 81       	ldd	r24, Y+5	; 0x05
    24a6:	9e 81       	ldd	r25, Y+6	; 0x06
    24a8:	02 97       	sbiw	r24, 0x02	; 2
    24aa:	d6 01       	movw	r26, r12
    24ac:	8d 93       	st	X+, r24
    24ae:	9c 93       	st	X, r25
    24b0:	00 ff       	sbrs	r16, 0
    24b2:	07 c0       	rjmp	.+14     	; 0x24c2 <strtoul+0x1ee>
    24b4:	50 95       	com	r21
    24b6:	40 95       	com	r20
    24b8:	30 95       	com	r19
    24ba:	21 95       	neg	r18
    24bc:	3f 4f       	sbci	r19, 0xFF	; 255
    24be:	4f 4f       	sbci	r20, 0xFF	; 255
    24c0:	5f 4f       	sbci	r21, 0xFF	; 255
    24c2:	67 ff       	sbrs	r22, 7
    24c4:	10 c0       	rjmp	.+32     	; 0x24e6 <strtoul+0x212>
    24c6:	82 e2       	ldi	r24, 0x22	; 34
    24c8:	90 e0       	ldi	r25, 0x00	; 0
    24ca:	90 93 34 03 	sts	0x0334, r25
    24ce:	80 93 33 03 	sts	0x0333, r24
    24d2:	6f ef       	ldi	r22, 0xFF	; 255
    24d4:	7f ef       	ldi	r23, 0xFF	; 255
    24d6:	8f ef       	ldi	r24, 0xFF	; 255
    24d8:	9f ef       	ldi	r25, 0xFF	; 255
    24da:	1b c0       	rjmp	.+54     	; 0x2512 <strtoul+0x23e>
    24dc:	60 e0       	ldi	r22, 0x00	; 0
    24de:	70 e0       	ldi	r23, 0x00	; 0
    24e0:	80 e0       	ldi	r24, 0x00	; 0
    24e2:	90 e0       	ldi	r25, 0x00	; 0
    24e4:	16 c0       	rjmp	.+44     	; 0x2512 <strtoul+0x23e>
    24e6:	b9 01       	movw	r22, r18
    24e8:	ca 01       	movw	r24, r20
    24ea:	13 c0       	rjmp	.+38     	; 0x2512 <strtoul+0x23e>
    24ec:	10 e3       	ldi	r17, 0x30	; 48
    24ee:	e1 14       	cp	r14, r1
    24f0:	f1 04       	cpc	r15, r1
    24f2:	09 f4       	brne	.+2      	; 0x24f6 <strtoul+0x222>
    24f4:	5f cf       	rjmp	.-322    	; 0x23b4 <strtoul+0xe0>
    24f6:	51 cf       	rjmp	.-350    	; 0x239a <strtoul+0xc6>
    24f8:	10 33       	cpi	r17, 0x30	; 48
    24fa:	09 f4       	brne	.+2      	; 0x24fe <strtoul+0x22a>
    24fc:	3f cf       	rjmp	.-386    	; 0x237c <strtoul+0xa8>
    24fe:	9a e0       	ldi	r25, 0x0A	; 10
    2500:	e9 2e       	mov	r14, r25
    2502:	f1 2c       	mov	r15, r1
    2504:	89 e9       	ldi	r24, 0x99	; 153
    2506:	88 2e       	mov	r8, r24
    2508:	98 2c       	mov	r9, r8
    250a:	a8 2c       	mov	r10, r8
    250c:	89 e1       	ldi	r24, 0x19	; 25
    250e:	b8 2e       	mov	r11, r24
    2510:	6e cf       	rjmp	.-292    	; 0x23ee <strtoul+0x11a>
    2512:	26 96       	adiw	r28, 0x06	; 6
    2514:	0f b6       	in	r0, 0x3f	; 63
    2516:	f8 94       	cli
    2518:	de bf       	out	0x3e, r29	; 62
    251a:	0f be       	out	0x3f, r0	; 63
    251c:	cd bf       	out	0x3d, r28	; 61
    251e:	df 91       	pop	r29
    2520:	cf 91       	pop	r28
    2522:	1f 91       	pop	r17
    2524:	0f 91       	pop	r16
    2526:	ff 90       	pop	r15
    2528:	ef 90       	pop	r14
    252a:	df 90       	pop	r13
    252c:	cf 90       	pop	r12
    252e:	bf 90       	pop	r11
    2530:	af 90       	pop	r10
    2532:	9f 90       	pop	r9
    2534:	8f 90       	pop	r8
    2536:	7f 90       	pop	r7
    2538:	6f 90       	pop	r6
    253a:	5f 90       	pop	r5
    253c:	4f 90       	pop	r4
    253e:	3f 90       	pop	r3
    2540:	2f 90       	pop	r2
    2542:	08 95       	ret

00002544 <isspace>:
    2544:	91 11       	cpse	r25, r1
    2546:	38 c2       	rjmp	.+1136   	; 0x29b8 <__ctype_isfalse>
    2548:	80 32       	cpi	r24, 0x20	; 32
    254a:	19 f0       	breq	.+6      	; 0x2552 <isspace+0xe>
    254c:	89 50       	subi	r24, 0x09	; 9
    254e:	85 50       	subi	r24, 0x05	; 5
    2550:	d0 f7       	brcc	.-12     	; 0x2546 <isspace+0x2>
    2552:	08 95       	ret

00002554 <memset>:
    2554:	dc 01       	movw	r26, r24
    2556:	01 c0       	rjmp	.+2      	; 0x255a <memset+0x6>
    2558:	6d 93       	st	X+, r22
    255a:	41 50       	subi	r20, 0x01	; 1
    255c:	50 40       	sbci	r21, 0x00	; 0
    255e:	e0 f7       	brcc	.-8      	; 0x2558 <memset+0x4>
    2560:	08 95       	ret

00002562 <sprintf>:
    2562:	0f 93       	push	r16
    2564:	1f 93       	push	r17
    2566:	cf 93       	push	r28
    2568:	df 93       	push	r29
    256a:	cd b7       	in	r28, 0x3d	; 61
    256c:	de b7       	in	r29, 0x3e	; 62
    256e:	2e 97       	sbiw	r28, 0x0e	; 14
    2570:	0f b6       	in	r0, 0x3f	; 63
    2572:	f8 94       	cli
    2574:	de bf       	out	0x3e, r29	; 62
    2576:	0f be       	out	0x3f, r0	; 63
    2578:	cd bf       	out	0x3d, r28	; 61
    257a:	0d 89       	ldd	r16, Y+21	; 0x15
    257c:	1e 89       	ldd	r17, Y+22	; 0x16
    257e:	86 e0       	ldi	r24, 0x06	; 6
    2580:	8c 83       	std	Y+4, r24	; 0x04
    2582:	1a 83       	std	Y+2, r17	; 0x02
    2584:	09 83       	std	Y+1, r16	; 0x01
    2586:	8f ef       	ldi	r24, 0xFF	; 255
    2588:	9f e7       	ldi	r25, 0x7F	; 127
    258a:	9e 83       	std	Y+6, r25	; 0x06
    258c:	8d 83       	std	Y+5, r24	; 0x05
    258e:	ae 01       	movw	r20, r28
    2590:	47 5e       	subi	r20, 0xE7	; 231
    2592:	5f 4f       	sbci	r21, 0xFF	; 255
    2594:	6f 89       	ldd	r22, Y+23	; 0x17
    2596:	78 8d       	ldd	r23, Y+24	; 0x18
    2598:	ce 01       	movw	r24, r28
    259a:	01 96       	adiw	r24, 0x01	; 1
    259c:	0e 94 e1 12 	call	0x25c2	; 0x25c2 <vfprintf>
    25a0:	2f 81       	ldd	r18, Y+7	; 0x07
    25a2:	38 85       	ldd	r19, Y+8	; 0x08
    25a4:	f8 01       	movw	r30, r16
    25a6:	e2 0f       	add	r30, r18
    25a8:	f3 1f       	adc	r31, r19
    25aa:	10 82       	st	Z, r1
    25ac:	2e 96       	adiw	r28, 0x0e	; 14
    25ae:	0f b6       	in	r0, 0x3f	; 63
    25b0:	f8 94       	cli
    25b2:	de bf       	out	0x3e, r29	; 62
    25b4:	0f be       	out	0x3f, r0	; 63
    25b6:	cd bf       	out	0x3d, r28	; 61
    25b8:	df 91       	pop	r29
    25ba:	cf 91       	pop	r28
    25bc:	1f 91       	pop	r17
    25be:	0f 91       	pop	r16
    25c0:	08 95       	ret

000025c2 <vfprintf>:
    25c2:	2f 92       	push	r2
    25c4:	3f 92       	push	r3
    25c6:	4f 92       	push	r4
    25c8:	5f 92       	push	r5
    25ca:	6f 92       	push	r6
    25cc:	7f 92       	push	r7
    25ce:	8f 92       	push	r8
    25d0:	9f 92       	push	r9
    25d2:	af 92       	push	r10
    25d4:	bf 92       	push	r11
    25d6:	cf 92       	push	r12
    25d8:	df 92       	push	r13
    25da:	ef 92       	push	r14
    25dc:	ff 92       	push	r15
    25de:	0f 93       	push	r16
    25e0:	1f 93       	push	r17
    25e2:	cf 93       	push	r28
    25e4:	df 93       	push	r29
    25e6:	cd b7       	in	r28, 0x3d	; 61
    25e8:	de b7       	in	r29, 0x3e	; 62
    25ea:	2c 97       	sbiw	r28, 0x0c	; 12
    25ec:	0f b6       	in	r0, 0x3f	; 63
    25ee:	f8 94       	cli
    25f0:	de bf       	out	0x3e, r29	; 62
    25f2:	0f be       	out	0x3f, r0	; 63
    25f4:	cd bf       	out	0x3d, r28	; 61
    25f6:	7c 01       	movw	r14, r24
    25f8:	6b 01       	movw	r12, r22
    25fa:	8a 01       	movw	r16, r20
    25fc:	fc 01       	movw	r30, r24
    25fe:	17 82       	std	Z+7, r1	; 0x07
    2600:	16 82       	std	Z+6, r1	; 0x06
    2602:	83 81       	ldd	r24, Z+3	; 0x03
    2604:	81 ff       	sbrs	r24, 1
    2606:	bd c1       	rjmp	.+890    	; 0x2982 <vfprintf+0x3c0>
    2608:	ce 01       	movw	r24, r28
    260a:	01 96       	adiw	r24, 0x01	; 1
    260c:	4c 01       	movw	r8, r24
    260e:	f7 01       	movw	r30, r14
    2610:	93 81       	ldd	r25, Z+3	; 0x03
    2612:	f6 01       	movw	r30, r12
    2614:	93 fd       	sbrc	r25, 3
    2616:	85 91       	lpm	r24, Z+
    2618:	93 ff       	sbrs	r25, 3
    261a:	81 91       	ld	r24, Z+
    261c:	6f 01       	movw	r12, r30
    261e:	88 23       	and	r24, r24
    2620:	09 f4       	brne	.+2      	; 0x2624 <vfprintf+0x62>
    2622:	ab c1       	rjmp	.+854    	; 0x297a <vfprintf+0x3b8>
    2624:	85 32       	cpi	r24, 0x25	; 37
    2626:	39 f4       	brne	.+14     	; 0x2636 <vfprintf+0x74>
    2628:	93 fd       	sbrc	r25, 3
    262a:	85 91       	lpm	r24, Z+
    262c:	93 ff       	sbrs	r25, 3
    262e:	81 91       	ld	r24, Z+
    2630:	6f 01       	movw	r12, r30
    2632:	85 32       	cpi	r24, 0x25	; 37
    2634:	29 f4       	brne	.+10     	; 0x2640 <vfprintf+0x7e>
    2636:	b7 01       	movw	r22, r14
    2638:	90 e0       	ldi	r25, 0x00	; 0
    263a:	0e 94 f5 14 	call	0x29ea	; 0x29ea <fputc>
    263e:	e7 cf       	rjmp	.-50     	; 0x260e <vfprintf+0x4c>
    2640:	51 2c       	mov	r5, r1
    2642:	31 2c       	mov	r3, r1
    2644:	20 e0       	ldi	r18, 0x00	; 0
    2646:	20 32       	cpi	r18, 0x20	; 32
    2648:	a0 f4       	brcc	.+40     	; 0x2672 <vfprintf+0xb0>
    264a:	8b 32       	cpi	r24, 0x2B	; 43
    264c:	69 f0       	breq	.+26     	; 0x2668 <vfprintf+0xa6>
    264e:	30 f4       	brcc	.+12     	; 0x265c <vfprintf+0x9a>
    2650:	80 32       	cpi	r24, 0x20	; 32
    2652:	59 f0       	breq	.+22     	; 0x266a <vfprintf+0xa8>
    2654:	83 32       	cpi	r24, 0x23	; 35
    2656:	69 f4       	brne	.+26     	; 0x2672 <vfprintf+0xb0>
    2658:	20 61       	ori	r18, 0x10	; 16
    265a:	2c c0       	rjmp	.+88     	; 0x26b4 <vfprintf+0xf2>
    265c:	8d 32       	cpi	r24, 0x2D	; 45
    265e:	39 f0       	breq	.+14     	; 0x266e <vfprintf+0xac>
    2660:	80 33       	cpi	r24, 0x30	; 48
    2662:	39 f4       	brne	.+14     	; 0x2672 <vfprintf+0xb0>
    2664:	21 60       	ori	r18, 0x01	; 1
    2666:	26 c0       	rjmp	.+76     	; 0x26b4 <vfprintf+0xf2>
    2668:	22 60       	ori	r18, 0x02	; 2
    266a:	24 60       	ori	r18, 0x04	; 4
    266c:	23 c0       	rjmp	.+70     	; 0x26b4 <vfprintf+0xf2>
    266e:	28 60       	ori	r18, 0x08	; 8
    2670:	21 c0       	rjmp	.+66     	; 0x26b4 <vfprintf+0xf2>
    2672:	27 fd       	sbrc	r18, 7
    2674:	27 c0       	rjmp	.+78     	; 0x26c4 <vfprintf+0x102>
    2676:	30 ed       	ldi	r19, 0xD0	; 208
    2678:	38 0f       	add	r19, r24
    267a:	3a 30       	cpi	r19, 0x0A	; 10
    267c:	78 f4       	brcc	.+30     	; 0x269c <vfprintf+0xda>
    267e:	26 ff       	sbrs	r18, 6
    2680:	06 c0       	rjmp	.+12     	; 0x268e <vfprintf+0xcc>
    2682:	fa e0       	ldi	r31, 0x0A	; 10
    2684:	5f 9e       	mul	r5, r31
    2686:	30 0d       	add	r19, r0
    2688:	11 24       	eor	r1, r1
    268a:	53 2e       	mov	r5, r19
    268c:	13 c0       	rjmp	.+38     	; 0x26b4 <vfprintf+0xf2>
    268e:	8a e0       	ldi	r24, 0x0A	; 10
    2690:	38 9e       	mul	r3, r24
    2692:	30 0d       	add	r19, r0
    2694:	11 24       	eor	r1, r1
    2696:	33 2e       	mov	r3, r19
    2698:	20 62       	ori	r18, 0x20	; 32
    269a:	0c c0       	rjmp	.+24     	; 0x26b4 <vfprintf+0xf2>
    269c:	8e 32       	cpi	r24, 0x2E	; 46
    269e:	21 f4       	brne	.+8      	; 0x26a8 <vfprintf+0xe6>
    26a0:	26 fd       	sbrc	r18, 6
    26a2:	6b c1       	rjmp	.+726    	; 0x297a <vfprintf+0x3b8>
    26a4:	20 64       	ori	r18, 0x40	; 64
    26a6:	06 c0       	rjmp	.+12     	; 0x26b4 <vfprintf+0xf2>
    26a8:	8c 36       	cpi	r24, 0x6C	; 108
    26aa:	11 f4       	brne	.+4      	; 0x26b0 <vfprintf+0xee>
    26ac:	20 68       	ori	r18, 0x80	; 128
    26ae:	02 c0       	rjmp	.+4      	; 0x26b4 <vfprintf+0xf2>
    26b0:	88 36       	cpi	r24, 0x68	; 104
    26b2:	41 f4       	brne	.+16     	; 0x26c4 <vfprintf+0x102>
    26b4:	f6 01       	movw	r30, r12
    26b6:	93 fd       	sbrc	r25, 3
    26b8:	85 91       	lpm	r24, Z+
    26ba:	93 ff       	sbrs	r25, 3
    26bc:	81 91       	ld	r24, Z+
    26be:	6f 01       	movw	r12, r30
    26c0:	81 11       	cpse	r24, r1
    26c2:	c1 cf       	rjmp	.-126    	; 0x2646 <vfprintf+0x84>
    26c4:	98 2f       	mov	r25, r24
    26c6:	9f 7d       	andi	r25, 0xDF	; 223
    26c8:	95 54       	subi	r25, 0x45	; 69
    26ca:	93 30       	cpi	r25, 0x03	; 3
    26cc:	28 f4       	brcc	.+10     	; 0x26d8 <vfprintf+0x116>
    26ce:	0c 5f       	subi	r16, 0xFC	; 252
    26d0:	1f 4f       	sbci	r17, 0xFF	; 255
    26d2:	ff e3       	ldi	r31, 0x3F	; 63
    26d4:	f9 83       	std	Y+1, r31	; 0x01
    26d6:	0d c0       	rjmp	.+26     	; 0x26f2 <vfprintf+0x130>
    26d8:	83 36       	cpi	r24, 0x63	; 99
    26da:	31 f0       	breq	.+12     	; 0x26e8 <vfprintf+0x126>
    26dc:	83 37       	cpi	r24, 0x73	; 115
    26de:	71 f0       	breq	.+28     	; 0x26fc <vfprintf+0x13a>
    26e0:	83 35       	cpi	r24, 0x53	; 83
    26e2:	09 f0       	breq	.+2      	; 0x26e6 <vfprintf+0x124>
    26e4:	5b c0       	rjmp	.+182    	; 0x279c <vfprintf+0x1da>
    26e6:	22 c0       	rjmp	.+68     	; 0x272c <vfprintf+0x16a>
    26e8:	f8 01       	movw	r30, r16
    26ea:	80 81       	ld	r24, Z
    26ec:	89 83       	std	Y+1, r24	; 0x01
    26ee:	0e 5f       	subi	r16, 0xFE	; 254
    26f0:	1f 4f       	sbci	r17, 0xFF	; 255
    26f2:	44 24       	eor	r4, r4
    26f4:	43 94       	inc	r4
    26f6:	51 2c       	mov	r5, r1
    26f8:	54 01       	movw	r10, r8
    26fa:	15 c0       	rjmp	.+42     	; 0x2726 <vfprintf+0x164>
    26fc:	38 01       	movw	r6, r16
    26fe:	f2 e0       	ldi	r31, 0x02	; 2
    2700:	6f 0e       	add	r6, r31
    2702:	71 1c       	adc	r7, r1
    2704:	f8 01       	movw	r30, r16
    2706:	a0 80       	ld	r10, Z
    2708:	b1 80       	ldd	r11, Z+1	; 0x01
    270a:	26 ff       	sbrs	r18, 6
    270c:	03 c0       	rjmp	.+6      	; 0x2714 <vfprintf+0x152>
    270e:	65 2d       	mov	r22, r5
    2710:	70 e0       	ldi	r23, 0x00	; 0
    2712:	02 c0       	rjmp	.+4      	; 0x2718 <vfprintf+0x156>
    2714:	6f ef       	ldi	r22, 0xFF	; 255
    2716:	7f ef       	ldi	r23, 0xFF	; 255
    2718:	c5 01       	movw	r24, r10
    271a:	2c 87       	std	Y+12, r18	; 0x0c
    271c:	0e 94 ea 14 	call	0x29d4	; 0x29d4 <strnlen>
    2720:	2c 01       	movw	r4, r24
    2722:	83 01       	movw	r16, r6
    2724:	2c 85       	ldd	r18, Y+12	; 0x0c
    2726:	2f 77       	andi	r18, 0x7F	; 127
    2728:	22 2e       	mov	r2, r18
    272a:	17 c0       	rjmp	.+46     	; 0x275a <vfprintf+0x198>
    272c:	38 01       	movw	r6, r16
    272e:	f2 e0       	ldi	r31, 0x02	; 2
    2730:	6f 0e       	add	r6, r31
    2732:	71 1c       	adc	r7, r1
    2734:	f8 01       	movw	r30, r16
    2736:	a0 80       	ld	r10, Z
    2738:	b1 80       	ldd	r11, Z+1	; 0x01
    273a:	26 ff       	sbrs	r18, 6
    273c:	03 c0       	rjmp	.+6      	; 0x2744 <vfprintf+0x182>
    273e:	65 2d       	mov	r22, r5
    2740:	70 e0       	ldi	r23, 0x00	; 0
    2742:	02 c0       	rjmp	.+4      	; 0x2748 <vfprintf+0x186>
    2744:	6f ef       	ldi	r22, 0xFF	; 255
    2746:	7f ef       	ldi	r23, 0xFF	; 255
    2748:	c5 01       	movw	r24, r10
    274a:	2c 87       	std	Y+12, r18	; 0x0c
    274c:	0e 94 df 14 	call	0x29be	; 0x29be <strnlen_P>
    2750:	2c 01       	movw	r4, r24
    2752:	2c 85       	ldd	r18, Y+12	; 0x0c
    2754:	20 68       	ori	r18, 0x80	; 128
    2756:	22 2e       	mov	r2, r18
    2758:	83 01       	movw	r16, r6
    275a:	23 fc       	sbrc	r2, 3
    275c:	1b c0       	rjmp	.+54     	; 0x2794 <vfprintf+0x1d2>
    275e:	83 2d       	mov	r24, r3
    2760:	90 e0       	ldi	r25, 0x00	; 0
    2762:	48 16       	cp	r4, r24
    2764:	59 06       	cpc	r5, r25
    2766:	b0 f4       	brcc	.+44     	; 0x2794 <vfprintf+0x1d2>
    2768:	b7 01       	movw	r22, r14
    276a:	80 e2       	ldi	r24, 0x20	; 32
    276c:	90 e0       	ldi	r25, 0x00	; 0
    276e:	0e 94 f5 14 	call	0x29ea	; 0x29ea <fputc>
    2772:	3a 94       	dec	r3
    2774:	f4 cf       	rjmp	.-24     	; 0x275e <vfprintf+0x19c>
    2776:	f5 01       	movw	r30, r10
    2778:	27 fc       	sbrc	r2, 7
    277a:	85 91       	lpm	r24, Z+
    277c:	27 fe       	sbrs	r2, 7
    277e:	81 91       	ld	r24, Z+
    2780:	5f 01       	movw	r10, r30
    2782:	b7 01       	movw	r22, r14
    2784:	90 e0       	ldi	r25, 0x00	; 0
    2786:	0e 94 f5 14 	call	0x29ea	; 0x29ea <fputc>
    278a:	31 10       	cpse	r3, r1
    278c:	3a 94       	dec	r3
    278e:	f1 e0       	ldi	r31, 0x01	; 1
    2790:	4f 1a       	sub	r4, r31
    2792:	51 08       	sbc	r5, r1
    2794:	41 14       	cp	r4, r1
    2796:	51 04       	cpc	r5, r1
    2798:	71 f7       	brne	.-36     	; 0x2776 <vfprintf+0x1b4>
    279a:	e5 c0       	rjmp	.+458    	; 0x2966 <vfprintf+0x3a4>
    279c:	84 36       	cpi	r24, 0x64	; 100
    279e:	11 f0       	breq	.+4      	; 0x27a4 <vfprintf+0x1e2>
    27a0:	89 36       	cpi	r24, 0x69	; 105
    27a2:	39 f5       	brne	.+78     	; 0x27f2 <vfprintf+0x230>
    27a4:	f8 01       	movw	r30, r16
    27a6:	27 ff       	sbrs	r18, 7
    27a8:	07 c0       	rjmp	.+14     	; 0x27b8 <vfprintf+0x1f6>
    27aa:	60 81       	ld	r22, Z
    27ac:	71 81       	ldd	r23, Z+1	; 0x01
    27ae:	82 81       	ldd	r24, Z+2	; 0x02
    27b0:	93 81       	ldd	r25, Z+3	; 0x03
    27b2:	0c 5f       	subi	r16, 0xFC	; 252
    27b4:	1f 4f       	sbci	r17, 0xFF	; 255
    27b6:	08 c0       	rjmp	.+16     	; 0x27c8 <vfprintf+0x206>
    27b8:	60 81       	ld	r22, Z
    27ba:	71 81       	ldd	r23, Z+1	; 0x01
    27bc:	88 27       	eor	r24, r24
    27be:	77 fd       	sbrc	r23, 7
    27c0:	80 95       	com	r24
    27c2:	98 2f       	mov	r25, r24
    27c4:	0e 5f       	subi	r16, 0xFE	; 254
    27c6:	1f 4f       	sbci	r17, 0xFF	; 255
    27c8:	2f 76       	andi	r18, 0x6F	; 111
    27ca:	72 2e       	mov	r7, r18
    27cc:	97 ff       	sbrs	r25, 7
    27ce:	09 c0       	rjmp	.+18     	; 0x27e2 <vfprintf+0x220>
    27d0:	90 95       	com	r25
    27d2:	80 95       	com	r24
    27d4:	70 95       	com	r23
    27d6:	61 95       	neg	r22
    27d8:	7f 4f       	sbci	r23, 0xFF	; 255
    27da:	8f 4f       	sbci	r24, 0xFF	; 255
    27dc:	9f 4f       	sbci	r25, 0xFF	; 255
    27de:	20 68       	ori	r18, 0x80	; 128
    27e0:	72 2e       	mov	r7, r18
    27e2:	2a e0       	ldi	r18, 0x0A	; 10
    27e4:	30 e0       	ldi	r19, 0x00	; 0
    27e6:	a4 01       	movw	r20, r8
    27e8:	0e 94 2d 15 	call	0x2a5a	; 0x2a5a <__ultoa_invert>
    27ec:	a8 2e       	mov	r10, r24
    27ee:	a8 18       	sub	r10, r8
    27f0:	44 c0       	rjmp	.+136    	; 0x287a <vfprintf+0x2b8>
    27f2:	85 37       	cpi	r24, 0x75	; 117
    27f4:	29 f4       	brne	.+10     	; 0x2800 <vfprintf+0x23e>
    27f6:	2f 7e       	andi	r18, 0xEF	; 239
    27f8:	b2 2e       	mov	r11, r18
    27fa:	2a e0       	ldi	r18, 0x0A	; 10
    27fc:	30 e0       	ldi	r19, 0x00	; 0
    27fe:	25 c0       	rjmp	.+74     	; 0x284a <vfprintf+0x288>
    2800:	f2 2f       	mov	r31, r18
    2802:	f9 7f       	andi	r31, 0xF9	; 249
    2804:	bf 2e       	mov	r11, r31
    2806:	8f 36       	cpi	r24, 0x6F	; 111
    2808:	c1 f0       	breq	.+48     	; 0x283a <vfprintf+0x278>
    280a:	18 f4       	brcc	.+6      	; 0x2812 <vfprintf+0x250>
    280c:	88 35       	cpi	r24, 0x58	; 88
    280e:	79 f0       	breq	.+30     	; 0x282e <vfprintf+0x26c>
    2810:	b4 c0       	rjmp	.+360    	; 0x297a <vfprintf+0x3b8>
    2812:	80 37       	cpi	r24, 0x70	; 112
    2814:	19 f0       	breq	.+6      	; 0x281c <vfprintf+0x25a>
    2816:	88 37       	cpi	r24, 0x78	; 120
    2818:	21 f0       	breq	.+8      	; 0x2822 <vfprintf+0x260>
    281a:	af c0       	rjmp	.+350    	; 0x297a <vfprintf+0x3b8>
    281c:	2f 2f       	mov	r18, r31
    281e:	20 61       	ori	r18, 0x10	; 16
    2820:	b2 2e       	mov	r11, r18
    2822:	b4 fe       	sbrs	r11, 4
    2824:	0d c0       	rjmp	.+26     	; 0x2840 <vfprintf+0x27e>
    2826:	8b 2d       	mov	r24, r11
    2828:	84 60       	ori	r24, 0x04	; 4
    282a:	b8 2e       	mov	r11, r24
    282c:	09 c0       	rjmp	.+18     	; 0x2840 <vfprintf+0x27e>
    282e:	24 ff       	sbrs	r18, 4
    2830:	0a c0       	rjmp	.+20     	; 0x2846 <vfprintf+0x284>
    2832:	9f 2f       	mov	r25, r31
    2834:	96 60       	ori	r25, 0x06	; 6
    2836:	b9 2e       	mov	r11, r25
    2838:	06 c0       	rjmp	.+12     	; 0x2846 <vfprintf+0x284>
    283a:	28 e0       	ldi	r18, 0x08	; 8
    283c:	30 e0       	ldi	r19, 0x00	; 0
    283e:	05 c0       	rjmp	.+10     	; 0x284a <vfprintf+0x288>
    2840:	20 e1       	ldi	r18, 0x10	; 16
    2842:	30 e0       	ldi	r19, 0x00	; 0
    2844:	02 c0       	rjmp	.+4      	; 0x284a <vfprintf+0x288>
    2846:	20 e1       	ldi	r18, 0x10	; 16
    2848:	32 e0       	ldi	r19, 0x02	; 2
    284a:	f8 01       	movw	r30, r16
    284c:	b7 fe       	sbrs	r11, 7
    284e:	07 c0       	rjmp	.+14     	; 0x285e <vfprintf+0x29c>
    2850:	60 81       	ld	r22, Z
    2852:	71 81       	ldd	r23, Z+1	; 0x01
    2854:	82 81       	ldd	r24, Z+2	; 0x02
    2856:	93 81       	ldd	r25, Z+3	; 0x03
    2858:	0c 5f       	subi	r16, 0xFC	; 252
    285a:	1f 4f       	sbci	r17, 0xFF	; 255
    285c:	06 c0       	rjmp	.+12     	; 0x286a <vfprintf+0x2a8>
    285e:	60 81       	ld	r22, Z
    2860:	71 81       	ldd	r23, Z+1	; 0x01
    2862:	80 e0       	ldi	r24, 0x00	; 0
    2864:	90 e0       	ldi	r25, 0x00	; 0
    2866:	0e 5f       	subi	r16, 0xFE	; 254
    2868:	1f 4f       	sbci	r17, 0xFF	; 255
    286a:	a4 01       	movw	r20, r8
    286c:	0e 94 2d 15 	call	0x2a5a	; 0x2a5a <__ultoa_invert>
    2870:	a8 2e       	mov	r10, r24
    2872:	a8 18       	sub	r10, r8
    2874:	fb 2d       	mov	r31, r11
    2876:	ff 77       	andi	r31, 0x7F	; 127
    2878:	7f 2e       	mov	r7, r31
    287a:	76 fe       	sbrs	r7, 6
    287c:	0b c0       	rjmp	.+22     	; 0x2894 <vfprintf+0x2d2>
    287e:	37 2d       	mov	r19, r7
    2880:	3e 7f       	andi	r19, 0xFE	; 254
    2882:	a5 14       	cp	r10, r5
    2884:	50 f4       	brcc	.+20     	; 0x289a <vfprintf+0x2d8>
    2886:	74 fe       	sbrs	r7, 4
    2888:	0a c0       	rjmp	.+20     	; 0x289e <vfprintf+0x2dc>
    288a:	72 fc       	sbrc	r7, 2
    288c:	08 c0       	rjmp	.+16     	; 0x289e <vfprintf+0x2dc>
    288e:	37 2d       	mov	r19, r7
    2890:	3e 7e       	andi	r19, 0xEE	; 238
    2892:	05 c0       	rjmp	.+10     	; 0x289e <vfprintf+0x2dc>
    2894:	ba 2c       	mov	r11, r10
    2896:	37 2d       	mov	r19, r7
    2898:	03 c0       	rjmp	.+6      	; 0x28a0 <vfprintf+0x2de>
    289a:	ba 2c       	mov	r11, r10
    289c:	01 c0       	rjmp	.+2      	; 0x28a0 <vfprintf+0x2de>
    289e:	b5 2c       	mov	r11, r5
    28a0:	34 ff       	sbrs	r19, 4
    28a2:	0d c0       	rjmp	.+26     	; 0x28be <vfprintf+0x2fc>
    28a4:	fe 01       	movw	r30, r28
    28a6:	ea 0d       	add	r30, r10
    28a8:	f1 1d       	adc	r31, r1
    28aa:	80 81       	ld	r24, Z
    28ac:	80 33       	cpi	r24, 0x30	; 48
    28ae:	11 f4       	brne	.+4      	; 0x28b4 <vfprintf+0x2f2>
    28b0:	39 7e       	andi	r19, 0xE9	; 233
    28b2:	09 c0       	rjmp	.+18     	; 0x28c6 <vfprintf+0x304>
    28b4:	32 ff       	sbrs	r19, 2
    28b6:	06 c0       	rjmp	.+12     	; 0x28c4 <vfprintf+0x302>
    28b8:	b3 94       	inc	r11
    28ba:	b3 94       	inc	r11
    28bc:	04 c0       	rjmp	.+8      	; 0x28c6 <vfprintf+0x304>
    28be:	83 2f       	mov	r24, r19
    28c0:	86 78       	andi	r24, 0x86	; 134
    28c2:	09 f0       	breq	.+2      	; 0x28c6 <vfprintf+0x304>
    28c4:	b3 94       	inc	r11
    28c6:	33 fd       	sbrc	r19, 3
    28c8:	13 c0       	rjmp	.+38     	; 0x28f0 <vfprintf+0x32e>
    28ca:	30 ff       	sbrs	r19, 0
    28cc:	06 c0       	rjmp	.+12     	; 0x28da <vfprintf+0x318>
    28ce:	5a 2c       	mov	r5, r10
    28d0:	b3 14       	cp	r11, r3
    28d2:	18 f4       	brcc	.+6      	; 0x28da <vfprintf+0x318>
    28d4:	53 0c       	add	r5, r3
    28d6:	5b 18       	sub	r5, r11
    28d8:	b3 2c       	mov	r11, r3
    28da:	b3 14       	cp	r11, r3
    28dc:	68 f4       	brcc	.+26     	; 0x28f8 <vfprintf+0x336>
    28de:	b7 01       	movw	r22, r14
    28e0:	80 e2       	ldi	r24, 0x20	; 32
    28e2:	90 e0       	ldi	r25, 0x00	; 0
    28e4:	3c 87       	std	Y+12, r19	; 0x0c
    28e6:	0e 94 f5 14 	call	0x29ea	; 0x29ea <fputc>
    28ea:	b3 94       	inc	r11
    28ec:	3c 85       	ldd	r19, Y+12	; 0x0c
    28ee:	f5 cf       	rjmp	.-22     	; 0x28da <vfprintf+0x318>
    28f0:	b3 14       	cp	r11, r3
    28f2:	10 f4       	brcc	.+4      	; 0x28f8 <vfprintf+0x336>
    28f4:	3b 18       	sub	r3, r11
    28f6:	01 c0       	rjmp	.+2      	; 0x28fa <vfprintf+0x338>
    28f8:	31 2c       	mov	r3, r1
    28fa:	34 ff       	sbrs	r19, 4
    28fc:	12 c0       	rjmp	.+36     	; 0x2922 <vfprintf+0x360>
    28fe:	b7 01       	movw	r22, r14
    2900:	80 e3       	ldi	r24, 0x30	; 48
    2902:	90 e0       	ldi	r25, 0x00	; 0
    2904:	3c 87       	std	Y+12, r19	; 0x0c
    2906:	0e 94 f5 14 	call	0x29ea	; 0x29ea <fputc>
    290a:	3c 85       	ldd	r19, Y+12	; 0x0c
    290c:	32 ff       	sbrs	r19, 2
    290e:	17 c0       	rjmp	.+46     	; 0x293e <vfprintf+0x37c>
    2910:	31 fd       	sbrc	r19, 1
    2912:	03 c0       	rjmp	.+6      	; 0x291a <vfprintf+0x358>
    2914:	88 e7       	ldi	r24, 0x78	; 120
    2916:	90 e0       	ldi	r25, 0x00	; 0
    2918:	02 c0       	rjmp	.+4      	; 0x291e <vfprintf+0x35c>
    291a:	88 e5       	ldi	r24, 0x58	; 88
    291c:	90 e0       	ldi	r25, 0x00	; 0
    291e:	b7 01       	movw	r22, r14
    2920:	0c c0       	rjmp	.+24     	; 0x293a <vfprintf+0x378>
    2922:	83 2f       	mov	r24, r19
    2924:	86 78       	andi	r24, 0x86	; 134
    2926:	59 f0       	breq	.+22     	; 0x293e <vfprintf+0x37c>
    2928:	31 ff       	sbrs	r19, 1
    292a:	02 c0       	rjmp	.+4      	; 0x2930 <vfprintf+0x36e>
    292c:	8b e2       	ldi	r24, 0x2B	; 43
    292e:	01 c0       	rjmp	.+2      	; 0x2932 <vfprintf+0x370>
    2930:	80 e2       	ldi	r24, 0x20	; 32
    2932:	37 fd       	sbrc	r19, 7
    2934:	8d e2       	ldi	r24, 0x2D	; 45
    2936:	b7 01       	movw	r22, r14
    2938:	90 e0       	ldi	r25, 0x00	; 0
    293a:	0e 94 f5 14 	call	0x29ea	; 0x29ea <fputc>
    293e:	a5 14       	cp	r10, r5
    2940:	38 f4       	brcc	.+14     	; 0x2950 <vfprintf+0x38e>
    2942:	b7 01       	movw	r22, r14
    2944:	80 e3       	ldi	r24, 0x30	; 48
    2946:	90 e0       	ldi	r25, 0x00	; 0
    2948:	0e 94 f5 14 	call	0x29ea	; 0x29ea <fputc>
    294c:	5a 94       	dec	r5
    294e:	f7 cf       	rjmp	.-18     	; 0x293e <vfprintf+0x37c>
    2950:	aa 94       	dec	r10
    2952:	f4 01       	movw	r30, r8
    2954:	ea 0d       	add	r30, r10
    2956:	f1 1d       	adc	r31, r1
    2958:	80 81       	ld	r24, Z
    295a:	b7 01       	movw	r22, r14
    295c:	90 e0       	ldi	r25, 0x00	; 0
    295e:	0e 94 f5 14 	call	0x29ea	; 0x29ea <fputc>
    2962:	a1 10       	cpse	r10, r1
    2964:	f5 cf       	rjmp	.-22     	; 0x2950 <vfprintf+0x38e>
    2966:	33 20       	and	r3, r3
    2968:	09 f4       	brne	.+2      	; 0x296c <vfprintf+0x3aa>
    296a:	51 ce       	rjmp	.-862    	; 0x260e <vfprintf+0x4c>
    296c:	b7 01       	movw	r22, r14
    296e:	80 e2       	ldi	r24, 0x20	; 32
    2970:	90 e0       	ldi	r25, 0x00	; 0
    2972:	0e 94 f5 14 	call	0x29ea	; 0x29ea <fputc>
    2976:	3a 94       	dec	r3
    2978:	f6 cf       	rjmp	.-20     	; 0x2966 <vfprintf+0x3a4>
    297a:	f7 01       	movw	r30, r14
    297c:	86 81       	ldd	r24, Z+6	; 0x06
    297e:	97 81       	ldd	r25, Z+7	; 0x07
    2980:	02 c0       	rjmp	.+4      	; 0x2986 <vfprintf+0x3c4>
    2982:	8f ef       	ldi	r24, 0xFF	; 255
    2984:	9f ef       	ldi	r25, 0xFF	; 255
    2986:	2c 96       	adiw	r28, 0x0c	; 12
    2988:	0f b6       	in	r0, 0x3f	; 63
    298a:	f8 94       	cli
    298c:	de bf       	out	0x3e, r29	; 62
    298e:	0f be       	out	0x3f, r0	; 63
    2990:	cd bf       	out	0x3d, r28	; 61
    2992:	df 91       	pop	r29
    2994:	cf 91       	pop	r28
    2996:	1f 91       	pop	r17
    2998:	0f 91       	pop	r16
    299a:	ff 90       	pop	r15
    299c:	ef 90       	pop	r14
    299e:	df 90       	pop	r13
    29a0:	cf 90       	pop	r12
    29a2:	bf 90       	pop	r11
    29a4:	af 90       	pop	r10
    29a6:	9f 90       	pop	r9
    29a8:	8f 90       	pop	r8
    29aa:	7f 90       	pop	r7
    29ac:	6f 90       	pop	r6
    29ae:	5f 90       	pop	r5
    29b0:	4f 90       	pop	r4
    29b2:	3f 90       	pop	r3
    29b4:	2f 90       	pop	r2
    29b6:	08 95       	ret

000029b8 <__ctype_isfalse>:
    29b8:	99 27       	eor	r25, r25
    29ba:	88 27       	eor	r24, r24

000029bc <__ctype_istrue>:
    29bc:	08 95       	ret

000029be <strnlen_P>:
    29be:	fc 01       	movw	r30, r24
    29c0:	05 90       	lpm	r0, Z+
    29c2:	61 50       	subi	r22, 0x01	; 1
    29c4:	70 40       	sbci	r23, 0x00	; 0
    29c6:	01 10       	cpse	r0, r1
    29c8:	d8 f7       	brcc	.-10     	; 0x29c0 <strnlen_P+0x2>
    29ca:	80 95       	com	r24
    29cc:	90 95       	com	r25
    29ce:	8e 0f       	add	r24, r30
    29d0:	9f 1f       	adc	r25, r31
    29d2:	08 95       	ret

000029d4 <strnlen>:
    29d4:	fc 01       	movw	r30, r24
    29d6:	61 50       	subi	r22, 0x01	; 1
    29d8:	70 40       	sbci	r23, 0x00	; 0
    29da:	01 90       	ld	r0, Z+
    29dc:	01 10       	cpse	r0, r1
    29de:	d8 f7       	brcc	.-10     	; 0x29d6 <strnlen+0x2>
    29e0:	80 95       	com	r24
    29e2:	90 95       	com	r25
    29e4:	8e 0f       	add	r24, r30
    29e6:	9f 1f       	adc	r25, r31
    29e8:	08 95       	ret

000029ea <fputc>:
    29ea:	0f 93       	push	r16
    29ec:	1f 93       	push	r17
    29ee:	cf 93       	push	r28
    29f0:	df 93       	push	r29
    29f2:	fb 01       	movw	r30, r22
    29f4:	23 81       	ldd	r18, Z+3	; 0x03
    29f6:	21 fd       	sbrc	r18, 1
    29f8:	03 c0       	rjmp	.+6      	; 0x2a00 <fputc+0x16>
    29fa:	8f ef       	ldi	r24, 0xFF	; 255
    29fc:	9f ef       	ldi	r25, 0xFF	; 255
    29fe:	28 c0       	rjmp	.+80     	; 0x2a50 <fputc+0x66>
    2a00:	22 ff       	sbrs	r18, 2
    2a02:	16 c0       	rjmp	.+44     	; 0x2a30 <fputc+0x46>
    2a04:	46 81       	ldd	r20, Z+6	; 0x06
    2a06:	57 81       	ldd	r21, Z+7	; 0x07
    2a08:	24 81       	ldd	r18, Z+4	; 0x04
    2a0a:	35 81       	ldd	r19, Z+5	; 0x05
    2a0c:	42 17       	cp	r20, r18
    2a0e:	53 07       	cpc	r21, r19
    2a10:	44 f4       	brge	.+16     	; 0x2a22 <fputc+0x38>
    2a12:	a0 81       	ld	r26, Z
    2a14:	b1 81       	ldd	r27, Z+1	; 0x01
    2a16:	9d 01       	movw	r18, r26
    2a18:	2f 5f       	subi	r18, 0xFF	; 255
    2a1a:	3f 4f       	sbci	r19, 0xFF	; 255
    2a1c:	31 83       	std	Z+1, r19	; 0x01
    2a1e:	20 83       	st	Z, r18
    2a20:	8c 93       	st	X, r24
    2a22:	26 81       	ldd	r18, Z+6	; 0x06
    2a24:	37 81       	ldd	r19, Z+7	; 0x07
    2a26:	2f 5f       	subi	r18, 0xFF	; 255
    2a28:	3f 4f       	sbci	r19, 0xFF	; 255
    2a2a:	37 83       	std	Z+7, r19	; 0x07
    2a2c:	26 83       	std	Z+6, r18	; 0x06
    2a2e:	10 c0       	rjmp	.+32     	; 0x2a50 <fputc+0x66>
    2a30:	eb 01       	movw	r28, r22
    2a32:	09 2f       	mov	r16, r25
    2a34:	18 2f       	mov	r17, r24
    2a36:	00 84       	ldd	r0, Z+8	; 0x08
    2a38:	f1 85       	ldd	r31, Z+9	; 0x09
    2a3a:	e0 2d       	mov	r30, r0
    2a3c:	09 95       	icall
    2a3e:	89 2b       	or	r24, r25
    2a40:	e1 f6       	brne	.-72     	; 0x29fa <fputc+0x10>
    2a42:	8e 81       	ldd	r24, Y+6	; 0x06
    2a44:	9f 81       	ldd	r25, Y+7	; 0x07
    2a46:	01 96       	adiw	r24, 0x01	; 1
    2a48:	9f 83       	std	Y+7, r25	; 0x07
    2a4a:	8e 83       	std	Y+6, r24	; 0x06
    2a4c:	81 2f       	mov	r24, r17
    2a4e:	90 2f       	mov	r25, r16
    2a50:	df 91       	pop	r29
    2a52:	cf 91       	pop	r28
    2a54:	1f 91       	pop	r17
    2a56:	0f 91       	pop	r16
    2a58:	08 95       	ret

00002a5a <__ultoa_invert>:
    2a5a:	fa 01       	movw	r30, r20
    2a5c:	aa 27       	eor	r26, r26
    2a5e:	28 30       	cpi	r18, 0x08	; 8
    2a60:	51 f1       	breq	.+84     	; 0x2ab6 <__ultoa_invert+0x5c>
    2a62:	20 31       	cpi	r18, 0x10	; 16
    2a64:	81 f1       	breq	.+96     	; 0x2ac6 <__ultoa_invert+0x6c>
    2a66:	e8 94       	clt
    2a68:	6f 93       	push	r22
    2a6a:	6e 7f       	andi	r22, 0xFE	; 254
    2a6c:	6e 5f       	subi	r22, 0xFE	; 254
    2a6e:	7f 4f       	sbci	r23, 0xFF	; 255
    2a70:	8f 4f       	sbci	r24, 0xFF	; 255
    2a72:	9f 4f       	sbci	r25, 0xFF	; 255
    2a74:	af 4f       	sbci	r26, 0xFF	; 255
    2a76:	b1 e0       	ldi	r27, 0x01	; 1
    2a78:	3e d0       	rcall	.+124    	; 0x2af6 <__ultoa_invert+0x9c>
    2a7a:	b4 e0       	ldi	r27, 0x04	; 4
    2a7c:	3c d0       	rcall	.+120    	; 0x2af6 <__ultoa_invert+0x9c>
    2a7e:	67 0f       	add	r22, r23
    2a80:	78 1f       	adc	r23, r24
    2a82:	89 1f       	adc	r24, r25
    2a84:	9a 1f       	adc	r25, r26
    2a86:	a1 1d       	adc	r26, r1
    2a88:	68 0f       	add	r22, r24
    2a8a:	79 1f       	adc	r23, r25
    2a8c:	8a 1f       	adc	r24, r26
    2a8e:	91 1d       	adc	r25, r1
    2a90:	a1 1d       	adc	r26, r1
    2a92:	6a 0f       	add	r22, r26
    2a94:	71 1d       	adc	r23, r1
    2a96:	81 1d       	adc	r24, r1
    2a98:	91 1d       	adc	r25, r1
    2a9a:	a1 1d       	adc	r26, r1
    2a9c:	20 d0       	rcall	.+64     	; 0x2ade <__ultoa_invert+0x84>
    2a9e:	09 f4       	brne	.+2      	; 0x2aa2 <__ultoa_invert+0x48>
    2aa0:	68 94       	set
    2aa2:	3f 91       	pop	r19
    2aa4:	2a e0       	ldi	r18, 0x0A	; 10
    2aa6:	26 9f       	mul	r18, r22
    2aa8:	11 24       	eor	r1, r1
    2aaa:	30 19       	sub	r19, r0
    2aac:	30 5d       	subi	r19, 0xD0	; 208
    2aae:	31 93       	st	Z+, r19
    2ab0:	de f6       	brtc	.-74     	; 0x2a68 <__ultoa_invert+0xe>
    2ab2:	cf 01       	movw	r24, r30
    2ab4:	08 95       	ret
    2ab6:	46 2f       	mov	r20, r22
    2ab8:	47 70       	andi	r20, 0x07	; 7
    2aba:	40 5d       	subi	r20, 0xD0	; 208
    2abc:	41 93       	st	Z+, r20
    2abe:	b3 e0       	ldi	r27, 0x03	; 3
    2ac0:	0f d0       	rcall	.+30     	; 0x2ae0 <__ultoa_invert+0x86>
    2ac2:	c9 f7       	brne	.-14     	; 0x2ab6 <__ultoa_invert+0x5c>
    2ac4:	f6 cf       	rjmp	.-20     	; 0x2ab2 <__ultoa_invert+0x58>
    2ac6:	46 2f       	mov	r20, r22
    2ac8:	4f 70       	andi	r20, 0x0F	; 15
    2aca:	40 5d       	subi	r20, 0xD0	; 208
    2acc:	4a 33       	cpi	r20, 0x3A	; 58
    2ace:	18 f0       	brcs	.+6      	; 0x2ad6 <__ultoa_invert+0x7c>
    2ad0:	49 5d       	subi	r20, 0xD9	; 217
    2ad2:	31 fd       	sbrc	r19, 1
    2ad4:	40 52       	subi	r20, 0x20	; 32
    2ad6:	41 93       	st	Z+, r20
    2ad8:	02 d0       	rcall	.+4      	; 0x2ade <__ultoa_invert+0x84>
    2ada:	a9 f7       	brne	.-22     	; 0x2ac6 <__ultoa_invert+0x6c>
    2adc:	ea cf       	rjmp	.-44     	; 0x2ab2 <__ultoa_invert+0x58>
    2ade:	b4 e0       	ldi	r27, 0x04	; 4
    2ae0:	a6 95       	lsr	r26
    2ae2:	97 95       	ror	r25
    2ae4:	87 95       	ror	r24
    2ae6:	77 95       	ror	r23
    2ae8:	67 95       	ror	r22
    2aea:	ba 95       	dec	r27
    2aec:	c9 f7       	brne	.-14     	; 0x2ae0 <__ultoa_invert+0x86>
    2aee:	00 97       	sbiw	r24, 0x00	; 0
    2af0:	61 05       	cpc	r22, r1
    2af2:	71 05       	cpc	r23, r1
    2af4:	08 95       	ret
    2af6:	9b 01       	movw	r18, r22
    2af8:	ac 01       	movw	r20, r24
    2afa:	0a 2e       	mov	r0, r26
    2afc:	06 94       	lsr	r0
    2afe:	57 95       	ror	r21
    2b00:	47 95       	ror	r20
    2b02:	37 95       	ror	r19
    2b04:	27 95       	ror	r18
    2b06:	ba 95       	dec	r27
    2b08:	c9 f7       	brne	.-14     	; 0x2afc <__ultoa_invert+0xa2>
    2b0a:	62 0f       	add	r22, r18
    2b0c:	73 1f       	adc	r23, r19
    2b0e:	84 1f       	adc	r24, r20
    2b10:	95 1f       	adc	r25, r21
    2b12:	a0 1d       	adc	r26, r0
    2b14:	08 95       	ret

00002b16 <__mulsi3>:
    2b16:	db 01       	movw	r26, r22
    2b18:	8f 93       	push	r24
    2b1a:	9f 93       	push	r25
    2b1c:	0e 94 bd 15 	call	0x2b7a	; 0x2b7a <__muluhisi3>
    2b20:	bf 91       	pop	r27
    2b22:	af 91       	pop	r26
    2b24:	a2 9f       	mul	r26, r18
    2b26:	80 0d       	add	r24, r0
    2b28:	91 1d       	adc	r25, r1
    2b2a:	a3 9f       	mul	r26, r19
    2b2c:	90 0d       	add	r25, r0
    2b2e:	b2 9f       	mul	r27, r18
    2b30:	90 0d       	add	r25, r0
    2b32:	11 24       	eor	r1, r1
    2b34:	08 95       	ret

00002b36 <__udivmodsi4>:
    2b36:	a1 e2       	ldi	r26, 0x21	; 33
    2b38:	1a 2e       	mov	r1, r26
    2b3a:	aa 1b       	sub	r26, r26
    2b3c:	bb 1b       	sub	r27, r27
    2b3e:	fd 01       	movw	r30, r26
    2b40:	0d c0       	rjmp	.+26     	; 0x2b5c <__udivmodsi4_ep>

00002b42 <__udivmodsi4_loop>:
    2b42:	aa 1f       	adc	r26, r26
    2b44:	bb 1f       	adc	r27, r27
    2b46:	ee 1f       	adc	r30, r30
    2b48:	ff 1f       	adc	r31, r31
    2b4a:	a2 17       	cp	r26, r18
    2b4c:	b3 07       	cpc	r27, r19
    2b4e:	e4 07       	cpc	r30, r20
    2b50:	f5 07       	cpc	r31, r21
    2b52:	20 f0       	brcs	.+8      	; 0x2b5c <__udivmodsi4_ep>
    2b54:	a2 1b       	sub	r26, r18
    2b56:	b3 0b       	sbc	r27, r19
    2b58:	e4 0b       	sbc	r30, r20
    2b5a:	f5 0b       	sbc	r31, r21

00002b5c <__udivmodsi4_ep>:
    2b5c:	66 1f       	adc	r22, r22
    2b5e:	77 1f       	adc	r23, r23
    2b60:	88 1f       	adc	r24, r24
    2b62:	99 1f       	adc	r25, r25
    2b64:	1a 94       	dec	r1
    2b66:	69 f7       	brne	.-38     	; 0x2b42 <__udivmodsi4_loop>
    2b68:	60 95       	com	r22
    2b6a:	70 95       	com	r23
    2b6c:	80 95       	com	r24
    2b6e:	90 95       	com	r25
    2b70:	9b 01       	movw	r18, r22
    2b72:	ac 01       	movw	r20, r24
    2b74:	bd 01       	movw	r22, r26
    2b76:	cf 01       	movw	r24, r30
    2b78:	08 95       	ret

00002b7a <__muluhisi3>:
    2b7a:	0e 94 c8 15 	call	0x2b90	; 0x2b90 <__umulhisi3>
    2b7e:	a5 9f       	mul	r26, r21
    2b80:	90 0d       	add	r25, r0
    2b82:	b4 9f       	mul	r27, r20
    2b84:	90 0d       	add	r25, r0
    2b86:	a4 9f       	mul	r26, r20
    2b88:	80 0d       	add	r24, r0
    2b8a:	91 1d       	adc	r25, r1
    2b8c:	11 24       	eor	r1, r1
    2b8e:	08 95       	ret

00002b90 <__umulhisi3>:
    2b90:	a2 9f       	mul	r26, r18
    2b92:	b0 01       	movw	r22, r0
    2b94:	b3 9f       	mul	r27, r19
    2b96:	c0 01       	movw	r24, r0
    2b98:	a3 9f       	mul	r26, r19
    2b9a:	70 0d       	add	r23, r0
    2b9c:	81 1d       	adc	r24, r1
    2b9e:	11 24       	eor	r1, r1
    2ba0:	91 1d       	adc	r25, r1
    2ba2:	b2 9f       	mul	r27, r18
    2ba4:	70 0d       	add	r23, r0
    2ba6:	81 1d       	adc	r24, r1
    2ba8:	11 24       	eor	r1, r1
    2baa:	91 1d       	adc	r25, r1
    2bac:	08 95       	ret

00002bae <_exit>:
    2bae:	f8 94       	cli

00002bb0 <__stop_program>:
    2bb0:	ff cf       	rjmp	.-2      	; 0x2bb0 <__stop_program>
