
build/bigAVR6_1280/main.exe:     file format elf32-avr


Disassembly of section .text:

00000000 <__vectors>:
       0:	0c 94 d0 02 	jmp	0x5a0	; 0x5a0 <__ctors_end>
       4:	0c 94 34 22 	jmp	0x4468	; 0x4468 <__vector_1>
       8:	0c 94 3e 22 	jmp	0x447c	; 0x447c <__vector_2>
       c:	0c 94 48 22 	jmp	0x4490	; 0x4490 <__vector_3>
      10:	0c 94 71 22 	jmp	0x44e2	; 0x44e2 <__vector_4>
      14:	0c 94 b7 22 	jmp	0x456e	; 0x456e <__vector_5>
      18:	0c 94 c1 22 	jmp	0x4582	; 0x4582 <__vector_6>
      1c:	0c 94 cb 22 	jmp	0x4596	; 0x4596 <__vector_7>
      20:	0c 94 d5 22 	jmp	0x45aa	; 0x45aa <__vector_8>
      24:	0c 94 ef 02 	jmp	0x5de	; 0x5de <__bad_interrupt>
      28:	0c 94 ef 02 	jmp	0x5de	; 0x5de <__bad_interrupt>
      2c:	0c 94 61 23 	jmp	0x46c2	; 0x46c2 <__vector_11>
      30:	0c 94 ef 02 	jmp	0x5de	; 0x5de <__bad_interrupt>
      34:	0c 94 44 21 	jmp	0x4288	; 0x4288 <__vector_13>
      38:	0c 94 ef 02 	jmp	0x5de	; 0x5de <__bad_interrupt>
      3c:	0c 94 83 21 	jmp	0x4306	; 0x4306 <__vector_15>
      40:	0c 94 ef 02 	jmp	0x5de	; 0x5de <__bad_interrupt>
      44:	0c 94 ef 02 	jmp	0x5de	; 0x5de <__bad_interrupt>
      48:	0c 94 ef 02 	jmp	0x5de	; 0x5de <__bad_interrupt>
      4c:	0c 94 ef 02 	jmp	0x5de	; 0x5de <__bad_interrupt>
      50:	0c 94 ef 02 	jmp	0x5de	; 0x5de <__bad_interrupt>
      54:	0c 94 ef 02 	jmp	0x5de	; 0x5de <__bad_interrupt>
      58:	0c 94 ef 02 	jmp	0x5de	; 0x5de <__bad_interrupt>
      5c:	0c 94 ef 02 	jmp	0x5de	; 0x5de <__bad_interrupt>
      60:	0c 94 8d 21 	jmp	0x431a	; 0x431a <__vector_24>
      64:	0c 94 ef 02 	jmp	0x5de	; 0x5de <__bad_interrupt>
      68:	0c 94 ef 02 	jmp	0x5de	; 0x5de <__bad_interrupt>
      6c:	0c 94 ef 02 	jmp	0x5de	; 0x5de <__bad_interrupt>
      70:	0c 94 ef 02 	jmp	0x5de	; 0x5de <__bad_interrupt>
      74:	0c 94 0f 24 	jmp	0x481e	; 0x481e <__vector_29>
      78:	0c 94 ef 02 	jmp	0x5de	; 0x5de <__bad_interrupt>
      7c:	0c 94 ef 02 	jmp	0x5de	; 0x5de <__bad_interrupt>
      80:	0c 94 ef 02 	jmp	0x5de	; 0x5de <__bad_interrupt>
      84:	0c 94 ef 02 	jmp	0x5de	; 0x5de <__bad_interrupt>
      88:	0c 94 ef 02 	jmp	0x5de	; 0x5de <__bad_interrupt>
      8c:	0c 94 ef 02 	jmp	0x5de	; 0x5de <__bad_interrupt>
      90:	0c 94 ef 02 	jmp	0x5de	; 0x5de <__bad_interrupt>
      94:	0c 94 ef 02 	jmp	0x5de	; 0x5de <__bad_interrupt>
      98:	0c 94 ef 02 	jmp	0x5de	; 0x5de <__bad_interrupt>
      9c:	0c 94 df 22 	jmp	0x45be	; 0x45be <__vector_39>
      a0:	0c 94 ef 02 	jmp	0x5de	; 0x5de <__bad_interrupt>
      a4:	0c 94 ef 02 	jmp	0x5de	; 0x5de <__bad_interrupt>
      a8:	0c 94 ef 02 	jmp	0x5de	; 0x5de <__bad_interrupt>
      ac:	0c 94 ef 02 	jmp	0x5de	; 0x5de <__bad_interrupt>
      b0:	0c 94 ef 02 	jmp	0x5de	; 0x5de <__bad_interrupt>
      b4:	0c 94 ef 02 	jmp	0x5de	; 0x5de <__bad_interrupt>
      b8:	0c 94 ef 02 	jmp	0x5de	; 0x5de <__bad_interrupt>
      bc:	0c 94 ef 02 	jmp	0x5de	; 0x5de <__bad_interrupt>
      c0:	0c 94 ef 02 	jmp	0x5de	; 0x5de <__bad_interrupt>
      c4:	0c 94 ef 02 	jmp	0x5de	; 0x5de <__bad_interrupt>
      c8:	0c 94 ef 02 	jmp	0x5de	; 0x5de <__bad_interrupt>
      cc:	0c 94 ef 02 	jmp	0x5de	; 0x5de <__bad_interrupt>
      d0:	0c 94 ef 02 	jmp	0x5de	; 0x5de <__bad_interrupt>
      d4:	0c 94 ef 02 	jmp	0x5de	; 0x5de <__bad_interrupt>
      d8:	0c 94 ef 02 	jmp	0x5de	; 0x5de <__bad_interrupt>
      dc:	0c 94 ef 02 	jmp	0x5de	; 0x5de <__bad_interrupt>
      e0:	0c 94 ef 02 	jmp	0x5de	; 0x5de <__bad_interrupt>
      e4:	f7 0e       	add	r15, r23
      e6:	50 0f       	add	r21, r16
      e8:	c5 0f       	add	r28, r21
      ea:	ce 10       	cpse	r12, r14
      ec:	4a 11       	cpse	r20, r10
      ee:	77 11       	cpse	r23, r7
      f0:	82 11       	cpse	r24, r2
      f2:	8e 11       	cpse	r24, r14
      f4:	b5 11       	cpse	r27, r5
      f6:	6d 12       	cpse	r6, r29
      f8:	8a 12       	cpse	r8, r26
      fa:	ce 12       	cpse	r12, r30
      fc:	db 14       	cp	r13, r11
      fe:	e0 14       	cp	r14, r0
     100:	ea 14       	cp	r14, r10
     102:	21 15       	cp	r18, r1
     104:	97 16       	cp	r9, r23
     106:	0a 17       	cp	r16, r26
     108:	2e 17       	cp	r18, r30
     10a:	79 17       	cp	r23, r25
     10c:	7d 17       	cp	r23, r29
     10e:	a8 17       	cp	r26, r24
     110:	d2 17       	cp	r29, r18
     112:	f8 17       	cp	r31, r24
     114:	ff 17       	cp	r31, r31
     116:	14 18       	sub	r1, r4
     118:	d9 19       	sub	r29, r9
     11a:	e5 19       	sub	r30, r5
     11c:	e8 19       	sub	r30, r8
     11e:	a6 1a       	sub	r10, r22
     120:	a1 1b       	sub	r26, r17
     122:	fb 1c       	adc	r15, r11
     124:	0e 1d       	adc	r16, r14
     126:	11 1d       	adc	r17, r1
     128:	14 1d       	adc	r17, r4
     12a:	5a 1d       	adc	r21, r10
     12c:	77 1d       	adc	r23, r7
     12e:	9e 1d       	adc	r25, r14
     130:	ac 1d       	adc	r26, r12
     132:	af 1d       	adc	r26, r15
     134:	0a 1e       	adc	r0, r26
     136:	a4 12       	cpse	r10, r20
     138:	a7 12       	cpse	r10, r23
     13a:	aa 12       	cpse	r10, r26
     13c:	ad 12       	cpse	r10, r29
     13e:	b0 12       	cpse	r11, r16
     140:	b3 12       	cpse	r11, r19
     142:	b6 12       	cpse	r11, r22
     144:	b9 12       	cpse	r11, r25
     146:	bc 12       	cpse	r11, r28

00000148 <McuSleepC__atm128PowerBits>:
     148:	00 02 0e 06 0c 04                                   ......

0000014e <shifted>:
     14e:	0d 09 0e 78 15 51 16 21 1a 59 1b 53 1c 41 1d 57     ...x.Q.!.Y.S.A.W
     15e:	1e 22 21 43 22 58 23 44 24 45 25 78 26 23 29 20     ."!C"X#D$E%x&#) 
     16e:	2a 56 2b 46 2c 54 2d 52 2e 25 31 4e 32 42 33 48     *V+F,T-R.%1N2B3H
     17e:	34 47 35 5a 36 26 39 4c 3a 4d 3b 4a 3c 55 3d 2f     4G5Z6&9L:M;J<U=/
     18e:	3e 28 41 3b 42 4b 43 49 44 4f 45 3d 46 29 49 3a     >(A;BKCIDOE=F)I:
     19e:	4a 5f 4b 4c 4c 78 4d 50 4e 3f 52 78 54 78 55 60     J_KLLxMPN?RxTxU`
     1ae:	5a 0a 5b 5e 5d 2a 61 3e 66 08 69 31 6b 34 6c 37     Z.[^]*a>f.i1k4l7
     1be:	70 30 71 2c 72 32 73 35 74 36 75 38 79 2b 7a 33     p0q,r2s5t6u8y+z3
     1ce:	7b 2d 7c 2a 7d 39 00 00                             {-|*}9..

000001d6 <unshifted>:
     1d6:	0d 09 0e 7c 15 71 16 31 1a 79 1b 73 1c 61 1d 77     ...|.q.1.y.s.a.w
     1e6:	1e 32 21 63 22 78 23 64 24 65 25 34 26 33 29 20     .2!c"x#d$e%4&3) 
     1f6:	2a 76 2b 66 2c 74 2d 72 2e 35 31 6e 32 62 33 68     *v+f,t-r.51n2b3h
     206:	34 67 35 7a 36 36 39 2c 3a 6d 3b 6a 3c 75 3d 37     4g5z669,:m;j<u=7
     216:	3e 38 41 2c 42 6b 43 69 44 6f 45 30 46 39 49 2e     >8A,BkCiDoE0F9I.
     226:	4a 2d 4b 6c 4c 6f 4d 70 4e 2b 52 6f 54 6f 55 5c     J-KlLoMpN+RoToU\
     236:	5a 0a 5b 78 5d 27 61 3c 66 08 69 31 6b 34 6c 37     Z.[x]'a<f.i1k4l7
     246:	70 30 71 2c 72 32 73 35 74 36 75 38 79 2b 7a 33     p0q,r2s5t6u8y+z3
     256:	7b 2d 7c 2a 7d 39 00 00                             {-|*}9..

0000025e <Font5x7>:
     25e:	00 00 00 00 00 00 00 5f 00 00 00 07 00 07 00 14     ......._........
     26e:	7f 14 7f 14 24 2a 7f 2a 12 23 13 08 64 62 36 49     ....$*.*.#..db6I
     27e:	55 22 50 00 05 03 00 00 00 1c 22 41 00 00 41 22     U"P......."A..A"
     28e:	1c 00 08 2a 1c 2a 08 08 08 3e 08 08 00 50 30 00     ...*.*...>...P0.
     29e:	00 08 08 08 08 08 00 60 60 00 00 20 10 08 04 02     .......``.. ....
     2ae:	3e 51 49 45 3e 00 42 7f 40 00 42 61 51 49 46 21     >QIE>.B.@.BaQIF!
     2be:	41 45 4b 31 18 14 12 7f 10 27 45 45 45 39 3c 4a     AEK1.....'EEE9<J
     2ce:	49 49 30 01 71 09 05 03 36 49 49 49 36 06 49 49     II0.q...6III6.II
     2de:	29 1e 00 36 36 00 00 00 56 36 00 00 00 08 14 22     )..66...V6....."
     2ee:	41 14 14 14 14 14 41 22 14 08 00 02 01 51 09 06     A.....A".....Q..
     2fe:	32 49 79 41 3e 7e 11 11 11 7e 7f 49 49 49 36 3e     2IyA>~...~.III6>
     30e:	41 41 41 22 7f 41 41 22 1c 7f 49 49 49 41 7f 09     AAA".AA"..IIIA..
     31e:	09 01 01 3e 41 41 51 32 7f 08 08 08 7f 00 41 7f     ...>AAQ2......A.
     32e:	41 00 20 40 41 3f 01 7f 08 14 22 41 7f 40 40 40     A. @A?...."A.@@@
     33e:	40 7f 02 04 02 7f 7f 04 08 10 7f 3e 41 41 41 3e     @..........>AAA>
     34e:	7f 09 09 09 06 3e 41 51 21 5e 7f 09 19 29 46 46     .....>AQ!^...)FF
     35e:	49 49 49 31 01 01 7f 01 01 3f 40 40 40 3f 1f 20     III1.....?@@@?. 
     36e:	40 20 1f 7f 20 18 20 7f 63 14 08 14 63 03 04 78     @ .. . .c...c..x
     37e:	04 03 61 51 49 45 43 00 00 7f 41 41 02 04 08 10     ..aQIEC...AA....
     38e:	20 41 41 7f 00 00 04 02 01 02 04 40 40 40 40 40      AA........@@@@@
     39e:	00 01 02 04 00 20 54 54 54 78 7f 48 44 44 38 38     ..... TTTx.HDD88
     3ae:	44 44 44 20 38 44 44 48 7f 38 54 54 54 18 08 7e     DDD 8DDH.8TTT..~
     3be:	09 01 02 08 14 54 54 3c 7f 08 04 04 78 00 44 7d     .....TT<....x.D}
     3ce:	40 00 20 40 44 3d 00 00 7f 10 28 44 00 41 7f 40     @. @D=....(D.A.@
     3de:	00 7c 04 18 04 78 7c 08 04 04 78 38 44 44 44 38     .|...x|...x8DDD8
     3ee:	7c 14 14 14 08 08 14 14 18 7c 7c 08 04 04 08 48     |........||....H
     3fe:	54 54 54 20 04 3f 44 40 20 3c 40 40 20 7c 1c 20     TTT .?D@ <@@ |. 
     40e:	40 20 1c 3c 40 30 40 3c 44 28 10 28 44 0c 50 50     @ .<@0@<D(.(D.PP
     41e:	50 3c 44 64 54 4c 44 00 08 36 41 00 00 00 7f 00     P<DdTLD..6A.....
     42e:	00 00 41 36 08 00 08 08 2a 1c 08 08 1c 2a 08 08     ..A6....*....*..

0000043e <cmd_note>:
     43e:	6e 6f 74 65 00                                      note.

00000443 <cmd_name>:
     443:	6e 61 6d 65 00                                      name.

00000448 <cmd_qdial>:
     448:	71 64 69 61 6c 00                                   qdial.

0000044e <cmd_picode>:
     44e:	70 69 63 6f 64 65 00                                picode.

00000455 <cmd_freq>:
     455:	66 72 65 71 00                                      freq.

0000045a <cmd_id>:
     45a:	69 64 00                                            id.

0000045d <cmd_dbFull>:
     45d:	43 68 61 6e 6e 65 6c 20 44 42 20 46 75 6c 6c 00     Channel DB Full.

0000046d <cmd_get>:
     46d:	67 65 74 00                                         get.

00000471 <cmd_msg>:
     471:	6d 73 67 00                                         msg.

00000475 <cmd_purgeall>:
     475:	70 75 72 67 65 61 6c 6c 00                          purgeall.

0000047e <cmd_list>:
     47e:	6c 69 73 74 00                                      list.

00000483 <cmd_update>:
     483:	75 70 64 61 74 65 00                                update.

0000048a <cmd_add>:
     48a:	61 64 64 00                                         add.

0000048e <cmd_ok>:
     48e:	6f 6b 00                                            ok.

00000491 <text_isFav>:
     491:	41 6c 72 65 61 64 79 20 66 61 76 6f 75 72 69 74     Already favourit
     4a1:	65 21 00                                            e!.

000004a4 <text_chanNlist>:
     4a4:	43 68 61 6e 6e 65 6c 20 6e 6f 74 20 69 6e 20 6c     Channel not in l
     4b4:	69 73 74 21 00                                      ist!.

000004b9 <text_favNset>:
     4b9:	46 61 76 6f 75 72 69 74 65 20 6e 6f 74 20 73 65     Favourite not se
     4c9:	74 21 00                                            t!.

000004cc <text_bandLimit>:
     4cc:	42 61 6e 64 20 6c 69 6d 69 74 20 72 65 61 63 68     Band limit reach
     4dc:	65 64 21 00                                         ed!.

000004e0 <text_dbErr>:
     4e0:	44 42 20 65 72 72 6f 72 21 00                       DB error!.

000004ea <text_dbFull>:
     4ea:	44 42 20 66 75 6c 6c 21 00                          DB full!.

000004f3 <text_favsFull>:
     4f3:	46 61 76 6f 75 72 69 74 65 73 20 66 75 6c 6c 21     Favourites full!
	...

00000504 <text_listFull>:
     504:	43 68 61 6e 6e 65 6c 20 6c 69 73 74 20 66 75 6c     Channel list ful
     514:	6c 21 00                                            l!.

00000517 <text_chanInval>:
     517:	49 6e 76 61 6c 69 64 20 63 68 61 6e 6e 65 6c 21     Invalid channel!
	...

00000528 <text_FMClickInitFail>:
     528:	46 4d 43 6c 69 63 6b 20 69 6e 69 74 20 66 61 69     FMClick init fai
     538:	6c 65 64 21 00                                      led!.

0000053d <text_unknownError>:
     53d:	55 6e 6b 6e 6f 77 6e 20 65 72 72 6f 72 21 00        Unknown error!.

0000054c <text_error>:
     54c:	45 72 72 6f 72 3a 00                                Error:.

00000553 <text_emptyLine>:
     553:	20 20 20 20 20 20 20 20 20 20 20 20 20 20 20 20                     
     563:	20 20 20 20 20 00                                        .

00000569 <text_emptyTime>:
     569:	20 20 20 20 20 00                                        .

0000056f <text_emptyName>:
     56f:	20 20 20 20 20 20 20 20 00                                  .

00000578 <text_volume>:
     578:	56 6f 6c 75 6d 65 3a 00                             Volume:.

00000580 <text_MHz>:
     580:	4d 48 7a 00                                         MHz.

00000584 <text_noteInput>:
     584:	45 6e 74 65 72 20 4e 6f 74 65 3a 00                 Enter Note:.

00000590 <text_channelInput>:
     590:	45 6e 74 65 72 20 43 68 61 6e 6e 65 6c 3a 00 00     Enter Channel:..

000005a0 <__ctors_end>:
     5a0:	11 24       	eor	r1, r1
     5a2:	1f be       	out	0x3f, r1	; 63
     5a4:	cf ef       	ldi	r28, 0xFF	; 255
     5a6:	d1 e2       	ldi	r29, 0x21	; 33
     5a8:	de bf       	out	0x3e, r29	; 62
     5aa:	cd bf       	out	0x3d, r28	; 61

000005ac <__do_copy_data>:
     5ac:	13 e0       	ldi	r17, 0x03	; 3
     5ae:	a0 e0       	ldi	r26, 0x00	; 0
     5b0:	b2 e0       	ldi	r27, 0x02	; 2
     5b2:	ee ed       	ldi	r30, 0xDE	; 222
     5b4:	fd e5       	ldi	r31, 0x5D	; 93
     5b6:	00 e0       	ldi	r16, 0x00	; 0
     5b8:	0b bf       	out	0x3b, r16	; 59
     5ba:	02 c0       	rjmp	.+4      	; 0x5c0 <__do_copy_data+0x14>
     5bc:	07 90       	elpm	r0, Z+
     5be:	0d 92       	st	X+, r0
     5c0:	a6 30       	cpi	r26, 0x06	; 6
     5c2:	b1 07       	cpc	r27, r17
     5c4:	d9 f7       	brne	.-10     	; 0x5bc <__do_copy_data+0x10>

000005c6 <__do_clear_bss>:
     5c6:	13 e1       	ldi	r17, 0x13	; 19
     5c8:	a6 e0       	ldi	r26, 0x06	; 6
     5ca:	b3 e0       	ldi	r27, 0x03	; 3
     5cc:	01 c0       	rjmp	.+2      	; 0x5d0 <.do_clear_bss_start>

000005ce <.do_clear_bss_loop>:
     5ce:	1d 92       	st	X+, r1

000005d0 <.do_clear_bss_start>:
     5d0:	a1 37       	cpi	r26, 0x71	; 113
     5d2:	b1 07       	cpc	r27, r17
     5d4:	e1 f7       	brne	.-8      	; 0x5ce <.do_clear_bss_loop>
     5d6:	0e 94 10 26 	call	0x4c20	; 0x4c20 <main>
     5da:	0c 94 ed 2e 	jmp	0x5dda	; 0x5dda <_exit>

000005de <__bad_interrupt>:
     5de:	0c 94 00 00 	jmp	0	; 0x0 <__vectors>

000005e2 <HplAtm128I2CBusP__I2C__sendCommand>:
     5e2:	80 91 54 12 	lds	r24, 0x1254
     5e6:	80 93 bc 00 	sts	0x00BC, r24
     5ea:	08 95       	ret

000005ec <HplAtm128GeneralIOPinP__8__IO__set>:
     5ec:	28 9a       	sbi	0x05, 0	; 5
     5ee:	08 95       	ret

000005f0 <HplAtm128GeneralIOPinP__8__IO__clr>:
     5f0:	28 98       	cbi	0x05, 0	; 5
     5f2:	08 95       	ret

000005f4 <HplAtm128GeneralIOPinP__38__IO__clr>:
     5f4:	76 98       	cbi	0x0e, 6	; 14
     5f6:	08 95       	ret

000005f8 <HplAtm128GeneralIOPinP__38__IO__set>:
     5f8:	76 9a       	sbi	0x0e, 6	; 14
     5fa:	08 95       	ret

000005fc <SchedulerBasicP__popTask>:
     5fc:	80 91 e0 12 	lds	r24, 0x12E0
     600:	8f 3f       	cpi	r24, 0xFF	; 255
     602:	69 f0       	breq	.+26     	; 0x61e <SchedulerBasicP__popTask+0x22>
     604:	e8 2f       	mov	r30, r24
     606:	f0 e0       	ldi	r31, 0x00	; 0
     608:	e3 52       	subi	r30, 0x23	; 35
     60a:	f3 4f       	sbci	r31, 0xF3	; 243
     60c:	90 81       	ld	r25, Z
     60e:	90 93 e0 12 	sts	0x12E0, r25
     612:	9f 3f       	cpi	r25, 0xFF	; 255
     614:	11 f4       	brne	.+4      	; 0x61a <SchedulerBasicP__popTask+0x1e>
     616:	90 93 43 13 	sts	0x1343, r25
     61a:	9f ef       	ldi	r25, 0xFF	; 255
     61c:	90 83       	st	Z, r25
     61e:	08 95       	ret

00000620 <HplAtm128InterruptPinP__3__Irq__disable>:
     620:	eb 98       	cbi	0x1d, 3	; 29
     622:	08 95       	ret

00000624 <SchedulerBasicP__TaskBasic__postTask>:
     624:	9f b7       	in	r25, 0x3f	; 63
     626:	f8 94       	cli
     628:	e8 2f       	mov	r30, r24
     62a:	f0 e0       	ldi	r31, 0x00	; 0
     62c:	e3 52       	subi	r30, 0x23	; 35
     62e:	f3 4f       	sbci	r31, 0xF3	; 243
     630:	20 81       	ld	r18, Z
     632:	2f 3f       	cpi	r18, 0xFF	; 255
     634:	99 f4       	brne	.+38     	; 0x65c <SchedulerBasicP__TaskBasic__postTask+0x38>
     636:	e0 91 43 13 	lds	r30, 0x1343
     63a:	e8 17       	cp	r30, r24
     63c:	79 f0       	breq	.+30     	; 0x65c <SchedulerBasicP__TaskBasic__postTask+0x38>
     63e:	20 91 e0 12 	lds	r18, 0x12E0
     642:	2f 3f       	cpi	r18, 0xFF	; 255
     644:	19 f4       	brne	.+6      	; 0x64c <SchedulerBasicP__TaskBasic__postTask+0x28>
     646:	80 93 e0 12 	sts	0x12E0, r24
     64a:	04 c0       	rjmp	.+8      	; 0x654 <SchedulerBasicP__TaskBasic__postTask+0x30>
     64c:	f0 e0       	ldi	r31, 0x00	; 0
     64e:	e3 52       	subi	r30, 0x23	; 35
     650:	f3 4f       	sbci	r31, 0xF3	; 243
     652:	80 83       	st	Z, r24
     654:	80 93 43 13 	sts	0x1343, r24
     658:	80 e0       	ldi	r24, 0x00	; 0
     65a:	01 c0       	rjmp	.+2      	; 0x65e <SchedulerBasicP__TaskBasic__postTask+0x3a>
     65c:	85 e0       	ldi	r24, 0x05	; 5
     65e:	9f bf       	out	0x3f, r25	; 63
     660:	08 95       	ret

00000662 <RadioScannerP__displaySoftError__postTask>:
     662:	8a e0       	ldi	r24, 0x0A	; 10
     664:	0c 94 12 03 	jmp	0x624	; 0x624 <SchedulerBasicP__TaskBasic__postTask>

00000668 <RadioScannerP__startTune__postTask>:
     668:	87 e0       	ldi	r24, 0x07	; 7
     66a:	0c 94 12 03 	jmp	0x624	; 0x624 <SchedulerBasicP__TaskBasic__postTask>

0000066e <DatabaseP__sendTask__postTask>:
     66e:	8e e0       	ldi	r24, 0x0E	; 14
     670:	0c 94 12 03 	jmp	0x624	; 0x624 <SchedulerBasicP__TaskBasic__postTask>

00000674 <FMClickP__writeRegisters__postTask>:
     674:	81 e2       	ldi	r24, 0x21	; 33
     676:	0c 94 12 03 	jmp	0x624	; 0x624 <SchedulerBasicP__TaskBasic__postTask>

0000067a <FMClickP__seek__postTask>:
     67a:	8d e1       	ldi	r24, 0x1D	; 29
     67c:	0c 94 12 03 	jmp	0x624	; 0x624 <SchedulerBasicP__TaskBasic__postTask>

00000680 <RadioScannerP__startSeekUp__postTask>:
     680:	85 e0       	ldi	r24, 0x05	; 5
     682:	0c 94 12 03 	jmp	0x624	; 0x624 <SchedulerBasicP__TaskBasic__postTask>

00000686 <FMClickP__tune__postTask>:
     686:	8c e1       	ldi	r24, 0x1C	; 28
     688:	0c 94 12 03 	jmp	0x624	; 0x624 <SchedulerBasicP__TaskBasic__postTask>

0000068c <RadioScannerP__displayChannelInfo__postTask>:
     68c:	82 e0       	ldi	r24, 0x02	; 2
     68e:	0c 94 12 03 	jmp	0x624	; 0x624 <SchedulerBasicP__TaskBasic__postTask>

00000692 <FMClickP__readRegisters__postTask>:
     692:	8f e1       	ldi	r24, 0x1F	; 31
     694:	0c 94 12 03 	jmp	0x624	; 0x624 <SchedulerBasicP__TaskBasic__postTask>

00000698 <HplAtm1280AdcP__HplAtm1280Adc__getAdmux>:
     698:	ec e7       	ldi	r30, 0x7C	; 124
     69a:	f0 e0       	ldi	r31, 0x00	; 0
     69c:	20 81       	ld	r18, Z
     69e:	80 91 7b 00 	lds	r24, 0x007B
     6a2:	30 81       	ld	r19, Z
     6a4:	90 81       	ld	r25, Z
     6a6:	88 70       	andi	r24, 0x08	; 8
     6a8:	88 0f       	add	r24, r24
     6aa:	88 0f       	add	r24, r24
     6ac:	2f 71       	andi	r18, 0x1F	; 31
     6ae:	82 2b       	or	r24, r18
     6b0:	35 fb       	bst	r19, 5
     6b2:	22 27       	eor	r18, r18
     6b4:	20 f9       	bld	r18, 0
     6b6:	20 fb       	bst	r18, 0
     6b8:	86 f9       	bld	r24, 6
     6ba:	92 95       	swap	r25
     6bc:	96 95       	lsr	r25
     6be:	96 95       	lsr	r25
     6c0:	93 70       	andi	r25, 0x03	; 3
     6c2:	29 2f       	mov	r18, r25
     6c4:	27 95       	ror	r18
     6c6:	22 27       	eor	r18, r18
     6c8:	27 95       	ror	r18
     6ca:	82 2b       	or	r24, r18
     6cc:	96 95       	lsr	r25
     6ce:	08 95       	ret

000006d0 <HplAtm128I2CBusP__I2C__readCurrent>:
     6d0:	8f b7       	in	r24, 0x3f	; 63
     6d2:	f8 94       	cli
     6d4:	90 91 bc 00 	lds	r25, 0x00BC
     6d8:	90 93 54 12 	sts	0x1254, r25
     6dc:	8f bf       	out	0x3f, r24	; 63
     6de:	08 95       	ret

000006e0 <Atm1280AlarmSyncP__0__Counter__get>:
     6e0:	2f b7       	in	r18, 0x3f	; 63
     6e2:	f8 94       	cli
     6e4:	60 91 40 0f 	lds	r22, 0x0F40
     6e8:	70 91 41 0f 	lds	r23, 0x0F41
     6ec:	80 91 42 0f 	lds	r24, 0x0F42
     6f0:	90 91 43 0f 	lds	r25, 0x0F43
     6f4:	2f bf       	out	0x3f, r18	; 63
     6f6:	08 95       	ret

000006f8 <VirtualizeTimerC__0__Timer__startOneShot>:
     6f8:	cf 92       	push	r12
     6fa:	df 92       	push	r13
     6fc:	ef 92       	push	r14
     6fe:	ff 92       	push	r15
     700:	cf 93       	push	r28
     702:	c8 2f       	mov	r28, r24
     704:	6a 01       	movw	r12, r20
     706:	7b 01       	movw	r14, r22
     708:	0e 94 70 03 	call	0x6e0	; 0x6e0 <Atm1280AlarmSyncP__0__Counter__get>
     70c:	29 e0       	ldi	r18, 0x09	; 9
     70e:	c2 9f       	mul	r28, r18
     710:	f0 01       	movw	r30, r0
     712:	11 24       	eor	r1, r1
     714:	df 01       	movw	r26, r30
     716:	a2 5e       	subi	r26, 0xE2	; 226
     718:	bd 4e       	sbci	r27, 0xED	; 237
     71a:	6d 93       	st	X+, r22
     71c:	7d 93       	st	X+, r23
     71e:	8d 93       	st	X+, r24
     720:	9c 93       	st	X, r25
     722:	13 97       	sbiw	r26, 0x03	; 3
     724:	14 96       	adiw	r26, 0x04	; 4
     726:	cd 92       	st	X+, r12
     728:	dd 92       	st	X+, r13
     72a:	ed 92       	st	X+, r14
     72c:	fc 92       	st	X, r15
     72e:	17 97       	sbiw	r26, 0x07	; 7
     730:	ea 5d       	subi	r30, 0xDA	; 218
     732:	fd 4e       	sbci	r31, 0xED	; 237
     734:	80 81       	ld	r24, Z
     736:	81 60       	ori	r24, 0x01	; 1
     738:	82 60       	ori	r24, 0x02	; 2
     73a:	80 83       	st	Z, r24
     73c:	83 e1       	ldi	r24, 0x13	; 19
     73e:	cf 91       	pop	r28
     740:	ff 90       	pop	r15
     742:	ef 90       	pop	r14
     744:	df 90       	pop	r13
     746:	cf 90       	pop	r12
     748:	0c 94 12 03 	jmp	0x624	; 0x624 <SchedulerBasicP__TaskBasic__postTask>

0000074c <Atm1280SpiP__SpiByte__write>:
     74c:	8e bd       	out	0x2e, r24	; 46
     74e:	0d b4       	in	r0, 0x2d	; 45
     750:	07 fe       	sbrs	r0, 7
     752:	fd cf       	rjmp	.-6      	; 0x74e <Atm1280SpiP__SpiByte__write+0x2>
     754:	8e b5       	in	r24, 0x2e	; 46
     756:	08 95       	ret

00000758 <Enc28j60P__SpiByte__write>:
     758:	0c 94 a6 03 	jmp	0x74c	; 0x74c <Atm1280SpiP__SpiByte__write>

0000075c <Enc28j60P__writeSPI>:
     75c:	cf 93       	push	r28
     75e:	df 93       	push	r29
     760:	00 d0       	rcall	.+0      	; 0x762 <Enc28j60P__writeSPI+0x6>
     762:	cd b7       	in	r28, 0x3d	; 61
     764:	de b7       	in	r29, 0x3e	; 62
     766:	6a 83       	std	Y+2, r22	; 0x02
     768:	89 83       	std	Y+1, r24	; 0x01
     76a:	0e 94 f8 02 	call	0x5f0	; 0x5f0 <HplAtm128GeneralIOPinP__8__IO__clr>
     76e:	89 81       	ldd	r24, Y+1	; 0x01
     770:	0e 94 ac 03 	call	0x758	; 0x758 <Enc28j60P__SpiByte__write>
     774:	6a 81       	ldd	r22, Y+2	; 0x02
     776:	86 2f       	mov	r24, r22
     778:	0e 94 ac 03 	call	0x758	; 0x758 <Enc28j60P__SpiByte__write>
     77c:	0f 90       	pop	r0
     77e:	0f 90       	pop	r0
     780:	df 91       	pop	r29
     782:	cf 91       	pop	r28
     784:	0c 94 f6 02 	jmp	0x5ec	; 0x5ec <HplAtm128GeneralIOPinP__8__IO__set>

00000788 <Enc28j60P__readSPI>:
     788:	cf 93       	push	r28
     78a:	df 93       	push	r29
     78c:	1f 92       	push	r1
     78e:	cd b7       	in	r28, 0x3d	; 61
     790:	de b7       	in	r29, 0x3e	; 62
     792:	89 83       	std	Y+1, r24	; 0x01
     794:	0e 94 f8 02 	call	0x5f0	; 0x5f0 <HplAtm128GeneralIOPinP__8__IO__clr>
     798:	89 81       	ldd	r24, Y+1	; 0x01
     79a:	0e 94 ac 03 	call	0x758	; 0x758 <Enc28j60P__SpiByte__write>
     79e:	80 e0       	ldi	r24, 0x00	; 0
     7a0:	0e 94 a6 03 	call	0x74c	; 0x74c <Atm1280SpiP__SpiByte__write>
     7a4:	89 83       	std	Y+1, r24	; 0x01
     7a6:	0e 94 f6 02 	call	0x5ec	; 0x5ec <HplAtm128GeneralIOPinP__8__IO__set>
     7aa:	89 81       	ldd	r24, Y+1	; 0x01
     7ac:	0f 90       	pop	r0
     7ae:	df 91       	pop	r29
     7b0:	cf 91       	pop	r28
     7b2:	08 95       	ret

000007b4 <Enc28j60P__setBit>:
     7b4:	cf 93       	push	r28
     7b6:	df 93       	push	r29
     7b8:	00 d0       	rcall	.+0      	; 0x7ba <Enc28j60P__setBit+0x6>
     7ba:	cd b7       	in	r28, 0x3d	; 61
     7bc:	de b7       	in	r29, 0x3e	; 62
     7be:	6a 83       	std	Y+2, r22	; 0x02
     7c0:	89 83       	std	Y+1, r24	; 0x01
     7c2:	0e 94 f8 02 	call	0x5f0	; 0x5f0 <HplAtm128GeneralIOPinP__8__IO__clr>
     7c6:	89 81       	ldd	r24, Y+1	; 0x01
     7c8:	80 68       	ori	r24, 0x80	; 128
     7ca:	0e 94 ac 03 	call	0x758	; 0x758 <Enc28j60P__SpiByte__write>
     7ce:	6a 81       	ldd	r22, Y+2	; 0x02
     7d0:	86 2f       	mov	r24, r22
     7d2:	0e 94 ac 03 	call	0x758	; 0x758 <Enc28j60P__SpiByte__write>
     7d6:	0f 90       	pop	r0
     7d8:	0f 90       	pop	r0
     7da:	df 91       	pop	r29
     7dc:	cf 91       	pop	r28
     7de:	0c 94 f6 02 	jmp	0x5ec	; 0x5ec <HplAtm128GeneralIOPinP__8__IO__set>

000007e2 <ArpP__send_packet>:
     7e2:	8f 92       	push	r8
     7e4:	9f 92       	push	r9
     7e6:	af 92       	push	r10
     7e8:	bf 92       	push	r11
     7ea:	cf 92       	push	r12
     7ec:	df 92       	push	r13
     7ee:	ef 92       	push	r14
     7f0:	ff 92       	push	r15
     7f2:	0f 93       	push	r16
     7f4:	1f 93       	push	r17
     7f6:	cf 93       	push	r28
     7f8:	df 93       	push	r29
     7fa:	2f ef       	ldi	r18, 0xFF	; 255
     7fc:	28 0f       	add	r18, r24
     7fe:	9d e1       	ldi	r25, 0x1D	; 29
     800:	29 9f       	mul	r18, r25
     802:	90 01       	movw	r18, r0
     804:	11 24       	eor	r1, r1
     806:	89 01       	movw	r16, r18
     808:	0c 56       	subi	r16, 0x6C	; 108
     80a:	1d 4e       	sbci	r17, 0xED	; 237
     80c:	f8 01       	movw	r30, r16
     80e:	90 81       	ld	r25, Z
     810:	91 11       	cpse	r25, r1
     812:	40 c0       	rjmp	.+128    	; 0x894 <ArpP__send_packet+0xb2>
     814:	e9 01       	movw	r28, r18
     816:	cb 56       	subi	r28, 0x6B	; 107
     818:	dd 4e       	sbci	r29, 0xED	; 237
     81a:	20 97       	sbiw	r28, 0x00	; 0
     81c:	d9 f1       	breq	.+118    	; 0x894 <ArpP__send_packet+0xb2>
     81e:	7a 01       	movw	r14, r20
     820:	51 e0       	ldi	r21, 0x01	; 1
     822:	59 83       	std	Y+1, r21	; 0x01
     824:	18 82       	st	Y, r1
     826:	1b 82       	std	Y+3, r1	; 0x03
     828:	98 e0       	ldi	r25, 0x08	; 8
     82a:	9a 83       	std	Y+2, r25	; 0x02
     82c:	96 e0       	ldi	r25, 0x06	; 6
     82e:	9c 83       	std	Y+4, r25	; 0x04
     830:	44 e0       	ldi	r20, 0x04	; 4
     832:	4d 83       	std	Y+5, r20	; 0x05
     834:	80 90 24 02 	lds	r8, 0x0224
     838:	90 90 25 02 	lds	r9, 0x0225
     83c:	a0 90 26 02 	lds	r10, 0x0226
     840:	b0 90 27 02 	lds	r11, 0x0227
     844:	87 86       	std	Z+15, r8	; 0x0f
     846:	90 8a       	std	Z+16, r9	; 0x10
     848:	a1 8a       	std	Z+17, r10	; 0x11
     84a:	b2 8a       	std	Z+18, r11	; 0x12
     84c:	d9 01       	movw	r26, r18
     84e:	a3 56       	subi	r26, 0x63	; 99
     850:	bd 4e       	sbci	r27, 0xED	; 237
     852:	e6 e1       	ldi	r30, 0x16	; 22
     854:	f2 e0       	ldi	r31, 0x02	; 2
     856:	49 2f       	mov	r20, r25
     858:	01 90       	ld	r0, Z+
     85a:	0d 92       	st	X+, r0
     85c:	4a 95       	dec	r20
     85e:	e1 f7       	brne	.-8      	; 0x858 <ArpP__send_packet+0x76>
     860:	d9 01       	movw	r26, r18
     862:	a9 55       	subi	r26, 0x59	; 89
     864:	bd 4e       	sbci	r27, 0xED	; 237
     866:	fb 01       	movw	r30, r22
     868:	01 90       	ld	r0, Z+
     86a:	0d 92       	st	X+, r0
     86c:	9a 95       	dec	r25
     86e:	e1 f7       	brne	.-8      	; 0x868 <ArpP__send_packet+0x86>
     870:	f7 01       	movw	r30, r14
     872:	c0 80       	ld	r12, Z
     874:	d1 80       	ldd	r13, Z+1	; 0x01
     876:	e2 80       	ldd	r14, Z+2	; 0x02
     878:	f3 80       	ldd	r15, Z+3	; 0x03
     87a:	f8 01       	movw	r30, r16
     87c:	c1 8e       	std	Z+25, r12	; 0x19
     87e:	d2 8e       	std	Z+26, r13	; 0x1a
     880:	e3 8e       	std	Z+27, r14	; 0x1b
     882:	f4 8e       	std	Z+28, r15	; 0x1c
     884:	8f 83       	std	Y+7, r24	; 0x07
     886:	1e 82       	std	Y+6, r1	; 0x06
     888:	50 83       	st	Z, r21
     88a:	84 e1       	ldi	r24, 0x14	; 20
     88c:	0e 94 12 03 	call	0x624	; 0x624 <SchedulerBasicP__TaskBasic__postTask>
     890:	80 e0       	ldi	r24, 0x00	; 0
     892:	01 c0       	rjmp	.+2      	; 0x896 <ArpP__send_packet+0xb4>
     894:	85 e0       	ldi	r24, 0x05	; 5
     896:	df 91       	pop	r29
     898:	cf 91       	pop	r28
     89a:	1f 91       	pop	r17
     89c:	0f 91       	pop	r16
     89e:	ff 90       	pop	r15
     8a0:	ef 90       	pop	r14
     8a2:	df 90       	pop	r13
     8a4:	cf 90       	pop	r12
     8a6:	bf 90       	pop	r11
     8a8:	af 90       	pop	r10
     8aa:	9f 90       	pop	r9
     8ac:	8f 90       	pop	r8
     8ae:	08 95       	ret

000008b0 <Atm1280AlarmSyncP__0__checkAlarm>:
     8b0:	2f b7       	in	r18, 0x3f	; 63
     8b2:	f8 94       	cli
     8b4:	80 91 4b 08 	lds	r24, 0x084B
     8b8:	88 23       	and	r24, r24
     8ba:	09 f1       	breq	.+66     	; 0x8fe <Atm1280AlarmSyncP__0__checkAlarm+0x4e>
     8bc:	40 91 58 12 	lds	r20, 0x1258
     8c0:	50 91 59 12 	lds	r21, 0x1259
     8c4:	60 91 5a 12 	lds	r22, 0x125A
     8c8:	70 91 5b 12 	lds	r23, 0x125B
     8cc:	80 91 07 0d 	lds	r24, 0x0D07
     8d0:	90 91 08 0d 	lds	r25, 0x0D08
     8d4:	a0 91 09 0d 	lds	r26, 0x0D09
     8d8:	b0 91 0a 0d 	lds	r27, 0x0D0A
     8dc:	84 0f       	add	r24, r20
     8de:	95 1f       	adc	r25, r21
     8e0:	a6 1f       	adc	r26, r22
     8e2:	b7 1f       	adc	r27, r23
     8e4:	40 91 40 0f 	lds	r20, 0x0F40
     8e8:	50 91 41 0f 	lds	r21, 0x0F41
     8ec:	60 91 42 0f 	lds	r22, 0x0F42
     8f0:	70 91 43 0f 	lds	r23, 0x0F43
     8f4:	48 17       	cp	r20, r24
     8f6:	59 07       	cpc	r21, r25
     8f8:	6a 07       	cpc	r22, r26
     8fa:	7b 07       	cpc	r23, r27
     8fc:	11 f0       	breq	.+4      	; 0x902 <Atm1280AlarmSyncP__0__checkAlarm+0x52>
     8fe:	2f bf       	out	0x3f, r18	; 63
     900:	08 95       	ret
     902:	10 92 4b 08 	sts	0x084B, r1
     906:	2f bf       	out	0x3f, r18	; 63
     908:	82 e1       	ldi	r24, 0x12	; 18
     90a:	0c 94 12 03 	jmp	0x624	; 0x624 <SchedulerBasicP__TaskBasic__postTask>

0000090e <FMClickP__FMClick__seek>:
     90e:	2f b7       	in	r18, 0x3f	; 63
     910:	f8 94       	cli
     912:	90 91 d7 12 	lds	r25, 0x12D7
     916:	2f bf       	out	0x3f, r18	; 63
     918:	91 11       	cpse	r25, r1
     91a:	0e c0       	rjmp	.+28     	; 0x938 <FMClickP__FMClick__seek+0x2a>
     91c:	9f b7       	in	r25, 0x3f	; 63
     91e:	f8 94       	cli
     920:	23 e0       	ldi	r18, 0x03	; 3
     922:	20 93 d7 12 	sts	0x12D7, r18
     926:	10 92 dd 12 	sts	0x12DD, r1
     92a:	80 93 47 0f 	sts	0x0F47, r24
     92e:	9f bf       	out	0x3f, r25	; 63
     930:	0e 94 3d 03 	call	0x67a	; 0x67a <FMClickP__seek__postTask>
     934:	80 e0       	ldi	r24, 0x00	; 0
     936:	08 95       	ret
     938:	81 e0       	ldi	r24, 0x01	; 1
     93a:	08 95       	ret

0000093c <RadioScannerP__getListId>:
     93c:	bc 01       	movw	r22, r24
     93e:	40 91 47 04 	lds	r20, 0x0447
     942:	27 e4       	ldi	r18, 0x47	; 71
     944:	34 e0       	ldi	r19, 0x04	; 4
     946:	90 e0       	ldi	r25, 0x00	; 0
     948:	94 17       	cp	r25, r20
     94a:	61 f0       	breq	.+24     	; 0x964 <RadioScannerP__getListId+0x28>
     94c:	25 5c       	subi	r18, 0xC5	; 197
     94e:	3f 4f       	sbci	r19, 0xFF	; 255
     950:	f9 01       	movw	r30, r18
     952:	f8 97       	sbiw	r30, 0x38	; 56
     954:	01 90       	ld	r0, Z+
     956:	f0 81       	ld	r31, Z
     958:	e0 2d       	mov	r30, r0
     95a:	e6 17       	cp	r30, r22
     95c:	f7 07       	cpc	r31, r23
     95e:	21 f0       	breq	.+8      	; 0x968 <RadioScannerP__getListId+0x2c>
     960:	9f 5f       	subi	r25, 0xFF	; 255
     962:	f2 cf       	rjmp	.-28     	; 0x948 <RadioScannerP__getListId+0xc>
     964:	8f ef       	ldi	r24, 0xFF	; 255
     966:	08 95       	ret
     968:	89 2f       	mov	r24, r25
     96a:	08 95       	ret

0000096c <BufferedLcdP__0__BufferedLcd__write>:
     96c:	dc 01       	movw	r26, r24
     96e:	81 e0       	ldi	r24, 0x01	; 1
     970:	4d 91       	ld	r20, X+
     972:	44 23       	and	r20, r20
     974:	11 f1       	breq	.+68     	; 0x9ba <BufferedLcdP__0__BufferedLcd__write+0x4e>
     976:	20 91 e4 12 	lds	r18, 0x12E4
     97a:	30 e0       	ldi	r19, 0x00	; 0
     97c:	90 91 55 12 	lds	r25, 0x1255
     980:	f9 01       	movw	r30, r18
     982:	54 e0       	ldi	r21, 0x04	; 4
     984:	ee 0f       	add	r30, r30
     986:	ff 1f       	adc	r31, r31
     988:	5a 95       	dec	r21
     98a:	e1 f7       	brne	.-8      	; 0x984 <BufferedLcdP__0__BufferedLcd__write+0x18>
     98c:	e9 0f       	add	r30, r25
     98e:	f1 1d       	adc	r31, r1
     990:	e8 51       	subi	r30, 0x18	; 24
     992:	f0 4f       	sbci	r31, 0xF0	; 240
     994:	40 83       	st	Z, r20
     996:	9f 5f       	subi	r25, 0xFF	; 255
     998:	90 93 55 12 	sts	0x1255, r25
     99c:	f9 01       	movw	r30, r18
     99e:	e6 5b       	subi	r30, 0xB6	; 182
     9a0:	f0 4f       	sbci	r31, 0xF0	; 240
     9a2:	80 83       	st	Z, r24
     9a4:	90 31       	cpi	r25, 0x10	; 16
     9a6:	21 f7       	brne	.-56     	; 0x970 <BufferedLcdP__0__BufferedLcd__write+0x4>
     9a8:	10 92 55 12 	sts	0x1255, r1
     9ac:	2f 5f       	subi	r18, 0xFF	; 255
     9ae:	3f 4f       	sbci	r19, 0xFF	; 255
     9b0:	21 70       	andi	r18, 0x01	; 1
     9b2:	33 27       	eor	r19, r19
     9b4:	20 93 e4 12 	sts	0x12E4, r18
     9b8:	db cf       	rjmp	.-74     	; 0x970 <BufferedLcdP__0__BufferedLcd__write+0x4>
     9ba:	08 95       	ret

000009bc <RadioScannerP__clearRDSData>:
     9bc:	8f b7       	in	r24, 0x3f	; 63
     9be:	f8 94       	cli
     9c0:	e8 ee       	ldi	r30, 0xE8	; 232
     9c2:	f7 e0       	ldi	r31, 0x07	; 7
     9c4:	10 82       	st	Z, r1
     9c6:	11 82       	std	Z+1, r1	; 0x01
     9c8:	12 82       	std	Z+2, r1	; 0x02
     9ca:	13 82       	std	Z+3, r1	; 0x03
     9cc:	8f bf       	out	0x3f, r24	; 63
     9ce:	89 e0       	ldi	r24, 0x09	; 9
     9d0:	ee ee       	ldi	r30, 0xEE	; 238
     9d2:	f7 e0       	ldi	r31, 0x07	; 7
     9d4:	df 01       	movw	r26, r30
     9d6:	1d 92       	st	X+, r1
     9d8:	8a 95       	dec	r24
     9da:	e9 f7       	brne	.-6      	; 0x9d6 <RadioScannerP__clearRDSData+0x1a>
     9dc:	81 e4       	ldi	r24, 0x41	; 65
     9de:	e7 ef       	ldi	r30, 0xF7	; 247
     9e0:	f7 e0       	ldi	r31, 0x07	; 7
     9e2:	df 01       	movw	r26, r30
     9e4:	1d 92       	st	X+, r1
     9e6:	8a 95       	dec	r24
     9e8:	e9 f7       	brne	.-6      	; 0x9e4 <RadioScannerP__clearRDSData+0x28>
     9ea:	86 e0       	ldi	r24, 0x06	; 6
     9ec:	e8 e3       	ldi	r30, 0x38	; 56
     9ee:	f8 e0       	ldi	r31, 0x08	; 8
     9f0:	df 01       	movw	r26, r30
     9f2:	1d 92       	st	X+, r1
     9f4:	8a 95       	dec	r24
     9f6:	e9 f7       	brne	.-6      	; 0x9f2 <RadioScannerP__clearRDSData+0x36>
     9f8:	08 95       	ret

000009fa <RadioScannerP__printVolume>:
     9fa:	0f 93       	push	r16
     9fc:	1f 93       	push	r17
     9fe:	cf 93       	push	r28
     a00:	df 93       	push	r29
     a02:	00 d0       	rcall	.+0      	; 0xa04 <RadioScannerP__printVolume+0xa>
     a04:	1f 92       	push	r1
     a06:	cd b7       	in	r28, 0x3d	; 61
     a08:	de b7       	in	r29, 0x3e	; 62
     a0a:	80 91 3c 04 	lds	r24, 0x043C
     a0e:	1f 92       	push	r1
     a10:	8f 93       	push	r24
     a12:	87 ec       	ldi	r24, 0xC7	; 199
     a14:	92 e0       	ldi	r25, 0x02	; 2
     a16:	9f 93       	push	r25
     a18:	8f 93       	push	r24
     a1a:	8e 01       	movw	r16, r28
     a1c:	0f 5f       	subi	r16, 0xFF	; 255
     a1e:	1f 4f       	sbci	r17, 0xFF	; 255
     a20:	1f 93       	push	r17
     a22:	0f 93       	push	r16
     a24:	0e 94 c7 2b 	call	0x578e	; 0x578e <sprintf>
     a28:	1b 82       	std	Y+3, r1	; 0x03
     a2a:	10 92 e4 12 	sts	0x12E4, r1
     a2e:	88 e0       	ldi	r24, 0x08	; 8
     a30:	80 93 55 12 	sts	0x1255, r24
     a34:	c8 01       	movw	r24, r16
     a36:	0e 94 b6 04 	call	0x96c	; 0x96c <BufferedLcdP__0__BufferedLcd__write>
     a3a:	88 e2       	ldi	r24, 0x28	; 40
     a3c:	0e 94 12 03 	call	0x624	; 0x624 <SchedulerBasicP__TaskBasic__postTask>
     a40:	0f 90       	pop	r0
     a42:	0f 90       	pop	r0
     a44:	0f 90       	pop	r0
     a46:	0f 90       	pop	r0
     a48:	0f 90       	pop	r0
     a4a:	0f 90       	pop	r0
     a4c:	0f 90       	pop	r0
     a4e:	0f 90       	pop	r0
     a50:	0f 90       	pop	r0
     a52:	df 91       	pop	r29
     a54:	cf 91       	pop	r28
     a56:	1f 91       	pop	r17
     a58:	0f 91       	pop	r16
     a5a:	08 95       	ret

00000a5c <DatabaseP__Database__saveChannel>:
     a5c:	2f 92       	push	r2
     a5e:	3f 92       	push	r3
     a60:	4f 92       	push	r4
     a62:	5f 92       	push	r5
     a64:	6f 92       	push	r6
     a66:	7f 92       	push	r7
     a68:	8f 92       	push	r8
     a6a:	9f 92       	push	r9
     a6c:	af 92       	push	r10
     a6e:	bf 92       	push	r11
     a70:	cf 92       	push	r12
     a72:	df 92       	push	r13
     a74:	ef 92       	push	r14
     a76:	ff 92       	push	r15
     a78:	0f 93       	push	r16
     a7a:	1f 93       	push	r17
     a7c:	cf 93       	push	r28
     a7e:	df 93       	push	r29
     a80:	cd b7       	in	r28, 0x3d	; 61
     a82:	de b7       	in	r29, 0x3e	; 62
     a84:	ad 97       	sbiw	r28, 0x2d	; 45
     a86:	0f b6       	in	r0, 0x3f	; 63
     a88:	f8 94       	cli
     a8a:	de bf       	out	0x3e, r29	; 62
     a8c:	0f be       	out	0x3f, r0	; 63
     a8e:	cd bf       	out	0x3d, r28	; 61
     a90:	2f b7       	in	r18, 0x3f	; 63
     a92:	f8 94       	cli
     a94:	90 91 39 04 	lds	r25, 0x0439
     a98:	2f bf       	out	0x3f, r18	; 63
     a9a:	91 11       	cpse	r25, r1
     a9c:	f3 c0       	rjmp	.+486    	; 0xc84 <DatabaseP__Database__saveChannel+0x228>
     a9e:	8b 01       	movw	r16, r22
     aa0:	8b a7       	std	Y+43, r24	; 0x2b
     aa2:	8f b7       	in	r24, 0x3f	; 63
     aa4:	f8 94       	cli
     aa6:	92 e0       	ldi	r25, 0x02	; 2
     aa8:	90 93 39 04 	sts	0x0439, r25
     aac:	8f bf       	out	0x3f, r24	; 63
     aae:	44 e0       	ldi	r20, 0x04	; 4
     ab0:	50 e0       	ldi	r21, 0x00	; 0
     ab2:	6a e8       	ldi	r22, 0x8A	; 138
     ab4:	74 e0       	ldi	r23, 0x04	; 4
     ab6:	ce 01       	movw	r24, r28
     ab8:	01 96       	adiw	r24, 0x01	; 1
     aba:	1c 01       	movw	r2, r24
     abc:	0e 94 10 2b 	call	0x5620	; 0x5620 <strncpy_P>
     ac0:	9e 01       	movw	r18, r28
     ac2:	2b 5f       	subi	r18, 0xFB	; 251
     ac4:	3f 4f       	sbci	r19, 0xFF	; 255
     ac6:	47 e0       	ldi	r20, 0x07	; 7
     ac8:	50 e0       	ldi	r21, 0x00	; 0
     aca:	63 e8       	ldi	r22, 0x83	; 131
     acc:	74 e0       	ldi	r23, 0x04	; 4
     ace:	c9 01       	movw	r24, r18
     ad0:	2c a7       	std	Y+44, r18	; 0x2c
     ad2:	3d a7       	std	Y+45, r19	; 0x2d
     ad4:	0e 94 10 2b 	call	0x5620	; 0x5620 <strncpy_P>
     ad8:	2e 01       	movw	r4, r28
     ada:	9c e0       	ldi	r25, 0x0C	; 12
     adc:	49 0e       	add	r4, r25
     ade:	51 1c       	adc	r5, r1
     ae0:	43 e0       	ldi	r20, 0x03	; 3
     ae2:	50 e0       	ldi	r21, 0x00	; 0
     ae4:	6a e5       	ldi	r22, 0x5A	; 90
     ae6:	74 e0       	ldi	r23, 0x04	; 4
     ae8:	c2 01       	movw	r24, r4
     aea:	0e 94 10 2b 	call	0x5620	; 0x5620 <strncpy_P>
     aee:	5e 01       	movw	r10, r28
     af0:	af e0       	ldi	r26, 0x0F	; 15
     af2:	aa 0e       	add	r10, r26
     af4:	b1 1c       	adc	r11, r1
     af6:	45 e0       	ldi	r20, 0x05	; 5
     af8:	50 e0       	ldi	r21, 0x00	; 0
     afa:	65 e5       	ldi	r22, 0x55	; 85
     afc:	74 e0       	ldi	r23, 0x04	; 4
     afe:	c5 01       	movw	r24, r10
     b00:	0e 94 10 2b 	call	0x5620	; 0x5620 <strncpy_P>
     b04:	4e 01       	movw	r8, r28
     b06:	ba e1       	ldi	r27, 0x1A	; 26
     b08:	8b 0e       	add	r8, r27
     b0a:	91 1c       	adc	r9, r1
     b0c:	47 e0       	ldi	r20, 0x07	; 7
     b0e:	50 e0       	ldi	r21, 0x00	; 0
     b10:	6e e4       	ldi	r22, 0x4E	; 78
     b12:	74 e0       	ldi	r23, 0x04	; 4
     b14:	c4 01       	movw	r24, r8
     b16:	0e 94 10 2b 	call	0x5620	; 0x5620 <strncpy_P>
     b1a:	6e 01       	movw	r12, r28
     b1c:	84 e1       	ldi	r24, 0x14	; 20
     b1e:	c8 0e       	add	r12, r24
     b20:	d1 1c       	adc	r13, r1
     b22:	46 e0       	ldi	r20, 0x06	; 6
     b24:	50 e0       	ldi	r21, 0x00	; 0
     b26:	68 e4       	ldi	r22, 0x48	; 72
     b28:	74 e0       	ldi	r23, 0x04	; 4
     b2a:	c6 01       	movw	r24, r12
     b2c:	0e 94 10 2b 	call	0x5620	; 0x5620 <strncpy_P>
     b30:	7e 01       	movw	r14, r28
     b32:	91 e2       	ldi	r25, 0x21	; 33
     b34:	e9 0e       	add	r14, r25
     b36:	f1 1c       	adc	r15, r1
     b38:	45 e0       	ldi	r20, 0x05	; 5
     b3a:	50 e0       	ldi	r21, 0x00	; 0
     b3c:	63 e4       	ldi	r22, 0x43	; 67
     b3e:	74 e0       	ldi	r23, 0x04	; 4
     b40:	c7 01       	movw	r24, r14
     b42:	0e 94 10 2b 	call	0x5620	; 0x5620 <strncpy_P>
     b46:	3e 01       	movw	r6, r28
     b48:	a6 e2       	ldi	r26, 0x26	; 38
     b4a:	6a 0e       	add	r6, r26
     b4c:	71 1c       	adc	r7, r1
     b4e:	45 e0       	ldi	r20, 0x05	; 5
     b50:	50 e0       	ldi	r21, 0x00	; 0
     b52:	6e e3       	ldi	r22, 0x3E	; 62
     b54:	74 e0       	ldi	r23, 0x04	; 4
     b56:	c3 01       	movw	r24, r6
     b58:	0e 94 10 2b 	call	0x5620	; 0x5620 <strncpy_P>
     b5c:	e5 e3       	ldi	r30, 0x35	; 53
     b5e:	f3 e0       	ldi	r31, 0x03	; 3
     b60:	80 e8       	ldi	r24, 0x80	; 128
     b62:	df 01       	movw	r26, r30
     b64:	1d 92       	st	X+, r1
     b66:	8a 95       	dec	r24
     b68:	e9 f7       	brne	.-6      	; 0xb64 <DatabaseP__Database__saveChannel+0x108>
     b6a:	2c a5       	ldd	r18, Y+44	; 0x2c
     b6c:	3d a5       	ldd	r19, Y+45	; 0x2d
     b6e:	bb a5       	ldd	r27, Y+43	; 0x2b
     b70:	bf 3f       	cpi	r27, 0xFF	; 255
     b72:	a1 f5       	brne	.+104    	; 0xbdc <DatabaseP__Database__saveChannel+0x180>
     b74:	d8 01       	movw	r26, r16
     b76:	18 96       	adiw	r26, 0x08	; 8
     b78:	8c 91       	ld	r24, X
     b7a:	18 97       	sbiw	r26, 0x08	; 8
     b7c:	8f 93       	push	r24
     b7e:	17 96       	adiw	r26, 0x07	; 7
     b80:	8c 91       	ld	r24, X
     b82:	17 97       	sbiw	r26, 0x07	; 7
     b84:	8f 93       	push	r24
     b86:	7f 92       	push	r7
     b88:	6f 92       	push	r6
     b8a:	14 96       	adiw	r26, 0x04	; 4
     b8c:	8c 91       	ld	r24, X
     b8e:	14 97       	sbiw	r26, 0x04	; 4
     b90:	8f 93       	push	r24
     b92:	13 96       	adiw	r26, 0x03	; 3
     b94:	8c 91       	ld	r24, X
     b96:	13 97       	sbiw	r26, 0x03	; 3
     b98:	8f 93       	push	r24
     b9a:	9f 92       	push	r9
     b9c:	8f 92       	push	r8
     b9e:	12 96       	adiw	r26, 0x02	; 2
     ba0:	8c 91       	ld	r24, X
     ba2:	12 97       	sbiw	r26, 0x02	; 2
     ba4:	8f 93       	push	r24
     ba6:	11 96       	adiw	r26, 0x01	; 1
     ba8:	8c 91       	ld	r24, X
     baa:	11 97       	sbiw	r26, 0x01	; 1
     bac:	8f 93       	push	r24
     bae:	bf 92       	push	r11
     bb0:	af 92       	push	r10
     bb2:	8c 91       	ld	r24, X
     bb4:	1f 92       	push	r1
     bb6:	8f 93       	push	r24
     bb8:	df 92       	push	r13
     bba:	cf 92       	push	r12
     bbc:	16 96       	adiw	r26, 0x06	; 6
     bbe:	8c 91       	ld	r24, X
     bc0:	16 97       	sbiw	r26, 0x06	; 6
     bc2:	8f 93       	push	r24
     bc4:	15 96       	adiw	r26, 0x05	; 5
     bc6:	8c 91       	ld	r24, X
     bc8:	8f 93       	push	r24
     bca:	ff 92       	push	r15
     bcc:	ef 92       	push	r14
     bce:	1f 92       	push	r1
     bd0:	1f 92       	push	r1
     bd2:	5f 92       	push	r5
     bd4:	4f 92       	push	r4
     bd6:	3f 92       	push	r3
     bd8:	2f 92       	push	r2
     bda:	37 c0       	rjmp	.+110    	; 0xc4a <DatabaseP__Database__saveChannel+0x1ee>
     bdc:	9b a5       	ldd	r25, Y+43	; 0x2b
     bde:	9f 30       	cpi	r25, 0x0F	; 15
     be0:	08 f0       	brcs	.+2      	; 0xbe4 <DatabaseP__Database__saveChannel+0x188>
     be2:	40 c0       	rjmp	.+128    	; 0xc64 <DatabaseP__Database__saveChannel+0x208>
     be4:	d8 01       	movw	r26, r16
     be6:	18 96       	adiw	r26, 0x08	; 8
     be8:	8c 91       	ld	r24, X
     bea:	18 97       	sbiw	r26, 0x08	; 8
     bec:	8f 93       	push	r24
     bee:	17 96       	adiw	r26, 0x07	; 7
     bf0:	8c 91       	ld	r24, X
     bf2:	17 97       	sbiw	r26, 0x07	; 7
     bf4:	8f 93       	push	r24
     bf6:	7f 92       	push	r7
     bf8:	6f 92       	push	r6
     bfa:	14 96       	adiw	r26, 0x04	; 4
     bfc:	8c 91       	ld	r24, X
     bfe:	14 97       	sbiw	r26, 0x04	; 4
     c00:	8f 93       	push	r24
     c02:	13 96       	adiw	r26, 0x03	; 3
     c04:	8c 91       	ld	r24, X
     c06:	13 97       	sbiw	r26, 0x03	; 3
     c08:	8f 93       	push	r24
     c0a:	9f 92       	push	r9
     c0c:	8f 92       	push	r8
     c0e:	12 96       	adiw	r26, 0x02	; 2
     c10:	8c 91       	ld	r24, X
     c12:	12 97       	sbiw	r26, 0x02	; 2
     c14:	8f 93       	push	r24
     c16:	11 96       	adiw	r26, 0x01	; 1
     c18:	8c 91       	ld	r24, X
     c1a:	11 97       	sbiw	r26, 0x01	; 1
     c1c:	8f 93       	push	r24
     c1e:	bf 92       	push	r11
     c20:	af 92       	push	r10
     c22:	8c 91       	ld	r24, X
     c24:	1f 92       	push	r1
     c26:	8f 93       	push	r24
     c28:	df 92       	push	r13
     c2a:	cf 92       	push	r12
     c2c:	16 96       	adiw	r26, 0x06	; 6
     c2e:	8c 91       	ld	r24, X
     c30:	16 97       	sbiw	r26, 0x06	; 6
     c32:	8f 93       	push	r24
     c34:	15 96       	adiw	r26, 0x05	; 5
     c36:	8c 91       	ld	r24, X
     c38:	8f 93       	push	r24
     c3a:	ff 92       	push	r15
     c3c:	ef 92       	push	r14
     c3e:	1f 92       	push	r1
     c40:	9f 93       	push	r25
     c42:	5f 92       	push	r5
     c44:	4f 92       	push	r4
     c46:	3f 93       	push	r19
     c48:	2f 93       	push	r18
     c4a:	8b e3       	ldi	r24, 0x3B	; 59
     c4c:	92 e0       	ldi	r25, 0x02	; 2
     c4e:	9f 93       	push	r25
     c50:	8f 93       	push	r24
     c52:	ff 93       	push	r31
     c54:	ef 93       	push	r30
     c56:	0e 94 c7 2b 	call	0x578e	; 0x578e <sprintf>
     c5a:	0f b6       	in	r0, 0x3f	; 63
     c5c:	f8 94       	cli
     c5e:	de bf       	out	0x3e, r29	; 62
     c60:	0f be       	out	0x3f, r0	; 63
     c62:	cd bf       	out	0x3d, r28	; 61
     c64:	10 92 b4 03 	sts	0x03B4, r1
     c68:	e5 e3       	ldi	r30, 0x35	; 53
     c6a:	f3 e0       	ldi	r31, 0x03	; 3
     c6c:	01 90       	ld	r0, Z+
     c6e:	00 20       	and	r0, r0
     c70:	e9 f7       	brne	.-6      	; 0xc6c <DatabaseP__Database__saveChannel+0x210>
     c72:	cf 01       	movw	r24, r30
     c74:	86 53       	subi	r24, 0x36	; 54
     c76:	93 40       	sbci	r25, 0x03	; 3
     c78:	90 93 34 03 	sts	0x0334, r25
     c7c:	80 93 33 03 	sts	0x0333, r24
     c80:	0e 94 37 03 	call	0x66e	; 0x66e <DatabaseP__sendTask__postTask>
     c84:	ad 96       	adiw	r28, 0x2d	; 45
     c86:	0f b6       	in	r0, 0x3f	; 63
     c88:	f8 94       	cli
     c8a:	de bf       	out	0x3e, r29	; 62
     c8c:	0f be       	out	0x3f, r0	; 63
     c8e:	cd bf       	out	0x3d, r28	; 61
     c90:	df 91       	pop	r29
     c92:	cf 91       	pop	r28
     c94:	1f 91       	pop	r17
     c96:	0f 91       	pop	r16
     c98:	ff 90       	pop	r15
     c9a:	ef 90       	pop	r14
     c9c:	df 90       	pop	r13
     c9e:	cf 90       	pop	r12
     ca0:	bf 90       	pop	r11
     ca2:	af 90       	pop	r10
     ca4:	9f 90       	pop	r9
     ca6:	8f 90       	pop	r8
     ca8:	7f 90       	pop	r7
     caa:	6f 90       	pop	r6
     cac:	5f 90       	pop	r5
     cae:	4f 90       	pop	r4
     cb0:	3f 90       	pop	r3
     cb2:	2f 90       	pop	r2
     cb4:	08 95       	ret

00000cb6 <BusyWaitMicroC__BusyWait__wait.part.0>:
     cb6:	01 97       	sbiw	r24, 0x01	; 1
     cb8:	01 96       	adiw	r24, 0x01	; 1
     cba:	01 97       	sbiw	r24, 0x01	; 1
     cbc:	01 96       	adiw	r24, 0x01	; 1
     cbe:	01 97       	sbiw	r24, 0x01	; 1
     cc0:	01 96       	adiw	r24, 0x01	; 1
     cc2:	01 97       	sbiw	r24, 0x01	; 1
     cc4:	c1 f7       	brne	.-16     	; 0xcb6 <BusyWaitMicroC__BusyWait__wait.part.0>
     cc6:	08 95       	ret

00000cc8 <PacketQueueP__3__PacketSender__sendDone.isra.63>:
     cc8:	10 92 12 03 	sts	0x0312, r1
     ccc:	e0 91 13 03 	lds	r30, 0x0313
     cd0:	8b e0       	ldi	r24, 0x0B	; 11
     cd2:	e8 9f       	mul	r30, r24
     cd4:	f0 01       	movw	r30, r0
     cd6:	11 24       	eor	r1, r1
     cd8:	e4 5a       	subi	r30, 0xA4	; 164
     cda:	fd 4e       	sbci	r31, 0xED	; 237
     cdc:	10 82       	st	Z, r1
     cde:	86 e1       	ldi	r24, 0x16	; 22
     ce0:	0c 94 12 03 	jmp	0x624	; 0x624 <SchedulerBasicP__TaskBasic__postTask>

00000ce4 <DatabaseP__prepareMessage.constprop.108>:
     ce4:	0f 93       	push	r16
     ce6:	1f 93       	push	r17
     ce8:	cf 93       	push	r28
     cea:	df 93       	push	r29
     cec:	00 91 b5 03 	lds	r16, 0x03B5
     cf0:	10 91 b6 03 	lds	r17, 0x03B6
     cf4:	f8 01       	movw	r30, r16
     cf6:	ea 54       	subi	r30, 0x4A	; 74
     cf8:	fc 4f       	sbci	r31, 0xFC	; 252
     cfa:	20 81       	ld	r18, Z
     cfc:	2a 30       	cpi	r18, 0x0A	; 10
     cfe:	d1 f4       	brne	.+52     	; 0xd34 <DatabaseP__prepareMessage.constprop.108+0x50>
     d00:	ec 01       	movw	r28, r24
     d02:	10 82       	st	Z, r1
     d04:	6d e0       	ldi	r22, 0x0D	; 13
     d06:	70 e0       	ldi	r23, 0x00	; 0
     d08:	87 eb       	ldi	r24, 0xB7	; 183
     d0a:	93 e0       	ldi	r25, 0x03	; 3
     d0c:	0e 94 49 2b 	call	0x5692	; 0x5692 <strchr>
     d10:	99 83       	std	Y+1, r25	; 0x01
     d12:	88 83       	st	Y, r24
     d14:	00 97       	sbiw	r24, 0x00	; 0
     d16:	41 f0       	breq	.+16     	; 0xd28 <DatabaseP__prepareMessage.constprop.108+0x44>
     d18:	fc 01       	movw	r30, r24
     d1a:	10 82       	st	Z, r1
     d1c:	88 81       	ld	r24, Y
     d1e:	99 81       	ldd	r25, Y+1	; 0x01
     d20:	01 96       	adiw	r24, 0x01	; 1
     d22:	99 83       	std	Y+1, r25	; 0x01
     d24:	88 83       	st	Y, r24
     d26:	04 c0       	rjmp	.+8      	; 0xd30 <DatabaseP__prepareMessage.constprop.108+0x4c>
     d28:	09 54       	subi	r16, 0x49	; 73
     d2a:	1c 4f       	sbci	r17, 0xFC	; 252
     d2c:	19 83       	std	Y+1, r17	; 0x01
     d2e:	08 83       	st	Y, r16
     d30:	81 e0       	ldi	r24, 0x01	; 1
     d32:	01 c0       	rjmp	.+2      	; 0xd36 <DatabaseP__prepareMessage.constprop.108+0x52>
     d34:	80 e0       	ldi	r24, 0x00	; 0
     d36:	df 91       	pop	r29
     d38:	cf 91       	pop	r28
     d3a:	1f 91       	pop	r17
     d3c:	0f 91       	pop	r16
     d3e:	08 95       	ret

00000d40 <ArpP__sendRequest>:
     d40:	81 e0       	ldi	r24, 0x01	; 1
     d42:	80 93 18 03 	sts	0x0318, r24
     d46:	4f e3       	ldi	r20, 0x3F	; 63
     d48:	53 e1       	ldi	r21, 0x13	; 19
     d4a:	66 e0       	ldi	r22, 0x06	; 6
     d4c:	72 e0       	ldi	r23, 0x02	; 2
     d4e:	0e 94 f1 03 	call	0x7e2	; 0x7e2 <ArpP__send_packet>
     d52:	44 e6       	ldi	r20, 0x64	; 100
     d54:	50 e0       	ldi	r21, 0x00	; 0
     d56:	60 e0       	ldi	r22, 0x00	; 0
     d58:	70 e0       	ldi	r23, 0x00	; 0
     d5a:	80 e0       	ldi	r24, 0x00	; 0
     d5c:	0c 94 7c 03 	jmp	0x6f8	; 0x6f8 <VirtualizeTimerC__0__Timer__startOneShot>

00000d60 <ArbiterP__0__Resource__request.constprop.147>:
     d60:	1f 93       	push	r17
     d62:	cf 93       	push	r28
     d64:	df 93       	push	r29
     d66:	8f b7       	in	r24, 0x3f	; 63
     d68:	f8 94       	cli
     d6a:	c0 91 0a 03 	lds	r28, 0x030A
     d6e:	c1 11       	cpse	r28, r1
     d70:	3d c0       	rjmp	.+122    	; 0xdec <ArbiterP__0__Resource__request.constprop.147+0x8c>
     d72:	11 e0       	ldi	r17, 0x01	; 1
     d74:	10 93 0a 03 	sts	0x030A, r17
     d78:	10 92 ce 12 	sts	0x12CE, r1
     d7c:	8f bf       	out	0x3f, r24	; 63
     d7e:	df b7       	in	r29, 0x3f	; 63
     d80:	f8 94       	cli
     d82:	80 91 09 03 	lds	r24, 0x0309
     d86:	81 11       	cpse	r24, r1
     d88:	17 c0       	rjmp	.+46     	; 0xdb8 <ArbiterP__0__Resource__request.constprop.147+0x58>
     d8a:	50 98       	cbi	0x0a, 0	; 10
     d8c:	51 98       	cbi	0x0a, 1	; 10
     d8e:	10 92 b9 00 	sts	0x00B9, r1
     d92:	81 e4       	ldi	r24, 0x41	; 65
     d94:	80 93 b8 00 	sts	0x00B8, r24
     d98:	10 92 ba 00 	sts	0x00BA, r1
     d9c:	10 92 bc 00 	sts	0x00BC, r1
     da0:	0e 94 68 03 	call	0x6d0	; 0x6d0 <HplAtm128I2CBusP__I2C__readCurrent>
     da4:	80 91 54 12 	lds	r24, 0x1254
     da8:	8e 7f       	andi	r24, 0xFE	; 254
     daa:	84 60       	ori	r24, 0x04	; 4
     dac:	80 93 54 12 	sts	0x1254, r24
     db0:	0e 94 f1 02 	call	0x5e2	; 0x5e2 <HplAtm128I2CBusP__I2C__sendCommand>
     db4:	10 93 09 03 	sts	0x0309, r17
     db8:	df bf       	out	0x3f, r29	; 63
     dba:	df b7       	in	r29, 0x3f	; 63
     dbc:	f8 94       	cli
     dbe:	80 91 0e 02 	lds	r24, 0x020E
     dc2:	81 30       	cpi	r24, 0x01	; 1
     dc4:	89 f4       	brne	.+34     	; 0xde8 <ArbiterP__0__Resource__request.constprop.147+0x88>
     dc6:	80 91 0a 03 	lds	r24, 0x030A
     dca:	81 30       	cpi	r24, 0x01	; 1
     dcc:	21 f4       	brne	.+8      	; 0xdd6 <ArbiterP__0__Resource__request.constprop.147+0x76>
     dce:	84 e2       	ldi	r24, 0x24	; 36
     dd0:	0e 94 12 03 	call	0x624	; 0x624 <SchedulerBasicP__TaskBasic__postTask>
     dd4:	09 c0       	rjmp	.+18     	; 0xde8 <ArbiterP__0__Resource__request.constprop.147+0x88>
     dd6:	82 30       	cpi	r24, 0x02	; 2
     dd8:	39 f4       	brne	.+14     	; 0xde8 <ArbiterP__0__Resource__request.constprop.147+0x88>
     dda:	80 91 ce 12 	lds	r24, 0x12CE
     dde:	80 93 0e 02 	sts	0x020E, r24
     de2:	83 e0       	ldi	r24, 0x03	; 3
     de4:	80 93 0a 03 	sts	0x030A, r24
     de8:	df bf       	out	0x3f, r29	; 63
     dea:	1d c0       	rjmp	.+58     	; 0xe26 <ArbiterP__0__Resource__request.constprop.147+0xc6>
     dec:	c0 91 ce 12 	lds	r28, 0x12CE
     df0:	cc 23       	and	r28, r28
     df2:	c1 f0       	breq	.+48     	; 0xe24 <ArbiterP__0__Resource__request.constprop.147+0xc4>
     df4:	90 91 4c 0f 	lds	r25, 0x0F4C
     df8:	9f 3f       	cpi	r25, 0xFF	; 255
     dfa:	99 f4       	brne	.+38     	; 0xe22 <ArbiterP__0__Resource__request.constprop.147+0xc2>
     dfc:	e0 91 0f 02 	lds	r30, 0x020F
     e00:	ee 23       	and	r30, r30
     e02:	79 f0       	breq	.+30     	; 0xe22 <ArbiterP__0__Resource__request.constprop.147+0xc2>
     e04:	90 91 10 02 	lds	r25, 0x0210
     e08:	9f 3f       	cpi	r25, 0xFF	; 255
     e0a:	19 f4       	brne	.+6      	; 0xe12 <ArbiterP__0__Resource__request.constprop.147+0xb2>
     e0c:	10 92 10 02 	sts	0x0210, r1
     e10:	04 c0       	rjmp	.+8      	; 0xe1a <ArbiterP__0__Resource__request.constprop.147+0xba>
     e12:	f0 e0       	ldi	r31, 0x00	; 0
     e14:	e4 5b       	subi	r30, 0xB4	; 180
     e16:	f0 4f       	sbci	r31, 0xF0	; 240
     e18:	10 82       	st	Z, r1
     e1a:	10 92 0f 02 	sts	0x020F, r1
     e1e:	c0 e0       	ldi	r28, 0x00	; 0
     e20:	01 c0       	rjmp	.+2      	; 0xe24 <ArbiterP__0__Resource__request.constprop.147+0xc4>
     e22:	c5 e0       	ldi	r28, 0x05	; 5
     e24:	8f bf       	out	0x3f, r24	; 63
     e26:	8c 2f       	mov	r24, r28
     e28:	df 91       	pop	r29
     e2a:	cf 91       	pop	r28
     e2c:	1f 91       	pop	r17
     e2e:	08 95       	ret

00000e30 <FMClickP__readI2C__runTask>:
     e30:	cf 93       	push	r28
     e32:	8f b7       	in	r24, 0x3f	; 63
     e34:	f8 94       	cli
     e36:	90 91 0d 02 	lds	r25, 0x020D
     e3a:	91 11       	cpse	r25, r1
     e3c:	36 c0       	rjmp	.+108    	; 0xeaa <FMClickP__readI2C__runTask+0x7a>
     e3e:	8f bf       	out	0x3f, r24	; 63
     e40:	8f b7       	in	r24, 0x3f	; 63
     e42:	f8 94       	cli
     e44:	90 91 09 03 	lds	r25, 0x0309
     e48:	91 30       	cpi	r25, 0x01	; 1
     e4a:	79 f5       	brne	.+94     	; 0xeaa <FMClickP__readI2C__runTask+0x7a>
     e4c:	22 e0       	ldi	r18, 0x02	; 2
     e4e:	20 93 09 03 	sts	0x0309, r18
     e52:	8f bf       	out	0x3f, r24	; 63
     e54:	8f b7       	in	r24, 0x3f	; 63
     e56:	f8 94       	cli
     e58:	20 e1       	ldi	r18, 0x10	; 16
     e5a:	30 e0       	ldi	r19, 0x00	; 0
     e5c:	30 93 46 0f 	sts	0x0F46, r19
     e60:	20 93 45 0f 	sts	0x0F45, r18
     e64:	24 e7       	ldi	r18, 0x74	; 116
     e66:	32 e1       	ldi	r19, 0x12	; 18
     e68:	30 93 0f 0d 	sts	0x0D0F, r19
     e6c:	20 93 0e 0d 	sts	0x0D0E, r18
     e70:	20 e2       	ldi	r18, 0x20	; 32
     e72:	20 93 4a 08 	sts	0x084A, r18
     e76:	23 e0       	ldi	r18, 0x03	; 3
     e78:	20 93 6e 13 	sts	0x136E, r18
     e7c:	10 92 d0 12 	sts	0x12D0, r1
     e80:	90 93 08 03 	sts	0x0308, r25
     e84:	8f bf       	out	0x3f, r24	; 63
     e86:	0e 94 68 03 	call	0x6d0	; 0x6d0 <HplAtm128I2CBusP__I2C__readCurrent>
     e8a:	cf b7       	in	r28, 0x3f	; 63
     e8c:	f8 94       	cli
     e8e:	80 91 54 12 	lds	r24, 0x1254
     e92:	8f 7a       	andi	r24, 0xAF	; 175
     e94:	81 6a       	ori	r24, 0xA1	; 161
     e96:	80 93 54 12 	sts	0x1254, r24
     e9a:	84 e0       	ldi	r24, 0x04	; 4
     e9c:	80 93 09 03 	sts	0x0309, r24
     ea0:	0e 94 f1 02 	call	0x5e2	; 0x5e2 <HplAtm128I2CBusP__I2C__sendCommand>
     ea4:	cf bf       	out	0x3f, r28	; 63
     ea6:	cf 91       	pop	r28
     ea8:	08 95       	ret
     eaa:	8f bf       	out	0x3f, r24	; 63
     eac:	80 e2       	ldi	r24, 0x20	; 32
     eae:	cf 91       	pop	r28
     eb0:	0c 94 12 03 	jmp	0x624	; 0x624 <SchedulerBasicP__TaskBasic__postTask>

00000eb4 <RadioScannerP__Radio__seekComplete>:
     eb4:	3f b7       	in	r19, 0x3f	; 63
     eb6:	f8 94       	cli
     eb8:	90 93 47 08 	sts	0x0847, r25
     ebc:	80 93 46 08 	sts	0x0846, r24
     ec0:	20 91 49 08 	lds	r18, 0x0849
     ec4:	3f bf       	out	0x3f, r19	; 63
     ec6:	24 30       	cpi	r18, 0x04	; 4
     ec8:	79 f0       	breq	.+30     	; 0xee8 <RadioScannerP__Radio__seekComplete+0x34>
     eca:	25 30       	cpi	r18, 0x05	; 5
     ecc:	69 f4       	brne	.+26     	; 0xee8 <RadioScannerP__Radio__seekComplete+0x34>
     ece:	88 33       	cpi	r24, 0x38	; 56
     ed0:	94 40       	sbci	r25, 0x04	; 4
     ed2:	28 f4       	brcc	.+10     	; 0xede <RadioScannerP__Radio__seekComplete+0x2a>
     ed4:	0e 94 46 03 	call	0x68c	; 0x68c <RadioScannerP__displayChannelInfo__postTask>
     ed8:	88 e0       	ldi	r24, 0x08	; 8
     eda:	0c 94 12 03 	jmp	0x624	; 0x624 <SchedulerBasicP__TaskBasic__postTask>
     ede:	86 e0       	ldi	r24, 0x06	; 6
     ee0:	80 93 3a 04 	sts	0x043A, r24
     ee4:	0c 94 31 03 	jmp	0x662	; 0x662 <RadioScannerP__displaySoftError__postTask>
     ee8:	0c 94 46 03 	jmp	0x68c	; 0x68c <RadioScannerP__displayChannelInfo__postTask>

00000eec <FMClickP__enableRDS>:
     eec:	88 23       	and	r24, r24
     eee:	89 f1       	breq	.+98     	; 0xf52 <FMClickP__enableRDS+0x66>
     ef0:	2f b7       	in	r18, 0x3f	; 63
     ef2:	f8 94       	cli
     ef4:	80 91 81 0a 	lds	r24, 0x0A81
     ef8:	90 91 82 0a 	lds	r25, 0x0A82
     efc:	90 69       	ori	r25, 0x90	; 144
     efe:	90 93 82 0a 	sts	0x0A82, r25
     f02:	80 93 81 0a 	sts	0x0A81, r24
     f06:	10 92 e5 12 	sts	0x12E5, r1
     f0a:	10 92 e6 12 	sts	0x12E6, r1
     f0e:	10 92 e7 12 	sts	0x12E7, r1
     f12:	84 e0       	ldi	r24, 0x04	; 4
     f14:	80 93 cf 12 	sts	0x12CF, r24
     f18:	2f bf       	out	0x3f, r18	; 63
     f1a:	48 e0       	ldi	r20, 0x08	; 8
     f1c:	50 e0       	ldi	r21, 0x00	; 0
     f1e:	60 e2       	ldi	r22, 0x20	; 32
     f20:	70 e0       	ldi	r23, 0x00	; 0
     f22:	89 ee       	ldi	r24, 0xE9	; 233
     f24:	92 e1       	ldi	r25, 0x12	; 18
     f26:	0e 94 42 2b 	call	0x5684	; 0x5684 <memset>
     f2a:	40 e4       	ldi	r20, 0x40	; 64
     f2c:	50 e0       	ldi	r21, 0x00	; 0
     f2e:	60 e2       	ldi	r22, 0x20	; 32
     f30:	70 e0       	ldi	r23, 0x00	; 0
     f32:	83 ef       	ldi	r24, 0xF3	; 243
     f34:	92 e1       	ldi	r25, 0x12	; 18
     f36:	0e 94 42 2b 	call	0x5684	; 0x5684 <memset>
     f3a:	46 e0       	ldi	r20, 0x06	; 6
     f3c:	50 e0       	ldi	r21, 0x00	; 0
     f3e:	60 e2       	ldi	r22, 0x20	; 32
     f40:	70 e0       	ldi	r23, 0x00	; 0
     f42:	83 e3       	ldi	r24, 0x33	; 51
     f44:	93 e1       	ldi	r25, 0x13	; 19
     f46:	0e 94 42 2b 	call	0x5684	; 0x5684 <memset>
     f4a:	88 e0       	ldi	r24, 0x08	; 8
     f4c:	8c bb       	out	0x1c, r24	; 28
     f4e:	eb 9a       	sbi	0x1d, 3	; 29
     f50:	11 c0       	rjmp	.+34     	; 0xf74 <FMClickP__enableRDS+0x88>
     f52:	0e 94 10 03 	call	0x620	; 0x620 <HplAtm128InterruptPinP__3__Irq__disable>
     f56:	2f b7       	in	r18, 0x3f	; 63
     f58:	f8 94       	cli
     f5a:	80 91 81 0a 	lds	r24, 0x0A81
     f5e:	90 91 82 0a 	lds	r25, 0x0A82
     f62:	9f 76       	andi	r25, 0x6F	; 111
     f64:	90 93 82 0a 	sts	0x0A82, r25
     f68:	80 93 81 0a 	sts	0x0A81, r24
     f6c:	84 e0       	ldi	r24, 0x04	; 4
     f6e:	80 93 cf 12 	sts	0x12CF, r24
     f72:	2f bf       	out	0x3f, r18	; 63
     f74:	0c 94 3a 03 	jmp	0x674	; 0x674 <FMClickP__writeRegisters__postTask>

00000f78 <RadioScannerP__Radio__receiveRDS>:
     f78:	3f b7       	in	r19, 0x3f	; 63
     f7a:	f8 94       	cli
     f7c:	90 91 df 12 	lds	r25, 0x12DF
     f80:	20 91 d7 12 	lds	r18, 0x12D7
     f84:	80 93 df 12 	sts	0x12DF, r24
     f88:	3f bf       	out	0x3f, r19	; 63
     f8a:	21 11       	cpse	r18, r1
     f8c:	0a c0       	rjmp	.+20     	; 0xfa2 <RadioScannerP__Radio__receiveRDS+0x2a>
     f8e:	89 17       	cp	r24, r25
     f90:	41 f0       	breq	.+16     	; 0xfa2 <RadioScannerP__Radio__receiveRDS+0x2a>
     f92:	9f b7       	in	r25, 0x3f	; 63
     f94:	f8 94       	cli
     f96:	24 e0       	ldi	r18, 0x04	; 4
     f98:	20 93 d7 12 	sts	0x12D7, r18
     f9c:	9f bf       	out	0x3f, r25	; 63
     f9e:	0e 94 76 07 	call	0xeec	; 0xeec <FMClickP__enableRDS>
     fa2:	80 e0       	ldi	r24, 0x00	; 0
     fa4:	08 95       	ret

00000fa6 <FMClickP__writeRegisters__runTask>:
     fa6:	9f b7       	in	r25, 0x3f	; 63
     fa8:	f8 94       	cli
     faa:	80 91 da 12 	lds	r24, 0x12DA
     fae:	9f bf       	out	0x3f, r25	; 63
     fb0:	81 11       	cpse	r24, r1
     fb2:	0c 94 3a 03 	jmp	0x674	; 0x674 <FMClickP__writeRegisters__postTask>
     fb6:	9f b7       	in	r25, 0x3f	; 63
     fb8:	f8 94       	cli
     fba:	82 e0       	ldi	r24, 0x02	; 2
     fbc:	80 93 da 12 	sts	0x12DA, r24
     fc0:	80 91 cf 12 	lds	r24, 0x12CF
     fc4:	88 0f       	add	r24, r24
     fc6:	82 50       	subi	r24, 0x02	; 2
     fc8:	9f bf       	out	0x3f, r25	; 63
     fca:	20 e0       	ldi	r18, 0x00	; 0
     fcc:	92 e0       	ldi	r25, 0x02	; 2
     fce:	28 17       	cp	r18, r24
     fd0:	b0 f4       	brcc	.+44     	; 0xffe <FMClickP__writeRegisters__runTask+0x58>
     fd2:	3f b7       	in	r19, 0x3f	; 63
     fd4:	f8 94       	cli
     fd6:	42 2f       	mov	r20, r18
     fd8:	50 e0       	ldi	r21, 0x00	; 0
     fda:	e9 2f       	mov	r30, r25
     fdc:	f0 e0       	ldi	r31, 0x00	; 0
     fde:	ee 0f       	add	r30, r30
     fe0:	ff 1f       	adc	r31, r31
     fe2:	e7 58       	subi	r30, 0x87	; 135
     fe4:	f5 4f       	sbci	r31, 0xF5	; 245
     fe6:	60 81       	ld	r22, Z
     fe8:	71 81       	ldd	r23, Z+1	; 0x01
     fea:	fa 01       	movw	r30, r20
     fec:	ec 58       	subi	r30, 0x8C	; 140
     fee:	fd 4e       	sbci	r31, 0xED	; 237
     ff0:	70 83       	st	Z, r23
     ff2:	61 83       	std	Z+1, r22	; 0x01
     ff4:	3f bf       	out	0x3f, r19	; 63
     ff6:	9f 5f       	subi	r25, 0xFF	; 255
     ff8:	9f 70       	andi	r25, 0x0F	; 15
     ffa:	2e 5f       	subi	r18, 0xFE	; 254
     ffc:	e8 cf       	rjmp	.-48     	; 0xfce <FMClickP__writeRegisters__runTask+0x28>
     ffe:	0c 94 b0 06 	jmp	0xd60	; 0xd60 <ArbiterP__0__Resource__request.constprop.147>

00001002 <Enc28j60P__writeReg16>:
    1002:	1f 93       	push	r17
    1004:	cf 93       	push	r28
    1006:	df 93       	push	r29
    1008:	1f 92       	push	r1
    100a:	cd b7       	in	r28, 0x3d	; 61
    100c:	de b7       	in	r29, 0x3e	; 62
    100e:	18 2f       	mov	r17, r24
    1010:	80 64       	ori	r24, 0x40	; 64
    1012:	79 83       	std	Y+1, r23	; 0x01
    1014:	0e 94 ae 03 	call	0x75c	; 0x75c <Enc28j60P__writeSPI>
    1018:	81 e0       	ldi	r24, 0x01	; 1
    101a:	81 0f       	add	r24, r17
    101c:	79 81       	ldd	r23, Y+1	; 0x01
    101e:	67 2f       	mov	r22, r23
    1020:	80 64       	ori	r24, 0x40	; 64
    1022:	0f 90       	pop	r0
    1024:	df 91       	pop	r29
    1026:	cf 91       	pop	r28
    1028:	1f 91       	pop	r17
    102a:	0c 94 ae 03 	jmp	0x75c	; 0x75c <Enc28j60P__writeSPI>

0000102e <HplLcdP__writeNibble>:
    102e:	66 0f       	add	r22, r22
    1030:	66 0f       	add	r22, r22
    1032:	68 b9       	out	0x08, r22	; 8
    1034:	43 9a       	sbi	0x08, 3	; 8
    1036:	98 b1       	in	r25, 0x08	; 8
    1038:	82 95       	swap	r24
    103a:	80 7f       	andi	r24, 0xF0	; 240
    103c:	98 2b       	or	r25, r24
    103e:	98 b9       	out	0x08, r25	; 8
    1040:	43 98       	cbi	0x08, 3	; 8
    1042:	08 95       	ret

00001044 <HplLcdP__write>:
    1044:	cf 93       	push	r28
    1046:	df 93       	push	r29
    1048:	c8 2f       	mov	r28, r24
    104a:	d6 2f       	mov	r29, r22
    104c:	82 95       	swap	r24
    104e:	8f 70       	andi	r24, 0x0F	; 15
    1050:	0e 94 17 08 	call	0x102e	; 0x102e <HplLcdP__writeNibble>
    1054:	6d 2f       	mov	r22, r29
    1056:	8c 2f       	mov	r24, r28
    1058:	df 91       	pop	r29
    105a:	cf 91       	pop	r28
    105c:	0c 94 17 08 	jmp	0x102e	; 0x102e <HplLcdP__writeNibble>

00001060 <Atm1280SpiP__Resource__request.constprop.124>:
    1060:	cf 93       	push	r28
    1062:	df 93       	push	r29
    1064:	9f b7       	in	r25, 0x3f	; 63
    1066:	f8 94       	cli
    1068:	80 91 0d 03 	lds	r24, 0x030D
    106c:	88 23       	and	r24, r24
    106e:	69 f1       	breq	.+90     	; 0x10ca <Atm1280SpiP__Resource__request.constprop.124+0x6a>
    1070:	9f bf       	out	0x3f, r25	; 63
    1072:	df b7       	in	r29, 0x3f	; 63
    1074:	f8 94       	cli
    1076:	c0 91 0d 03 	lds	r28, 0x030D
    107a:	c1 11       	cpse	r28, r1
    107c:	09 c0       	rjmp	.+18     	; 0x1090 <Atm1280SpiP__Resource__request.constprop.124+0x30>
    107e:	81 e0       	ldi	r24, 0x01	; 1
    1080:	80 93 0d 03 	sts	0x030D, r24
    1084:	10 92 11 02 	sts	0x0211, r1
    1088:	89 e1       	ldi	r24, 0x19	; 25
    108a:	0e 94 12 03 	call	0x624	; 0x624 <SchedulerBasicP__TaskBasic__postTask>
    108e:	18 c0       	rjmp	.+48     	; 0x10c0 <Atm1280SpiP__Resource__request.constprop.124+0x60>
    1090:	80 91 12 0d 	lds	r24, 0x0D12
    1094:	8f 3f       	cpi	r24, 0xFF	; 255
    1096:	99 f4       	brne	.+38     	; 0x10be <Atm1280SpiP__Resource__request.constprop.124+0x5e>
    1098:	e0 91 12 02 	lds	r30, 0x0212
    109c:	ee 23       	and	r30, r30
    109e:	79 f0       	breq	.+30     	; 0x10be <Atm1280SpiP__Resource__request.constprop.124+0x5e>
    10a0:	80 91 13 02 	lds	r24, 0x0213
    10a4:	8f 3f       	cpi	r24, 0xFF	; 255
    10a6:	19 f4       	brne	.+6      	; 0x10ae <Atm1280SpiP__Resource__request.constprop.124+0x4e>
    10a8:	10 92 13 02 	sts	0x0213, r1
    10ac:	04 c0       	rjmp	.+8      	; 0x10b6 <Atm1280SpiP__Resource__request.constprop.124+0x56>
    10ae:	f0 e0       	ldi	r31, 0x00	; 0
    10b0:	ee 5e       	subi	r30, 0xEE	; 238
    10b2:	f2 4f       	sbci	r31, 0xF2	; 242
    10b4:	10 82       	st	Z, r1
    10b6:	10 92 12 02 	sts	0x0212, r1
    10ba:	c0 e0       	ldi	r28, 0x00	; 0
    10bc:	01 c0       	rjmp	.+2      	; 0x10c0 <Atm1280SpiP__Resource__request.constprop.124+0x60>
    10be:	c5 e0       	ldi	r28, 0x05	; 5
    10c0:	df bf       	out	0x3f, r29	; 63
    10c2:	8c 2f       	mov	r24, r28
    10c4:	df 91       	pop	r29
    10c6:	cf 91       	pop	r28
    10c8:	08 95       	ret
    10ca:	8c b5       	in	r24, 0x2c	; 44
    10cc:	8f 7b       	andi	r24, 0xBF	; 191
    10ce:	8c bd       	out	0x2c, r24	; 44
    10d0:	22 9a       	sbi	0x04, 2	; 4
    10d2:	23 98       	cbi	0x04, 3	; 4
    10d4:	21 9a       	sbi	0x04, 1	; 4
    10d6:	20 9a       	sbi	0x04, 0	; 4
    10d8:	8c b5       	in	r24, 0x2c	; 44
    10da:	80 61       	ori	r24, 0x10	; 16
    10dc:	8c bd       	out	0x2c, r24	; 44
    10de:	8c b5       	in	r24, 0x2c	; 44
    10e0:	8f 77       	andi	r24, 0x7F	; 127
    10e2:	8c bd       	out	0x2c, r24	; 44
    10e4:	8d b5       	in	r24, 0x2d	; 45
    10e6:	8e 7f       	andi	r24, 0xFE	; 254
    10e8:	8d bd       	out	0x2d, r24	; 45
    10ea:	8c b5       	in	r24, 0x2c	; 44
    10ec:	87 7f       	andi	r24, 0xF7	; 247
    10ee:	8c bd       	out	0x2c, r24	; 44
    10f0:	8c b5       	in	r24, 0x2c	; 44
    10f2:	8b 7f       	andi	r24, 0xFB	; 251
    10f4:	8c bd       	out	0x2c, r24	; 44
    10f6:	8c b5       	in	r24, 0x2c	; 44
    10f8:	8c 7f       	andi	r24, 0xFC	; 252
    10fa:	8c bd       	out	0x2c, r24	; 44
    10fc:	8c b5       	in	r24, 0x2c	; 44
    10fe:	80 64       	ori	r24, 0x40	; 64
    1100:	8c bd       	out	0x2c, r24	; 44
    1102:	b6 cf       	rjmp	.-148    	; 0x1070 <Atm1280SpiP__Resource__request.constprop.124+0x10>

00001104 <AdcP__sample>:
    1104:	0f 93       	push	r16
    1106:	1f 93       	push	r17
    1108:	cf 93       	push	r28
    110a:	df 93       	push	r29
    110c:	80 91 39 13 	lds	r24, 0x1339
    1110:	88 23       	and	r24, r24
    1112:	09 f4       	brne	.+2      	; 0x1116 <AdcP__sample+0x12>
    1114:	3f c0       	rjmp	.+126    	; 0x1194 <AdcP__sample+0x90>
    1116:	10 e0       	ldi	r17, 0x00	; 0
    1118:	c0 e0       	ldi	r28, 0x00	; 0
    111a:	df e1       	ldi	r29, 0x1F	; 31
    111c:	0f b7       	in	r16, 0x3f	; 63
    111e:	f8 94       	cli
    1120:	80 91 3c 13 	lds	r24, 0x133C
    1124:	8e 7f       	andi	r24, 0xFE	; 254
    1126:	80 93 3c 13 	sts	0x133C, r24
    112a:	0e 94 4c 03 	call	0x698	; 0x698 <HplAtm1280AdcP__HplAtm1280Adc__getAdmux>
    112e:	28 2f       	mov	r18, r24
    1130:	2f 73       	andi	r18, 0x3F	; 63
    1132:	88 1f       	adc	r24, r24
    1134:	88 27       	eor	r24, r24
    1136:	88 1f       	adc	r24, r24
    1138:	91 70       	andi	r25, 0x01	; 1
    113a:	99 0f       	add	r25, r25
    113c:	89 2b       	or	r24, r25
    113e:	18 13       	cpse	r17, r24
    1140:	02 c0       	rjmp	.+4      	; 0x1146 <AdcP__sample+0x42>
    1142:	91 e0       	ldi	r25, 0x01	; 1
    1144:	d2 13       	cpse	r29, r18
    1146:	90 e0       	ldi	r25, 0x00	; 0
    1148:	80 91 3c 13 	lds	r24, 0x133C
    114c:	90 fb       	bst	r25, 0
    114e:	81 f9       	bld	r24, 1
    1150:	9d 2f       	mov	r25, r29
    1152:	9f 73       	andi	r25, 0x3F	; 63
    1154:	99 0f       	add	r25, r25
    1156:	99 0f       	add	r25, r25
    1158:	83 70       	andi	r24, 0x03	; 3
    115a:	89 2b       	or	r24, r25
    115c:	80 93 3c 13 	sts	0x133C, r24
    1160:	11 11       	cpse	r17, r1
    1162:	d0 64       	ori	r29, 0x40	; 64
    1164:	d0 93 7c 00 	sts	0x007C, r29
    1168:	80 91 7b 00 	lds	r24, 0x007B
    116c:	87 7f       	andi	r24, 0xF7	; 247
    116e:	80 93 7b 00 	sts	0x007B, r24
    1172:	90 91 3c 13 	lds	r25, 0x133C
    1176:	8c 2f       	mov	r24, r28
    1178:	88 60       	ori	r24, 0x08	; 8
    117a:	80 61       	ori	r24, 0x10	; 16
    117c:	90 fb       	bst	r25, 0
    117e:	85 f9       	bld	r24, 5
    1180:	80 64       	ori	r24, 0x40	; 64
    1182:	80 68       	ori	r24, 0x80	; 128
    1184:	80 93 7a 00 	sts	0x007A, r24
    1188:	0f bf       	out	0x3f, r16	; 63
    118a:	df 91       	pop	r29
    118c:	cf 91       	pop	r28
    118e:	1f 91       	pop	r17
    1190:	0f 91       	pop	r16
    1192:	08 95       	ret
    1194:	c7 e0       	ldi	r28, 0x07	; 7
    1196:	11 e0       	ldi	r17, 0x01	; 1
    1198:	d0 e0       	ldi	r29, 0x00	; 0
    119a:	c0 cf       	rjmp	.-128    	; 0x111c <AdcP__sample+0x18>

0000119c <ArbiterP__1__grantedTask__runTask>:
    119c:	8f b7       	in	r24, 0x3f	; 63
    119e:	f8 94       	cli
    11a0:	90 91 44 0f 	lds	r25, 0x0F44
    11a4:	90 93 0c 02 	sts	0x020C, r25
    11a8:	93 e0       	ldi	r25, 0x03	; 3
    11aa:	90 93 06 03 	sts	0x0306, r25
    11ae:	8f bf       	out	0x3f, r24	; 63
    11b0:	80 91 0c 02 	lds	r24, 0x020C
    11b4:	81 11       	cpse	r24, r1
    11b6:	01 c0       	rjmp	.+2      	; 0x11ba <ArbiterP__1__grantedTask__runTask+0x1e>
    11b8:	80 98       	cbi	0x10, 0	; 16
    11ba:	80 91 0c 02 	lds	r24, 0x020C
    11be:	81 11       	cpse	r24, r1
    11c0:	07 c0       	rjmp	.+14     	; 0x11d0 <ArbiterP__1__grantedTask__runTask+0x34>
    11c2:	81 e0       	ldi	r24, 0x01	; 1
    11c4:	80 93 e7 0f 	sts	0x0FE7, r24
    11c8:	10 92 39 13 	sts	0x1339, r1
    11cc:	0c 94 82 08 	jmp	0x1104	; 0x1104 <AdcP__sample>
    11d0:	08 95       	ret

000011d2 <FMClickP__I2CResource__release>:
    11d2:	cf 93       	push	r28
    11d4:	df 93       	push	r29
    11d6:	cf b7       	in	r28, 0x3f	; 63
    11d8:	f8 94       	cli
    11da:	0e 94 68 03 	call	0x6d0	; 0x6d0 <HplAtm128I2CBusP__I2C__readCurrent>
    11de:	80 91 54 12 	lds	r24, 0x1254
    11e2:	8e 7f       	andi	r24, 0xFE	; 254
    11e4:	80 69       	ori	r24, 0x90	; 144
    11e6:	80 93 54 12 	sts	0x1254, r24
    11ea:	0e 94 f1 02 	call	0x5e2	; 0x5e2 <HplAtm128I2CBusP__I2C__sendCommand>
    11ee:	cf bf       	out	0x3f, r28	; 63
    11f0:	df b7       	in	r29, 0x3f	; 63
    11f2:	f8 94       	cli
    11f4:	80 91 0a 03 	lds	r24, 0x030A
    11f8:	83 30       	cpi	r24, 0x03	; 3
    11fa:	c1 f5       	brne	.+112    	; 0x126c <FMClickP__I2CResource__release+0x9a>
    11fc:	c0 91 0e 02 	lds	r28, 0x020E
    1200:	c1 11       	cpse	r28, r1
    1202:	34 c0       	rjmp	.+104    	; 0x126c <FMClickP__I2CResource__release+0x9a>
    1204:	80 91 10 02 	lds	r24, 0x0210
    1208:	8f 3f       	cpi	r24, 0xFF	; 255
    120a:	c1 f0       	breq	.+48     	; 0x123c <FMClickP__I2CResource__release+0x6a>
    120c:	e8 2f       	mov	r30, r24
    120e:	f0 e0       	ldi	r31, 0x00	; 0
    1210:	e4 5b       	subi	r30, 0xB4	; 180
    1212:	f0 4f       	sbci	r31, 0xF0	; 240
    1214:	90 81       	ld	r25, Z
    1216:	90 93 10 02 	sts	0x0210, r25
    121a:	9f 3f       	cpi	r25, 0xFF	; 255
    121c:	11 f4       	brne	.+4      	; 0x1222 <FMClickP__I2CResource__release+0x50>
    121e:	90 93 0f 02 	sts	0x020F, r25
    1222:	9f ef       	ldi	r25, 0xFF	; 255
    1224:	90 83       	st	Z, r25
    1226:	80 93 ce 12 	sts	0x12CE, r24
    122a:	90 93 0e 02 	sts	0x020E, r25
    122e:	81 e0       	ldi	r24, 0x01	; 1
    1230:	80 93 0a 03 	sts	0x030A, r24
    1234:	84 e2       	ldi	r24, 0x24	; 36
    1236:	0e 94 12 03 	call	0x624	; 0x624 <SchedulerBasicP__TaskBasic__postTask>
    123a:	16 c0       	rjmp	.+44     	; 0x1268 <FMClickP__I2CResource__release+0x96>
    123c:	81 e0       	ldi	r24, 0x01	; 1
    123e:	80 93 0e 02 	sts	0x020E, r24
    1242:	10 92 0a 03 	sts	0x030A, r1
    1246:	80 91 09 03 	lds	r24, 0x0309
    124a:	81 30       	cpi	r24, 0x01	; 1
    124c:	69 f4       	brne	.+26     	; 0x1268 <FMClickP__I2CResource__release+0x96>
    124e:	0e 94 68 03 	call	0x6d0	; 0x6d0 <HplAtm128I2CBusP__I2C__readCurrent>
    1252:	80 91 54 12 	lds	r24, 0x1254
    1256:	8a 76       	andi	r24, 0x6A	; 106
    1258:	80 93 54 12 	sts	0x1254, r24
    125c:	0e 94 f1 02 	call	0x5e2	; 0x5e2 <HplAtm128I2CBusP__I2C__sendCommand>
    1260:	58 98       	cbi	0x0b, 0	; 11
    1262:	59 98       	cbi	0x0b, 1	; 11
    1264:	10 92 09 03 	sts	0x0309, r1
    1268:	df bf       	out	0x3f, r29	; 63
    126a:	02 c0       	rjmp	.+4      	; 0x1270 <FMClickP__I2CResource__release+0x9e>
    126c:	df bf       	out	0x3f, r29	; 63
    126e:	c1 e0       	ldi	r28, 0x01	; 1
    1270:	8c 2f       	mov	r24, r28
    1272:	df 91       	pop	r29
    1274:	cf 91       	pop	r28
    1276:	08 95       	ret

00001278 <PacketQueueP__4__PacketSender__sendDone>:
    1278:	10 92 0b 03 	sts	0x030B, r1
    127c:	90 91 0c 03 	lds	r25, 0x030C
    1280:	2d e0       	ldi	r18, 0x0D	; 13
    1282:	92 9f       	mul	r25, r18
    1284:	f0 01       	movw	r30, r0
    1286:	11 24       	eor	r1, r1
    1288:	e8 5f       	subi	r30, 0xF8	; 248
    128a:	ff 4e       	sbci	r31, 0xEF	; 239
    128c:	10 82       	st	Z, r1
    128e:	91 11       	cpse	r25, r1
    1290:	03 c0       	rjmp	.+6      	; 0x1298 <PacketQueueP__4__PacketSender__sendDone+0x20>
    1292:	81 11       	cpse	r24, r1
    1294:	0e 94 37 03 	call	0x66e	; 0x66e <DatabaseP__sendTask__postTask>
    1298:	8a e1       	ldi	r24, 0x1A	; 26
    129a:	0c 94 12 03 	jmp	0x624	; 0x624 <SchedulerBasicP__TaskBasic__postTask>

0000129e <PacketQueueP__2__PacketSender__sendDone>:
    129e:	10 92 14 03 	sts	0x0314, r1
    12a2:	90 91 15 03 	lds	r25, 0x0315
    12a6:	28 e0       	ldi	r18, 0x08	; 8
    12a8:	92 9f       	mul	r25, r18
    12aa:	f0 01       	movw	r30, r0
    12ac:	11 24       	eor	r1, r1
    12ae:	e0 5d       	subi	r30, 0xD0	; 208
    12b0:	f0 4f       	sbci	r31, 0xF0	; 240
    12b2:	10 82       	st	Z, r1
    12b4:	99 23       	and	r25, r25
    12b6:	29 f0       	breq	.+10     	; 0x12c2 <PacketQueueP__2__PacketSender__sendDone+0x24>
    12b8:	91 30       	cpi	r25, 0x01	; 1
    12ba:	29 f4       	brne	.+10     	; 0x12c6 <PacketQueueP__2__PacketSender__sendDone+0x28>
    12bc:	0e 94 3c 09 	call	0x1278	; 0x1278 <PacketQueueP__4__PacketSender__sendDone>
    12c0:	02 c0       	rjmp	.+4      	; 0x12c6 <PacketQueueP__2__PacketSender__sendDone+0x28>
    12c2:	0e 94 64 06 	call	0xcc8	; 0xcc8 <PacketQueueP__3__PacketSender__sendDone.isra.63>
    12c6:	85 e1       	ldi	r24, 0x15	; 21
    12c8:	0c 94 12 03 	jmp	0x624	; 0x624 <SchedulerBasicP__TaskBasic__postTask>

000012cc <ArpP__PacketQueue__sendDone>:
    12cc:	81 11       	cpse	r24, r1
    12ce:	10 c0       	rjmp	.+32     	; 0x12f0 <ArpP__PacketQueue__sendDone+0x24>
    12d0:	66 23       	and	r22, r22
    12d2:	71 f0       	breq	.+28     	; 0x12f0 <ArpP__PacketQueue__sendDone+0x24>
    12d4:	80 91 18 03 	lds	r24, 0x0318
    12d8:	81 30       	cpi	r24, 0x01	; 1
    12da:	51 f4       	brne	.+20     	; 0x12f0 <ArpP__PacketQueue__sendDone+0x24>
    12dc:	10 92 18 03 	sts	0x0318, r1
    12e0:	80 91 26 12 	lds	r24, 0x1226
    12e4:	8d 7f       	andi	r24, 0xFD	; 253
    12e6:	80 93 26 12 	sts	0x1226, r24
    12ea:	81 e0       	ldi	r24, 0x01	; 1
    12ec:	0c 94 4f 09 	jmp	0x129e	; 0x129e <PacketQueueP__2__PacketSender__sendDone>
    12f0:	08 95       	ret

000012f2 <LlcQueueP__LlcQueue__sendDone>:
    12f2:	88 23       	and	r24, r24
    12f4:	19 f0       	breq	.+6      	; 0x12fc <LlcQueueP__LlcQueue__sendDone+0xa>
    12f6:	81 30       	cpi	r24, 0x01	; 1
    12f8:	21 f0       	breq	.+8      	; 0x1302 <LlcQueueP__LlcQueue__sendDone+0x10>
    12fa:	08 95       	ret
    12fc:	86 2f       	mov	r24, r22
    12fe:	0c 94 4f 09 	jmp	0x129e	; 0x129e <PacketQueueP__2__PacketSender__sendDone>
    1302:	10 92 16 03 	sts	0x0316, r1
    1306:	80 91 17 03 	lds	r24, 0x0317
    130a:	9d e1       	ldi	r25, 0x1D	; 29
    130c:	89 9f       	mul	r24, r25
    130e:	f0 01       	movw	r30, r0
    1310:	11 24       	eor	r1, r1
    1312:	ec 56       	subi	r30, 0x6C	; 108
    1314:	fd 4e       	sbci	r31, 0xED	; 237
    1316:	10 82       	st	Z, r1
    1318:	0e 94 66 09 	call	0x12cc	; 0x12cc <ArpP__PacketQueue__sendDone>
    131c:	84 e1       	ldi	r24, 0x14	; 20
    131e:	0c 94 12 03 	jmp	0x624	; 0x624 <SchedulerBasicP__TaskBasic__postTask>

00001322 <VirtualizeTimerC__0__fireTimers>:
    1322:	4f 92       	push	r4
    1324:	5f 92       	push	r5
    1326:	6f 92       	push	r6
    1328:	7f 92       	push	r7
    132a:	8f 92       	push	r8
    132c:	9f 92       	push	r9
    132e:	af 92       	push	r10
    1330:	bf 92       	push	r11
    1332:	cf 92       	push	r12
    1334:	df 92       	push	r13
    1336:	ff 92       	push	r15
    1338:	0f 93       	push	r16
    133a:	1f 93       	push	r17
    133c:	cf 93       	push	r28
    133e:	df 93       	push	r29
    1340:	ae e1       	ldi	r26, 0x1E	; 30
    1342:	b2 e1       	ldi	r27, 0x12	; 18
    1344:	c1 2c       	mov	r12, r1
    1346:	d1 2c       	mov	r13, r1
    1348:	49 e0       	ldi	r20, 0x09	; 9
    134a:	4c 9d       	mul	r20, r12
    134c:	f0 01       	movw	r30, r0
    134e:	4d 9d       	mul	r20, r13
    1350:	f0 0d       	add	r31, r0
    1352:	11 24       	eor	r1, r1
    1354:	ef 01       	movw	r28, r30
    1356:	c2 5e       	subi	r28, 0xE2	; 226
    1358:	dd 4e       	sbci	r29, 0xED	; 237
    135a:	f8 84       	ldd	r15, Y+8	; 0x08
    135c:	f1 fe       	sbrs	r15, 1
    135e:	c1 c0       	rjmp	.+386    	; 0x14e2 <VirtualizeTimerC__0__fireTimers+0x1c0>
    1360:	0d 91       	ld	r16, X+
    1362:	1d 91       	ld	r17, X+
    1364:	2d 91       	ld	r18, X+
    1366:	3c 91       	ld	r19, X
    1368:	13 97       	sbiw	r26, 0x03	; 3
    136a:	14 96       	adiw	r26, 0x04	; 4
    136c:	8d 90       	ld	r8, X+
    136e:	9d 90       	ld	r9, X+
    1370:	ad 90       	ld	r10, X+
    1372:	bc 90       	ld	r11, X
    1374:	17 97       	sbiw	r26, 0x07	; 7
    1376:	2b 01       	movw	r4, r22
    1378:	3c 01       	movw	r6, r24
    137a:	40 1a       	sub	r4, r16
    137c:	51 0a       	sbc	r5, r17
    137e:	62 0a       	sbc	r6, r18
    1380:	73 0a       	sbc	r7, r19
    1382:	48 14       	cp	r4, r8
    1384:	59 04       	cpc	r5, r9
    1386:	6a 04       	cpc	r6, r10
    1388:	7b 04       	cpc	r7, r11
    138a:	08 f4       	brcc	.+2      	; 0x138e <VirtualizeTimerC__0__fireTimers+0x6c>
    138c:	aa c0       	rjmp	.+340    	; 0x14e2 <VirtualizeTimerC__0__fireTimers+0x1c0>
    138e:	f0 fe       	sbrs	r15, 0
    1390:	06 c0       	rjmp	.+12     	; 0x139e <VirtualizeTimerC__0__fireTimers+0x7c>
    1392:	ea 5d       	subi	r30, 0xDA	; 218
    1394:	fd 4e       	sbci	r31, 0xED	; 237
    1396:	20 81       	ld	r18, Z
    1398:	2d 7f       	andi	r18, 0xFD	; 253
    139a:	20 83       	st	Z, r18
    139c:	0a c0       	rjmp	.+20     	; 0x13b2 <VirtualizeTimerC__0__fireTimers+0x90>
    139e:	b9 01       	movw	r22, r18
    13a0:	a8 01       	movw	r20, r16
    13a2:	48 0d       	add	r20, r8
    13a4:	59 1d       	adc	r21, r9
    13a6:	6a 1d       	adc	r22, r10
    13a8:	7b 1d       	adc	r23, r11
    13aa:	48 83       	st	Y, r20
    13ac:	59 83       	std	Y+1, r21	; 0x01
    13ae:	6a 83       	std	Y+2, r22	; 0x02
    13b0:	7b 83       	std	Y+3, r23	; 0x03
    13b2:	23 e0       	ldi	r18, 0x03	; 3
    13b4:	c2 16       	cp	r12, r18
    13b6:	09 f4       	brne	.+2      	; 0x13ba <VirtualizeTimerC__0__fireTimers+0x98>
    13b8:	4d c0       	rjmp	.+154    	; 0x1454 <VirtualizeTimerC__0__fireTimers+0x132>
    13ba:	2c 15       	cp	r18, r12
    13bc:	38 f0       	brcs	.+14     	; 0x13cc <VirtualizeTimerC__0__fireTimers+0xaa>
    13be:	81 e0       	ldi	r24, 0x01	; 1
    13c0:	c8 16       	cp	r12, r24
    13c2:	69 f0       	breq	.+26     	; 0x13de <VirtualizeTimerC__0__fireTimers+0xbc>
    13c4:	22 e0       	ldi	r18, 0x02	; 2
    13c6:	c2 16       	cp	r12, r18
    13c8:	d9 f1       	breq	.+118    	; 0x1440 <VirtualizeTimerC__0__fireTimers+0x11e>
    13ca:	2a c0       	rjmp	.+84     	; 0x1420 <VirtualizeTimerC__0__fireTimers+0xfe>
    13cc:	84 e0       	ldi	r24, 0x04	; 4
    13ce:	c8 16       	cp	r12, r24
    13d0:	09 f4       	brne	.+2      	; 0x13d4 <VirtualizeTimerC__0__fireTimers+0xb2>
    13d2:	44 c0       	rjmp	.+136    	; 0x145c <VirtualizeTimerC__0__fireTimers+0x13a>
    13d4:	25 e0       	ldi	r18, 0x05	; 5
    13d6:	c2 16       	cp	r12, r18
    13d8:	09 f4       	brne	.+2      	; 0x13dc <VirtualizeTimerC__0__fireTimers+0xba>
    13da:	7a c0       	rjmp	.+244    	; 0x14d0 <VirtualizeTimerC__0__fireTimers+0x1ae>
    13dc:	21 c0       	rjmp	.+66     	; 0x1420 <VirtualizeTimerC__0__fireTimers+0xfe>
    13de:	10 92 46 13 	sts	0x1346, r1
    13e2:	10 92 47 13 	sts	0x1347, r1
    13e6:	10 92 48 13 	sts	0x1348, r1
    13ea:	10 92 49 13 	sts	0x1349, r1
    13ee:	10 92 50 13 	sts	0x1350, r1
    13f2:	10 92 51 13 	sts	0x1351, r1
    13f6:	10 92 52 13 	sts	0x1352, r1
    13fa:	10 92 53 13 	sts	0x1353, r1
    13fe:	10 92 5a 13 	sts	0x135A, r1
    1402:	10 92 5b 13 	sts	0x135B, r1
    1406:	10 92 5c 13 	sts	0x135C, r1
    140a:	10 92 5d 13 	sts	0x135D, r1
    140e:	10 92 64 13 	sts	0x1364, r1
    1412:	10 92 65 13 	sts	0x1365, r1
    1416:	10 92 66 13 	sts	0x1366, r1
    141a:	10 92 67 13 	sts	0x1367, r1
    141e:	6a c0       	rjmp	.+212    	; 0x14f4 <VirtualizeTimerC__0__fireTimers+0x1d2>
    1420:	10 92 18 03 	sts	0x0318, r1
    1424:	80 91 19 03 	lds	r24, 0x0319
    1428:	8f 5f       	subi	r24, 0xFF	; 255
    142a:	80 93 19 03 	sts	0x0319, r24
    142e:	83 30       	cpi	r24, 0x03	; 3
    1430:	18 f4       	brcc	.+6      	; 0x1438 <VirtualizeTimerC__0__fireTimers+0x116>
    1432:	0e 94 a0 06 	call	0xd40	; 0xd40 <ArpP__sendRequest>
    1436:	5e c0       	rjmp	.+188    	; 0x14f4 <VirtualizeTimerC__0__fireTimers+0x1d2>
    1438:	81 e0       	ldi	r24, 0x01	; 1
    143a:	0e 94 4f 09 	call	0x129e	; 0x129e <PacketQueueP__2__PacketSender__sendDone>
    143e:	5a c0       	rjmp	.+180    	; 0x14f4 <VirtualizeTimerC__0__fireTimers+0x1d2>
    1440:	9f b7       	in	r25, 0x3f	; 63
    1442:	f8 94       	cli
    1444:	80 91 d7 12 	lds	r24, 0x12D7
    1448:	9f bf       	out	0x3f, r25	; 63
    144a:	81 30       	cpi	r24, 0x01	; 1
    144c:	09 f0       	breq	.+2      	; 0x1450 <VirtualizeTimerC__0__fireTimers+0x12e>
    144e:	52 c0       	rjmp	.+164    	; 0x14f4 <VirtualizeTimerC__0__fireTimers+0x1d2>
    1450:	8b e1       	ldi	r24, 0x1B	; 27
    1452:	01 c0       	rjmp	.+2      	; 0x1456 <VirtualizeTimerC__0__fireTimers+0x134>
    1454:	88 e2       	ldi	r24, 0x28	; 40
    1456:	0e 94 12 03 	call	0x624	; 0x624 <SchedulerBasicP__TaskBasic__postTask>
    145a:	4c c0       	rjmp	.+152    	; 0x14f4 <VirtualizeTimerC__0__fireTimers+0x1d2>
    145c:	9f b7       	in	r25, 0x3f	; 63
    145e:	f8 94       	cli
    1460:	80 91 06 03 	lds	r24, 0x0306
    1464:	81 11       	cpse	r24, r1
    1466:	27 c0       	rjmp	.+78     	; 0x14b6 <VirtualizeTimerC__0__fireTimers+0x194>
    1468:	81 e0       	ldi	r24, 0x01	; 1
    146a:	80 93 06 03 	sts	0x0306, r24
    146e:	10 92 44 0f 	sts	0x0F44, r1
    1472:	9f bf       	out	0x3f, r25	; 63
    1474:	9f b7       	in	r25, 0x3f	; 63
    1476:	f8 94       	cli
    1478:	80 91 7a 00 	lds	r24, 0x007A
    147c:	80 68       	ori	r24, 0x80	; 128
    147e:	80 93 7a 00 	sts	0x007A, r24
    1482:	9f bf       	out	0x3f, r25	; 63
    1484:	cf b7       	in	r28, 0x3f	; 63
    1486:	f8 94       	cli
    1488:	80 91 0c 02 	lds	r24, 0x020C
    148c:	81 30       	cpi	r24, 0x01	; 1
    148e:	89 f4       	brne	.+34     	; 0x14b2 <VirtualizeTimerC__0__fireTimers+0x190>
    1490:	80 91 06 03 	lds	r24, 0x0306
    1494:	81 30       	cpi	r24, 0x01	; 1
    1496:	21 f4       	brne	.+8      	; 0x14a0 <VirtualizeTimerC__0__fireTimers+0x17e>
    1498:	86 e2       	ldi	r24, 0x26	; 38
    149a:	0e 94 12 03 	call	0x624	; 0x624 <SchedulerBasicP__TaskBasic__postTask>
    149e:	09 c0       	rjmp	.+18     	; 0x14b2 <VirtualizeTimerC__0__fireTimers+0x190>
    14a0:	82 30       	cpi	r24, 0x02	; 2
    14a2:	39 f4       	brne	.+14     	; 0x14b2 <VirtualizeTimerC__0__fireTimers+0x190>
    14a4:	80 91 44 0f 	lds	r24, 0x0F44
    14a8:	80 93 0c 02 	sts	0x020C, r24
    14ac:	83 e0       	ldi	r24, 0x03	; 3
    14ae:	80 93 06 03 	sts	0x0306, r24
    14b2:	cf bf       	out	0x3f, r28	; 63
    14b4:	1f c0       	rjmp	.+62     	; 0x14f4 <VirtualizeTimerC__0__fireTimers+0x1d2>
    14b6:	80 91 44 0f 	lds	r24, 0x0F44
    14ba:	88 23       	and	r24, r24
    14bc:	39 f0       	breq	.+14     	; 0x14cc <VirtualizeTimerC__0__fireTimers+0x1aa>
    14be:	80 91 1d 12 	lds	r24, 0x121D
    14c2:	80 fd       	sbrc	r24, 0
    14c4:	03 c0       	rjmp	.+6      	; 0x14cc <VirtualizeTimerC__0__fireTimers+0x1aa>
    14c6:	81 60       	ori	r24, 0x01	; 1
    14c8:	80 93 1d 12 	sts	0x121D, r24
    14cc:	9f bf       	out	0x3f, r25	; 63
    14ce:	12 c0       	rjmp	.+36     	; 0x14f4 <VirtualizeTimerC__0__fireTimers+0x1d2>
    14d0:	8f b7       	in	r24, 0x3f	; 63
    14d2:	f8 94       	cli
    14d4:	91 e0       	ldi	r25, 0x01	; 1
    14d6:	90 93 49 08 	sts	0x0849, r25
    14da:	8f bf       	out	0x3f, r24	; 63
    14dc:	0e 94 46 03 	call	0x68c	; 0x68c <RadioScannerP__displayChannelInfo__postTask>
    14e0:	09 c0       	rjmp	.+18     	; 0x14f4 <VirtualizeTimerC__0__fireTimers+0x1d2>
    14e2:	2f ef       	ldi	r18, 0xFF	; 255
    14e4:	c2 1a       	sub	r12, r18
    14e6:	d2 0a       	sbc	r13, r18
    14e8:	19 96       	adiw	r26, 0x09	; 9
    14ea:	26 e0       	ldi	r18, 0x06	; 6
    14ec:	c2 16       	cp	r12, r18
    14ee:	d1 04       	cpc	r13, r1
    14f0:	09 f0       	breq	.+2      	; 0x14f4 <VirtualizeTimerC__0__fireTimers+0x1d2>
    14f2:	2b cf       	rjmp	.-426    	; 0x134a <VirtualizeTimerC__0__fireTimers+0x28>
    14f4:	83 e1       	ldi	r24, 0x13	; 19
    14f6:	df 91       	pop	r29
    14f8:	cf 91       	pop	r28
    14fa:	1f 91       	pop	r17
    14fc:	0f 91       	pop	r16
    14fe:	ff 90       	pop	r15
    1500:	df 90       	pop	r13
    1502:	cf 90       	pop	r12
    1504:	bf 90       	pop	r11
    1506:	af 90       	pop	r10
    1508:	9f 90       	pop	r9
    150a:	8f 90       	pop	r8
    150c:	7f 90       	pop	r7
    150e:	6f 90       	pop	r6
    1510:	5f 90       	pop	r5
    1512:	4f 90       	pop	r4
    1514:	0c 94 12 03 	jmp	0x624	; 0x624 <SchedulerBasicP__TaskBasic__postTask>

00001518 <VirtualizeTimerC__0__updateFromTimer__runTask>:
    1518:	4f 92       	push	r4
    151a:	5f 92       	push	r5
    151c:	6f 92       	push	r6
    151e:	7f 92       	push	r7
    1520:	8f 92       	push	r8
    1522:	9f 92       	push	r9
    1524:	af 92       	push	r10
    1526:	bf 92       	push	r11
    1528:	cf 92       	push	r12
    152a:	df 92       	push	r13
    152c:	ef 92       	push	r14
    152e:	ff 92       	push	r15
    1530:	0f 93       	push	r16
    1532:	1f 93       	push	r17
    1534:	cf 93       	push	r28
    1536:	df 93       	push	r29
    1538:	0e 94 70 03 	call	0x6e0	; 0x6e0 <Atm1280AlarmSyncP__0__Counter__get>
    153c:	2f b7       	in	r18, 0x3f	; 63
    153e:	f8 94       	cli
    1540:	10 92 4b 08 	sts	0x084B, r1
    1544:	2f bf       	out	0x3f, r18	; 63
    1546:	ee e1       	ldi	r30, 0x1E	; 30
    1548:	f2 e1       	ldi	r31, 0x12	; 18
    154a:	20 e0       	ldi	r18, 0x00	; 0
    154c:	30 e0       	ldi	r19, 0x00	; 0
    154e:	10 e0       	ldi	r17, 0x00	; 0
    1550:	44 24       	eor	r4, r4
    1552:	4a 94       	dec	r4
    1554:	54 2c       	mov	r5, r4
    1556:	64 2c       	mov	r6, r4
    1558:	4f e7       	ldi	r20, 0x7F	; 127
    155a:	74 2e       	mov	r7, r20
    155c:	09 e0       	ldi	r16, 0x09	; 9
    155e:	02 9f       	mul	r16, r18
    1560:	e0 01       	movw	r28, r0
    1562:	03 9f       	mul	r16, r19
    1564:	d0 0d       	add	r29, r0
    1566:	11 24       	eor	r1, r1
    1568:	c2 5e       	subi	r28, 0xE2	; 226
    156a:	dd 4e       	sbci	r29, 0xED	; 237
    156c:	48 85       	ldd	r20, Y+8	; 0x08
    156e:	41 ff       	sbrs	r20, 1
    1570:	1a c0       	rjmp	.+52     	; 0x15a6 <VirtualizeTimerC__0__updateFromTimer__runTask+0x8e>
    1572:	c0 80       	ld	r12, Z
    1574:	d1 80       	ldd	r13, Z+1	; 0x01
    1576:	e2 80       	ldd	r14, Z+2	; 0x02
    1578:	f3 80       	ldd	r15, Z+3	; 0x03
    157a:	4b 01       	movw	r8, r22
    157c:	5c 01       	movw	r10, r24
    157e:	8c 18       	sub	r8, r12
    1580:	9d 08       	sbc	r9, r13
    1582:	ae 08       	sbc	r10, r14
    1584:	bf 08       	sbc	r11, r15
    1586:	c4 80       	ldd	r12, Z+4	; 0x04
    1588:	d5 80       	ldd	r13, Z+5	; 0x05
    158a:	e6 80       	ldd	r14, Z+6	; 0x06
    158c:	f7 80       	ldd	r15, Z+7	; 0x07
    158e:	c8 18       	sub	r12, r8
    1590:	d9 08       	sbc	r13, r9
    1592:	ea 08       	sbc	r14, r10
    1594:	fb 08       	sbc	r15, r11
    1596:	c4 14       	cp	r12, r4
    1598:	d5 04       	cpc	r13, r5
    159a:	e6 04       	cpc	r14, r6
    159c:	f7 04       	cpc	r15, r7
    159e:	1c f4       	brge	.+6      	; 0x15a6 <VirtualizeTimerC__0__updateFromTimer__runTask+0x8e>
    15a0:	26 01       	movw	r4, r12
    15a2:	37 01       	movw	r6, r14
    15a4:	11 e0       	ldi	r17, 0x01	; 1
    15a6:	2f 5f       	subi	r18, 0xFF	; 255
    15a8:	3f 4f       	sbci	r19, 0xFF	; 255
    15aa:	39 96       	adiw	r30, 0x09	; 9
    15ac:	26 30       	cpi	r18, 0x06	; 6
    15ae:	31 05       	cpc	r19, r1
    15b0:	b1 f6       	brne	.-84     	; 0x155e <VirtualizeTimerC__0__updateFromTimer__runTask+0x46>
    15b2:	11 23       	and	r17, r17
    15b4:	09 f4       	brne	.+2      	; 0x15b8 <VirtualizeTimerC__0__updateFromTimer__runTask+0xa0>
    15b6:	49 c0       	rjmp	.+146    	; 0x164a <VirtualizeTimerC__0__updateFromTimer__runTask+0x132>
    15b8:	14 14       	cp	r1, r4
    15ba:	15 04       	cpc	r1, r5
    15bc:	16 04       	cpc	r1, r6
    15be:	17 04       	cpc	r1, r7
    15c0:	94 f0       	brlt	.+36     	; 0x15e6 <VirtualizeTimerC__0__updateFromTimer__runTask+0xce>
    15c2:	df 91       	pop	r29
    15c4:	cf 91       	pop	r28
    15c6:	1f 91       	pop	r17
    15c8:	0f 91       	pop	r16
    15ca:	ff 90       	pop	r15
    15cc:	ef 90       	pop	r14
    15ce:	df 90       	pop	r13
    15d0:	cf 90       	pop	r12
    15d2:	bf 90       	pop	r11
    15d4:	af 90       	pop	r10
    15d6:	9f 90       	pop	r9
    15d8:	8f 90       	pop	r8
    15da:	7f 90       	pop	r7
    15dc:	6f 90       	pop	r6
    15de:	5f 90       	pop	r5
    15e0:	4f 90       	pop	r4
    15e2:	0c 94 91 09 	jmp	0x1322	; 0x1322 <VirtualizeTimerC__0__fireTimers>
    15e6:	40 92 d1 12 	sts	0x12D1, r4
    15ea:	50 92 d2 12 	sts	0x12D2, r5
    15ee:	60 92 d3 12 	sts	0x12D3, r6
    15f2:	70 92 d4 12 	sts	0x12D4, r7
    15f6:	21 e0       	ldi	r18, 0x01	; 1
    15f8:	20 93 0d 0d 	sts	0x0D0D, r18
    15fc:	3f b7       	in	r19, 0x3f	; 63
    15fe:	f8 94       	cli
    1600:	20 93 4b 08 	sts	0x084B, r18
    1604:	60 93 07 0d 	sts	0x0D07, r22
    1608:	70 93 08 0d 	sts	0x0D08, r23
    160c:	80 93 09 0d 	sts	0x0D09, r24
    1610:	90 93 0a 0d 	sts	0x0D0A, r25
    1614:	40 92 58 12 	sts	0x1258, r4
    1618:	50 92 59 12 	sts	0x1259, r5
    161c:	60 92 5a 12 	sts	0x125A, r6
    1620:	70 92 5b 12 	sts	0x125B, r7
    1624:	3f bf       	out	0x3f, r19	; 63
    1626:	df 91       	pop	r29
    1628:	cf 91       	pop	r28
    162a:	1f 91       	pop	r17
    162c:	0f 91       	pop	r16
    162e:	ff 90       	pop	r15
    1630:	ef 90       	pop	r14
    1632:	df 90       	pop	r13
    1634:	cf 90       	pop	r12
    1636:	bf 90       	pop	r11
    1638:	af 90       	pop	r10
    163a:	9f 90       	pop	r9
    163c:	8f 90       	pop	r8
    163e:	7f 90       	pop	r7
    1640:	6f 90       	pop	r6
    1642:	5f 90       	pop	r5
    1644:	4f 90       	pop	r4
    1646:	0c 94 58 04 	jmp	0x8b0	; 0x8b0 <Atm1280AlarmSyncP__0__checkAlarm>
    164a:	df 91       	pop	r29
    164c:	cf 91       	pop	r28
    164e:	1f 91       	pop	r17
    1650:	0f 91       	pop	r16
    1652:	ff 90       	pop	r15
    1654:	ef 90       	pop	r14
    1656:	df 90       	pop	r13
    1658:	cf 90       	pop	r12
    165a:	bf 90       	pop	r11
    165c:	af 90       	pop	r10
    165e:	9f 90       	pop	r9
    1660:	8f 90       	pop	r8
    1662:	7f 90       	pop	r7
    1664:	6f 90       	pop	r6
    1666:	5f 90       	pop	r5
    1668:	4f 90       	pop	r4
    166a:	08 95       	ret

0000166c <Enc28j60P__setBank>:
    166c:	cf 93       	push	r28
    166e:	df 93       	push	r29
    1670:	1f 92       	push	r1
    1672:	cd b7       	in	r28, 0x3d	; 61
    1674:	de b7       	in	r29, 0x3e	; 62
    1676:	89 83       	std	Y+1, r24	; 0x01
    1678:	0e 94 f8 02 	call	0x5f0	; 0x5f0 <HplAtm128GeneralIOPinP__8__IO__clr>
    167c:	8f eb       	ldi	r24, 0xBF	; 191
    167e:	0e 94 ac 03 	call	0x758	; 0x758 <Enc28j60P__SpiByte__write>
    1682:	83 e0       	ldi	r24, 0x03	; 3
    1684:	0e 94 ac 03 	call	0x758	; 0x758 <Enc28j60P__SpiByte__write>
    1688:	0e 94 f6 02 	call	0x5ec	; 0x5ec <HplAtm128GeneralIOPinP__8__IO__set>
    168c:	69 81       	ldd	r22, Y+1	; 0x01
    168e:	8f e1       	ldi	r24, 0x1F	; 31
    1690:	0f 90       	pop	r0
    1692:	df 91       	pop	r29
    1694:	cf 91       	pop	r28
    1696:	0c 94 da 03 	jmp	0x7b4	; 0x7b4 <Enc28j60P__setBit>

0000169a <IpTransceiverP__Arp__resolved>:
    169a:	fc 01       	movw	r30, r24
    169c:	00 97       	sbiw	r24, 0x00	; 0
    169e:	19 f4       	brne	.+6      	; 0x16a6 <IpTransceiverP__Arp__resolved+0xc>
    16a0:	81 e0       	ldi	r24, 0x01	; 1
    16a2:	0c 94 4f 09 	jmp	0x129e	; 0x129e <PacketQueueP__2__PacketSender__sendDone>
    16a6:	30 91 16 0d 	lds	r19, 0x0D16
    16aa:	90 91 17 0d 	lds	r25, 0x0D17
    16ae:	80 91 c3 0c 	lds	r24, 0x0CC3
    16b2:	81 11       	cpse	r24, r1
    16b4:	24 c0       	rjmp	.+72     	; 0x16fe <IpTransceiverP__Arp__resolved+0x64>
    16b6:	44 ec       	ldi	r20, 0xC4	; 196
    16b8:	5c e0       	ldi	r21, 0x0C	; 12
    16ba:	41 15       	cp	r20, r1
    16bc:	51 05       	cpc	r21, r1
    16be:	f9 f0       	breq	.+62     	; 0x16fe <IpTransceiverP__Arp__resolved+0x64>
    16c0:	26 e0       	ldi	r18, 0x06	; 6
    16c2:	da 01       	movw	r26, r20
    16c4:	01 90       	ld	r0, Z+
    16c6:	0d 92       	st	X+, r0
    16c8:	2a 95       	dec	r18
    16ca:	e1 f7       	brne	.-8      	; 0x16c4 <IpTransceiverP__Arp__resolved+0x2a>
    16cc:	40 e0       	ldi	r20, 0x00	; 0
    16ce:	58 e0       	ldi	r21, 0x08	; 8
    16d0:	50 93 cb 0c 	sts	0x0CCB, r21
    16d4:	40 93 ca 0c 	sts	0x0CCA, r20
    16d8:	44 e1       	ldi	r20, 0x14	; 20
    16da:	5d e0       	ldi	r21, 0x0D	; 13
    16dc:	50 93 cd 0c 	sts	0x0CCD, r21
    16e0:	40 93 cc 0c 	sts	0x0CCC, r20
    16e4:	89 2f       	mov	r24, r25
    16e6:	90 e0       	ldi	r25, 0x00	; 0
    16e8:	93 2b       	or	r25, r19
    16ea:	90 93 cf 0c 	sts	0x0CCF, r25
    16ee:	80 93 ce 0c 	sts	0x0CCE, r24
    16f2:	81 e0       	ldi	r24, 0x01	; 1
    16f4:	80 93 c3 0c 	sts	0x0CC3, r24
    16f8:	81 e1       	ldi	r24, 0x11	; 17
    16fa:	0c 94 12 03 	jmp	0x624	; 0x624 <SchedulerBasicP__TaskBasic__postTask>
    16fe:	08 95       	ret

00001700 <FMClickP__init__runTask>:
    1700:	9f b7       	in	r25, 0x3f	; 63
    1702:	f8 94       	cli
    1704:	80 91 db 12 	lds	r24, 0x12DB
    1708:	9f bf       	out	0x3f, r25	; 63
    170a:	81 11       	cpse	r24, r1
    170c:	0f c0       	rjmp	.+30     	; 0x172c <FMClickP__init__runTask+0x2c>
    170e:	5a 9a       	sbi	0x0b, 2	; 11
    1710:	48 ee       	ldi	r20, 0xE8	; 232
    1712:	53 e0       	ldi	r21, 0x03	; 3
    1714:	60 e0       	ldi	r22, 0x00	; 0
    1716:	70 e0       	ldi	r23, 0x00	; 0
    1718:	82 e0       	ldi	r24, 0x02	; 2
    171a:	0e 94 7c 03 	call	0x6f8	; 0x6f8 <VirtualizeTimerC__0__Timer__startOneShot>
    171e:	8f b7       	in	r24, 0x3f	; 63
    1720:	f8 94       	cli
    1722:	91 e0       	ldi	r25, 0x01	; 1
    1724:	90 93 db 12 	sts	0x12DB, r25
    1728:	8f bf       	out	0x3f, r24	; 63
    172a:	08 95       	ret
    172c:	81 30       	cpi	r24, 0x01	; 1
    172e:	21 f4       	brne	.+8      	; 0x1738 <FMClickP__init__runTask+0x38>
    1730:	8f b7       	in	r24, 0x3f	; 63
    1732:	f8 94       	cli
    1734:	92 e0       	ldi	r25, 0x02	; 2
    1736:	4a c0       	rjmp	.+148    	; 0x17cc <FMClickP__init__runTask+0xcc>
    1738:	82 30       	cpi	r24, 0x02	; 2
    173a:	a1 f4       	brne	.+40     	; 0x1764 <FMClickP__init__runTask+0x64>
    173c:	2f b7       	in	r18, 0x3f	; 63
    173e:	f8 94       	cli
    1740:	80 91 87 0a 	lds	r24, 0x0A87
    1744:	90 91 88 0a 	lds	r25, 0x0A88
    1748:	90 68       	ori	r25, 0x80	; 128
    174a:	90 93 88 0a 	sts	0x0A88, r25
    174e:	80 93 87 0a 	sts	0x0A87, r24
    1752:	10 92 98 0a 	sts	0x0A98, r1
    1756:	10 92 97 0a 	sts	0x0A97, r1
    175a:	8f e0       	ldi	r24, 0x0F	; 15
    175c:	80 93 cf 12 	sts	0x12CF, r24
    1760:	83 e0       	ldi	r24, 0x03	; 3
    1762:	71 c0       	rjmp	.+226    	; 0x1846 <FMClickP__init__runTask+0x146>
    1764:	83 30       	cpi	r24, 0x03	; 3
    1766:	59 f4       	brne	.+22     	; 0x177e <FMClickP__init__runTask+0x7e>
    1768:	8f b7       	in	r24, 0x3f	; 63
    176a:	f8 94       	cli
    176c:	94 e0       	ldi	r25, 0x04	; 4
    176e:	90 93 db 12 	sts	0x12DB, r25
    1772:	8f bf       	out	0x3f, r24	; 63
    1774:	4e ee       	ldi	r20, 0xEE	; 238
    1776:	52 e0       	ldi	r21, 0x02	; 2
    1778:	60 e0       	ldi	r22, 0x00	; 0
    177a:	70 e0       	ldi	r23, 0x00	; 0
    177c:	1f c0       	rjmp	.+62     	; 0x17bc <FMClickP__init__runTask+0xbc>
    177e:	84 30       	cpi	r24, 0x04	; 4
    1780:	89 f4       	brne	.+34     	; 0x17a4 <FMClickP__init__runTask+0xa4>
    1782:	8f b7       	in	r24, 0x3f	; 63
    1784:	f8 94       	cli
    1786:	21 e0       	ldi	r18, 0x01	; 1
    1788:	30 e4       	ldi	r19, 0x40	; 64
    178a:	30 93 7e 0a 	sts	0x0A7E, r19
    178e:	20 93 7d 0a 	sts	0x0A7D, r18
    1792:	92 e0       	ldi	r25, 0x02	; 2
    1794:	90 93 cf 12 	sts	0x12CF, r25
    1798:	95 e0       	ldi	r25, 0x05	; 5
    179a:	90 93 db 12 	sts	0x12DB, r25
    179e:	8f bf       	out	0x3f, r24	; 63
    17a0:	0c 94 3a 03 	jmp	0x674	; 0x674 <FMClickP__writeRegisters__postTask>
    17a4:	85 30       	cpi	r24, 0x05	; 5
    17a6:	69 f4       	brne	.+26     	; 0x17c2 <FMClickP__init__runTask+0xc2>
    17a8:	8f b7       	in	r24, 0x3f	; 63
    17aa:	f8 94       	cli
    17ac:	96 e0       	ldi	r25, 0x06	; 6
    17ae:	90 93 db 12 	sts	0x12DB, r25
    17b2:	8f bf       	out	0x3f, r24	; 63
    17b4:	46 e9       	ldi	r20, 0x96	; 150
    17b6:	50 e0       	ldi	r21, 0x00	; 0
    17b8:	60 e0       	ldi	r22, 0x00	; 0
    17ba:	70 e0       	ldi	r23, 0x00	; 0
    17bc:	82 e0       	ldi	r24, 0x02	; 2
    17be:	0c 94 7c 03 	jmp	0x6f8	; 0x6f8 <VirtualizeTimerC__0__Timer__startOneShot>
    17c2:	86 30       	cpi	r24, 0x06	; 6
    17c4:	41 f4       	brne	.+16     	; 0x17d6 <FMClickP__init__runTask+0xd6>
    17c6:	8f b7       	in	r24, 0x3f	; 63
    17c8:	f8 94       	cli
    17ca:	97 e0       	ldi	r25, 0x07	; 7
    17cc:	90 93 db 12 	sts	0x12DB, r25
    17d0:	8f bf       	out	0x3f, r24	; 63
    17d2:	0c 94 49 03 	jmp	0x692	; 0x692 <FMClickP__readRegisters__postTask>
    17d6:	87 30       	cpi	r24, 0x07	; 7
    17d8:	d1 f5       	brne	.+116    	; 0x184e <FMClickP__init__runTask+0x14e>
    17da:	2f b7       	in	r18, 0x3f	; 63
    17dc:	f8 94       	cli
    17de:	80 91 7b 0a 	lds	r24, 0x0A7B
    17e2:	90 91 7c 0a 	lds	r25, 0x0A7C
    17e6:	2f bf       	out	0x3f, r18	; 63
    17e8:	83 35       	cpi	r24, 0x53	; 83
    17ea:	92 41       	sbci	r25, 0x12	; 18
    17ec:	49 f0       	breq	.+18     	; 0x1800 <FMClickP__init__runTask+0x100>
    17ee:	8f b7       	in	r24, 0x3f	; 63
    17f0:	f8 94       	cli
    17f2:	10 92 d7 12 	sts	0x12D7, r1
    17f6:	8f bf       	out	0x3f, r24	; 63
    17f8:	10 92 3a 04 	sts	0x043A, r1
    17fc:	89 e0       	ldi	r24, 0x09	; 9
    17fe:	54 c0       	rjmp	.+168    	; 0x18a8 <FMClickP__init__runTask+0x1a8>
    1800:	2f b7       	in	r18, 0x3f	; 63
    1802:	f8 94       	cli
    1804:	80 91 81 0a 	lds	r24, 0x0A81
    1808:	90 91 82 0a 	lds	r25, 0x0A82
    180c:	83 73       	andi	r24, 0x33	; 51
    180e:	97 72       	andi	r25, 0x27	; 39
    1810:	84 60       	ori	r24, 0x04	; 4
    1812:	98 64       	ori	r25, 0x48	; 72
    1814:	90 93 82 0a 	sts	0x0A82, r25
    1818:	80 93 81 0a 	sts	0x0A81, r24
    181c:	80 e1       	ldi	r24, 0x10	; 16
    181e:	99 e1       	ldi	r25, 0x19	; 25
    1820:	90 93 84 0a 	sts	0x0A84, r25
    1824:	80 93 83 0a 	sts	0x0A83, r24
    1828:	80 91 85 0a 	lds	r24, 0x0A85
    182c:	90 91 86 0a 	lds	r25, 0x0A86
    1830:	88 27       	eor	r24, r24
    1832:	9e 7f       	andi	r25, 0xFE	; 254
    1834:	8f 64       	ori	r24, 0x4F	; 79
    1836:	90 93 86 0a 	sts	0x0A86, r25
    183a:	80 93 85 0a 	sts	0x0A85, r24
    183e:	86 e0       	ldi	r24, 0x06	; 6
    1840:	80 93 cf 12 	sts	0x12CF, r24
    1844:	88 e0       	ldi	r24, 0x08	; 8
    1846:	80 93 db 12 	sts	0x12DB, r24
    184a:	2f bf       	out	0x3f, r18	; 63
    184c:	a9 cf       	rjmp	.-174    	; 0x17a0 <FMClickP__init__runTask+0xa0>
    184e:	88 30       	cpi	r24, 0x08	; 8
    1850:	69 f5       	brne	.+90     	; 0x18ac <FMClickP__init__runTask+0x1ac>
    1852:	8f b7       	in	r24, 0x3f	; 63
    1854:	f8 94       	cli
    1856:	10 92 d7 12 	sts	0x12D7, r1
    185a:	8f bf       	out	0x3f, r24	; 63
    185c:	0e 94 70 03 	call	0x6e0	; 0x6e0 <Atm1280AlarmSyncP__0__Counter__get>
    1860:	60 93 42 12 	sts	0x1242, r22
    1864:	70 93 43 12 	sts	0x1243, r23
    1868:	80 93 44 12 	sts	0x1244, r24
    186c:	90 93 45 12 	sts	0x1245, r25
    1870:	84 e6       	ldi	r24, 0x64	; 100
    1872:	90 e0       	ldi	r25, 0x00	; 0
    1874:	a0 e0       	ldi	r26, 0x00	; 0
    1876:	b0 e0       	ldi	r27, 0x00	; 0
    1878:	80 93 46 12 	sts	0x1246, r24
    187c:	90 93 47 12 	sts	0x1247, r25
    1880:	a0 93 48 12 	sts	0x1248, r26
    1884:	b0 93 49 12 	sts	0x1249, r27
    1888:	80 91 4a 12 	lds	r24, 0x124A
    188c:	8e 7f       	andi	r24, 0xFE	; 254
    188e:	82 60       	ori	r24, 0x02	; 2
    1890:	80 93 4a 12 	sts	0x124A, r24
    1894:	83 e1       	ldi	r24, 0x13	; 19
    1896:	0e 94 12 03 	call	0x624	; 0x624 <SchedulerBasicP__TaskBasic__postTask>
    189a:	8f b7       	in	r24, 0x3f	; 63
    189c:	f8 94       	cli
    189e:	91 e0       	ldi	r25, 0x01	; 1
    18a0:	90 93 49 08 	sts	0x0849, r25
    18a4:	8f bf       	out	0x3f, r24	; 63
    18a6:	8d e0       	ldi	r24, 0x0D	; 13
    18a8:	0c 94 12 03 	jmp	0x624	; 0x624 <SchedulerBasicP__TaskBasic__postTask>
    18ac:	08 95       	ret

000018ae <HplKS0108P__busy_wait_controller>:
    18ae:	88 23       	and	r24, r24
    18b0:	29 f0       	breq	.+10     	; 0x18bc <HplKS0108P__busy_wait_controller+0xe>
    18b2:	81 30       	cpi	r24, 0x01	; 1
    18b4:	29 f4       	brne	.+10     	; 0x18c0 <HplKS0108P__busy_wait_controller+0x12>
    18b6:	72 98       	cbi	0x0e, 2	; 14
    18b8:	73 9a       	sbi	0x0e, 3	; 14
    18ba:	02 c0       	rjmp	.+4      	; 0x18c0 <HplKS0108P__busy_wait_controller+0x12>
    18bc:	73 98       	cbi	0x0e, 3	; 14
    18be:	72 9a       	sbi	0x0e, 2	; 14
    18c0:	82 b1       	in	r24, 0x02	; 2
    18c2:	82 b9       	out	0x02, r24	; 2
    18c4:	81 b1       	in	r24, 0x01	; 1
    18c6:	11 b8       	out	0x01, r1	; 1
    18c8:	74 98       	cbi	0x0e, 4	; 14
    18ca:	75 9a       	sbi	0x0e, 5	; 14
    18cc:	0e 94 fc 02 	call	0x5f8	; 0x5f8 <HplAtm128GeneralIOPinP__38__IO__set>
    18d0:	82 e0       	ldi	r24, 0x02	; 2
    18d2:	90 e0       	ldi	r25, 0x00	; 0
    18d4:	0e 94 5b 06 	call	0xcb6	; 0xcb6 <BusyWaitMicroC__BusyWait__wait.part.0>
    18d8:	80 b1       	in	r24, 0x00	; 0
    18da:	07 9b       	sbis	0x00, 7	; 0
    18dc:	0d c0       	rjmp	.+26     	; 0x18f8 <HplKS0108P__busy_wait_controller+0x4a>
    18de:	0e 94 fa 02 	call	0x5f4	; 0x5f4 <HplAtm128GeneralIOPinP__38__IO__clr>
    18e2:	82 e0       	ldi	r24, 0x02	; 2
    18e4:	90 e0       	ldi	r25, 0x00	; 0
    18e6:	0e 94 5b 06 	call	0xcb6	; 0xcb6 <BusyWaitMicroC__BusyWait__wait.part.0>
    18ea:	0e 94 fc 02 	call	0x5f8	; 0x5f8 <HplAtm128GeneralIOPinP__38__IO__set>
    18ee:	82 e0       	ldi	r24, 0x02	; 2
    18f0:	90 e0       	ldi	r25, 0x00	; 0
    18f2:	0e 94 5b 06 	call	0xcb6	; 0xcb6 <BusyWaitMicroC__BusyWait__wait.part.0>
    18f6:	f1 cf       	rjmp	.-30     	; 0x18da <HplKS0108P__busy_wait_controller+0x2c>
    18f8:	0e 94 fa 02 	call	0x5f4	; 0x5f4 <HplAtm128GeneralIOPinP__38__IO__clr>
    18fc:	75 98       	cbi	0x0e, 5	; 14
    18fe:	81 b1       	in	r24, 0x01	; 1
    1900:	8f ef       	ldi	r24, 0xFF	; 255
    1902:	81 b9       	out	0x01, r24	; 1
    1904:	08 95       	ret

00001906 <HplKS0108P__HplKS0108__dataRead>:
    1906:	cf 93       	push	r28
    1908:	df 93       	push	r29
    190a:	1f 92       	push	r1
    190c:	cd b7       	in	r28, 0x3d	; 61
    190e:	de b7       	in	r29, 0x3e	; 62
    1910:	0e 94 57 0c 	call	0x18ae	; 0x18ae <HplKS0108P__busy_wait_controller>
    1914:	81 b1       	in	r24, 0x01	; 1
    1916:	11 b8       	out	0x01, r1	; 1
    1918:	74 9a       	sbi	0x0e, 4	; 14
    191a:	75 9a       	sbi	0x0e, 5	; 14
    191c:	0e 94 fc 02 	call	0x5f8	; 0x5f8 <HplAtm128GeneralIOPinP__38__IO__set>
    1920:	82 e0       	ldi	r24, 0x02	; 2
    1922:	90 e0       	ldi	r25, 0x00	; 0
    1924:	0e 94 5b 06 	call	0xcb6	; 0xcb6 <BusyWaitMicroC__BusyWait__wait.part.0>
    1928:	80 b1       	in	r24, 0x00	; 0
    192a:	0e 94 fa 02 	call	0x5f4	; 0x5f4 <HplAtm128GeneralIOPinP__38__IO__clr>
    192e:	82 e0       	ldi	r24, 0x02	; 2
    1930:	90 e0       	ldi	r25, 0x00	; 0
    1932:	0e 94 5b 06 	call	0xcb6	; 0xcb6 <BusyWaitMicroC__BusyWait__wait.part.0>
    1936:	0e 94 fc 02 	call	0x5f8	; 0x5f8 <HplAtm128GeneralIOPinP__38__IO__set>
    193a:	82 e0       	ldi	r24, 0x02	; 2
    193c:	90 e0       	ldi	r25, 0x00	; 0
    193e:	0e 94 5b 06 	call	0xcb6	; 0xcb6 <BusyWaitMicroC__BusyWait__wait.part.0>
    1942:	80 b1       	in	r24, 0x00	; 0
    1944:	89 83       	std	Y+1, r24	; 0x01
    1946:	0e 94 fa 02 	call	0x5f4	; 0x5f4 <HplAtm128GeneralIOPinP__38__IO__clr>
    194a:	89 81       	ldd	r24, Y+1	; 0x01
    194c:	0f 90       	pop	r0
    194e:	df 91       	pop	r29
    1950:	cf 91       	pop	r28
    1952:	08 95       	ret

00001954 <HplKS0108P__HplKS0108__dataWrite>:
    1954:	cf 93       	push	r28
    1956:	df 93       	push	r29
    1958:	1f 92       	push	r1
    195a:	cd b7       	in	r28, 0x3d	; 61
    195c:	de b7       	in	r29, 0x3e	; 62
    195e:	69 83       	std	Y+1, r22	; 0x01
    1960:	0e 94 57 0c 	call	0x18ae	; 0x18ae <HplKS0108P__busy_wait_controller>
    1964:	69 81       	ldd	r22, Y+1	; 0x01
    1966:	62 b9       	out	0x02, r22	; 2
    1968:	81 b1       	in	r24, 0x01	; 1
    196a:	8f ef       	ldi	r24, 0xFF	; 255
    196c:	81 b9       	out	0x01, r24	; 1
    196e:	74 9a       	sbi	0x0e, 4	; 14
    1970:	75 98       	cbi	0x0e, 5	; 14
    1972:	0e 94 fc 02 	call	0x5f8	; 0x5f8 <HplAtm128GeneralIOPinP__38__IO__set>
    1976:	82 e0       	ldi	r24, 0x02	; 2
    1978:	90 e0       	ldi	r25, 0x00	; 0
    197a:	0e 94 5b 06 	call	0xcb6	; 0xcb6 <BusyWaitMicroC__BusyWait__wait.part.0>
    197e:	0e 94 fa 02 	call	0x5f4	; 0x5f4 <HplAtm128GeneralIOPinP__38__IO__clr>
    1982:	80 e0       	ldi	r24, 0x00	; 0
    1984:	0f 90       	pop	r0
    1986:	df 91       	pop	r29
    1988:	cf 91       	pop	r28
    198a:	08 95       	ret

0000198c <HplKS0108P__HplKS0108__controlWrite>:
    198c:	cf 93       	push	r28
    198e:	df 93       	push	r29
    1990:	1f 92       	push	r1
    1992:	cd b7       	in	r28, 0x3d	; 61
    1994:	de b7       	in	r29, 0x3e	; 62
    1996:	69 83       	std	Y+1, r22	; 0x01
    1998:	0e 94 57 0c 	call	0x18ae	; 0x18ae <HplKS0108P__busy_wait_controller>
    199c:	74 98       	cbi	0x0e, 4	; 14
    199e:	75 98       	cbi	0x0e, 5	; 14
    19a0:	0e 94 fc 02 	call	0x5f8	; 0x5f8 <HplAtm128GeneralIOPinP__38__IO__set>
    19a4:	81 b1       	in	r24, 0x01	; 1
    19a6:	8f ef       	ldi	r24, 0xFF	; 255
    19a8:	81 b9       	out	0x01, r24	; 1
    19aa:	69 81       	ldd	r22, Y+1	; 0x01
    19ac:	62 b9       	out	0x02, r22	; 2
    19ae:	82 e0       	ldi	r24, 0x02	; 2
    19b0:	90 e0       	ldi	r25, 0x00	; 0
    19b2:	0e 94 5b 06 	call	0xcb6	; 0xcb6 <BusyWaitMicroC__BusyWait__wait.part.0>
    19b6:	0e 94 fa 02 	call	0x5f4	; 0x5f4 <HplAtm128GeneralIOPinP__38__IO__clr>
    19ba:	80 e0       	ldi	r24, 0x00	; 0
    19bc:	0f 90       	pop	r0
    19be:	df 91       	pop	r29
    19c0:	cf 91       	pop	r28
    19c2:	08 95       	ret

000019c4 <GlcdP__setAddress>:
    19c4:	cf 93       	push	r28
    19c6:	df 93       	push	r29
    19c8:	98 2f       	mov	r25, r24
    19ca:	c6 2f       	mov	r28, r22
    19cc:	d8 2f       	mov	r29, r24
    19ce:	d2 95       	swap	r29
    19d0:	d6 95       	lsr	r29
    19d2:	d6 95       	lsr	r29
    19d4:	d3 70       	andi	r29, 0x03	; 3
    19d6:	81 e0       	ldi	r24, 0x01	; 1
    19d8:	d8 27       	eor	r29, r24
    19da:	9f 73       	andi	r25, 0x3F	; 63
    19dc:	69 2f       	mov	r22, r25
    19de:	60 64       	ori	r22, 0x40	; 64
    19e0:	8d 2f       	mov	r24, r29
    19e2:	0e 94 c6 0c 	call	0x198c	; 0x198c <HplKS0108P__HplKS0108__controlWrite>
    19e6:	6c 2f       	mov	r22, r28
    19e8:	67 70       	andi	r22, 0x07	; 7
    19ea:	68 6b       	ori	r22, 0xB8	; 184
    19ec:	8d 2f       	mov	r24, r29
    19ee:	df 91       	pop	r29
    19f0:	cf 91       	pop	r28
    19f2:	0c 94 c6 0c 	jmp	0x198c	; 0x198c <HplKS0108P__HplKS0108__controlWrite>

000019f6 <GlcdP__drawChar.constprop.109>:
    19f6:	5f 92       	push	r5
    19f8:	6f 92       	push	r6
    19fa:	7f 92       	push	r7
    19fc:	8f 92       	push	r8
    19fe:	9f 92       	push	r9
    1a00:	af 92       	push	r10
    1a02:	bf 92       	push	r11
    1a04:	cf 92       	push	r12
    1a06:	df 92       	push	r13
    1a08:	ef 92       	push	r14
    1a0a:	ff 92       	push	r15
    1a0c:	0f 93       	push	r16
    1a0e:	1f 93       	push	r17
    1a10:	cf 93       	push	r28
    1a12:	df 93       	push	r29
    1a14:	90 ee       	ldi	r25, 0xE0	; 224
    1a16:	98 0f       	add	r25, r24
    1a18:	90 36       	cpi	r25, 0x60	; 96
    1a1a:	08 f0       	brcs	.+2      	; 0x1a1e <GlcdP__drawChar.constprop.109+0x28>
    1a1c:	54 c0       	rjmp	.+168    	; 0x1ac6 <GlcdP__drawChar.constprop.109+0xd0>
    1a1e:	6b 01       	movw	r12, r22
    1a20:	90 e0       	ldi	r25, 0x00	; 0
    1a22:	80 97       	sbiw	r24, 0x20	; 32
    1a24:	25 e0       	ldi	r18, 0x05	; 5
    1a26:	28 9f       	mul	r18, r24
    1a28:	80 01       	movw	r16, r0
    1a2a:	29 9f       	mul	r18, r25
    1a2c:	10 0d       	add	r17, r0
    1a2e:	11 24       	eor	r1, r1
    1a30:	02 5a       	subi	r16, 0xA2	; 162
    1a32:	1d 4f       	sbci	r17, 0xFD	; 253
    1a34:	91 2c       	mov	r9, r1
    1a36:	89 ef       	ldi	r24, 0xF9	; 249
    1a38:	68 2e       	mov	r6, r24
    1a3a:	6d 0c       	add	r6, r13
    1a3c:	55 24       	eor	r5, r5
    1a3e:	53 94       	inc	r5
    1a40:	aa 24       	eor	r10, r10
    1a42:	a3 94       	inc	r10
    1a44:	b1 2c       	mov	r11, r1
    1a46:	f9 2c       	mov	r15, r9
    1a48:	fc 0c       	add	r15, r12
    1a4a:	d6 2d       	mov	r29, r6
    1a4c:	f8 01       	movw	r30, r16
    1a4e:	74 90       	lpm	r7, Z
    1a50:	f6 fa       	bst	r15, 6
    1a52:	cc 27       	eor	r28, r28
    1a54:	c0 f9       	bld	r28, 0
    1a56:	c5 25       	eor	r28, r5
    1a58:	8d 2e       	mov	r8, r29
    1a5a:	86 94       	lsr	r8
    1a5c:	86 94       	lsr	r8
    1a5e:	86 94       	lsr	r8
    1a60:	fd 2f       	mov	r31, r29
    1a62:	f7 70       	andi	r31, 0x07	; 7
    1a64:	ef 2e       	mov	r14, r31
    1a66:	68 2d       	mov	r22, r8
    1a68:	8f 2d       	mov	r24, r15
    1a6a:	70 fe       	sbrs	r7, 0
    1a6c:	0d c0       	rjmp	.+26     	; 0x1a88 <GlcdP__drawChar.constprop.109+0x92>
    1a6e:	0e 94 e2 0c 	call	0x19c4	; 0x19c4 <GlcdP__setAddress>
    1a72:	8c 2f       	mov	r24, r28
    1a74:	0e 94 83 0c 	call	0x1906	; 0x1906 <HplKS0108P__HplKS0108__dataRead>
    1a78:	b5 01       	movw	r22, r10
    1a7a:	01 c0       	rjmp	.+2      	; 0x1a7e <GlcdP__drawChar.constprop.109+0x88>
    1a7c:	66 0f       	add	r22, r22
    1a7e:	ea 94       	dec	r14
    1a80:	ea f7       	brpl	.-6      	; 0x1a7c <GlcdP__drawChar.constprop.109+0x86>
    1a82:	e8 2e       	mov	r14, r24
    1a84:	e6 2a       	or	r14, r22
    1a86:	0d c0       	rjmp	.+26     	; 0x1aa2 <GlcdP__drawChar.constprop.109+0xac>
    1a88:	0e 94 e2 0c 	call	0x19c4	; 0x19c4 <GlcdP__setAddress>
    1a8c:	8c 2f       	mov	r24, r28
    1a8e:	0e 94 83 0c 	call	0x1906	; 0x1906 <HplKS0108P__HplKS0108__dataRead>
    1a92:	95 01       	movw	r18, r10
    1a94:	01 c0       	rjmp	.+2      	; 0x1a98 <GlcdP__drawChar.constprop.109+0xa2>
    1a96:	22 0f       	add	r18, r18
    1a98:	ea 94       	dec	r14
    1a9a:	ea f7       	brpl	.-6      	; 0x1a96 <GlcdP__drawChar.constprop.109+0xa0>
    1a9c:	20 95       	com	r18
    1a9e:	e8 2e       	mov	r14, r24
    1aa0:	e2 22       	and	r14, r18
    1aa2:	68 2d       	mov	r22, r8
    1aa4:	8f 2d       	mov	r24, r15
    1aa6:	0e 94 e2 0c 	call	0x19c4	; 0x19c4 <GlcdP__setAddress>
    1aaa:	6e 2d       	mov	r22, r14
    1aac:	8c 2f       	mov	r24, r28
    1aae:	0e 94 aa 0c 	call	0x1954	; 0x1954 <HplKS0108P__HplKS0108__dataWrite>
    1ab2:	76 94       	lsr	r7
    1ab4:	df 5f       	subi	r29, 0xFF	; 255
    1ab6:	dd 11       	cpse	r29, r13
    1ab8:	cf cf       	rjmp	.-98     	; 0x1a58 <GlcdP__drawChar.constprop.109+0x62>
    1aba:	0f 5f       	subi	r16, 0xFF	; 255
    1abc:	1f 4f       	sbci	r17, 0xFF	; 255
    1abe:	93 94       	inc	r9
    1ac0:	85 e0       	ldi	r24, 0x05	; 5
    1ac2:	98 12       	cpse	r9, r24
    1ac4:	c0 cf       	rjmp	.-128    	; 0x1a46 <GlcdP__drawChar.constprop.109+0x50>
    1ac6:	df 91       	pop	r29
    1ac8:	cf 91       	pop	r28
    1aca:	1f 91       	pop	r17
    1acc:	0f 91       	pop	r16
    1ace:	ff 90       	pop	r15
    1ad0:	ef 90       	pop	r14
    1ad2:	df 90       	pop	r13
    1ad4:	cf 90       	pop	r12
    1ad6:	bf 90       	pop	r11
    1ad8:	af 90       	pop	r10
    1ada:	9f 90       	pop	r9
    1adc:	8f 90       	pop	r8
    1ade:	7f 90       	pop	r7
    1ae0:	6f 90       	pop	r6
    1ae2:	5f 90       	pop	r5
    1ae4:	08 95       	ret

00001ae6 <GlcdP__Glcd__drawTextPgm>:
    1ae6:	ef 92       	push	r14
    1ae8:	ff 92       	push	r15
    1aea:	0f 93       	push	r16
    1aec:	1f 93       	push	r17
    1aee:	cf 93       	push	r28
    1af0:	df 93       	push	r29
    1af2:	00 d0       	rcall	.+0      	; 0x1af4 <GlcdP__Glcd__drawTextPgm+0xe>
    1af4:	cd b7       	in	r28, 0x3d	; 61
    1af6:	de b7       	in	r29, 0x3e	; 62
    1af8:	7c 01       	movw	r14, r24
    1afa:	16 2f       	mov	r17, r22
    1afc:	96 2f       	mov	r25, r22
    1afe:	00 e0       	ldi	r16, 0x00	; 0
    1b00:	f7 01       	movw	r30, r14
    1b02:	e0 0f       	add	r30, r16
    1b04:	f1 1d       	adc	r31, r1
    1b06:	84 91       	lpm	r24, Z
    1b08:	88 23       	and	r24, r24
    1b0a:	b1 f0       	breq	.+44     	; 0x1b38 <GlcdP__Glcd__drawTextPgm+0x52>
    1b0c:	8a 30       	cpi	r24, 0x0A	; 10
    1b0e:	11 f0       	breq	.+4      	; 0x1b14 <GlcdP__Glcd__drawTextPgm+0x2e>
    1b10:	8d 30       	cpi	r24, 0x0D	; 13
    1b12:	19 f4       	brne	.+6      	; 0x1b1a <GlcdP__Glcd__drawTextPgm+0x34>
    1b14:	48 5f       	subi	r20, 0xF8	; 248
    1b16:	91 2f       	mov	r25, r17
    1b18:	0d c0       	rjmp	.+26     	; 0x1b34 <GlcdP__Glcd__drawTextPgm+0x4e>
    1b1a:	89 30       	cpi	r24, 0x09	; 9
    1b1c:	11 f4       	brne	.+4      	; 0x1b22 <GlcdP__Glcd__drawTextPgm+0x3c>
    1b1e:	96 5f       	subi	r25, 0xF6	; 246
    1b20:	09 c0       	rjmp	.+18     	; 0x1b34 <GlcdP__Glcd__drawTextPgm+0x4e>
    1b22:	9a 5f       	subi	r25, 0xFA	; 250
    1b24:	69 2f       	mov	r22, r25
    1b26:	74 2f       	mov	r23, r20
    1b28:	49 83       	std	Y+1, r20	; 0x01
    1b2a:	9a 83       	std	Y+2, r25	; 0x02
    1b2c:	0e 94 fb 0c 	call	0x19f6	; 0x19f6 <GlcdP__drawChar.constprop.109>
    1b30:	9a 81       	ldd	r25, Y+2	; 0x02
    1b32:	49 81       	ldd	r20, Y+1	; 0x01
    1b34:	0f 5f       	subi	r16, 0xFF	; 255
    1b36:	e4 cf       	rjmp	.-56     	; 0x1b00 <GlcdP__Glcd__drawTextPgm+0x1a>
    1b38:	0f 90       	pop	r0
    1b3a:	0f 90       	pop	r0
    1b3c:	df 91       	pop	r29
    1b3e:	cf 91       	pop	r28
    1b40:	1f 91       	pop	r17
    1b42:	0f 91       	pop	r16
    1b44:	ff 90       	pop	r15
    1b46:	ef 90       	pop	r14
    1b48:	08 95       	ret

00001b4a <GlcdP__Glcd__drawText>:
    1b4a:	ff 92       	push	r15
    1b4c:	0f 93       	push	r16
    1b4e:	1f 93       	push	r17
    1b50:	cf 93       	push	r28
    1b52:	df 93       	push	r29
    1b54:	f6 2e       	mov	r15, r22
    1b56:	8c 01       	movw	r16, r24
    1b58:	d4 2f       	mov	r29, r20
    1b5a:	cf 2d       	mov	r28, r15
    1b5c:	f8 01       	movw	r30, r16
    1b5e:	81 91       	ld	r24, Z+
    1b60:	8f 01       	movw	r16, r30
    1b62:	88 23       	and	r24, r24
    1b64:	79 f0       	breq	.+30     	; 0x1b84 <GlcdP__Glcd__drawText+0x3a>
    1b66:	8a 30       	cpi	r24, 0x0A	; 10
    1b68:	11 f0       	breq	.+4      	; 0x1b6e <GlcdP__Glcd__drawText+0x24>
    1b6a:	8d 30       	cpi	r24, 0x0D	; 13
    1b6c:	11 f4       	brne	.+4      	; 0x1b72 <GlcdP__Glcd__drawText+0x28>
    1b6e:	d8 5f       	subi	r29, 0xF8	; 248
    1b70:	f4 cf       	rjmp	.-24     	; 0x1b5a <GlcdP__Glcd__drawText+0x10>
    1b72:	89 30       	cpi	r24, 0x09	; 9
    1b74:	11 f4       	brne	.+4      	; 0x1b7a <GlcdP__Glcd__drawText+0x30>
    1b76:	c6 5f       	subi	r28, 0xF6	; 246
    1b78:	f1 cf       	rjmp	.-30     	; 0x1b5c <GlcdP__Glcd__drawText+0x12>
    1b7a:	ca 5f       	subi	r28, 0xFA	; 250
    1b7c:	be 01       	movw	r22, r28
    1b7e:	0e 94 fb 0c 	call	0x19f6	; 0x19f6 <GlcdP__drawChar.constprop.109>
    1b82:	ec cf       	rjmp	.-40     	; 0x1b5c <GlcdP__Glcd__drawText+0x12>
    1b84:	df 91       	pop	r29
    1b86:	cf 91       	pop	r28
    1b88:	1f 91       	pop	r17
    1b8a:	0f 91       	pop	r16
    1b8c:	ff 90       	pop	r15
    1b8e:	08 95       	ret

00001b90 <RadioScannerP__DB__savedChannel.isra.77>:
    1b90:	cf 93       	push	r28
    1b92:	9f b7       	in	r25, 0x3f	; 63
    1b94:	f8 94       	cli
    1b96:	c0 91 49 08 	lds	r28, 0x0849
    1b9a:	9f bf       	out	0x3f, r25	; 63
    1b9c:	81 11       	cpse	r24, r1
    1b9e:	15 c0       	rjmp	.+42     	; 0x1bca <RadioScannerP__DB__savedChannel.isra.77+0x3a>
    1ba0:	48 e2       	ldi	r20, 0x28	; 40
    1ba2:	60 e0       	ldi	r22, 0x00	; 0
    1ba4:	86 e8       	ldi	r24, 0x86	; 134
    1ba6:	92 e0       	ldi	r25, 0x02	; 2
    1ba8:	0e 94 a5 0d 	call	0x1b4a	; 0x1b4a <GlcdP__Glcd__drawText>
    1bac:	c6 30       	cpi	r28, 0x06	; 6
    1bae:	39 f0       	breq	.+14     	; 0x1bbe <RadioScannerP__DB__savedChannel.isra.77+0x2e>
    1bb0:	c7 30       	cpi	r28, 0x07	; 7
    1bb2:	29 f0       	breq	.+10     	; 0x1bbe <RadioScannerP__DB__savedChannel.isra.77+0x2e>
    1bb4:	c5 30       	cpi	r28, 0x05	; 5
    1bb6:	19 f4       	brne	.+6      	; 0x1bbe <RadioScannerP__DB__savedChannel.isra.77+0x2e>
    1bb8:	cf 91       	pop	r28
    1bba:	0c 94 40 03 	jmp	0x680	; 0x680 <RadioScannerP__startSeekUp__postTask>
    1bbe:	8f b7       	in	r24, 0x3f	; 63
    1bc0:	f8 94       	cli
    1bc2:	8f bf       	out	0x3f, r24	; 63
    1bc4:	cf 91       	pop	r28
    1bc6:	0c 94 46 03 	jmp	0x68c	; 0x68c <RadioScannerP__displayChannelInfo__postTask>
    1bca:	81 30       	cpi	r24, 0x01	; 1
    1bcc:	11 f4       	brne	.+4      	; 0x1bd2 <RadioScannerP__DB__savedChannel.isra.77+0x42>
    1bce:	84 e0       	ldi	r24, 0x04	; 4
    1bd0:	01 c0       	rjmp	.+2      	; 0x1bd4 <RadioScannerP__DB__savedChannel.isra.77+0x44>
    1bd2:	85 e0       	ldi	r24, 0x05	; 5
    1bd4:	80 93 3a 04 	sts	0x043A, r24
    1bd8:	cf 91       	pop	r28
    1bda:	0c 94 31 03 	jmp	0x662	; 0x662 <RadioScannerP__displaySoftError__postTask>

00001bde <RadioScannerP__Glcd__fill.constprop.99>:
    1bde:	cf 93       	push	r28
    1be0:	df 93       	push	r29
    1be2:	c0 e0       	ldi	r28, 0x00	; 0
    1be4:	6c 2f       	mov	r22, r28
    1be6:	80 e0       	ldi	r24, 0x00	; 0
    1be8:	0e 94 e2 0c 	call	0x19c4	; 0x19c4 <GlcdP__setAddress>
    1bec:	6c 2f       	mov	r22, r28
    1bee:	80 e4       	ldi	r24, 0x40	; 64
    1bf0:	0e 94 e2 0c 	call	0x19c4	; 0x19c4 <GlcdP__setAddress>
    1bf4:	d0 e0       	ldi	r29, 0x00	; 0
    1bf6:	60 e0       	ldi	r22, 0x00	; 0
    1bf8:	80 e0       	ldi	r24, 0x00	; 0
    1bfa:	0e 94 aa 0c 	call	0x1954	; 0x1954 <HplKS0108P__HplKS0108__dataWrite>
    1bfe:	60 e0       	ldi	r22, 0x00	; 0
    1c00:	81 e0       	ldi	r24, 0x01	; 1
    1c02:	0e 94 aa 0c 	call	0x1954	; 0x1954 <HplKS0108P__HplKS0108__dataWrite>
    1c06:	df 5f       	subi	r29, 0xFF	; 255
    1c08:	d0 38       	cpi	r29, 0x80	; 128
    1c0a:	a9 f7       	brne	.-22     	; 0x1bf6 <RadioScannerP__Glcd__fill.constprop.99+0x18>
    1c0c:	cf 5f       	subi	r28, 0xFF	; 255
    1c0e:	c8 30       	cpi	r28, 0x08	; 8
    1c10:	49 f7       	brne	.-46     	; 0x1be4 <RadioScannerP__Glcd__fill.constprop.99+0x6>
    1c12:	80 e0       	ldi	r24, 0x00	; 0
    1c14:	df 91       	pop	r29
    1c16:	cf 91       	pop	r28
    1c18:	08 95       	ret

00001c1a <FMClickP__I2C__readDone.isra.84>:
    1c1a:	cf 93       	push	r28
    1c1c:	c0 91 d7 12 	lds	r28, 0x12D7
    1c20:	81 30       	cpi	r24, 0x01	; 1
    1c22:	11 f4       	brne	.+4      	; 0x1c28 <FMClickP__I2C__readDone.isra.84+0xe>
    1c24:	80 e2       	ldi	r24, 0x20	; 32
    1c26:	1a c0       	rjmp	.+52     	; 0x1c5c <FMClickP__I2C__readDone.isra.84+0x42>
    1c28:	0e 94 e9 08 	call	0x11d2	; 0x11d2 <FMClickP__I2CResource__release>
    1c2c:	10 92 da 12 	sts	0x12DA, r1
    1c30:	83 e2       	ldi	r24, 0x23	; 35
    1c32:	0e 94 12 03 	call	0x624	; 0x624 <SchedulerBasicP__TaskBasic__postTask>
    1c36:	c2 30       	cpi	r28, 0x02	; 2
    1c38:	59 f0       	breq	.+22     	; 0x1c50 <FMClickP__I2C__readDone.isra.84+0x36>
    1c3a:	20 f4       	brcc	.+8      	; 0x1c44 <FMClickP__I2C__readDone.isra.84+0x2a>
    1c3c:	c1 30       	cpi	r28, 0x01	; 1
    1c3e:	89 f4       	brne	.+34     	; 0x1c62 <FMClickP__I2C__readDone.isra.84+0x48>
    1c40:	8b e1       	ldi	r24, 0x1B	; 27
    1c42:	0c c0       	rjmp	.+24     	; 0x1c5c <FMClickP__I2C__readDone.isra.84+0x42>
    1c44:	c3 30       	cpi	r28, 0x03	; 3
    1c46:	39 f0       	breq	.+14     	; 0x1c56 <FMClickP__I2C__readDone.isra.84+0x3c>
    1c48:	c6 30       	cpi	r28, 0x06	; 6
    1c4a:	59 f4       	brne	.+22     	; 0x1c62 <FMClickP__I2C__readDone.isra.84+0x48>
    1c4c:	8e e1       	ldi	r24, 0x1E	; 30
    1c4e:	06 c0       	rjmp	.+12     	; 0x1c5c <FMClickP__I2C__readDone.isra.84+0x42>
    1c50:	cf 91       	pop	r28
    1c52:	0c 94 43 03 	jmp	0x686	; 0x686 <FMClickP__tune__postTask>
    1c56:	cf 91       	pop	r28
    1c58:	0c 94 3d 03 	jmp	0x67a	; 0x67a <FMClickP__seek__postTask>
    1c5c:	cf 91       	pop	r28
    1c5e:	0c 94 12 03 	jmp	0x624	; 0x624 <SchedulerBasicP__TaskBasic__postTask>
    1c62:	cf 91       	pop	r28
    1c64:	08 95       	ret

00001c66 <Atm128I2CMasterPacketP__0__readNextByte>:
    1c66:	81 11       	cpse	r24, r1
    1c68:	10 c0       	rjmp	.+32     	; 0x1c8a <Atm128I2CMasterPacketP__0__readNextByte+0x24>
    1c6a:	80 91 bb 00 	lds	r24, 0x00BB
    1c6e:	90 91 d0 12 	lds	r25, 0x12D0
    1c72:	e0 91 0e 0d 	lds	r30, 0x0D0E
    1c76:	f0 91 0f 0d 	lds	r31, 0x0D0F
    1c7a:	e9 0f       	add	r30, r25
    1c7c:	f1 1d       	adc	r31, r1
    1c7e:	80 83       	st	Z, r24
    1c80:	80 91 d0 12 	lds	r24, 0x12D0
    1c84:	8f 5f       	subi	r24, 0xFF	; 255
    1c86:	80 93 d0 12 	sts	0x12D0, r24
    1c8a:	20 91 d0 12 	lds	r18, 0x12D0
    1c8e:	80 91 4a 08 	lds	r24, 0x084A
    1c92:	28 17       	cp	r18, r24
    1c94:	88 f4       	brcc	.+34     	; 0x1cb8 <Atm128I2CMasterPacketP__0__readNextByte+0x52>
    1c96:	30 e0       	ldi	r19, 0x00	; 0
    1c98:	90 e0       	ldi	r25, 0x00	; 0
    1c9a:	01 97       	sbiw	r24, 0x01	; 1
    1c9c:	28 17       	cp	r18, r24
    1c9e:	39 07       	cpc	r19, r25
    1ca0:	49 f4       	brne	.+18     	; 0x1cb4 <Atm128I2CMasterPacketP__0__readNextByte+0x4e>
    1ca2:	80 91 6e 13 	lds	r24, 0x136E
    1ca6:	82 fd       	sbrc	r24, 2
    1ca8:	05 c0       	rjmp	.+10     	; 0x1cb4 <Atm128I2CMasterPacketP__0__readNextByte+0x4e>
    1caa:	80 91 54 12 	lds	r24, 0x1254
    1cae:	8f 7b       	andi	r24, 0xBF	; 191
    1cb0:	80 93 54 12 	sts	0x1254, r24
    1cb4:	0c 94 f1 02 	jmp	0x5e2	; 0x5e2 <HplAtm128I2CBusP__I2C__sendCommand>
    1cb8:	80 91 54 12 	lds	r24, 0x1254
    1cbc:	28 2f       	mov	r18, r24
    1cbe:	2e 7f       	andi	r18, 0xFE	; 254
    1cc0:	90 91 6e 13 	lds	r25, 0x136E
    1cc4:	91 ff       	sbrs	r25, 1
    1cc6:	0a c0       	rjmp	.+20     	; 0x1cdc <Atm128I2CMasterPacketP__0__readNextByte+0x76>
    1cc8:	9d 7f       	andi	r25, 0xFD	; 253
    1cca:	90 93 6e 13 	sts	0x136E, r25
    1cce:	82 2f       	mov	r24, r18
    1cd0:	80 61       	ori	r24, 0x10	; 16
    1cd2:	80 93 54 12 	sts	0x1254, r24
    1cd6:	80 91 b9 00 	lds	r24, 0x00B9
    1cda:	03 c0       	rjmp	.+6      	; 0x1ce2 <Atm128I2CMasterPacketP__0__readNextByte+0x7c>
    1cdc:	8e 77       	andi	r24, 0x7E	; 126
    1cde:	80 93 54 12 	sts	0x1254, r24
    1ce2:	0e 94 f1 02 	call	0x5e2	; 0x5e2 <HplAtm128I2CBusP__I2C__sendCommand>
    1ce6:	81 e0       	ldi	r24, 0x01	; 1
    1ce8:	80 93 09 03 	sts	0x0309, r24
    1cec:	80 91 0d 02 	lds	r24, 0x020D
    1cf0:	81 11       	cpse	r24, r1
    1cf2:	02 c0       	rjmp	.+4      	; 0x1cf8 <Atm128I2CMasterPacketP__0__readNextByte+0x92>
    1cf4:	0c 94 0d 0e 	jmp	0x1c1a	; 0x1c1a <FMClickP__I2C__readDone.isra.84>
    1cf8:	08 95       	ret

00001cfa <FMClickP__I2C__writeDone.isra.79>:
    1cfa:	cf 93       	push	r28
    1cfc:	c0 91 d7 12 	lds	r28, 0x12D7
    1d00:	81 30       	cpi	r24, 0x01	; 1
    1d02:	11 f4       	brne	.+4      	; 0x1d08 <FMClickP__I2C__writeDone.isra.79+0xe>
    1d04:	82 e2       	ldi	r24, 0x22	; 34
    1d06:	14 c0       	rjmp	.+40     	; 0x1d30 <FMClickP__I2C__writeDone.isra.79+0x36>
    1d08:	0e 94 e9 08 	call	0x11d2	; 0x11d2 <FMClickP__I2CResource__release>
    1d0c:	10 92 da 12 	sts	0x12DA, r1
    1d10:	c3 30       	cpi	r28, 0x03	; 3
    1d12:	89 f0       	breq	.+34     	; 0x1d36 <FMClickP__I2C__writeDone.isra.79+0x3c>
    1d14:	38 f4       	brcc	.+14     	; 0x1d24 <FMClickP__I2C__writeDone.isra.79+0x2a>
    1d16:	c1 30       	cpi	r28, 0x01	; 1
    1d18:	51 f0       	breq	.+20     	; 0x1d2e <FMClickP__I2C__writeDone.isra.79+0x34>
    1d1a:	c2 30       	cpi	r28, 0x02	; 2
    1d1c:	79 f4       	brne	.+30     	; 0x1d3c <FMClickP__I2C__writeDone.isra.79+0x42>
    1d1e:	cf 91       	pop	r28
    1d20:	0c 94 43 03 	jmp	0x686	; 0x686 <FMClickP__tune__postTask>
    1d24:	c6 30       	cpi	r28, 0x06	; 6
    1d26:	50 f4       	brcc	.+20     	; 0x1d3c <FMClickP__I2C__writeDone.isra.79+0x42>
    1d28:	10 92 d7 12 	sts	0x12D7, r1
    1d2c:	07 c0       	rjmp	.+14     	; 0x1d3c <FMClickP__I2C__writeDone.isra.79+0x42>
    1d2e:	8b e1       	ldi	r24, 0x1B	; 27
    1d30:	cf 91       	pop	r28
    1d32:	0c 94 12 03 	jmp	0x624	; 0x624 <SchedulerBasicP__TaskBasic__postTask>
    1d36:	cf 91       	pop	r28
    1d38:	0c 94 3d 03 	jmp	0x67a	; 0x67a <FMClickP__seek__postTask>
    1d3c:	cf 91       	pop	r28
    1d3e:	08 95       	ret

00001d40 <Atm128I2CMasterPacketP__0__writeNextByte>:
    1d40:	80 91 d0 12 	lds	r24, 0x12D0
    1d44:	90 91 4a 08 	lds	r25, 0x084A
    1d48:	89 17       	cp	r24, r25
    1d4a:	80 f4       	brcc	.+32     	; 0x1d6c <Atm128I2CMasterPacketP__0__writeNextByte+0x2c>
    1d4c:	e0 91 0e 0d 	lds	r30, 0x0D0E
    1d50:	f0 91 0f 0d 	lds	r31, 0x0D0F
    1d54:	e8 0f       	add	r30, r24
    1d56:	f1 1d       	adc	r31, r1
    1d58:	80 81       	ld	r24, Z
    1d5a:	80 93 bb 00 	sts	0x00BB, r24
    1d5e:	80 91 d0 12 	lds	r24, 0x12D0
    1d62:	8f 5f       	subi	r24, 0xFF	; 255
    1d64:	80 93 d0 12 	sts	0x12D0, r24
    1d68:	0c 94 f1 02 	jmp	0x5e2	; 0x5e2 <HplAtm128I2CBusP__I2C__sendCommand>
    1d6c:	80 91 54 12 	lds	r24, 0x1254
    1d70:	28 2f       	mov	r18, r24
    1d72:	2e 7f       	andi	r18, 0xFE	; 254
    1d74:	90 91 6e 13 	lds	r25, 0x136E
    1d78:	91 ff       	sbrs	r25, 1
    1d7a:	06 c0       	rjmp	.+12     	; 0x1d88 <Atm128I2CMasterPacketP__0__writeNextByte+0x48>
    1d7c:	9d 7f       	andi	r25, 0xFD	; 253
    1d7e:	90 93 6e 13 	sts	0x136E, r25
    1d82:	82 2f       	mov	r24, r18
    1d84:	80 61       	ori	r24, 0x10	; 16
    1d86:	01 c0       	rjmp	.+2      	; 0x1d8a <Atm128I2CMasterPacketP__0__writeNextByte+0x4a>
    1d88:	8e 77       	andi	r24, 0x7E	; 126
    1d8a:	80 93 54 12 	sts	0x1254, r24
    1d8e:	0e 94 f1 02 	call	0x5e2	; 0x5e2 <HplAtm128I2CBusP__I2C__sendCommand>
    1d92:	81 e0       	ldi	r24, 0x01	; 1
    1d94:	80 93 09 03 	sts	0x0309, r24
    1d98:	80 91 0d 02 	lds	r24, 0x020D
    1d9c:	81 11       	cpse	r24, r1
    1d9e:	02 c0       	rjmp	.+4      	; 0x1da4 <Atm128I2CMasterPacketP__0__writeNextByte+0x64>
    1da0:	0c 94 7d 0e 	jmp	0x1cfa	; 0x1cfa <FMClickP__I2C__writeDone.isra.79>
    1da4:	08 95       	ret

00001da6 <SchedulerBasicP__TaskBasic__runTask>:
    1da6:	3f 92       	push	r3
    1da8:	4f 92       	push	r4
    1daa:	5f 92       	push	r5
    1dac:	6f 92       	push	r6
    1dae:	7f 92       	push	r7
    1db0:	8f 92       	push	r8
    1db2:	9f 92       	push	r9
    1db4:	af 92       	push	r10
    1db6:	bf 92       	push	r11
    1db8:	cf 92       	push	r12
    1dba:	df 92       	push	r13
    1dbc:	ef 92       	push	r14
    1dbe:	ff 92       	push	r15
    1dc0:	0f 93       	push	r16
    1dc2:	1f 93       	push	r17
    1dc4:	cf 93       	push	r28
    1dc6:	df 93       	push	r29
    1dc8:	cd b7       	in	r28, 0x3d	; 61
    1dca:	de b7       	in	r29, 0x3e	; 62
    1dcc:	ed 97       	sbiw	r28, 0x3d	; 61
    1dce:	0f b6       	in	r0, 0x3f	; 63
    1dd0:	f8 94       	cli
    1dd2:	de bf       	out	0x3e, r29	; 62
    1dd4:	0f be       	out	0x3f, r0	; 63
    1dd6:	cd bf       	out	0x3d, r28	; 61
    1dd8:	90 e0       	ldi	r25, 0x00	; 0
    1dda:	89 32       	cpi	r24, 0x29	; 41
    1ddc:	91 05       	cpc	r25, r1
    1dde:	10 f0       	brcs	.+4      	; 0x1de4 <SchedulerBasicP__TaskBasic__runTask+0x3e>
    1de0:	0c 94 f3 20 	jmp	0x41e6	; 0x41e6 <__stack+0x1fe7>
    1de4:	fc 01       	movw	r30, r24
    1de6:	ee 58       	subi	r30, 0x8E	; 142
    1de8:	ff 4f       	sbci	r31, 0xFF	; 255
    1dea:	0c 94 8a 28 	jmp	0x5114	; 0x5114 <__tablejump2__>
    1dee:	8f b7       	in	r24, 0x3f	; 63
    1df0:	f8 94       	cli
    1df2:	10 91 48 08 	lds	r17, 0x0848
    1df6:	8f bf       	out	0x3f, r24	; 63
    1df8:	81 2f       	mov	r24, r17
    1dfa:	90 e0       	ldi	r25, 0x00	; 0
    1dfc:	c0 97       	sbiw	r24, 0x30	; 48
    1dfe:	0a 97       	sbiw	r24, 0x0a	; 10
    1e00:	60 f4       	brcc	.+24     	; 0x1e1a <SchedulerBasicP__TaskBasic__runTask+0x74>
    1e02:	e0 91 3e 08 	lds	r30, 0x083E
    1e06:	e4 30       	cpi	r30, 0x04	; 4
    1e08:	40 f4       	brcc	.+16     	; 0x1e1a <SchedulerBasicP__TaskBasic__runTask+0x74>
    1e0a:	81 e0       	ldi	r24, 0x01	; 1
    1e0c:	8e 0f       	add	r24, r30
    1e0e:	80 93 3e 08 	sts	0x083E, r24
    1e12:	f0 e0       	ldi	r31, 0x00	; 0
    1e14:	e2 5c       	subi	r30, 0xC2	; 194
    1e16:	f7 4f       	sbci	r31, 0xF7	; 247
    1e18:	11 83       	std	Z+1, r17	; 0x01
    1e1a:	18 30       	cpi	r17, 0x08	; 8
    1e1c:	59 f4       	brne	.+22     	; 0x1e34 <SchedulerBasicP__TaskBasic__runTask+0x8e>
    1e1e:	e0 91 3e 08 	lds	r30, 0x083E
    1e22:	ee 23       	and	r30, r30
    1e24:	39 f0       	breq	.+14     	; 0x1e34 <SchedulerBasicP__TaskBasic__runTask+0x8e>
    1e26:	e1 50       	subi	r30, 0x01	; 1
    1e28:	e0 93 3e 08 	sts	0x083E, r30
    1e2c:	f0 e0       	ldi	r31, 0x00	; 0
    1e2e:	e2 5c       	subi	r30, 0xC2	; 194
    1e30:	f7 4f       	sbci	r31, 0xF7	; 247
    1e32:	11 82       	std	Z+1, r1	; 0x01
    1e34:	44 e1       	ldi	r20, 0x14	; 20
    1e36:	60 e0       	ldi	r22, 0x00	; 0
    1e38:	89 e6       	ldi	r24, 0x69	; 105
    1e3a:	95 e0       	ldi	r25, 0x05	; 5
    1e3c:	0e 94 73 0d 	call	0x1ae6	; 0x1ae6 <GlcdP__Glcd__drawTextPgm>
    1e40:	44 e1       	ldi	r20, 0x14	; 20
    1e42:	60 e0       	ldi	r22, 0x00	; 0
    1e44:	8f e3       	ldi	r24, 0x3F	; 63
    1e46:	98 e0       	ldi	r25, 0x08	; 8
    1e48:	0e 94 a5 0d 	call	0x1b4a	; 0x1b4a <GlcdP__Glcd__drawText>
    1e4c:	1a 30       	cpi	r17, 0x0A	; 10
    1e4e:	11 f0       	breq	.+4      	; 0x1e54 <SchedulerBasicP__TaskBasic__runTask+0xae>
    1e50:	0c 94 f3 20 	jmp	0x41e6	; 0x41e6 <__stack+0x1fe7>
    1e54:	4a e0       	ldi	r20, 0x0A	; 10
    1e56:	50 e0       	ldi	r21, 0x00	; 0
    1e58:	60 e0       	ldi	r22, 0x00	; 0
    1e5a:	70 e0       	ldi	r23, 0x00	; 0
    1e5c:	8f e3       	ldi	r24, 0x3F	; 63
    1e5e:	98 e0       	ldi	r25, 0x08	; 8
    1e60:	0e 94 bb 29 	call	0x5376	; 0x5376 <strtoul>
    1e64:	2f b7       	in	r18, 0x3f	; 63
    1e66:	f8 94       	cli
    1e68:	33 e0       	ldi	r19, 0x03	; 3
    1e6a:	30 93 49 08 	sts	0x0849, r19
    1e6e:	2f bf       	out	0x3f, r18	; 63
    1e70:	9b 01       	movw	r18, r22
    1e72:	2b 56       	subi	r18, 0x6B	; 107
    1e74:	33 40       	sbci	r19, 0x03	; 3
    1e76:	2e 3c       	cpi	r18, 0xCE	; 206
    1e78:	31 05       	cpc	r19, r1
    1e7a:	38 f0       	brcs	.+14     	; 0x1e8a <SchedulerBasicP__TaskBasic__runTask+0xe4>
    1e7c:	81 e0       	ldi	r24, 0x01	; 1
    1e7e:	80 93 3a 04 	sts	0x043A, r24
    1e82:	0e 94 31 03 	call	0x662	; 0x662 <RadioScannerP__displaySoftError__postTask>
    1e86:	0c 94 f3 20 	jmp	0x41e6	; 0x41e6 <__stack+0x1fe7>
    1e8a:	2f b7       	in	r18, 0x3f	; 63
    1e8c:	f8 94       	cli
    1e8e:	70 93 45 08 	sts	0x0845, r23
    1e92:	60 93 44 08 	sts	0x0844, r22
    1e96:	2f bf       	out	0x3f, r18	; 63
    1e98:	0e 94 34 03 	call	0x668	; 0x668 <RadioScannerP__startTune__postTask>
    1e9c:	0c 94 f3 20 	jmp	0x41e6	; 0x41e6 <__stack+0x1fe7>
    1ea0:	8f b7       	in	r24, 0x3f	; 63
    1ea2:	f8 94       	cli
    1ea4:	10 91 48 08 	lds	r17, 0x0848
    1ea8:	8f bf       	out	0x3f, r24	; 63
    1eaa:	18 30       	cpi	r17, 0x08	; 8
    1eac:	61 f4       	brne	.+24     	; 0x1ec6 <SchedulerBasicP__TaskBasic__runTask+0x120>
    1eae:	e0 91 be 07 	lds	r30, 0x07BE
    1eb2:	ee 23       	and	r30, r30
    1eb4:	d1 f0       	breq	.+52     	; 0x1eea <SchedulerBasicP__TaskBasic__runTask+0x144>
    1eb6:	e1 50       	subi	r30, 0x01	; 1
    1eb8:	e0 93 be 07 	sts	0x07BE, r30
    1ebc:	f0 e0       	ldi	r31, 0x00	; 0
    1ebe:	e2 54       	subi	r30, 0x42	; 66
    1ec0:	f8 4f       	sbci	r31, 0xF8	; 248
    1ec2:	11 82       	std	Z+1, r1	; 0x01
    1ec4:	12 c0       	rjmp	.+36     	; 0x1eea <SchedulerBasicP__TaskBasic__runTask+0x144>
    1ec6:	1a 30       	cpi	r17, 0x0A	; 10
    1ec8:	81 f0       	breq	.+32     	; 0x1eea <SchedulerBasicP__TaskBasic__runTask+0x144>
    1eca:	1d 30       	cpi	r17, 0x0D	; 13
    1ecc:	71 f0       	breq	.+28     	; 0x1eea <SchedulerBasicP__TaskBasic__runTask+0x144>
    1ece:	11 23       	and	r17, r17
    1ed0:	61 f0       	breq	.+24     	; 0x1eea <SchedulerBasicP__TaskBasic__runTask+0x144>
    1ed2:	e0 91 be 07 	lds	r30, 0x07BE
    1ed6:	e8 32       	cpi	r30, 0x28	; 40
    1ed8:	40 f4       	brcc	.+16     	; 0x1eea <SchedulerBasicP__TaskBasic__runTask+0x144>
    1eda:	81 e0       	ldi	r24, 0x01	; 1
    1edc:	8e 0f       	add	r24, r30
    1ede:	80 93 be 07 	sts	0x07BE, r24
    1ee2:	f0 e0       	ldi	r31, 0x00	; 0
    1ee4:	e2 54       	subi	r30, 0x42	; 66
    1ee6:	f8 4f       	sbci	r31, 0xF8	; 248
    1ee8:	11 83       	std	Z+1, r17	; 0x01
    1eea:	85 e1       	ldi	r24, 0x15	; 21
    1eec:	ef eb       	ldi	r30, 0xBF	; 191
    1eee:	f7 e0       	ldi	r31, 0x07	; 7
    1ef0:	de 01       	movw	r26, r28
    1ef2:	11 96       	adiw	r26, 0x01	; 1
    1ef4:	01 90       	ld	r0, Z+
    1ef6:	0d 92       	st	X+, r0
    1ef8:	8a 95       	dec	r24
    1efa:	e1 f7       	brne	.-8      	; 0x1ef4 <SchedulerBasicP__TaskBasic__runTask+0x14e>
    1efc:	1e 8a       	std	Y+22, r1	; 0x16
    1efe:	44 e1       	ldi	r20, 0x14	; 20
    1f00:	6a e7       	ldi	r22, 0x7A	; 122
    1f02:	83 e5       	ldi	r24, 0x53	; 83
    1f04:	95 e0       	ldi	r25, 0x05	; 5
    1f06:	0e 94 73 0d 	call	0x1ae6	; 0x1ae6 <GlcdP__Glcd__drawTextPgm>
    1f0a:	44 e1       	ldi	r20, 0x14	; 20
    1f0c:	6a e7       	ldi	r22, 0x7A	; 122
    1f0e:	ce 01       	movw	r24, r28
    1f10:	01 96       	adiw	r24, 0x01	; 1
    1f12:	0e 94 a5 0d 	call	0x1b4a	; 0x1b4a <GlcdP__Glcd__drawText>
    1f16:	83 e1       	ldi	r24, 0x13	; 19
    1f18:	e4 ed       	ldi	r30, 0xD4	; 212
    1f1a:	f7 e0       	ldi	r31, 0x07	; 7
    1f1c:	de 01       	movw	r26, r28
    1f1e:	11 96       	adiw	r26, 0x01	; 1
    1f20:	01 90       	ld	r0, Z+
    1f22:	0d 92       	st	X+, r0
    1f24:	8a 95       	dec	r24
    1f26:	e1 f7       	brne	.-8      	; 0x1f20 <SchedulerBasicP__TaskBasic__runTask+0x17a>
    1f28:	1c 8a       	std	Y+20, r1	; 0x14
    1f2a:	4e e1       	ldi	r20, 0x1E	; 30
    1f2c:	6a e7       	ldi	r22, 0x7A	; 122
    1f2e:	83 e5       	ldi	r24, 0x53	; 83
    1f30:	95 e0       	ldi	r25, 0x05	; 5
    1f32:	0e 94 73 0d 	call	0x1ae6	; 0x1ae6 <GlcdP__Glcd__drawTextPgm>
    1f36:	4e e1       	ldi	r20, 0x1E	; 30
    1f38:	6a e7       	ldi	r22, 0x7A	; 122
    1f3a:	ce 01       	movw	r24, r28
    1f3c:	01 96       	adiw	r24, 0x01	; 1
    1f3e:	0e 94 a5 0d 	call	0x1b4a	; 0x1b4a <GlcdP__Glcd__drawText>
    1f42:	1a 30       	cpi	r17, 0x0A	; 10
    1f44:	11 f0       	breq	.+4      	; 0x1f4a <SchedulerBasicP__TaskBasic__runTask+0x1a4>
    1f46:	0c 94 f3 20 	jmp	0x41e6	; 0x41e6 <__stack+0x1fe7>
    1f4a:	2f b7       	in	r18, 0x3f	; 63
    1f4c:	f8 94       	cli
    1f4e:	86 e0       	ldi	r24, 0x06	; 6
    1f50:	80 93 49 08 	sts	0x0849, r24
    1f54:	80 91 46 08 	lds	r24, 0x0846
    1f58:	90 91 47 08 	lds	r25, 0x0847
    1f5c:	2f bf       	out	0x3f, r18	; 63
    1f5e:	0e 94 9e 04 	call	0x93c	; 0x93c <RadioScannerP__getListId>
    1f62:	2b e3       	ldi	r18, 0x3B	; 59
    1f64:	82 9f       	mul	r24, r18
    1f66:	b0 01       	movw	r22, r0
    1f68:	11 24       	eor	r1, r1
    1f6a:	db 01       	movw	r26, r22
    1f6c:	a5 5a       	subi	r26, 0xA5	; 165
    1f6e:	bb 4f       	sbci	r27, 0xFB	; 251
    1f70:	99 e2       	ldi	r25, 0x29	; 41
    1f72:	ef eb       	ldi	r30, 0xBF	; 191
    1f74:	f7 e0       	ldi	r31, 0x07	; 7
    1f76:	01 90       	ld	r0, Z+
    1f78:	0d 92       	st	X+, r0
    1f7a:	9a 95       	dec	r25
    1f7c:	e1 f7       	brne	.-8      	; 0x1f76 <SchedulerBasicP__TaskBasic__runTask+0x1d0>
    1f7e:	67 5b       	subi	r22, 0xB7	; 183
    1f80:	7b 4f       	sbci	r23, 0xFB	; 251
    1f82:	0e 94 2e 05 	call	0xa5c	; 0xa5c <DatabaseP__Database__saveChannel>
    1f86:	0c 94 f3 20 	jmp	0x41e6	; 0x41e6 <__stack+0x1fe7>
    1f8a:	8f b7       	in	r24, 0x3f	; 63
    1f8c:	f8 94       	cli
    1f8e:	e0 90 46 08 	lds	r14, 0x0846
    1f92:	f0 90 47 08 	lds	r15, 0x0847
    1f96:	91 e0       	ldi	r25, 0x01	; 1
    1f98:	90 93 49 08 	sts	0x0849, r25
    1f9c:	8f bf       	out	0x3f, r24	; 63
    1f9e:	c7 01       	movw	r24, r14
    1fa0:	0e 94 9e 04 	call	0x93c	; 0x93c <RadioScannerP__getListId>
    1fa4:	18 2f       	mov	r17, r24
    1fa6:	c7 01       	movw	r24, r14
    1fa8:	6a e0       	ldi	r22, 0x0A	; 10
    1faa:	70 e0       	ldi	r23, 0x00	; 0
    1fac:	0e 94 76 28 	call	0x50ec	; 0x50ec <__udivmodhi4>
    1fb0:	9f 93       	push	r25
    1fb2:	8f 93       	push	r24
    1fb4:	7f 93       	push	r23
    1fb6:	6f 93       	push	r22
    1fb8:	89 e8       	ldi	r24, 0x89	; 137
    1fba:	92 e0       	ldi	r25, 0x02	; 2
    1fbc:	9f 93       	push	r25
    1fbe:	8f 93       	push	r24
    1fc0:	7e 01       	movw	r14, r28
    1fc2:	6a e2       	ldi	r22, 0x2A	; 42
    1fc4:	e6 0e       	add	r14, r22
    1fc6:	f1 1c       	adc	r15, r1
    1fc8:	ff 92       	push	r15
    1fca:	ef 92       	push	r14
    1fcc:	0e 94 c7 2b 	call	0x578e	; 0x578e <sprintf>
    1fd0:	0e 94 ef 0d 	call	0x1bde	; 0x1bde <RadioScannerP__Glcd__fill.constprop.99>
    1fd4:	47 e0       	ldi	r20, 0x07	; 7
    1fd6:	60 e0       	ldi	r22, 0x00	; 0
    1fd8:	c7 01       	movw	r24, r14
    1fda:	0e 94 a5 0d 	call	0x1b4a	; 0x1b4a <GlcdP__Glcd__drawText>
    1fde:	47 e0       	ldi	r20, 0x07	; 7
    1fe0:	64 e2       	ldi	r22, 0x24	; 36
    1fe2:	80 e8       	ldi	r24, 0x80	; 128
    1fe4:	95 e0       	ldi	r25, 0x05	; 5
    1fe6:	0e 94 73 0d 	call	0x1ae6	; 0x1ae6 <GlcdP__Glcd__drawTextPgm>
    1fea:	0f b6       	in	r0, 0x3f	; 63
    1fec:	f8 94       	cli
    1fee:	de bf       	out	0x3e, r29	; 62
    1ff0:	0f be       	out	0x3f, r0	; 63
    1ff2:	cd bf       	out	0x3d, r28	; 61
    1ff4:	1f 30       	cpi	r17, 0x0F	; 15
    1ff6:	08 f0       	brcs	.+2      	; 0x1ffa <SchedulerBasicP__TaskBasic__runTask+0x254>
    1ff8:	72 c0       	rjmp	.+228    	; 0x20de <SchedulerBasicP__TaskBasic__runTask+0x338>
    1ffa:	10 93 48 04 	sts	0x0448, r17
    1ffe:	e1 2e       	mov	r14, r17
    2000:	f1 2c       	mov	r15, r1
    2002:	1f 92       	push	r1
    2004:	1f 93       	push	r17
    2006:	8f e8       	ldi	r24, 0x8F	; 143
    2008:	92 e0       	ldi	r25, 0x02	; 2
    200a:	9f 93       	push	r25
    200c:	8f 93       	push	r24
    200e:	8e 01       	movw	r16, r28
    2010:	0d 5c       	subi	r16, 0xCD	; 205
    2012:	1f 4f       	sbci	r17, 0xFF	; 255
    2014:	1f 93       	push	r17
    2016:	0f 93       	push	r16
    2018:	0e 94 c7 2b 	call	0x578e	; 0x578e <sprintf>
    201c:	1d aa       	std	Y+53, r1	; 0x35
    201e:	47 e0       	ldi	r20, 0x07	; 7
    2020:	6c e3       	ldi	r22, 0x3C	; 60
    2022:	c8 01       	movw	r24, r16
    2024:	0e 94 a5 0d 	call	0x1b4a	; 0x1b4a <GlcdP__Glcd__drawText>
    2028:	8b e3       	ldi	r24, 0x3B	; 59
    202a:	8e 9d       	mul	r24, r14
    202c:	f0 01       	movw	r30, r0
    202e:	8f 9d       	mul	r24, r15
    2030:	f0 0d       	add	r31, r0
    2032:	11 24       	eor	r1, r1
    2034:	e9 5b       	subi	r30, 0xB9	; 185
    2036:	fb 4f       	sbci	r31, 0xFB	; 251
    2038:	82 81       	ldd	r24, Z+2	; 0x02
    203a:	0f 90       	pop	r0
    203c:	0f 90       	pop	r0
    203e:	0f 90       	pop	r0
    2040:	0f 90       	pop	r0
    2042:	0f 90       	pop	r0
    2044:	0f 90       	pop	r0
    2046:	88 23       	and	r24, r24
    2048:	b1 f0       	breq	.+44     	; 0x2076 <SchedulerBasicP__TaskBasic__runTask+0x2d0>
    204a:	1f 92       	push	r1
    204c:	8f 93       	push	r24
    204e:	83 e9       	ldi	r24, 0x93	; 147
    2050:	92 e0       	ldi	r25, 0x02	; 2
    2052:	9f 93       	push	r25
    2054:	8f 93       	push	r24
    2056:	1f 93       	push	r17
    2058:	0f 93       	push	r16
    205a:	0e 94 c7 2b 	call	0x578e	; 0x578e <sprintf>
    205e:	1d aa       	std	Y+53, r1	; 0x35
    2060:	47 e0       	ldi	r20, 0x07	; 7
    2062:	6e e4       	ldi	r22, 0x4E	; 78
    2064:	c8 01       	movw	r24, r16
    2066:	0e 94 a5 0d 	call	0x1b4a	; 0x1b4a <GlcdP__Glcd__drawText>
    206a:	0f 90       	pop	r0
    206c:	0f 90       	pop	r0
    206e:	0f 90       	pop	r0
    2070:	0f 90       	pop	r0
    2072:	0f 90       	pop	r0
    2074:	0f 90       	pop	r0
    2076:	8b e3       	ldi	r24, 0x3B	; 59
    2078:	8e 9d       	mul	r24, r14
    207a:	80 01       	movw	r16, r0
    207c:	8f 9d       	mul	r24, r15
    207e:	10 0d       	add	r17, r0
    2080:	11 24       	eor	r1, r1
    2082:	f8 01       	movw	r30, r16
    2084:	e5 5a       	subi	r30, 0xA5	; 165
    2086:	fb 4f       	sbci	r31, 0xFB	; 251
    2088:	85 e1       	ldi	r24, 0x15	; 21
    208a:	de 01       	movw	r26, r28
    208c:	11 96       	adiw	r26, 0x01	; 1
    208e:	01 90       	ld	r0, Z+
    2090:	0d 92       	st	X+, r0
    2092:	8a 95       	dec	r24
    2094:	e1 f7       	brne	.-8      	; 0x208e <SchedulerBasicP__TaskBasic__runTask+0x2e8>
    2096:	1e 8a       	std	Y+22, r1	; 0x16
    2098:	4f e2       	ldi	r20, 0x2F	; 47
    209a:	6a e7       	ldi	r22, 0x7A	; 122
    209c:	83 e5       	ldi	r24, 0x53	; 83
    209e:	95 e0       	ldi	r25, 0x05	; 5
    20a0:	0e 94 73 0d 	call	0x1ae6	; 0x1ae6 <GlcdP__Glcd__drawTextPgm>
    20a4:	4f e2       	ldi	r20, 0x2F	; 47
    20a6:	6a e7       	ldi	r22, 0x7A	; 122
    20a8:	ce 01       	movw	r24, r28
    20aa:	01 96       	adiw	r24, 0x01	; 1
    20ac:	0e 94 a5 0d 	call	0x1b4a	; 0x1b4a <GlcdP__Glcd__drawText>
    20b0:	f8 01       	movw	r30, r16
    20b2:	e0 59       	subi	r30, 0x90	; 144
    20b4:	fb 4f       	sbci	r31, 0xFB	; 251
    20b6:	83 e1       	ldi	r24, 0x13	; 19
    20b8:	de 01       	movw	r26, r28
    20ba:	11 96       	adiw	r26, 0x01	; 1
    20bc:	01 90       	ld	r0, Z+
    20be:	0d 92       	st	X+, r0
    20c0:	8a 95       	dec	r24
    20c2:	e1 f7       	brne	.-8      	; 0x20bc <SchedulerBasicP__TaskBasic__runTask+0x316>
    20c4:	1c 8a       	std	Y+20, r1	; 0x14
    20c6:	47 e3       	ldi	r20, 0x37	; 55
    20c8:	6a e7       	ldi	r22, 0x7A	; 122
    20ca:	83 e5       	ldi	r24, 0x53	; 83
    20cc:	95 e0       	ldi	r25, 0x05	; 5
    20ce:	0e 94 73 0d 	call	0x1ae6	; 0x1ae6 <GlcdP__Glcd__drawTextPgm>
    20d2:	47 e3       	ldi	r20, 0x37	; 55
    20d4:	6a e7       	ldi	r22, 0x7A	; 122
    20d6:	ce 01       	movw	r24, r28
    20d8:	01 96       	adiw	r24, 0x01	; 1
    20da:	0e 94 a5 0d 	call	0x1b4a	; 0x1b4a <GlcdP__Glcd__drawText>
    20de:	4f e0       	ldi	r20, 0x0F	; 15
    20e0:	60 e0       	ldi	r22, 0x00	; 0
    20e2:	8f e6       	ldi	r24, 0x6F	; 111
    20e4:	95 e0       	ldi	r25, 0x05	; 5
    20e6:	0e 94 73 0d 	call	0x1ae6	; 0x1ae6 <GlcdP__Glcd__drawTextPgm>
    20ea:	4f e0       	ldi	r20, 0x0F	; 15
    20ec:	60 e0       	ldi	r22, 0x00	; 0
    20ee:	8e ee       	ldi	r24, 0xEE	; 238
    20f0:	97 e0       	ldi	r25, 0x07	; 7
    20f2:	0e 94 a5 0d 	call	0x1b4a	; 0x1b4a <GlcdP__Glcd__drawText>
    20f6:	4f e0       	ldi	r20, 0x0F	; 15
    20f8:	60 e0       	ldi	r22, 0x00	; 0
    20fa:	89 e6       	ldi	r24, 0x69	; 105
    20fc:	95 e0       	ldi	r25, 0x05	; 5
    20fe:	0e 94 73 0d 	call	0x1ae6	; 0x1ae6 <GlcdP__Glcd__drawTextPgm>
    2102:	4f e0       	ldi	r20, 0x0F	; 15
    2104:	66 e3       	ldi	r22, 0x36	; 54
    2106:	88 e3       	ldi	r24, 0x38	; 56
    2108:	98 e0       	ldi	r25, 0x08	; 8
    210a:	0e 94 a5 0d 	call	0x1b4a	; 0x1b4a <GlcdP__Glcd__drawText>
    210e:	85 e1       	ldi	r24, 0x15	; 21
    2110:	e7 ef       	ldi	r30, 0xF7	; 247
    2112:	f7 e0       	ldi	r31, 0x07	; 7
    2114:	de 01       	movw	r26, r28
    2116:	11 96       	adiw	r26, 0x01	; 1
    2118:	01 90       	ld	r0, Z+
    211a:	0d 92       	st	X+, r0
    211c:	8a 95       	dec	r24
    211e:	e1 f7       	brne	.-8      	; 0x2118 <SchedulerBasicP__TaskBasic__runTask+0x372>
    2120:	1e 8a       	std	Y+22, r1	; 0x16
    2122:	47 e1       	ldi	r20, 0x17	; 23
    2124:	6a e7       	ldi	r22, 0x7A	; 122
    2126:	83 e5       	ldi	r24, 0x53	; 83
    2128:	95 e0       	ldi	r25, 0x05	; 5
    212a:	0e 94 73 0d 	call	0x1ae6	; 0x1ae6 <GlcdP__Glcd__drawTextPgm>
    212e:	47 e1       	ldi	r20, 0x17	; 23
    2130:	6a e7       	ldi	r22, 0x7A	; 122
    2132:	ce 01       	movw	r24, r28
    2134:	01 96       	adiw	r24, 0x01	; 1
    2136:	0e 94 a5 0d 	call	0x1b4a	; 0x1b4a <GlcdP__Glcd__drawText>
    213a:	85 e1       	ldi	r24, 0x15	; 21
    213c:	ec e0       	ldi	r30, 0x0C	; 12
    213e:	f8 e0       	ldi	r31, 0x08	; 8
    2140:	de 01       	movw	r26, r28
    2142:	11 96       	adiw	r26, 0x01	; 1
    2144:	01 90       	ld	r0, Z+
    2146:	0d 92       	st	X+, r0
    2148:	8a 95       	dec	r24
    214a:	e1 f7       	brne	.-8      	; 0x2144 <SchedulerBasicP__TaskBasic__runTask+0x39e>
    214c:	1e 8a       	std	Y+22, r1	; 0x16
    214e:	4f e1       	ldi	r20, 0x1F	; 31
    2150:	6a e7       	ldi	r22, 0x7A	; 122
    2152:	83 e5       	ldi	r24, 0x53	; 83
    2154:	95 e0       	ldi	r25, 0x05	; 5
    2156:	0e 94 73 0d 	call	0x1ae6	; 0x1ae6 <GlcdP__Glcd__drawTextPgm>
    215a:	4f e1       	ldi	r20, 0x1F	; 31
    215c:	6a e7       	ldi	r22, 0x7A	; 122
    215e:	ce 01       	movw	r24, r28
    2160:	01 96       	adiw	r24, 0x01	; 1
    2162:	0e 94 a5 0d 	call	0x1b4a	; 0x1b4a <GlcdP__Glcd__drawText>
    2166:	85 e1       	ldi	r24, 0x15	; 21
    2168:	e1 e2       	ldi	r30, 0x21	; 33
    216a:	f8 e0       	ldi	r31, 0x08	; 8
    216c:	de 01       	movw	r26, r28
    216e:	11 96       	adiw	r26, 0x01	; 1
    2170:	01 90       	ld	r0, Z+
    2172:	0d 92       	st	X+, r0
    2174:	8a 95       	dec	r24
    2176:	e1 f7       	brne	.-8      	; 0x2170 <SchedulerBasicP__TaskBasic__runTask+0x3ca>
    2178:	1e 8a       	std	Y+22, r1	; 0x16
    217a:	47 e2       	ldi	r20, 0x27	; 39
    217c:	6a e7       	ldi	r22, 0x7A	; 122
    217e:	83 e5       	ldi	r24, 0x53	; 83
    2180:	95 e0       	ldi	r25, 0x05	; 5
    2182:	0e 94 73 0d 	call	0x1ae6	; 0x1ae6 <GlcdP__Glcd__drawTextPgm>
    2186:	47 e2       	ldi	r20, 0x27	; 39
    2188:	6a e7       	ldi	r22, 0x7A	; 122
    218a:	ce 01       	movw	r24, r28
    218c:	01 96       	adiw	r24, 0x01	; 1
    218e:	0e 94 a5 0d 	call	0x1b4a	; 0x1b4a <GlcdP__Glcd__drawText>
    2192:	81 e0       	ldi	r24, 0x01	; 1
    2194:	0e 94 bc 07 	call	0xf78	; 0xf78 <RadioScannerP__Radio__receiveRDS>
    2198:	0c 94 f3 20 	jmp	0x41e6	; 0x41e6 <__stack+0x1fe7>
    219c:	9f b7       	in	r25, 0x3f	; 63
    219e:	f8 94       	cli
    21a0:	80 91 e9 07 	lds	r24, 0x07E9
    21a4:	10 91 ea 07 	lds	r17, 0x07EA
    21a8:	00 91 eb 07 	lds	r16, 0x07EB
    21ac:	9f bf       	out	0x3f, r25	; 63
    21ae:	88 23       	and	r24, r24
    21b0:	89 f0       	breq	.+34     	; 0x21d4 <SchedulerBasicP__TaskBasic__runTask+0x42e>
    21b2:	4f e0       	ldi	r20, 0x0F	; 15
    21b4:	60 e0       	ldi	r22, 0x00	; 0
    21b6:	8f e6       	ldi	r24, 0x6F	; 111
    21b8:	95 e0       	ldi	r25, 0x05	; 5
    21ba:	0e 94 73 0d 	call	0x1ae6	; 0x1ae6 <GlcdP__Glcd__drawTextPgm>
    21be:	4f e0       	ldi	r20, 0x0F	; 15
    21c0:	60 e0       	ldi	r22, 0x00	; 0
    21c2:	8e ee       	ldi	r24, 0xEE	; 238
    21c4:	97 e0       	ldi	r25, 0x07	; 7
    21c6:	0e 94 a5 0d 	call	0x1b4a	; 0x1b4a <GlcdP__Glcd__drawText>
    21ca:	8f b7       	in	r24, 0x3f	; 63
    21cc:	f8 94       	cli
    21ce:	10 92 e9 07 	sts	0x07E9, r1
    21d2:	8f bf       	out	0x3f, r24	; 63
    21d4:	00 23       	and	r16, r16
    21d6:	89 f0       	breq	.+34     	; 0x21fa <SchedulerBasicP__TaskBasic__runTask+0x454>
    21d8:	4f e0       	ldi	r20, 0x0F	; 15
    21da:	60 e0       	ldi	r22, 0x00	; 0
    21dc:	89 e6       	ldi	r24, 0x69	; 105
    21de:	95 e0       	ldi	r25, 0x05	; 5
    21e0:	0e 94 73 0d 	call	0x1ae6	; 0x1ae6 <GlcdP__Glcd__drawTextPgm>
    21e4:	4f e0       	ldi	r20, 0x0F	; 15
    21e6:	66 e3       	ldi	r22, 0x36	; 54
    21e8:	88 e3       	ldi	r24, 0x38	; 56
    21ea:	98 e0       	ldi	r25, 0x08	; 8
    21ec:	0e 94 a5 0d 	call	0x1b4a	; 0x1b4a <GlcdP__Glcd__drawText>
    21f0:	8f b7       	in	r24, 0x3f	; 63
    21f2:	f8 94       	cli
    21f4:	10 92 eb 07 	sts	0x07EB, r1
    21f8:	8f bf       	out	0x3f, r24	; 63
    21fa:	11 23       	and	r17, r17
    21fc:	11 f4       	brne	.+4      	; 0x2202 <__stack+0x3>
    21fe:	0c 94 f3 20 	jmp	0x41e6	; 0x41e6 <__stack+0x1fe7>
    2202:	85 e1       	ldi	r24, 0x15	; 21
    2204:	e7 ef       	ldi	r30, 0xF7	; 247
    2206:	f7 e0       	ldi	r31, 0x07	; 7
    2208:	de 01       	movw	r26, r28
    220a:	11 96       	adiw	r26, 0x01	; 1
    220c:	01 90       	ld	r0, Z+
    220e:	0d 92       	st	X+, r0
    2210:	8a 95       	dec	r24
    2212:	e1 f7       	brne	.-8      	; 0x220c <__stack+0xd>
    2214:	1e 8a       	std	Y+22, r1	; 0x16
    2216:	47 e1       	ldi	r20, 0x17	; 23
    2218:	6a e7       	ldi	r22, 0x7A	; 122
    221a:	83 e5       	ldi	r24, 0x53	; 83
    221c:	95 e0       	ldi	r25, 0x05	; 5
    221e:	0e 94 73 0d 	call	0x1ae6	; 0x1ae6 <GlcdP__Glcd__drawTextPgm>
    2222:	47 e1       	ldi	r20, 0x17	; 23
    2224:	6a e7       	ldi	r22, 0x7A	; 122
    2226:	ce 01       	movw	r24, r28
    2228:	01 96       	adiw	r24, 0x01	; 1
    222a:	0e 94 a5 0d 	call	0x1b4a	; 0x1b4a <GlcdP__Glcd__drawText>
    222e:	85 e1       	ldi	r24, 0x15	; 21
    2230:	ec e0       	ldi	r30, 0x0C	; 12
    2232:	f8 e0       	ldi	r31, 0x08	; 8
    2234:	de 01       	movw	r26, r28
    2236:	11 96       	adiw	r26, 0x01	; 1
    2238:	01 90       	ld	r0, Z+
    223a:	0d 92       	st	X+, r0
    223c:	8a 95       	dec	r24
    223e:	e1 f7       	brne	.-8      	; 0x2238 <__stack+0x39>
    2240:	1e 8a       	std	Y+22, r1	; 0x16
    2242:	4f e1       	ldi	r20, 0x1F	; 31
    2244:	6a e7       	ldi	r22, 0x7A	; 122
    2246:	83 e5       	ldi	r24, 0x53	; 83
    2248:	95 e0       	ldi	r25, 0x05	; 5
    224a:	0e 94 73 0d 	call	0x1ae6	; 0x1ae6 <GlcdP__Glcd__drawTextPgm>
    224e:	4f e1       	ldi	r20, 0x1F	; 31
    2250:	6a e7       	ldi	r22, 0x7A	; 122
    2252:	ce 01       	movw	r24, r28
    2254:	01 96       	adiw	r24, 0x01	; 1
    2256:	0e 94 a5 0d 	call	0x1b4a	; 0x1b4a <GlcdP__Glcd__drawText>
    225a:	85 e1       	ldi	r24, 0x15	; 21
    225c:	e1 e2       	ldi	r30, 0x21	; 33
    225e:	f8 e0       	ldi	r31, 0x08	; 8
    2260:	de 01       	movw	r26, r28
    2262:	11 96       	adiw	r26, 0x01	; 1
    2264:	01 90       	ld	r0, Z+
    2266:	0d 92       	st	X+, r0
    2268:	8a 95       	dec	r24
    226a:	e1 f7       	brne	.-8      	; 0x2264 <__stack+0x65>
    226c:	1e 8a       	std	Y+22, r1	; 0x16
    226e:	47 e2       	ldi	r20, 0x27	; 39
    2270:	6a e7       	ldi	r22, 0x7A	; 122
    2272:	83 e5       	ldi	r24, 0x53	; 83
    2274:	95 e0       	ldi	r25, 0x05	; 5
    2276:	0e 94 73 0d 	call	0x1ae6	; 0x1ae6 <GlcdP__Glcd__drawTextPgm>
    227a:	47 e2       	ldi	r20, 0x27	; 39
    227c:	6a e7       	ldi	r22, 0x7A	; 122
    227e:	ce 01       	movw	r24, r28
    2280:	01 96       	adiw	r24, 0x01	; 1
    2282:	0e 94 a5 0d 	call	0x1b4a	; 0x1b4a <GlcdP__Glcd__drawText>
    2286:	8f b7       	in	r24, 0x3f	; 63
    2288:	f8 94       	cli
    228a:	10 92 ea 07 	sts	0x07EA, r1
    228e:	8f bf       	out	0x3f, r24	; 63
    2290:	0c 94 f3 20 	jmp	0x41e6	; 0x41e6 <__stack+0x1fe7>
    2294:	80 91 3b 04 	lds	r24, 0x043B
    2298:	90 91 3c 04 	lds	r25, 0x043C
    229c:	89 17       	cp	r24, r25
    229e:	11 f4       	brne	.+4      	; 0x22a4 <__stack+0xa5>
    22a0:	0c 94 f3 20 	jmp	0x41e6	; 0x41e6 <__stack+0x1fe7>
    22a4:	2f b7       	in	r18, 0x3f	; 63
    22a6:	f8 94       	cli
    22a8:	90 91 d7 12 	lds	r25, 0x12D7
    22ac:	2f bf       	out	0x3f, r18	; 63
    22ae:	91 11       	cpse	r25, r1
    22b0:	16 c0       	rjmp	.+44     	; 0x22de <__stack+0xdf>
    22b2:	4f b7       	in	r20, 0x3f	; 63
    22b4:	f8 94       	cli
    22b6:	35 e0       	ldi	r19, 0x05	; 5
    22b8:	30 93 d7 12 	sts	0x12D7, r19
    22bc:	28 2f       	mov	r18, r24
    22be:	2f 70       	andi	r18, 0x0F	; 15
    22c0:	80 91 83 0a 	lds	r24, 0x0A83
    22c4:	90 91 84 0a 	lds	r25, 0x0A84
    22c8:	80 7f       	andi	r24, 0xF0	; 240
    22ca:	82 2b       	or	r24, r18
    22cc:	90 93 84 0a 	sts	0x0A84, r25
    22d0:	80 93 83 0a 	sts	0x0A83, r24
    22d4:	30 93 cf 12 	sts	0x12CF, r19
    22d8:	4f bf       	out	0x3f, r20	; 63
    22da:	0e 94 3a 03 	call	0x674	; 0x674 <FMClickP__writeRegisters__postTask>
    22de:	80 91 3b 04 	lds	r24, 0x043B
    22e2:	80 93 3c 04 	sts	0x043C, r24
    22e6:	0e 94 fd 04 	call	0x9fa	; 0x9fa <RadioScannerP__printVolume>
    22ea:	0c 94 f3 20 	jmp	0x41e6	; 0x41e6 <__stack+0x1fe7>
    22ee:	80 e0       	ldi	r24, 0x00	; 0
    22f0:	0e 94 87 04 	call	0x90e	; 0x90e <FMClickP__FMClick__seek>
    22f4:	88 23       	and	r24, r24
    22f6:	11 f4       	brne	.+4      	; 0x22fc <__stack+0xfd>
    22f8:	0c 94 f3 20 	jmp	0x41e6	; 0x41e6 <__stack+0x1fe7>
    22fc:	0e 94 40 03 	call	0x680	; 0x680 <RadioScannerP__startSeekUp__postTask>
    2300:	0c 94 f3 20 	jmp	0x41e6	; 0x41e6 <__stack+0x1fe7>
    2304:	81 e0       	ldi	r24, 0x01	; 1
    2306:	0e 94 87 04 	call	0x90e	; 0x90e <FMClickP__FMClick__seek>
    230a:	88 23       	and	r24, r24
    230c:	11 f4       	brne	.+4      	; 0x2312 <__stack+0x113>
    230e:	0c 94 f3 20 	jmp	0x41e6	; 0x41e6 <__stack+0x1fe7>
    2312:	86 e0       	ldi	r24, 0x06	; 6
    2314:	0e 94 12 03 	call	0x624	; 0x624 <SchedulerBasicP__TaskBasic__postTask>
    2318:	0c 94 f3 20 	jmp	0x41e6	; 0x41e6 <__stack+0x1fe7>
    231c:	2f b7       	in	r18, 0x3f	; 63
    231e:	f8 94       	cli
    2320:	80 91 44 08 	lds	r24, 0x0844
    2324:	90 91 45 08 	lds	r25, 0x0845
    2328:	2f bf       	out	0x3f, r18	; 63
    232a:	3f b7       	in	r19, 0x3f	; 63
    232c:	f8 94       	cli
    232e:	20 91 d7 12 	lds	r18, 0x12D7
    2332:	3f bf       	out	0x3f, r19	; 63
    2334:	21 11       	cpse	r18, r1
    2336:	0c 94 4c 1e 	jmp	0x3c98	; 0x3c98 <__stack+0x1a99>
    233a:	9c 01       	movw	r18, r24
    233c:	2b 56       	subi	r18, 0x6B	; 107
    233e:	33 40       	sbci	r19, 0x03	; 3
    2340:	2e 3c       	cpi	r18, 0xCE	; 206
    2342:	31 05       	cpc	r19, r1
    2344:	10 f0       	brcs	.+4      	; 0x234a <__stack+0x14b>
    2346:	0c 94 4c 1e 	jmp	0x3c98	; 0x3c98 <__stack+0x1a99>
    234a:	2f b7       	in	r18, 0x3f	; 63
    234c:	f8 94       	cli
    234e:	32 e0       	ldi	r19, 0x02	; 2
    2350:	30 93 d7 12 	sts	0x12D7, r19
    2354:	10 92 dc 12 	sts	0x12DC, r1
    2358:	90 93 3e 13 	sts	0x133E, r25
    235c:	80 93 3d 13 	sts	0x133D, r24
    2360:	2f bf       	out	0x3f, r18	; 63
    2362:	0e 94 43 03 	call	0x686	; 0x686 <FMClickP__tune__postTask>
    2366:	0c 94 f3 20 	jmp	0x41e6	; 0x41e6 <__stack+0x1fe7>
    236a:	8f b7       	in	r24, 0x3f	; 63
    236c:	f8 94       	cli
    236e:	00 91 46 08 	lds	r16, 0x0846
    2372:	10 91 47 08 	lds	r17, 0x0847
    2376:	8f bf       	out	0x3f, r24	; 63
    2378:	c8 01       	movw	r24, r16
    237a:	0e 94 9e 04 	call	0x93c	; 0x93c <RadioScannerP__getListId>
    237e:	8f 30       	cpi	r24, 0x0F	; 15
    2380:	d0 f5       	brcc	.+116    	; 0x23f6 <__stack+0x1f7>
    2382:	2f b7       	in	r18, 0x3f	; 63
    2384:	f8 94       	cli
    2386:	90 91 e8 07 	lds	r25, 0x07E8
    238a:	2f bf       	out	0x3f, r18	; 63
    238c:	ab e3       	ldi	r26, 0x3B	; 59
    238e:	8a 9f       	mul	r24, r26
    2390:	b0 01       	movw	r22, r0
    2392:	11 24       	eor	r1, r1
    2394:	9b 01       	movw	r18, r22
    2396:	29 5b       	subi	r18, 0xB9	; 185
    2398:	3b 4f       	sbci	r19, 0xFB	; 251
    239a:	f9 01       	movw	r30, r18
    239c:	47 81       	ldd	r20, Z+7	; 0x07
    239e:	50 85       	ldd	r21, Z+8	; 0x08
    23a0:	45 2b       	or	r20, r21
    23a2:	f9 f4       	brne	.+62     	; 0x23e2 <__stack+0x1e3>
    23a4:	99 23       	and	r25, r25
    23a6:	e9 f0       	breq	.+58     	; 0x23e2 <__stack+0x1e3>
    23a8:	9f b7       	in	r25, 0x3f	; 63
    23aa:	f8 94       	cli
    23ac:	40 91 ec 07 	lds	r20, 0x07EC
    23b0:	50 91 ed 07 	lds	r21, 0x07ED
    23b4:	9f bf       	out	0x3f, r25	; 63
    23b6:	56 83       	std	Z+6, r21	; 0x06
    23b8:	45 83       	std	Z+5, r20	; 0x05
    23ba:	ab 01       	movw	r20, r22
    23bc:	4e 5a       	subi	r20, 0xAE	; 174
    23be:	5b 4f       	sbci	r21, 0xFB	; 251
    23c0:	98 e0       	ldi	r25, 0x08	; 8
    23c2:	ee ee       	ldi	r30, 0xEE	; 238
    23c4:	f7 e0       	ldi	r31, 0x07	; 7
    23c6:	da 01       	movw	r26, r20
    23c8:	01 90       	ld	r0, Z+
    23ca:	0d 92       	st	X+, r0
    23cc:	9a 95       	dec	r25
    23ce:	e1 f7       	brne	.-8      	; 0x23c8 <__stack+0x1c9>
    23d0:	f9 01       	movw	r30, r18
    23d2:	50 87       	std	Z+8, r21	; 0x08
    23d4:	47 83       	std	Z+7, r20	; 0x07
    23d6:	67 5b       	subi	r22, 0xB7	; 183
    23d8:	7b 4f       	sbci	r23, 0xFB	; 251
    23da:	0e 94 2e 05 	call	0xa5c	; 0xa5c <DatabaseP__Database__saveChannel>
    23de:	0c 94 f3 20 	jmp	0x41e6	; 0x41e6 <__stack+0x1fe7>
    23e2:	8f b7       	in	r24, 0x3f	; 63
    23e4:	f8 94       	cli
    23e6:	91 e0       	ldi	r25, 0x01	; 1
    23e8:	90 93 49 08 	sts	0x0849, r25
    23ec:	8f bf       	out	0x3f, r24	; 63
    23ee:	0e 94 46 03 	call	0x68c	; 0x68c <RadioScannerP__displayChannelInfo__postTask>
    23f2:	0c 94 f3 20 	jmp	0x41e6	; 0x41e6 <__stack+0x1fe7>
    23f6:	80 91 47 04 	lds	r24, 0x0447
    23fa:	8f 30       	cpi	r24, 0x0F	; 15
    23fc:	38 f0       	brcs	.+14     	; 0x240c <__stack+0x20d>
    23fe:	82 e0       	ldi	r24, 0x02	; 2
    2400:	80 93 3a 04 	sts	0x043A, r24
    2404:	0e 94 31 03 	call	0x662	; 0x662 <RadioScannerP__displaySoftError__postTask>
    2408:	0c 94 f3 20 	jmp	0x41e6	; 0x41e6 <__stack+0x1fe7>
    240c:	8f b7       	in	r24, 0x3f	; 63
    240e:	f8 94       	cli
    2410:	40 91 e8 07 	lds	r20, 0x07E8
    2414:	8f bf       	out	0x3f, r24	; 63
    2416:	e0 91 47 04 	lds	r30, 0x0447
    241a:	9b e3       	ldi	r25, 0x3B	; 59
    241c:	9e 9f       	mul	r25, r30
    241e:	f0 01       	movw	r30, r0
    2420:	11 24       	eor	r1, r1
    2422:	e7 5b       	subi	r30, 0xB7	; 183
    2424:	fb 4f       	sbci	r31, 0xFB	; 251
    2426:	10 82       	st	Z, r1
    2428:	12 83       	std	Z+2, r17	; 0x02
    242a:	01 83       	std	Z+1, r16	; 0x01
    242c:	21 e0       	ldi	r18, 0x01	; 1
    242e:	30 e0       	ldi	r19, 0x00	; 0
    2430:	34 83       	std	Z+4, r19	; 0x04
    2432:	23 83       	std	Z+3, r18	; 0x03
    2434:	16 82       	std	Z+6, r1	; 0x06
    2436:	15 82       	std	Z+5, r1	; 0x05
    2438:	10 86       	std	Z+8, r1	; 0x08
    243a:	17 82       	std	Z+7, r1	; 0x07
    243c:	80 91 47 04 	lds	r24, 0x0447
    2440:	98 9f       	mul	r25, r24
    2442:	90 01       	movw	r18, r0
    2444:	11 24       	eor	r1, r1
    2446:	f9 01       	movw	r30, r18
    2448:	e9 5b       	subi	r30, 0xB9	; 185
    244a:	fb 4f       	sbci	r31, 0xFB	; 251
    244c:	b9 01       	movw	r22, r18
    244e:	6e 5a       	subi	r22, 0xAE	; 174
    2450:	7b 4f       	sbci	r23, 0xFB	; 251
    2452:	70 87       	std	Z+8, r23	; 0x08
    2454:	67 83       	std	Z+7, r22	; 0x07
    2456:	25 5a       	subi	r18, 0xA5	; 165
    2458:	3b 4f       	sbci	r19, 0xFB	; 251
    245a:	32 87       	std	Z+10, r19	; 0x0a
    245c:	21 87       	std	Z+9, r18	; 0x09
    245e:	13 86       	std	Z+11, r1	; 0x0b
    2460:	14 8a       	std	Z+20, r1	; 0x14
    2462:	80 93 48 04 	sts	0x0448, r24
    2466:	44 23       	and	r20, r20
    2468:	31 f1       	breq	.+76     	; 0x24b6 <__stack+0x2b7>
    246a:	8f b7       	in	r24, 0x3f	; 63
    246c:	f8 94       	cli
    246e:	20 91 ec 07 	lds	r18, 0x07EC
    2472:	30 91 ed 07 	lds	r19, 0x07ED
    2476:	8f bf       	out	0x3f, r24	; 63
    2478:	a0 91 47 04 	lds	r26, 0x0447
    247c:	9a 9f       	mul	r25, r26
    247e:	d0 01       	movw	r26, r0
    2480:	11 24       	eor	r1, r1
    2482:	fd 01       	movw	r30, r26
    2484:	e9 5b       	subi	r30, 0xB9	; 185
    2486:	fb 4f       	sbci	r31, 0xFB	; 251
    2488:	36 83       	std	Z+6, r19	; 0x06
    248a:	25 83       	std	Z+5, r18	; 0x05
    248c:	ae 5a       	subi	r26, 0xAE	; 174
    248e:	bb 4f       	sbci	r27, 0xFB	; 251
    2490:	88 e0       	ldi	r24, 0x08	; 8
    2492:	ee ee       	ldi	r30, 0xEE	; 238
    2494:	f7 e0       	ldi	r31, 0x07	; 7
    2496:	01 90       	ld	r0, Z+
    2498:	0d 92       	st	X+, r0
    249a:	8a 95       	dec	r24
    249c:	e1 f7       	brne	.-8      	; 0x2496 <__stack+0x297>
    249e:	80 91 47 04 	lds	r24, 0x0447
    24a2:	98 9f       	mul	r25, r24
    24a4:	c0 01       	movw	r24, r0
    24a6:	11 24       	eor	r1, r1
    24a8:	fc 01       	movw	r30, r24
    24aa:	e9 5b       	subi	r30, 0xB9	; 185
    24ac:	fb 4f       	sbci	r31, 0xFB	; 251
    24ae:	8e 5a       	subi	r24, 0xAE	; 174
    24b0:	9b 4f       	sbci	r25, 0xFB	; 251
    24b2:	90 87       	std	Z+8, r25	; 0x08
    24b4:	87 83       	std	Z+7, r24	; 0x07
    24b6:	60 91 47 04 	lds	r22, 0x0447
    24ba:	fb e3       	ldi	r31, 0x3B	; 59
    24bc:	6f 9f       	mul	r22, r31
    24be:	b0 01       	movw	r22, r0
    24c0:	11 24       	eor	r1, r1
    24c2:	67 5b       	subi	r22, 0xB7	; 183
    24c4:	7b 4f       	sbci	r23, 0xFB	; 251
    24c6:	8f ef       	ldi	r24, 0xFF	; 255
    24c8:	0e 94 2e 05 	call	0xa5c	; 0xa5c <DatabaseP__Database__saveChannel>
    24cc:	80 91 47 04 	lds	r24, 0x0447
    24d0:	8f 5f       	subi	r24, 0xFF	; 255
    24d2:	80 93 47 04 	sts	0x0447, r24
    24d6:	0c 94 f3 20 	jmp	0x41e6	; 0x41e6 <__stack+0x1fe7>
    24da:	80 e0       	ldi	r24, 0x00	; 0
    24dc:	0e 94 bc 07 	call	0xf78	; 0xf78 <RadioScannerP__Radio__receiveRDS>
    24e0:	0e 94 ef 0d 	call	0x1bde	; 0x1bde <RadioScannerP__Glcd__fill.constprop.99>
    24e4:	4a e0       	ldi	r20, 0x0A	; 10
    24e6:	60 e0       	ldi	r22, 0x00	; 0
    24e8:	8c e4       	ldi	r24, 0x4C	; 76
    24ea:	95 e0       	ldi	r25, 0x05	; 5
    24ec:	0e 94 73 0d 	call	0x1ae6	; 0x1ae6 <GlcdP__Glcd__drawTextPgm>
    24f0:	80 91 3a 04 	lds	r24, 0x043A
    24f4:	44 e1       	ldi	r20, 0x14	; 20
    24f6:	60 e0       	ldi	r22, 0x00	; 0
    24f8:	81 11       	cpse	r24, r1
    24fa:	06 c0       	rjmp	.+12     	; 0x2508 <__stack+0x309>
    24fc:	88 e2       	ldi	r24, 0x28	; 40
    24fe:	95 e0       	ldi	r25, 0x05	; 5
    2500:	0e 94 73 0d 	call	0x1ae6	; 0x1ae6 <GlcdP__Glcd__drawTextPgm>
    2504:	0c 94 f3 20 	jmp	0x41e6	; 0x41e6 <__stack+0x1fe7>
    2508:	8d e3       	ldi	r24, 0x3D	; 61
    250a:	95 e0       	ldi	r25, 0x05	; 5
    250c:	0e 94 73 0d 	call	0x1ae6	; 0x1ae6 <GlcdP__Glcd__drawTextPgm>
    2510:	0c 94 f3 20 	jmp	0x41e6	; 0x41e6 <__stack+0x1fe7>
    2514:	80 e0       	ldi	r24, 0x00	; 0
    2516:	0e 94 bc 07 	call	0xf78	; 0xf78 <RadioScannerP__Radio__receiveRDS>
    251a:	0e 94 ef 0d 	call	0x1bde	; 0x1bde <RadioScannerP__Glcd__fill.constprop.99>
    251e:	4a e0       	ldi	r20, 0x0A	; 10
    2520:	60 e0       	ldi	r22, 0x00	; 0
    2522:	8c e4       	ldi	r24, 0x4C	; 76
    2524:	95 e0       	ldi	r25, 0x05	; 5
    2526:	0e 94 73 0d 	call	0x1ae6	; 0x1ae6 <GlcdP__Glcd__drawTextPgm>
    252a:	e0 91 3a 04 	lds	r30, 0x043A
    252e:	8e 2f       	mov	r24, r30
    2530:	90 e0       	ldi	r25, 0x00	; 0
    2532:	fc 01       	movw	r30, r24
    2534:	31 97       	sbiw	r30, 0x01	; 1
    2536:	e9 30       	cpi	r30, 0x09	; 9
    2538:	f1 05       	cpc	r31, r1
    253a:	08 f5       	brcc	.+66     	; 0x257e <__stack+0x37f>
    253c:	e5 56       	subi	r30, 0x65	; 101
    253e:	ff 4f       	sbci	r31, 0xFF	; 255
    2540:	44 e1       	ldi	r20, 0x14	; 20
    2542:	60 e0       	ldi	r22, 0x00	; 0
    2544:	0c 94 8a 28 	jmp	0x5114	; 0x5114 <__tablejump2__>
    2548:	87 e1       	ldi	r24, 0x17	; 23
    254a:	95 e0       	ldi	r25, 0x05	; 5
    254c:	1c c0       	rjmp	.+56     	; 0x2586 <__stack+0x387>
    254e:	84 e0       	ldi	r24, 0x04	; 4
    2550:	95 e0       	ldi	r25, 0x05	; 5
    2552:	19 c0       	rjmp	.+50     	; 0x2586 <__stack+0x387>
    2554:	83 ef       	ldi	r24, 0xF3	; 243
    2556:	94 e0       	ldi	r25, 0x04	; 4
    2558:	16 c0       	rjmp	.+44     	; 0x2586 <__stack+0x387>
    255a:	8a ee       	ldi	r24, 0xEA	; 234
    255c:	94 e0       	ldi	r25, 0x04	; 4
    255e:	13 c0       	rjmp	.+38     	; 0x2586 <__stack+0x387>
    2560:	80 ee       	ldi	r24, 0xE0	; 224
    2562:	94 e0       	ldi	r25, 0x04	; 4
    2564:	10 c0       	rjmp	.+32     	; 0x2586 <__stack+0x387>
    2566:	8c ec       	ldi	r24, 0xCC	; 204
    2568:	94 e0       	ldi	r25, 0x04	; 4
    256a:	0d c0       	rjmp	.+26     	; 0x2586 <__stack+0x387>
    256c:	89 eb       	ldi	r24, 0xB9	; 185
    256e:	94 e0       	ldi	r25, 0x04	; 4
    2570:	0a c0       	rjmp	.+20     	; 0x2586 <__stack+0x387>
    2572:	84 ea       	ldi	r24, 0xA4	; 164
    2574:	94 e0       	ldi	r25, 0x04	; 4
    2576:	07 c0       	rjmp	.+14     	; 0x2586 <__stack+0x387>
    2578:	81 e9       	ldi	r24, 0x91	; 145
    257a:	94 e0       	ldi	r25, 0x04	; 4
    257c:	04 c0       	rjmp	.+8      	; 0x2586 <__stack+0x387>
    257e:	44 e1       	ldi	r20, 0x14	; 20
    2580:	60 e0       	ldi	r22, 0x00	; 0
    2582:	8d e3       	ldi	r24, 0x3D	; 61
    2584:	95 e0       	ldi	r25, 0x05	; 5
    2586:	0e 94 73 0d 	call	0x1ae6	; 0x1ae6 <GlcdP__Glcd__drawTextPgm>
    258a:	4c eb       	ldi	r20, 0xBC	; 188
    258c:	52 e0       	ldi	r21, 0x02	; 2
    258e:	60 e0       	ldi	r22, 0x00	; 0
    2590:	70 e0       	ldi	r23, 0x00	; 0
    2592:	85 e0       	ldi	r24, 0x05	; 5
    2594:	0e 94 7c 03 	call	0x6f8	; 0x6f8 <VirtualizeTimerC__0__Timer__startOneShot>
    2598:	0c 94 f3 20 	jmp	0x41e6	; 0x41e6 <__stack+0x1fe7>
    259c:	89 e0       	ldi	r24, 0x09	; 9
    259e:	ea e2       	ldi	r30, 0x2A	; 42
    25a0:	f2 e0       	ldi	r31, 0x02	; 2
    25a2:	de 01       	movw	r26, r28
    25a4:	9a 96       	adiw	r26, 0x2a	; 42
    25a6:	01 90       	ld	r0, Z+
    25a8:	0d 92       	st	X+, r0
    25aa:	8a 95       	dec	r24
    25ac:	e1 f7       	brne	.-8      	; 0x25a6 <__stack+0x3a7>
    25ae:	9f b7       	in	r25, 0x3f	; 63
    25b0:	f8 94       	cli
    25b2:	e0 91 48 08 	lds	r30, 0x0848
    25b6:	80 91 49 08 	lds	r24, 0x0849
    25ba:	9f bf       	out	0x3f, r25	; 63
    25bc:	90 91 49 08 	lds	r25, 0x0849
    25c0:	91 30       	cpi	r25, 0x01	; 1
    25c2:	09 f0       	breq	.+2      	; 0x25c6 <__stack+0x3c7>
    25c4:	e8 c1       	rjmp	.+976    	; 0x2996 <__stack+0x797>
    25c6:	ec 36       	cpi	r30, 0x6C	; 108
    25c8:	09 f4       	brne	.+2      	; 0x25cc <__stack+0x3cd>
    25ca:	a0 c0       	rjmp	.+320    	; 0x270c <__stack+0x50d>
    25cc:	00 f5       	brcc	.+64     	; 0x260e <__stack+0x40f>
    25ce:	e1 36       	cpi	r30, 0x61	; 97
    25d0:	09 f4       	brne	.+2      	; 0x25d4 <__stack+0x3d5>
    25d2:	56 c0       	rjmp	.+172    	; 0x2680 <__stack+0x481>
    25d4:	a8 f4       	brcc	.+42     	; 0x2600 <__stack+0x401>
    25d6:	ec 32       	cpi	r30, 0x2C	; 44
    25d8:	09 f4       	brne	.+2      	; 0x25dc <__stack+0x3dd>
    25da:	20 c1       	rjmp	.+576    	; 0x281c <__stack+0x61d>
    25dc:	ee 32       	cpi	r30, 0x2E	; 46
    25de:	09 f0       	breq	.+2      	; 0x25e2 <__stack+0x3e3>
    25e0:	ab c1       	rjmp	.+854    	; 0x2938 <__stack+0x739>
    25e2:	80 e0       	ldi	r24, 0x00	; 0
    25e4:	0e 94 bc 07 	call	0xf78	; 0xf78 <RadioScannerP__Radio__receiveRDS>
    25e8:	0e 94 de 04 	call	0x9bc	; 0x9bc <RadioScannerP__clearRDSData>
    25ec:	8f b7       	in	r24, 0x3f	; 63
    25ee:	f8 94       	cli
    25f0:	94 e0       	ldi	r25, 0x04	; 4
    25f2:	90 93 49 08 	sts	0x0849, r25
    25f6:	8f bf       	out	0x3f, r24	; 63
    25f8:	0e 94 40 03 	call	0x680	; 0x680 <RadioScannerP__startSeekUp__postTask>
    25fc:	0c 94 f3 20 	jmp	0x41e6	; 0x41e6 <__stack+0x1fe7>
    2600:	e6 36       	cpi	r30, 0x66	; 102
    2602:	09 f4       	brne	.+2      	; 0x2606 <__stack+0x407>
    2604:	4b c0       	rjmp	.+150    	; 0x269c <__stack+0x49d>
    2606:	e9 36       	cpi	r30, 0x69	; 105
    2608:	09 f4       	brne	.+2      	; 0x260c <__stack+0x40d>
    260a:	56 c1       	rjmp	.+684    	; 0x28b8 <__stack+0x6b9>
    260c:	95 c1       	rjmp	.+810    	; 0x2938 <__stack+0x739>
    260e:	e0 37       	cpi	r30, 0x70	; 112
    2610:	09 f4       	brne	.+2      	; 0x2614 <__stack+0x415>
    2612:	14 c1       	rjmp	.+552    	; 0x283c <__stack+0x63d>
    2614:	70 f4       	brcc	.+28     	; 0x2632 <__stack+0x433>
    2616:	ee 36       	cpi	r30, 0x6E	; 110
    2618:	09 f4       	brne	.+2      	; 0x261c <__stack+0x41d>
    261a:	bb c0       	rjmp	.+374    	; 0x2792 <__stack+0x593>
    261c:	ef 36       	cpi	r30, 0x6F	; 111
    261e:	09 f0       	breq	.+2      	; 0x2622 <__stack+0x423>
    2620:	8b c1       	rjmp	.+790    	; 0x2938 <__stack+0x739>
    2622:	be 01       	movw	r22, r28
    2624:	66 5d       	subi	r22, 0xD6	; 214
    2626:	7f 4f       	sbci	r23, 0xFF	; 255
    2628:	8f ef       	ldi	r24, 0xFF	; 255
    262a:	0e 94 2e 05 	call	0xa5c	; 0xa5c <DatabaseP__Database__saveChannel>
    262e:	0c 94 f3 20 	jmp	0x41e6	; 0x41e6 <__stack+0x1fe7>
    2632:	e3 37       	cpi	r30, 0x73	; 115
    2634:	09 f4       	brne	.+2      	; 0x2638 <__stack+0x439>
    2636:	dd c0       	rjmp	.+442    	; 0x27f2 <__stack+0x5f3>
    2638:	e4 37       	cpi	r30, 0x74	; 116
    263a:	09 f0       	breq	.+2      	; 0x263e <__stack+0x43f>
    263c:	7d c1       	rjmp	.+762    	; 0x2938 <__stack+0x739>
    263e:	80 e0       	ldi	r24, 0x00	; 0
    2640:	0e 94 bc 07 	call	0xf78	; 0xf78 <RadioScannerP__Radio__receiveRDS>
    2644:	0e 94 de 04 	call	0x9bc	; 0x9bc <RadioScannerP__clearRDSData>
    2648:	8f b7       	in	r24, 0x3f	; 63
    264a:	f8 94       	cli
    264c:	10 92 3e 08 	sts	0x083E, r1
    2650:	95 e0       	ldi	r25, 0x05	; 5
    2652:	ef e3       	ldi	r30, 0x3F	; 63
    2654:	f8 e0       	ldi	r31, 0x08	; 8
    2656:	df 01       	movw	r26, r30
    2658:	1d 92       	st	X+, r1
    265a:	9a 95       	dec	r25
    265c:	e9 f7       	brne	.-6      	; 0x2658 <__stack+0x459>
    265e:	92 e0       	ldi	r25, 0x02	; 2
    2660:	90 93 49 08 	sts	0x0849, r25
    2664:	8f bf       	out	0x3f, r24	; 63
    2666:	0e 94 ef 0d 	call	0x1bde	; 0x1bde <RadioScannerP__Glcd__fill.constprop.99>
    266a:	4a e0       	ldi	r20, 0x0A	; 10
    266c:	60 e0       	ldi	r22, 0x00	; 0
    266e:	80 e9       	ldi	r24, 0x90	; 144
    2670:	95 e0       	ldi	r25, 0x05	; 5
    2672:	0e 94 73 0d 	call	0x1ae6	; 0x1ae6 <GlcdP__Glcd__drawTextPgm>
    2676:	80 e0       	ldi	r24, 0x00	; 0
    2678:	0e 94 12 03 	call	0x624	; 0x624 <SchedulerBasicP__TaskBasic__postTask>
    267c:	0c 94 f3 20 	jmp	0x41e6	; 0x41e6 <__stack+0x1fe7>
    2680:	80 e0       	ldi	r24, 0x00	; 0
    2682:	0e 94 bc 07 	call	0xf78	; 0xf78 <RadioScannerP__Radio__receiveRDS>
    2686:	8f b7       	in	r24, 0x3f	; 63
    2688:	f8 94       	cli
    268a:	96 e0       	ldi	r25, 0x06	; 6
    268c:	90 93 49 08 	sts	0x0849, r25
    2690:	8f bf       	out	0x3f, r24	; 63
    2692:	88 e0       	ldi	r24, 0x08	; 8
    2694:	0e 94 12 03 	call	0x624	; 0x624 <SchedulerBasicP__TaskBasic__postTask>
    2698:	0c 94 f3 20 	jmp	0x41e6	; 0x41e6 <__stack+0x1fe7>
    269c:	8f b7       	in	r24, 0x3f	; 63
    269e:	f8 94       	cli
    26a0:	97 e0       	ldi	r25, 0x07	; 7
    26a2:	90 93 49 08 	sts	0x0849, r25
    26a6:	8f bf       	out	0x3f, r24	; 63
    26a8:	80 91 3d 04 	lds	r24, 0x043D
    26ac:	89 30       	cpi	r24, 0x09	; 9
    26ae:	38 f5       	brcc	.+78     	; 0x26fe <__stack+0x4ff>
    26b0:	2f b7       	in	r18, 0x3f	; 63
    26b2:	f8 94       	cli
    26b4:	80 91 46 08 	lds	r24, 0x0846
    26b8:	90 91 47 08 	lds	r25, 0x0847
    26bc:	2f bf       	out	0x3f, r18	; 63
    26be:	0e 94 9e 04 	call	0x93c	; 0x93c <RadioScannerP__getListId>
    26c2:	8f 30       	cpi	r24, 0x0F	; 15
    26c4:	a8 f4       	brcc	.+42     	; 0x26f0 <__stack+0x4f1>
    26c6:	90 91 3d 04 	lds	r25, 0x043D
    26ca:	4e e3       	ldi	r20, 0x3E	; 62
    26cc:	54 e0       	ldi	r21, 0x04	; 4
    26ce:	fa 01       	movw	r30, r20
    26d0:	2e 2f       	mov	r18, r30
    26d2:	24 1b       	sub	r18, r20
    26d4:	29 17       	cp	r18, r25
    26d6:	10 f0       	brcs	.+4      	; 0x26dc <__stack+0x4dd>
    26d8:	0c 94 4f 1e 	jmp	0x3c9e	; 0x3c9e <__stack+0x1a9f>
    26dc:	21 91       	ld	r18, Z+
    26de:	28 13       	cpse	r18, r24
    26e0:	f7 cf       	rjmp	.-18     	; 0x26d0 <__stack+0x4d1>
    26e2:	89 e0       	ldi	r24, 0x09	; 9
    26e4:	80 93 3a 04 	sts	0x043A, r24
    26e8:	0e 94 31 03 	call	0x662	; 0x662 <RadioScannerP__displaySoftError__postTask>
    26ec:	0c 94 f3 20 	jmp	0x41e6	; 0x41e6 <__stack+0x1fe7>
    26f0:	88 e0       	ldi	r24, 0x08	; 8
    26f2:	80 93 3a 04 	sts	0x043A, r24
    26f6:	0e 94 31 03 	call	0x662	; 0x662 <RadioScannerP__displaySoftError__postTask>
    26fa:	0c 94 f3 20 	jmp	0x41e6	; 0x41e6 <__stack+0x1fe7>
    26fe:	83 e0       	ldi	r24, 0x03	; 3
    2700:	80 93 3a 04 	sts	0x043A, r24
    2704:	0e 94 31 03 	call	0x662	; 0x662 <RadioScannerP__displaySoftError__postTask>
    2708:	0c 94 f3 20 	jmp	0x41e6	; 0x41e6 <__stack+0x1fe7>
    270c:	80 91 47 04 	lds	r24, 0x0447
    2710:	88 23       	and	r24, r24
    2712:	11 f4       	brne	.+4      	; 0x2718 <__stack+0x519>
    2714:	0c 94 f3 20 	jmp	0x41e6	; 0x41e6 <__stack+0x1fe7>
    2718:	8f b7       	in	r24, 0x3f	; 63
    271a:	f8 94       	cli
    271c:	60 91 46 08 	lds	r22, 0x0846
    2720:	70 91 47 08 	lds	r23, 0x0847
    2724:	8f bf       	out	0x3f, r24	; 63
    2726:	30 91 47 04 	lds	r19, 0x0447
    272a:	e7 e4       	ldi	r30, 0x47	; 71
    272c:	f4 e0       	ldi	r31, 0x04	; 4
    272e:	4f ef       	ldi	r20, 0xFF	; 255
    2730:	5f ef       	ldi	r21, 0xFF	; 255
    2732:	1f ef       	ldi	r17, 0xFF	; 255
    2734:	20 e0       	ldi	r18, 0x00	; 0
    2736:	23 17       	cp	r18, r19
    2738:	69 f0       	breq	.+26     	; 0x2754 <__stack+0x555>
    273a:	83 81       	ldd	r24, Z+3	; 0x03
    273c:	94 81       	ldd	r25, Z+4	; 0x04
    273e:	86 1b       	sub	r24, r22
    2740:	97 0b       	sbc	r25, r23
    2742:	29 f0       	breq	.+10     	; 0x274e <__stack+0x54f>
    2744:	84 17       	cp	r24, r20
    2746:	95 07       	cpc	r25, r21
    2748:	10 f4       	brcc	.+4      	; 0x274e <__stack+0x54f>
    274a:	ac 01       	movw	r20, r24
    274c:	12 2f       	mov	r17, r18
    274e:	2f 5f       	subi	r18, 0xFF	; 255
    2750:	fb 96       	adiw	r30, 0x3b	; 59
    2752:	f1 cf       	rjmp	.-30     	; 0x2736 <__stack+0x537>
    2754:	1f 30       	cpi	r17, 0x0F	; 15
    2756:	10 f0       	brcs	.+4      	; 0x275c <__stack+0x55d>
    2758:	0c 94 f3 20 	jmp	0x41e6	; 0x41e6 <__stack+0x1fe7>
    275c:	80 e0       	ldi	r24, 0x00	; 0
    275e:	0e 94 bc 07 	call	0xf78	; 0xf78 <RadioScannerP__Radio__receiveRDS>
    2762:	0e 94 de 04 	call	0x9bc	; 0x9bc <RadioScannerP__clearRDSData>
    2766:	8f b7       	in	r24, 0x3f	; 63
    2768:	f8 94       	cli
    276a:	93 e0       	ldi	r25, 0x03	; 3
    276c:	90 93 49 08 	sts	0x0849, r25
    2770:	2b e3       	ldi	r18, 0x3B	; 59
    2772:	12 9f       	mul	r17, r18
    2774:	f0 01       	movw	r30, r0
    2776:	11 24       	eor	r1, r1
    2778:	e9 5b       	subi	r30, 0xB9	; 185
    277a:	fb 4f       	sbci	r31, 0xFB	; 251
    277c:	23 81       	ldd	r18, Z+3	; 0x03
    277e:	34 81       	ldd	r19, Z+4	; 0x04
    2780:	30 93 45 08 	sts	0x0845, r19
    2784:	20 93 44 08 	sts	0x0844, r18
    2788:	8f bf       	out	0x3f, r24	; 63
    278a:	0e 94 34 03 	call	0x668	; 0x668 <RadioScannerP__startTune__postTask>
    278e:	0c 94 f3 20 	jmp	0x41e6	; 0x41e6 <__stack+0x1fe7>
    2792:	8f b7       	in	r24, 0x3f	; 63
    2794:	f8 94       	cli
    2796:	98 e0       	ldi	r25, 0x08	; 8
    2798:	90 93 49 08 	sts	0x0849, r25
    279c:	8f bf       	out	0x3f, r24	; 63
    279e:	2f b7       	in	r18, 0x3f	; 63
    27a0:	f8 94       	cli
    27a2:	80 91 46 08 	lds	r24, 0x0846
    27a6:	90 91 47 08 	lds	r25, 0x0847
    27aa:	2f bf       	out	0x3f, r18	; 63
    27ac:	0e 94 9e 04 	call	0x93c	; 0x93c <RadioScannerP__getListId>
    27b0:	8f 30       	cpi	r24, 0x0F	; 15
    27b2:	08 f0       	brcs	.+2      	; 0x27b6 <__stack+0x5b7>
    27b4:	9d cf       	rjmp	.-198    	; 0x26f0 <__stack+0x4f1>
    27b6:	80 e0       	ldi	r24, 0x00	; 0
    27b8:	0e 94 bc 07 	call	0xf78	; 0xf78 <RadioScannerP__Radio__receiveRDS>
    27bc:	8f b7       	in	r24, 0x3f	; 63
    27be:	f8 94       	cli
    27c0:	10 92 48 08 	sts	0x0848, r1
    27c4:	8f bf       	out	0x3f, r24	; 63
    27c6:	10 92 be 07 	sts	0x07BE, r1
    27ca:	89 e2       	ldi	r24, 0x29	; 41
    27cc:	ef eb       	ldi	r30, 0xBF	; 191
    27ce:	f7 e0       	ldi	r31, 0x07	; 7
    27d0:	df 01       	movw	r26, r30
    27d2:	1d 92       	st	X+, r1
    27d4:	8a 95       	dec	r24
    27d6:	e9 f7       	brne	.-6      	; 0x27d2 <__stack+0x5d3>
    27d8:	0e 94 ef 0d 	call	0x1bde	; 0x1bde <RadioScannerP__Glcd__fill.constprop.99>
    27dc:	4a e0       	ldi	r20, 0x0A	; 10
    27de:	60 e0       	ldi	r22, 0x00	; 0
    27e0:	84 e8       	ldi	r24, 0x84	; 132
    27e2:	95 e0       	ldi	r25, 0x05	; 5
    27e4:	0e 94 73 0d 	call	0x1ae6	; 0x1ae6 <GlcdP__Glcd__drawTextPgm>
    27e8:	81 e0       	ldi	r24, 0x01	; 1
    27ea:	0e 94 12 03 	call	0x624	; 0x624 <SchedulerBasicP__TaskBasic__postTask>
    27ee:	0c 94 f3 20 	jmp	0x41e6	; 0x41e6 <__stack+0x1fe7>
    27f2:	80 e0       	ldi	r24, 0x00	; 0
    27f4:	0e 94 bc 07 	call	0xf78	; 0xf78 <RadioScannerP__Radio__receiveRDS>
    27f8:	0e 94 de 04 	call	0x9bc	; 0x9bc <RadioScannerP__clearRDSData>
    27fc:	8f b7       	in	r24, 0x3f	; 63
    27fe:	f8 94       	cli
    2800:	95 e0       	ldi	r25, 0x05	; 5
    2802:	90 93 49 08 	sts	0x0849, r25
    2806:	2b e6       	ldi	r18, 0x6B	; 107
    2808:	33 e0       	ldi	r19, 0x03	; 3
    280a:	30 93 45 08 	sts	0x0845, r19
    280e:	20 93 44 08 	sts	0x0844, r18
    2812:	8f bf       	out	0x3f, r24	; 63
    2814:	0e 94 34 03 	call	0x668	; 0x668 <RadioScannerP__startTune__postTask>
    2818:	0c 94 f3 20 	jmp	0x41e6	; 0x41e6 <__stack+0x1fe7>
    281c:	80 e0       	ldi	r24, 0x00	; 0
    281e:	0e 94 bc 07 	call	0xf78	; 0xf78 <RadioScannerP__Radio__receiveRDS>
    2822:	0e 94 de 04 	call	0x9bc	; 0x9bc <RadioScannerP__clearRDSData>
    2826:	8f b7       	in	r24, 0x3f	; 63
    2828:	f8 94       	cli
    282a:	94 e0       	ldi	r25, 0x04	; 4
    282c:	90 93 49 08 	sts	0x0849, r25
    2830:	8f bf       	out	0x3f, r24	; 63
    2832:	86 e0       	ldi	r24, 0x06	; 6
    2834:	0e 94 12 03 	call	0x624	; 0x624 <SchedulerBasicP__TaskBasic__postTask>
    2838:	0c 94 f3 20 	jmp	0x41e6	; 0x41e6 <__stack+0x1fe7>
    283c:	9f b7       	in	r25, 0x3f	; 63
    283e:	f8 94       	cli
    2840:	80 91 39 04 	lds	r24, 0x0439
    2844:	9f bf       	out	0x3f, r25	; 63
    2846:	81 11       	cpse	r24, r1
    2848:	0c 94 f3 20 	jmp	0x41e6	; 0x41e6 <__stack+0x1fe7>
    284c:	8f b7       	in	r24, 0x3f	; 63
    284e:	f8 94       	cli
    2850:	95 e0       	ldi	r25, 0x05	; 5
    2852:	90 93 39 04 	sts	0x0439, r25
    2856:	8f bf       	out	0x3f, r24	; 63
    2858:	49 e0       	ldi	r20, 0x09	; 9
    285a:	50 e0       	ldi	r21, 0x00	; 0
    285c:	65 e7       	ldi	r22, 0x75	; 117
    285e:	74 e0       	ldi	r23, 0x04	; 4
    2860:	fe 01       	movw	r30, r28
    2862:	31 96       	adiw	r30, 0x01	; 1
    2864:	7f 01       	movw	r14, r30
    2866:	cf 01       	movw	r24, r30
    2868:	0e 94 10 2b 	call	0x5620	; 0x5620 <strncpy_P>
    286c:	05 e3       	ldi	r16, 0x35	; 53
    286e:	13 e0       	ldi	r17, 0x03	; 3
    2870:	80 e8       	ldi	r24, 0x80	; 128
    2872:	d8 01       	movw	r26, r16
    2874:	1d 92       	st	X+, r1
    2876:	8a 95       	dec	r24
    2878:	e9 f7       	brne	.-6      	; 0x2874 <__stack+0x675>
    287a:	ff 92       	push	r15
    287c:	ef 92       	push	r14
    287e:	87 e9       	ldi	r24, 0x97	; 151
    2880:	92 e0       	ldi	r25, 0x02	; 2
    2882:	9f 93       	push	r25
    2884:	8f 93       	push	r24
    2886:	1f 93       	push	r17
    2888:	0f 93       	push	r16
    288a:	0e 94 c7 2b 	call	0x578e	; 0x578e <sprintf>
    288e:	f8 01       	movw	r30, r16
    2890:	01 90       	ld	r0, Z+
    2892:	00 20       	and	r0, r0
    2894:	e9 f7       	brne	.-6      	; 0x2890 <__stack+0x691>
    2896:	8f 01       	movw	r16, r30
    2898:	06 53       	subi	r16, 0x36	; 54
    289a:	13 40       	sbci	r17, 0x03	; 3
    289c:	10 93 34 03 	sts	0x0334, r17
    28a0:	00 93 33 03 	sts	0x0333, r16
    28a4:	0e 94 37 03 	call	0x66e	; 0x66e <DatabaseP__sendTask__postTask>
    28a8:	0f 90       	pop	r0
    28aa:	0f 90       	pop	r0
    28ac:	0f 90       	pop	r0
    28ae:	0f 90       	pop	r0
    28b0:	0f 90       	pop	r0
    28b2:	0f 90       	pop	r0
    28b4:	0c 94 f3 20 	jmp	0x41e6	; 0x41e6 <__stack+0x1fe7>
    28b8:	9f b7       	in	r25, 0x3f	; 63
    28ba:	f8 94       	cli
    28bc:	80 91 39 04 	lds	r24, 0x0439
    28c0:	9f bf       	out	0x3f, r25	; 63
    28c2:	81 11       	cpse	r24, r1
    28c4:	0c 94 f3 20 	jmp	0x41e6	; 0x41e6 <__stack+0x1fe7>
    28c8:	8f b7       	in	r24, 0x3f	; 63
    28ca:	f8 94       	cli
    28cc:	93 e0       	ldi	r25, 0x03	; 3
    28ce:	90 93 39 04 	sts	0x0439, r25
    28d2:	8f bf       	out	0x3f, r24	; 63
    28d4:	10 92 37 04 	sts	0x0437, r1
    28d8:	45 e0       	ldi	r20, 0x05	; 5
    28da:	50 e0       	ldi	r21, 0x00	; 0
    28dc:	6e e7       	ldi	r22, 0x7E	; 126
    28de:	74 e0       	ldi	r23, 0x04	; 4
    28e0:	fe 01       	movw	r30, r28
    28e2:	31 96       	adiw	r30, 0x01	; 1
    28e4:	7f 01       	movw	r14, r30
    28e6:	cf 01       	movw	r24, r30
    28e8:	0e 94 10 2b 	call	0x5620	; 0x5620 <strncpy_P>
    28ec:	05 e3       	ldi	r16, 0x35	; 53
    28ee:	13 e0       	ldi	r17, 0x03	; 3
    28f0:	80 e8       	ldi	r24, 0x80	; 128
    28f2:	d8 01       	movw	r26, r16
    28f4:	1d 92       	st	X+, r1
    28f6:	8a 95       	dec	r24
    28f8:	e9 f7       	brne	.-6      	; 0x28f4 <__stack+0x6f5>
    28fa:	ff 92       	push	r15
    28fc:	ef 92       	push	r14
    28fe:	87 e9       	ldi	r24, 0x97	; 151
    2900:	92 e0       	ldi	r25, 0x02	; 2
    2902:	9f 93       	push	r25
    2904:	8f 93       	push	r24
    2906:	1f 93       	push	r17
    2908:	0f 93       	push	r16
    290a:	0e 94 c7 2b 	call	0x578e	; 0x578e <sprintf>
    290e:	f8 01       	movw	r30, r16
    2910:	01 90       	ld	r0, Z+
    2912:	00 20       	and	r0, r0
    2914:	e9 f7       	brne	.-6      	; 0x2910 <__stack+0x711>
    2916:	8f 01       	movw	r16, r30
    2918:	06 53       	subi	r16, 0x36	; 54
    291a:	13 40       	sbci	r17, 0x03	; 3
    291c:	10 93 34 03 	sts	0x0334, r17
    2920:	00 93 33 03 	sts	0x0333, r16
    2924:	0e 94 37 03 	call	0x66e	; 0x66e <DatabaseP__sendTask__postTask>
    2928:	0f 90       	pop	r0
    292a:	0f 90       	pop	r0
    292c:	0f 90       	pop	r0
    292e:	0f 90       	pop	r0
    2930:	0f 90       	pop	r0
    2932:	0f 90       	pop	r0
    2934:	0c 94 f3 20 	jmp	0x41e6	; 0x41e6 <__stack+0x1fe7>
    2938:	8f ec       	ldi	r24, 0xCF	; 207
    293a:	8e 0f       	add	r24, r30
    293c:	89 30       	cpi	r24, 0x09	; 9
    293e:	10 f0       	brcs	.+4      	; 0x2944 <__stack+0x745>
    2940:	0c 94 f3 20 	jmp	0x41e6	; 0x41e6 <__stack+0x1fe7>
    2944:	e0 53       	subi	r30, 0x30	; 48
    2946:	f0 e0       	ldi	r31, 0x00	; 0
    2948:	e3 5c       	subi	r30, 0xC3	; 195
    294a:	fb 4f       	sbci	r31, 0xFB	; 251
    294c:	10 81       	ld	r17, Z
    294e:	1f 30       	cpi	r17, 0x0F	; 15
    2950:	d8 f4       	brcc	.+54     	; 0x2988 <__stack+0x789>
    2952:	80 e0       	ldi	r24, 0x00	; 0
    2954:	0e 94 bc 07 	call	0xf78	; 0xf78 <RadioScannerP__Radio__receiveRDS>
    2958:	0e 94 de 04 	call	0x9bc	; 0x9bc <RadioScannerP__clearRDSData>
    295c:	8f b7       	in	r24, 0x3f	; 63
    295e:	f8 94       	cli
    2960:	93 e0       	ldi	r25, 0x03	; 3
    2962:	90 93 49 08 	sts	0x0849, r25
    2966:	bb e3       	ldi	r27, 0x3B	; 59
    2968:	1b 9f       	mul	r17, r27
    296a:	f0 01       	movw	r30, r0
    296c:	11 24       	eor	r1, r1
    296e:	e9 5b       	subi	r30, 0xB9	; 185
    2970:	fb 4f       	sbci	r31, 0xFB	; 251
    2972:	23 81       	ldd	r18, Z+3	; 0x03
    2974:	34 81       	ldd	r19, Z+4	; 0x04
    2976:	30 93 45 08 	sts	0x0845, r19
    297a:	20 93 44 08 	sts	0x0844, r18
    297e:	8f bf       	out	0x3f, r24	; 63
    2980:	0e 94 34 03 	call	0x668	; 0x668 <RadioScannerP__startTune__postTask>
    2984:	0c 94 f3 20 	jmp	0x41e6	; 0x41e6 <__stack+0x1fe7>
    2988:	87 e0       	ldi	r24, 0x07	; 7
    298a:	80 93 3a 04 	sts	0x043A, r24
    298e:	0e 94 31 03 	call	0x662	; 0x662 <RadioScannerP__displaySoftError__postTask>
    2992:	0c 94 f3 20 	jmp	0x41e6	; 0x41e6 <__stack+0x1fe7>
    2996:	82 30       	cpi	r24, 0x02	; 2
    2998:	29 f4       	brne	.+10     	; 0x29a4 <__stack+0x7a5>
    299a:	80 e0       	ldi	r24, 0x00	; 0
    299c:	0e 94 12 03 	call	0x624	; 0x624 <SchedulerBasicP__TaskBasic__postTask>
    29a0:	0c 94 f3 20 	jmp	0x41e6	; 0x41e6 <__stack+0x1fe7>
    29a4:	88 30       	cpi	r24, 0x08	; 8
    29a6:	11 f0       	breq	.+4      	; 0x29ac <__stack+0x7ad>
    29a8:	0c 94 f3 20 	jmp	0x41e6	; 0x41e6 <__stack+0x1fe7>
    29ac:	81 e0       	ldi	r24, 0x01	; 1
    29ae:	0e 94 12 03 	call	0x624	; 0x624 <SchedulerBasicP__TaskBasic__postTask>
    29b2:	0c 94 f3 20 	jmp	0x41e6	; 0x41e6 <__stack+0x1fe7>
    29b6:	82 e0       	ldi	r24, 0x02	; 2
    29b8:	0e 94 87 04 	call	0x90e	; 0x90e <FMClickP__FMClick__seek>
    29bc:	0c 94 f3 20 	jmp	0x41e6	; 0x41e6 <__stack+0x1fe7>
    29c0:	0e 94 ef 0d 	call	0x1bde	; 0x1bde <RadioScannerP__Glcd__fill.constprop.99>
    29c4:	4a e0       	ldi	r20, 0x0A	; 10
    29c6:	60 e0       	ldi	r22, 0x00	; 0
    29c8:	8c e9       	ldi	r24, 0x9C	; 156
    29ca:	92 e0       	ldi	r25, 0x02	; 2
    29cc:	0e 94 a5 0d 	call	0x1b4a	; 0x1b4a <GlcdP__Glcd__drawText>
    29d0:	0c 94 f3 20 	jmp	0x41e6	; 0x41e6 <__stack+0x1fe7>
    29d4:	40 91 33 03 	lds	r20, 0x0333
    29d8:	50 91 34 03 	lds	r21, 0x0334
    29dc:	80 91 08 10 	lds	r24, 0x1008
    29e0:	81 11       	cpse	r24, r1
    29e2:	2b c0       	rjmp	.+86     	; 0x2a3a <__stack+0x83b>
    29e4:	89 e0       	ldi	r24, 0x09	; 9
    29e6:	90 e1       	ldi	r25, 0x10	; 16
    29e8:	89 2b       	or	r24, r25
    29ea:	39 f1       	breq	.+78     	; 0x2a3a <__stack+0x83b>
    29ec:	85 e3       	ldi	r24, 0x35	; 53
    29ee:	93 e0       	ldi	r25, 0x03	; 3
    29f0:	90 93 12 10 	sts	0x1012, r25
    29f4:	80 93 11 10 	sts	0x1011, r24
    29f8:	80 ec       	ldi	r24, 0xC0	; 192
    29fa:	80 93 09 10 	sts	0x1009, r24
    29fe:	88 ea       	ldi	r24, 0xA8	; 168
    2a00:	80 93 0a 10 	sts	0x100A, r24
    2a04:	8a e2       	ldi	r24, 0x2A	; 42
    2a06:	80 93 0b 10 	sts	0x100B, r24
    2a0a:	81 e0       	ldi	r24, 0x01	; 1
    2a0c:	80 93 0c 10 	sts	0x100C, r24
    2a10:	20 e5       	ldi	r18, 0x50	; 80
    2a12:	33 ec       	ldi	r19, 0xC3	; 195
    2a14:	30 93 0e 10 	sts	0x100E, r19
    2a18:	20 93 0d 10 	sts	0x100D, r18
    2a1c:	30 93 10 10 	sts	0x1010, r19
    2a20:	20 93 0f 10 	sts	0x100F, r18
    2a24:	50 93 14 10 	sts	0x1014, r21
    2a28:	40 93 13 10 	sts	0x1013, r20
    2a2c:	80 93 08 10 	sts	0x1008, r24
    2a30:	8a e1       	ldi	r24, 0x1A	; 26
    2a32:	0e 94 12 03 	call	0x624	; 0x624 <SchedulerBasicP__TaskBasic__postTask>
    2a36:	0c 94 f3 20 	jmp	0x41e6	; 0x41e6 <__stack+0x1fe7>
    2a3a:	0e 94 37 03 	call	0x66e	; 0x66e <DatabaseP__sendTask__postTask>
    2a3e:	0c 94 f3 20 	jmp	0x41e6	; 0x41e6 <__stack+0x1fe7>
    2a42:	9f b7       	in	r25, 0x3f	; 63
    2a44:	f8 94       	cli
    2a46:	80 91 39 04 	lds	r24, 0x0439
    2a4a:	9f bf       	out	0x3f, r25	; 63
    2a4c:	83 30       	cpi	r24, 0x03	; 3
    2a4e:	09 f4       	brne	.+2      	; 0x2a52 <__stack+0x853>
    2a50:	43 c0       	rjmp	.+134    	; 0x2ad8 <__stack+0x8d9>
    2a52:	84 30       	cpi	r24, 0x04	; 4
    2a54:	09 f4       	brne	.+2      	; 0x2a58 <__stack+0x859>
    2a56:	84 c0       	rjmp	.+264    	; 0x2b60 <__stack+0x961>
    2a58:	82 30       	cpi	r24, 0x02	; 2
    2a5a:	09 f0       	breq	.+2      	; 0x2a5e <__stack+0x85f>
    2a5c:	61 c1       	rjmp	.+706    	; 0x2d20 <__stack+0xb21>
    2a5e:	ce 01       	movw	r24, r28
    2a60:	8a 96       	adiw	r24, 0x2a	; 42
    2a62:	0e 94 72 06 	call	0xce4	; 0xce4 <DatabaseP__prepareMessage.constprop.108>
    2a66:	88 23       	and	r24, r24
    2a68:	09 f4       	brne	.+2      	; 0x2a6c <__stack+0x86d>
    2a6a:	5a c1       	rjmp	.+692    	; 0x2d20 <__stack+0xb21>
    2a6c:	42 e0       	ldi	r20, 0x02	; 2
    2a6e:	50 e0       	ldi	r21, 0x00	; 0
    2a70:	6e e8       	ldi	r22, 0x8E	; 142
    2a72:	74 e0       	ldi	r23, 0x04	; 4
    2a74:	87 eb       	ldi	r24, 0xB7	; 183
    2a76:	93 e0       	ldi	r25, 0x03	; 3
    2a78:	0e 94 02 2b 	call	0x5604	; 0x5604 <strncmp_P>
    2a7c:	2a a5       	ldd	r18, Y+42	; 0x2a
    2a7e:	3b a5       	ldd	r19, Y+43	; 0x2b
    2a80:	89 2b       	or	r24, r25
    2a82:	a1 f4       	brne	.+40     	; 0x2aac <__stack+0x8ad>
    2a84:	ae 01       	movw	r20, r28
    2a86:	4f 5f       	subi	r20, 0xFF	; 255
    2a88:	5f 4f       	sbci	r21, 0xFF	; 255
    2a8a:	6f ea       	ldi	r22, 0xAF	; 175
    2a8c:	72 e0       	ldi	r23, 0x02	; 2
    2a8e:	c9 01       	movw	r24, r18
    2a90:	0e 94 63 2b 	call	0x56c6	; 0x56c6 <strtok_r>
    2a94:	4a e0       	ldi	r20, 0x0A	; 10
    2a96:	50 e0       	ldi	r21, 0x00	; 0
    2a98:	60 e0       	ldi	r22, 0x00	; 0
    2a9a:	70 e0       	ldi	r23, 0x00	; 0
    2a9c:	89 81       	ldd	r24, Y+1	; 0x01
    2a9e:	9a 81       	ldd	r25, Y+2	; 0x02
    2aa0:	0e 94 bb 29 	call	0x5376	; 0x5376 <strtoul>
    2aa4:	6f 30       	cpi	r22, 0x0F	; 15
    2aa6:	48 f4       	brcc	.+18     	; 0x2aba <__stack+0x8bb>
    2aa8:	80 e0       	ldi	r24, 0x00	; 0
    2aaa:	08 c0       	rjmp	.+16     	; 0x2abc <__stack+0x8bd>
    2aac:	61 e7       	ldi	r22, 0x71	; 113
    2aae:	74 e0       	ldi	r23, 0x04	; 4
    2ab0:	c9 01       	movw	r24, r18
    2ab2:	0e 94 1f 2b 	call	0x563e	; 0x563e <strstr_P>
    2ab6:	00 97       	sbiw	r24, 0x00	; 0
    2ab8:	21 f4       	brne	.+8      	; 0x2ac2 <__stack+0x8c3>
    2aba:	82 e0       	ldi	r24, 0x02	; 2
    2abc:	0e 94 c8 0d 	call	0x1b90	; 0x1b90 <RadioScannerP__DB__savedChannel.isra.77>
    2ac0:	2f c1       	rjmp	.+606    	; 0x2d20 <__stack+0xb21>
    2ac2:	4f e0       	ldi	r20, 0x0F	; 15
    2ac4:	50 e0       	ldi	r21, 0x00	; 0
    2ac6:	6d e5       	ldi	r22, 0x5D	; 93
    2ac8:	74 e0       	ldi	r23, 0x04	; 4
    2aca:	04 96       	adiw	r24, 0x04	; 4
    2acc:	0e 94 02 2b 	call	0x5604	; 0x5604 <strncmp_P>
    2ad0:	89 2b       	or	r24, r25
    2ad2:	99 f7       	brne	.-26     	; 0x2aba <__stack+0x8bb>
    2ad4:	81 e0       	ldi	r24, 0x01	; 1
    2ad6:	f2 cf       	rjmp	.-28     	; 0x2abc <__stack+0x8bd>
    2ad8:	80 91 b9 03 	lds	r24, 0x03B9
    2adc:	8a 30       	cpi	r24, 0x0A	; 10
    2ade:	39 f4       	brne	.+14     	; 0x2aee <__stack+0x8ef>
    2ae0:	4c e3       	ldi	r20, 0x3C	; 60
    2ae2:	60 e0       	ldi	r22, 0x00	; 0
    2ae4:	83 e6       	ldi	r24, 0x63	; 99
    2ae6:	92 e0       	ldi	r25, 0x02	; 2
    2ae8:	0e 94 a5 0d 	call	0x1b4a	; 0x1b4a <GlcdP__Glcd__drawText>
    2aec:	19 c1       	rjmp	.+562    	; 0x2d20 <__stack+0xb21>
    2aee:	ce 01       	movw	r24, r28
    2af0:	8a 96       	adiw	r24, 0x2a	; 42
    2af2:	0e 94 72 06 	call	0xce4	; 0xce4 <DatabaseP__prepareMessage.constprop.108>
    2af6:	88 23       	and	r24, r24
    2af8:	09 f4       	brne	.+2      	; 0x2afc <__stack+0x8fd>
    2afa:	12 c1       	rjmp	.+548    	; 0x2d20 <__stack+0xb21>
    2afc:	10 92 22 03 	sts	0x0322, r1
    2b00:	10 92 23 03 	sts	0x0323, r1
    2b04:	ae 01       	movw	r20, r28
    2b06:	4f 5f       	subi	r20, 0xFF	; 255
    2b08:	5f 4f       	sbci	r21, 0xFF	; 255
    2b0a:	61 eb       	ldi	r22, 0xB1	; 177
    2b0c:	72 e0       	ldi	r23, 0x02	; 2
    2b0e:	8a a5       	ldd	r24, Y+42	; 0x2a
    2b10:	9b a5       	ldd	r25, Y+43	; 0x2b
    2b12:	0e 94 63 2b 	call	0x56c6	; 0x56c6 <strtok_r>
    2b16:	00 97       	sbiw	r24, 0x00	; 0
    2b18:	d1 f0       	breq	.+52     	; 0x2b4e <__stack+0x94f>
    2b1a:	4a e0       	ldi	r20, 0x0A	; 10
    2b1c:	50 e0       	ldi	r21, 0x00	; 0
    2b1e:	60 e0       	ldi	r22, 0x00	; 0
    2b20:	70 e0       	ldi	r23, 0x00	; 0
    2b22:	0e 94 90 28 	call	0x5120	; 0x5120 <strtol>
    2b26:	6f 30       	cpi	r22, 0x0F	; 15
    2b28:	50 f4       	brcc	.+20     	; 0x2b3e <__stack+0x93f>
    2b2a:	e0 91 22 03 	lds	r30, 0x0322
    2b2e:	81 e0       	ldi	r24, 0x01	; 1
    2b30:	8e 0f       	add	r24, r30
    2b32:	80 93 22 03 	sts	0x0322, r24
    2b36:	f0 e0       	ldi	r31, 0x00	; 0
    2b38:	ee 5d       	subi	r30, 0xDE	; 222
    2b3a:	fc 4f       	sbci	r31, 0xFC	; 252
    2b3c:	62 83       	std	Z+2, r22	; 0x02
    2b3e:	ae 01       	movw	r20, r28
    2b40:	4f 5f       	subi	r20, 0xFF	; 255
    2b42:	5f 4f       	sbci	r21, 0xFF	; 255
    2b44:	61 eb       	ldi	r22, 0xB1	; 177
    2b46:	72 e0       	ldi	r23, 0x02	; 2
    2b48:	80 e0       	ldi	r24, 0x00	; 0
    2b4a:	90 e0       	ldi	r25, 0x00	; 0
    2b4c:	e2 cf       	rjmp	.-60     	; 0x2b12 <__stack+0x913>
    2b4e:	80 91 22 03 	lds	r24, 0x0322
    2b52:	88 23       	and	r24, r24
    2b54:	09 f4       	brne	.+2      	; 0x2b58 <__stack+0x959>
    2b56:	e4 c0       	rjmp	.+456    	; 0x2d20 <__stack+0xb21>
    2b58:	81 e0       	ldi	r24, 0x01	; 1
    2b5a:	80 93 38 04 	sts	0x0438, r24
    2b5e:	dd c0       	rjmp	.+442    	; 0x2d1a <__stack+0xb1b>
    2b60:	ce 01       	movw	r24, r28
    2b62:	cc 96       	adiw	r24, 0x3c	; 60
    2b64:	0e 94 72 06 	call	0xce4	; 0xce4 <DatabaseP__prepareMessage.constprop.108>
    2b68:	88 23       	and	r24, r24
    2b6a:	09 f4       	brne	.+2      	; 0x2b6e <__stack+0x96f>
    2b6c:	d2 c0       	rjmp	.+420    	; 0x2d12 <__stack+0xb13>
    2b6e:	ae 01       	movw	r20, r28
    2b70:	46 5d       	subi	r20, 0xD6	; 214
    2b72:	5f 4f       	sbci	r21, 0xFF	; 255
    2b74:	6f ea       	ldi	r22, 0xAF	; 175
    2b76:	72 e0       	ldi	r23, 0x02	; 2
    2b78:	8c ad       	ldd	r24, Y+60	; 0x3c
    2b7a:	9d ad       	ldd	r25, Y+61	; 0x3d
    2b7c:	0e 94 63 2b 	call	0x56c6	; 0x56c6 <strtok_r>
    2b80:	8c 01       	movw	r16, r24
    2b82:	00 97       	sbiw	r24, 0x00	; 0
    2b84:	09 f4       	brne	.+2      	; 0x2b88 <__stack+0x989>
    2b86:	bb c0       	rjmp	.+374    	; 0x2cfe <__stack+0xaff>
    2b88:	a3 eb       	ldi	r26, 0xB3	; 179
    2b8a:	8a 2e       	mov	r8, r26
    2b8c:	a2 e0       	ldi	r26, 0x02	; 2
    2b8e:	9a 2e       	mov	r9, r26
    2b90:	b8 e0       	ldi	r27, 0x08	; 8
    2b92:	3b 2e       	mov	r3, r27
    2b94:	3e 01       	movw	r6, r28
    2b96:	e3 e3       	ldi	r30, 0x33	; 51
    2b98:	6e 0e       	add	r6, r30
    2b9a:	71 1c       	adc	r7, r1
    2b9c:	4a a4       	ldd	r4, Y+42	; 0x2a
    2b9e:	5b a4       	ldd	r5, Y+43	; 0x2b
    2ba0:	42 e0       	ldi	r20, 0x02	; 2
    2ba2:	50 e0       	ldi	r21, 0x00	; 0
    2ba4:	6a e5       	ldi	r22, 0x5A	; 90
    2ba6:	74 e0       	ldi	r23, 0x04	; 4
    2ba8:	c8 01       	movw	r24, r16
    2baa:	0e 94 02 2b 	call	0x5604	; 0x5604 <strncmp_P>
    2bae:	89 2b       	or	r24, r25
    2bb0:	61 f4       	brne	.+24     	; 0x2bca <__stack+0x9cb>
    2bb2:	4a e0       	ldi	r20, 0x0A	; 10
    2bb4:	50 e0       	ldi	r21, 0x00	; 0
    2bb6:	60 e0       	ldi	r22, 0x00	; 0
    2bb8:	70 e0       	ldi	r23, 0x00	; 0
    2bba:	c2 01       	movw	r24, r4
    2bbc:	0e 94 bb 29 	call	0x5376	; 0x5376 <strtoul>
    2bc0:	6f 30       	cpi	r22, 0x0F	; 15
    2bc2:	08 f0       	brcs	.+2      	; 0x2bc6 <__stack+0x9c7>
    2bc4:	9c c0       	rjmp	.+312    	; 0x2cfe <__stack+0xaff>
    2bc6:	f6 2e       	mov	r15, r22
    2bc8:	8d c0       	rjmp	.+282    	; 0x2ce4 <__stack+0xae5>
    2bca:	44 e0       	ldi	r20, 0x04	; 4
    2bcc:	50 e0       	ldi	r21, 0x00	; 0
    2bce:	65 e5       	ldi	r22, 0x55	; 85
    2bd0:	74 e0       	ldi	r23, 0x04	; 4
    2bd2:	c8 01       	movw	r24, r16
    2bd4:	0e 94 02 2b 	call	0x5604	; 0x5604 <strncmp_P>
    2bd8:	89 2b       	or	r24, r25
    2bda:	81 f4       	brne	.+32     	; 0x2bfc <__stack+0x9fd>
    2bdc:	4a e0       	ldi	r20, 0x0A	; 10
    2bde:	50 e0       	ldi	r21, 0x00	; 0
    2be0:	60 e0       	ldi	r22, 0x00	; 0
    2be2:	70 e0       	ldi	r23, 0x00	; 0
    2be4:	c2 01       	movw	r24, r4
    2be6:	0e 94 bb 29 	call	0x5376	; 0x5376 <strtoul>
    2bea:	9b 01       	movw	r18, r22
    2bec:	2b 56       	subi	r18, 0x6B	; 107
    2bee:	33 40       	sbci	r19, 0x03	; 3
    2bf0:	2e 3c       	cpi	r18, 0xCE	; 206
    2bf2:	31 05       	cpc	r19, r1
    2bf4:	08 f0       	brcs	.+2      	; 0x2bf8 <__stack+0x9f9>
    2bf6:	83 c0       	rjmp	.+262    	; 0x2cfe <__stack+0xaff>
    2bf8:	6b 01       	movw	r12, r22
    2bfa:	74 c0       	rjmp	.+232    	; 0x2ce4 <__stack+0xae5>
    2bfc:	46 e0       	ldi	r20, 0x06	; 6
    2bfe:	50 e0       	ldi	r21, 0x00	; 0
    2c00:	6e e4       	ldi	r22, 0x4E	; 78
    2c02:	74 e0       	ldi	r23, 0x04	; 4
    2c04:	c8 01       	movw	r24, r16
    2c06:	0e 94 02 2b 	call	0x5604	; 0x5604 <strncmp_P>
    2c0a:	89 2b       	or	r24, r25
    2c0c:	49 f4       	brne	.+18     	; 0x2c20 <__stack+0xa21>
    2c0e:	4a e0       	ldi	r20, 0x0A	; 10
    2c10:	50 e0       	ldi	r21, 0x00	; 0
    2c12:	60 e0       	ldi	r22, 0x00	; 0
    2c14:	70 e0       	ldi	r23, 0x00	; 0
    2c16:	c2 01       	movw	r24, r4
    2c18:	0e 94 bb 29 	call	0x5376	; 0x5376 <strtoul>
    2c1c:	5b 01       	movw	r10, r22
    2c1e:	62 c0       	rjmp	.+196    	; 0x2ce4 <__stack+0xae5>
    2c20:	45 e0       	ldi	r20, 0x05	; 5
    2c22:	50 e0       	ldi	r21, 0x00	; 0
    2c24:	68 e4       	ldi	r22, 0x48	; 72
    2c26:	74 e0       	ldi	r23, 0x04	; 4
    2c28:	c8 01       	movw	r24, r16
    2c2a:	0e 94 02 2b 	call	0x5604	; 0x5604 <strncmp_P>
    2c2e:	89 2b       	or	r24, r25
    2c30:	71 f4       	brne	.+28     	; 0x2c4e <__stack+0xa4f>
    2c32:	4a e0       	ldi	r20, 0x0A	; 10
    2c34:	50 e0       	ldi	r21, 0x00	; 0
    2c36:	60 e0       	ldi	r22, 0x00	; 0
    2c38:	70 e0       	ldi	r23, 0x00	; 0
    2c3a:	c2 01       	movw	r24, r4
    2c3c:	0e 94 bb 29 	call	0x5376	; 0x5376 <strtoul>
    2c40:	8f ef       	ldi	r24, 0xFF	; 255
    2c42:	86 0f       	add	r24, r22
    2c44:	89 30       	cpi	r24, 0x09	; 9
    2c46:	08 f0       	brcs	.+2      	; 0x2c4a <__stack+0xa4b>
    2c48:	5a c0       	rjmp	.+180    	; 0x2cfe <__stack+0xaff>
    2c4a:	e6 2e       	mov	r14, r22
    2c4c:	4b c0       	rjmp	.+150    	; 0x2ce4 <__stack+0xae5>
    2c4e:	44 e0       	ldi	r20, 0x04	; 4
    2c50:	50 e0       	ldi	r21, 0x00	; 0
    2c52:	63 e4       	ldi	r22, 0x43	; 67
    2c54:	74 e0       	ldi	r23, 0x04	; 4
    2c56:	c8 01       	movw	r24, r16
    2c58:	0e 94 02 2b 	call	0x5604	; 0x5604 <strncmp_P>
    2c5c:	89 2b       	or	r24, r25
    2c5e:	39 f5       	brne	.+78     	; 0x2cae <__stack+0xaaf>
    2c60:	5f 92       	push	r5
    2c62:	4f 92       	push	r4
    2c64:	9f 92       	push	r9
    2c66:	8f 92       	push	r8
    2c68:	1f 92       	push	r1
    2c6a:	3f 92       	push	r3
    2c6c:	7f 92       	push	r7
    2c6e:	6f 92       	push	r6
    2c70:	0e 94 8a 2b 	call	0x5714	; 0x5714 <snprintf>
    2c74:	1c ae       	std	Y+60, r1	; 0x3c
    2c76:	ea a5       	ldd	r30, Y+42	; 0x2a
    2c78:	fb a5       	ldd	r31, Y+43	; 0x2b
    2c7a:	cf 01       	movw	r24, r30
    2c7c:	08 96       	adiw	r24, 0x08	; 8
    2c7e:	9b a7       	std	Y+43, r25	; 0x2b
    2c80:	8a a7       	std	Y+42, r24	; 0x2a
    2c82:	0f b6       	in	r0, 0x3f	; 63
    2c84:	f8 94       	cli
    2c86:	de bf       	out	0x3e, r29	; 62
    2c88:	0f be       	out	0x3f, r0	; 63
    2c8a:	cd bf       	out	0x3d, r28	; 61
    2c8c:	80 85       	ldd	r24, Z+8	; 0x08
    2c8e:	8c 32       	cpi	r24, 0x2C	; 44
    2c90:	b1 f5       	brne	.+108    	; 0x2cfe <__stack+0xaff>
    2c92:	cf 01       	movw	r24, r30
    2c94:	09 96       	adiw	r24, 0x09	; 9
    2c96:	9b a7       	std	Y+43, r25	; 0x2b
    2c98:	8a a7       	std	Y+42, r24	; 0x2a
    2c9a:	6c e2       	ldi	r22, 0x2C	; 44
    2c9c:	70 e0       	ldi	r23, 0x00	; 0
    2c9e:	0e 94 49 2b 	call	0x5692	; 0x5692 <strchr>
    2ca2:	00 97       	sbiw	r24, 0x00	; 0
    2ca4:	61 f1       	breq	.+88     	; 0x2cfe <__stack+0xaff>
    2ca6:	01 96       	adiw	r24, 0x01	; 1
    2ca8:	9b a7       	std	Y+43, r25	; 0x2b
    2caa:	8a a7       	std	Y+42, r24	; 0x2a
    2cac:	1b c0       	rjmp	.+54     	; 0x2ce4 <__stack+0xae5>
    2cae:	44 e0       	ldi	r20, 0x04	; 4
    2cb0:	50 e0       	ldi	r21, 0x00	; 0
    2cb2:	6e e3       	ldi	r22, 0x3E	; 62
    2cb4:	74 e0       	ldi	r23, 0x04	; 4
    2cb6:	c8 01       	movw	r24, r16
    2cb8:	0e 94 02 2b 	call	0x5604	; 0x5604 <strncmp_P>
    2cbc:	89 2b       	or	r24, r25
    2cbe:	91 f4       	brne	.+36     	; 0x2ce4 <__stack+0xae5>
    2cc0:	48 e2       	ldi	r20, 0x28	; 40
    2cc2:	50 e0       	ldi	r21, 0x00	; 0
    2cc4:	b2 01       	movw	r22, r4
    2cc6:	ce 01       	movw	r24, r28
    2cc8:	01 96       	adiw	r24, 0x01	; 1
    2cca:	0e 94 54 2b 	call	0x56a8	; 0x56a8 <strncpy>
    2cce:	6d 96       	adiw	r28, 0x1d	; 29
    2cd0:	1f ae       	std	Y+63, r1	; 0x3f
    2cd2:	6d 97       	sbiw	r28, 0x1d	; 29
    2cd4:	8e 01       	movw	r16, r28
    2cd6:	0d 5c       	subi	r16, 0xCD	; 205
    2cd8:	1f 4f       	sbci	r17, 0xFF	; 255
    2cda:	95 01       	movw	r18, r10
    2cdc:	a6 01       	movw	r20, r12
    2cde:	6e 2d       	mov	r22, r14
    2ce0:	8f 2d       	mov	r24, r15
    2ce2:	15 c0       	rjmp	.+42     	; 0x2d0e <__stack+0xb0f>
    2ce4:	ae 01       	movw	r20, r28
    2ce6:	46 5d       	subi	r20, 0xD6	; 214
    2ce8:	5f 4f       	sbci	r21, 0xFF	; 255
    2cea:	6f ea       	ldi	r22, 0xAF	; 175
    2cec:	72 e0       	ldi	r23, 0x02	; 2
    2cee:	80 e0       	ldi	r24, 0x00	; 0
    2cf0:	90 e0       	ldi	r25, 0x00	; 0
    2cf2:	0e 94 63 2b 	call	0x56c6	; 0x56c6 <strtok_r>
    2cf6:	8c 01       	movw	r16, r24
    2cf8:	00 97       	sbiw	r24, 0x00	; 0
    2cfa:	09 f0       	breq	.+2      	; 0x2cfe <__stack+0xaff>
    2cfc:	4f cf       	rjmp	.-354    	; 0x2b9c <__stack+0x99d>
    2cfe:	0f a5       	ldd	r16, Y+47	; 0x2f
    2d00:	18 a9       	ldd	r17, Y+48	; 0x30
    2d02:	2d a5       	ldd	r18, Y+45	; 0x2d
    2d04:	3e a5       	ldd	r19, Y+46	; 0x2e
    2d06:	4b a5       	ldd	r20, Y+43	; 0x2b
    2d08:	5c a5       	ldd	r21, Y+44	; 0x2c
    2d0a:	6a a5       	ldd	r22, Y+42	; 0x2a
    2d0c:	8e ef       	ldi	r24, 0xFE	; 254
    2d0e:	0e 94 b2 25 	call	0x4b64	; 0x4b64 <RadioScannerP__DB__receivedChannelEntry.isra.61>
    2d12:	80 91 38 04 	lds	r24, 0x0438
    2d16:	88 23       	and	r24, r24
    2d18:	19 f0       	breq	.+6      	; 0x2d20 <__stack+0xb21>
    2d1a:	80 e1       	ldi	r24, 0x10	; 16
    2d1c:	0e 94 12 03 	call	0x624	; 0x624 <SchedulerBasicP__TaskBasic__postTask>
    2d20:	8f b7       	in	r24, 0x3f	; 63
    2d22:	f8 94       	cli
    2d24:	10 92 39 04 	sts	0x0439, r1
    2d28:	8f bf       	out	0x3f, r24	; 63
    2d2a:	0c 94 f3 20 	jmp	0x41e6	; 0x41e6 <__stack+0x1fe7>
    2d2e:	40 91 23 03 	lds	r20, 0x0323
    2d32:	24 2f       	mov	r18, r20
    2d34:	30 e0       	ldi	r19, 0x00	; 0
    2d36:	80 91 22 03 	lds	r24, 0x0322
    2d3a:	90 e0       	ldi	r25, 0x00	; 0
    2d3c:	82 1b       	sub	r24, r18
    2d3e:	93 0b       	sbc	r25, r19
    2d40:	18 16       	cp	r1, r24
    2d42:	19 06       	cpc	r1, r25
    2d44:	0c f0       	brlt	.+2      	; 0x2d48 <__stack+0xb49>
    2d46:	53 c0       	rjmp	.+166    	; 0x2dee <__stack+0xbef>
    2d48:	4f 5f       	subi	r20, 0xFF	; 255
    2d4a:	40 93 23 03 	sts	0x0323, r20
    2d4e:	f9 01       	movw	r30, r18
    2d50:	ee 5d       	subi	r30, 0xDE	; 222
    2d52:	fc 4f       	sbci	r31, 0xFC	; 252
    2d54:	b2 80       	ldd	r11, Z+2	; 0x02
    2d56:	9f b7       	in	r25, 0x3f	; 63
    2d58:	f8 94       	cli
    2d5a:	80 91 39 04 	lds	r24, 0x0439
    2d5e:	9f bf       	out	0x3f, r25	; 63
    2d60:	81 11       	cpse	r24, r1
    2d62:	0c 94 f3 20 	jmp	0x41e6	; 0x41e6 <__stack+0x1fe7>
    2d66:	8f b7       	in	r24, 0x3f	; 63
    2d68:	f8 94       	cli
    2d6a:	94 e0       	ldi	r25, 0x04	; 4
    2d6c:	90 93 39 04 	sts	0x0439, r25
    2d70:	8f bf       	out	0x3f, r24	; 63
    2d72:	44 e0       	ldi	r20, 0x04	; 4
    2d74:	50 e0       	ldi	r21, 0x00	; 0
    2d76:	6d e6       	ldi	r22, 0x6D	; 109
    2d78:	74 e0       	ldi	r23, 0x04	; 4
    2d7a:	de 01       	movw	r26, r28
    2d7c:	11 96       	adiw	r26, 0x01	; 1
    2d7e:	7d 01       	movw	r14, r26
    2d80:	cd 01       	movw	r24, r26
    2d82:	0e 94 10 2b 	call	0x5620	; 0x5620 <strncpy_P>
    2d86:	6e 01       	movw	r12, r28
    2d88:	ba e2       	ldi	r27, 0x2A	; 42
    2d8a:	cb 0e       	add	r12, r27
    2d8c:	d1 1c       	adc	r13, r1
    2d8e:	43 e0       	ldi	r20, 0x03	; 3
    2d90:	50 e0       	ldi	r21, 0x00	; 0
    2d92:	6a e5       	ldi	r22, 0x5A	; 90
    2d94:	74 e0       	ldi	r23, 0x04	; 4
    2d96:	c6 01       	movw	r24, r12
    2d98:	0e 94 10 2b 	call	0x5620	; 0x5620 <strncpy_P>
    2d9c:	05 e3       	ldi	r16, 0x35	; 53
    2d9e:	13 e0       	ldi	r17, 0x03	; 3
    2da0:	80 e8       	ldi	r24, 0x80	; 128
    2da2:	f8 01       	movw	r30, r16
    2da4:	11 92       	st	Z+, r1
    2da6:	8a 95       	dec	r24
    2da8:	e9 f7       	brne	.-6      	; 0x2da4 <__stack+0xba5>
    2daa:	1f 92       	push	r1
    2dac:	bf 92       	push	r11
    2dae:	df 92       	push	r13
    2db0:	cf 92       	push	r12
    2db2:	ff 92       	push	r15
    2db4:	ef 92       	push	r14
    2db6:	88 eb       	ldi	r24, 0xB8	; 184
    2db8:	92 e0       	ldi	r25, 0x02	; 2
    2dba:	9f 93       	push	r25
    2dbc:	8f 93       	push	r24
    2dbe:	1f 93       	push	r17
    2dc0:	0f 93       	push	r16
    2dc2:	0e 94 c7 2b 	call	0x578e	; 0x578e <sprintf>
    2dc6:	f8 01       	movw	r30, r16
    2dc8:	01 90       	ld	r0, Z+
    2dca:	00 20       	and	r0, r0
    2dcc:	e9 f7       	brne	.-6      	; 0x2dc8 <__stack+0xbc9>
    2dce:	8f 01       	movw	r16, r30
    2dd0:	06 53       	subi	r16, 0x36	; 54
    2dd2:	13 40       	sbci	r17, 0x03	; 3
    2dd4:	10 93 34 03 	sts	0x0334, r17
    2dd8:	00 93 33 03 	sts	0x0333, r16
    2ddc:	0e 94 37 03 	call	0x66e	; 0x66e <DatabaseP__sendTask__postTask>
    2de0:	0f b6       	in	r0, 0x3f	; 63
    2de2:	f8 94       	cli
    2de4:	de bf       	out	0x3e, r29	; 62
    2de6:	0f be       	out	0x3f, r0	; 63
    2de8:	cd bf       	out	0x3d, r28	; 61
    2dea:	0c 94 f3 20 	jmp	0x41e6	; 0x41e6 <__stack+0x1fe7>
    2dee:	10 92 38 04 	sts	0x0438, r1
    2df2:	10 92 22 03 	sts	0x0322, r1
    2df6:	10 92 23 03 	sts	0x0323, r1
    2dfa:	8f b7       	in	r24, 0x3f	; 63
    2dfc:	f8 94       	cli
    2dfe:	10 92 39 04 	sts	0x0439, r1
    2e02:	8f bf       	out	0x3f, r24	; 63
    2e04:	4c e3       	ldi	r20, 0x3C	; 60
    2e06:	60 e0       	ldi	r22, 0x00	; 0
    2e08:	83 e6       	ldi	r24, 0x63	; 99
    2e0a:	92 e0       	ldi	r25, 0x02	; 2
    2e0c:	0e 94 a5 0d 	call	0x1b4a	; 0x1b4a <GlcdP__Glcd__drawText>
    2e10:	0c 94 f3 20 	jmp	0x41e6	; 0x41e6 <__stack+0x1fe7>
    2e14:	80 91 1c 03 	lds	r24, 0x031C
    2e18:	81 11       	cpse	r24, r1
    2e1a:	0c 94 f3 20 	jmp	0x41e6	; 0x41e6 <__stack+0x1fe7>
    2e1e:	80 91 1d 03 	lds	r24, 0x031D
    2e22:	8f 5f       	subi	r24, 0xFF	; 255
    2e24:	81 70       	andi	r24, 0x01	; 1
    2e26:	80 93 1d 03 	sts	0x031D, r24
    2e2a:	ed e0       	ldi	r30, 0x0D	; 13
    2e2c:	e8 9f       	mul	r30, r24
    2e2e:	d0 01       	movw	r26, r0
    2e30:	11 24       	eor	r1, r1
    2e32:	ad 53       	subi	r26, 0x3D	; 61
    2e34:	b3 4f       	sbci	r27, 0xF3	; 243
    2e36:	9c 91       	ld	r25, X
    2e38:	91 30       	cpi	r25, 0x01	; 1
    2e3a:	09 f4       	brne	.+2      	; 0x2e3e <__stack+0xc3f>
    2e3c:	45 c7       	rjmp	.+3722   	; 0x3cc8 <__stack+0x1ac9>
    2e3e:	8f 5f       	subi	r24, 0xFF	; 255
    2e40:	81 70       	andi	r24, 0x01	; 1
    2e42:	80 93 1d 03 	sts	0x031D, r24
    2e46:	e8 9f       	mul	r30, r24
    2e48:	f0 01       	movw	r30, r0
    2e4a:	11 24       	eor	r1, r1
    2e4c:	ed 53       	subi	r30, 0x3D	; 61
    2e4e:	f3 4f       	sbci	r31, 0xF3	; 243
    2e50:	80 81       	ld	r24, Z
    2e52:	81 30       	cpi	r24, 0x01	; 1
    2e54:	11 f0       	breq	.+4      	; 0x2e5a <__stack+0xc5b>
    2e56:	0c 94 f3 20 	jmp	0x41e6	; 0x41e6 <__stack+0x1fe7>
    2e5a:	36 c7       	rjmp	.+3692   	; 0x3cc8 <__stack+0x1ac9>
    2e5c:	80 91 0d 0d 	lds	r24, 0x0D0D
    2e60:	81 11       	cpse	r24, r1
    2e62:	41 c0       	rjmp	.+130    	; 0x2ee6 <__stack+0xce7>
    2e64:	40 91 d1 12 	lds	r20, 0x12D1
    2e68:	50 91 d2 12 	lds	r21, 0x12D2
    2e6c:	60 91 d3 12 	lds	r22, 0x12D3
    2e70:	70 91 d4 12 	lds	r23, 0x12D4
    2e74:	2f b7       	in	r18, 0x3f	; 63
    2e76:	f8 94       	cli
    2e78:	c0 90 58 12 	lds	r12, 0x1258
    2e7c:	d0 90 59 12 	lds	r13, 0x1259
    2e80:	e0 90 5a 12 	lds	r14, 0x125A
    2e84:	f0 90 5b 12 	lds	r15, 0x125B
    2e88:	80 91 07 0d 	lds	r24, 0x0D07
    2e8c:	90 91 08 0d 	lds	r25, 0x0D08
    2e90:	a0 91 09 0d 	lds	r26, 0x0D09
    2e94:	b0 91 0a 0d 	lds	r27, 0x0D0A
    2e98:	8c 0d       	add	r24, r12
    2e9a:	9d 1d       	adc	r25, r13
    2e9c:	ae 1d       	adc	r26, r14
    2e9e:	bf 1d       	adc	r27, r15
    2ea0:	2f bf       	out	0x3f, r18	; 63
    2ea2:	40 93 d1 12 	sts	0x12D1, r20
    2ea6:	50 93 d2 12 	sts	0x12D2, r21
    2eaa:	60 93 d3 12 	sts	0x12D3, r22
    2eae:	70 93 d4 12 	sts	0x12D4, r23
    2eb2:	10 92 0d 0d 	sts	0x0D0D, r1
    2eb6:	2f b7       	in	r18, 0x3f	; 63
    2eb8:	f8 94       	cli
    2eba:	31 e0       	ldi	r19, 0x01	; 1
    2ebc:	30 93 4b 08 	sts	0x084B, r19
    2ec0:	80 93 07 0d 	sts	0x0D07, r24
    2ec4:	90 93 08 0d 	sts	0x0D08, r25
    2ec8:	a0 93 09 0d 	sts	0x0D09, r26
    2ecc:	b0 93 0a 0d 	sts	0x0D0A, r27
    2ed0:	40 93 58 12 	sts	0x1258, r20
    2ed4:	50 93 59 12 	sts	0x1259, r21
    2ed8:	60 93 5a 12 	sts	0x125A, r22
    2edc:	70 93 5b 12 	sts	0x125B, r23
    2ee0:	2f bf       	out	0x3f, r18	; 63
    2ee2:	0e 94 58 04 	call	0x8b0	; 0x8b0 <Atm1280AlarmSyncP__0__checkAlarm>
    2ee6:	0e 94 70 03 	call	0x6e0	; 0x6e0 <Atm1280AlarmSyncP__0__Counter__get>
    2eea:	0e 94 91 09 	call	0x1322	; 0x1322 <VirtualizeTimerC__0__fireTimers>
    2eee:	0c 94 f3 20 	jmp	0x41e6	; 0x41e6 <__stack+0x1fe7>
    2ef2:	0e 94 8c 0a 	call	0x1518	; 0x1518 <VirtualizeTimerC__0__updateFromTimer__runTask>
    2ef6:	0c 94 f3 20 	jmp	0x41e6	; 0x41e6 <__stack+0x1fe7>
    2efa:	80 91 16 03 	lds	r24, 0x0316
    2efe:	81 11       	cpse	r24, r1
    2f00:	0c 94 f3 20 	jmp	0x41e6	; 0x41e6 <__stack+0x1fe7>
    2f04:	80 91 17 03 	lds	r24, 0x0317
    2f08:	90 e0       	ldi	r25, 0x00	; 0
    2f0a:	01 96       	adiw	r24, 0x01	; 1
    2f0c:	81 70       	andi	r24, 0x01	; 1
    2f0e:	99 27       	eor	r25, r25
    2f10:	80 93 17 03 	sts	0x0317, r24
    2f14:	2d e1       	ldi	r18, 0x1D	; 29
    2f16:	28 9f       	mul	r18, r24
    2f18:	f0 01       	movw	r30, r0
    2f1a:	29 9f       	mul	r18, r25
    2f1c:	f0 0d       	add	r31, r0
    2f1e:	11 24       	eor	r1, r1
    2f20:	ec 56       	subi	r30, 0x6C	; 108
    2f22:	fd 4e       	sbci	r31, 0xED	; 237
    2f24:	30 81       	ld	r19, Z
    2f26:	31 30       	cpi	r19, 0x01	; 1
    2f28:	09 f4       	brne	.+2      	; 0x2f2c <__stack+0xd2d>
    2f2a:	26 c7       	rjmp	.+3660   	; 0x3d78 <__stack+0x1b79>
    2f2c:	01 96       	adiw	r24, 0x01	; 1
    2f2e:	81 70       	andi	r24, 0x01	; 1
    2f30:	99 27       	eor	r25, r25
    2f32:	80 93 17 03 	sts	0x0317, r24
    2f36:	28 9f       	mul	r18, r24
    2f38:	f0 01       	movw	r30, r0
    2f3a:	29 9f       	mul	r18, r25
    2f3c:	f0 0d       	add	r31, r0
    2f3e:	11 24       	eor	r1, r1
    2f40:	ec 56       	subi	r30, 0x6C	; 108
    2f42:	fd 4e       	sbci	r31, 0xED	; 237
    2f44:	80 81       	ld	r24, Z
    2f46:	81 30       	cpi	r24, 0x01	; 1
    2f48:	11 f0       	breq	.+4      	; 0x2f4e <__stack+0xd4f>
    2f4a:	0c 94 f3 20 	jmp	0x41e6	; 0x41e6 <__stack+0x1fe7>
    2f4e:	14 c7       	rjmp	.+3624   	; 0x3d78 <__stack+0x1b79>
    2f50:	80 91 14 03 	lds	r24, 0x0314
    2f54:	81 11       	cpse	r24, r1
    2f56:	0c 94 f3 20 	jmp	0x41e6	; 0x41e6 <__stack+0x1fe7>
    2f5a:	e0 91 15 03 	lds	r30, 0x0315
    2f5e:	ef 5f       	subi	r30, 0xFF	; 255
    2f60:	e1 70       	andi	r30, 0x01	; 1
    2f62:	e0 93 15 03 	sts	0x0315, r30
    2f66:	ae 2f       	mov	r26, r30
    2f68:	b0 e0       	ldi	r27, 0x00	; 0
    2f6a:	f3 e0       	ldi	r31, 0x03	; 3
    2f6c:	aa 0f       	add	r26, r26
    2f6e:	bb 1f       	adc	r27, r27
    2f70:	fa 95       	dec	r31
    2f72:	e1 f7       	brne	.-8      	; 0x2f6c <__stack+0xd6d>
    2f74:	a0 5d       	subi	r26, 0xD0	; 208
    2f76:	b0 4f       	sbci	r27, 0xF0	; 240
    2f78:	8c 91       	ld	r24, X
    2f7a:	81 30       	cpi	r24, 0x01	; 1
    2f7c:	09 f4       	brne	.+2      	; 0x2f80 <__stack+0xd81>
    2f7e:	3e c7       	rjmp	.+3708   	; 0x3dfc <__stack+0x1bfd>
    2f80:	ef 5f       	subi	r30, 0xFF	; 255
    2f82:	e1 70       	andi	r30, 0x01	; 1
    2f84:	e0 93 15 03 	sts	0x0315, r30
    2f88:	f0 e0       	ldi	r31, 0x00	; 0
    2f8a:	73 e0       	ldi	r23, 0x03	; 3
    2f8c:	ee 0f       	add	r30, r30
    2f8e:	ff 1f       	adc	r31, r31
    2f90:	7a 95       	dec	r23
    2f92:	e1 f7       	brne	.-8      	; 0x2f8c <__stack+0xd8d>
    2f94:	e0 5d       	subi	r30, 0xD0	; 208
    2f96:	f0 4f       	sbci	r31, 0xF0	; 240
    2f98:	80 81       	ld	r24, Z
    2f9a:	81 30       	cpi	r24, 0x01	; 1
    2f9c:	11 f0       	breq	.+4      	; 0x2fa2 <__stack+0xda3>
    2f9e:	0c 94 f3 20 	jmp	0x41e6	; 0x41e6 <__stack+0x1fe7>
    2fa2:	2c c7       	rjmp	.+3672   	; 0x3dfc <__stack+0x1bfd>
    2fa4:	80 91 12 03 	lds	r24, 0x0312
    2fa8:	81 11       	cpse	r24, r1
    2faa:	0c 94 f3 20 	jmp	0x41e6	; 0x41e6 <__stack+0x1fe7>
    2fae:	80 91 13 03 	lds	r24, 0x0313
    2fb2:	8f 5f       	subi	r24, 0xFF	; 255
    2fb4:	81 70       	andi	r24, 0x01	; 1
    2fb6:	80 93 13 03 	sts	0x0313, r24
    2fba:	eb e0       	ldi	r30, 0x0B	; 11
    2fbc:	e8 9f       	mul	r30, r24
    2fbe:	d0 01       	movw	r26, r0
    2fc0:	11 24       	eor	r1, r1
    2fc2:	a4 5a       	subi	r26, 0xA4	; 164
    2fc4:	bd 4e       	sbci	r27, 0xED	; 237
    2fc6:	9c 91       	ld	r25, X
    2fc8:	91 30       	cpi	r25, 0x01	; 1
    2fca:	11 f4       	brne	.+4      	; 0x2fd0 <__stack+0xdd1>
    2fcc:	0c 94 11 20 	jmp	0x4022	; 0x4022 <__stack+0x1e23>
    2fd0:	8f 5f       	subi	r24, 0xFF	; 255
    2fd2:	81 70       	andi	r24, 0x01	; 1
    2fd4:	80 93 13 03 	sts	0x0313, r24
    2fd8:	e8 9f       	mul	r30, r24
    2fda:	f0 01       	movw	r30, r0
    2fdc:	11 24       	eor	r1, r1
    2fde:	e4 5a       	subi	r30, 0xA4	; 164
    2fe0:	fd 4e       	sbci	r31, 0xED	; 237
    2fe2:	80 81       	ld	r24, Z
    2fe4:	81 30       	cpi	r24, 0x01	; 1
    2fe6:	11 f0       	breq	.+4      	; 0x2fec <__stack+0xded>
    2fe8:	0c 94 f3 20 	jmp	0x41e6	; 0x41e6 <__stack+0x1fe7>
    2fec:	0c 94 11 20 	jmp	0x4022	; 0x4022 <__stack+0x1e23>
    2ff0:	81 e0       	ldi	r24, 0x01	; 1
    2ff2:	80 93 0e 03 	sts	0x030E, r24
    2ff6:	0e 94 30 08 	call	0x1060	; 0x1060 <Atm1280SpiP__Resource__request.constprop.124>
    2ffa:	0c 94 f3 20 	jmp	0x41e6	; 0x41e6 <__stack+0x1fe7>
    2ffe:	8f b7       	in	r24, 0x3f	; 63
    3000:	f8 94       	cli
    3002:	10 92 4d 08 	sts	0x084D, r1
    3006:	10 92 4c 08 	sts	0x084C, r1
    300a:	10 92 0c 0d 	sts	0x0D0C, r1
    300e:	10 92 0b 0d 	sts	0x0D0B, r1
    3012:	10 92 3b 13 	sts	0x133B, r1
    3016:	10 92 3a 13 	sts	0x133A, r1
    301a:	10 92 49 0f 	sts	0x0F49, r1
    301e:	10 92 48 0f 	sts	0x0F48, r1
    3022:	8f bf       	out	0x3f, r24	; 63
    3024:	0c 94 f3 20 	jmp	0x41e6	; 0x41e6 <__stack+0x1fe7>
    3028:	8f b7       	in	r24, 0x3f	; 63
    302a:	f8 94       	cli
    302c:	92 e0       	ldi	r25, 0x02	; 2
    302e:	90 93 0d 03 	sts	0x030D, r25
    3032:	8f bf       	out	0x3f, r24	; 63
    3034:	80 91 11 02 	lds	r24, 0x0211
    3038:	81 11       	cpse	r24, r1
    303a:	0c 94 f3 20 	jmp	0x41e6	; 0x41e6 <__stack+0x1fe7>
    303e:	0e 94 f6 02 	call	0x5ec	; 0x5ec <HplAtm128GeneralIOPinP__8__IO__set>
    3042:	80 91 11 03 	lds	r24, 0x0311
    3046:	81 30       	cpi	r24, 0x01	; 1
    3048:	21 f0       	breq	.+8      	; 0x3052 <__stack+0xe53>
    304a:	82 30       	cpi	r24, 0x02	; 2
    304c:	09 f4       	brne	.+2      	; 0x3050 <__stack+0xe51>
    304e:	98 c0       	rjmp	.+304    	; 0x3180 <__stack+0xf81>
    3050:	76 c1       	rjmp	.+748    	; 0x333e <__stack+0x113f>
    3052:	6f ef       	ldi	r22, 0xFF	; 255
    3054:	8f ef       	ldi	r24, 0xFF	; 255
    3056:	0e 94 ae 03 	call	0x75c	; 0x75c <Enc28j60P__writeSPI>
    305a:	8d e1       	ldi	r24, 0x1D	; 29
    305c:	0e 94 c4 03 	call	0x788	; 0x788 <Enc28j60P__readSPI>
    3060:	80 ff       	sbrs	r24, 0
    3062:	fb cf       	rjmp	.-10     	; 0x305a <__stack+0xe5b>
    3064:	80 e0       	ldi	r24, 0x00	; 0
    3066:	0e 94 36 0b 	call	0x166c	; 0x166c <Enc28j60P__setBank>
    306a:	60 e0       	ldi	r22, 0x00	; 0
    306c:	76 e0       	ldi	r23, 0x06	; 6
    306e:	88 e0       	ldi	r24, 0x08	; 8
    3070:	0e 94 01 08 	call	0x1002	; 0x1002 <Enc28j60P__writeReg16>
    3074:	80 e0       	ldi	r24, 0x00	; 0
    3076:	96 e0       	ldi	r25, 0x06	; 6
    3078:	90 93 15 02 	sts	0x0215, r25
    307c:	80 93 14 02 	sts	0x0214, r24
    3080:	60 e0       	ldi	r22, 0x00	; 0
    3082:	76 e0       	ldi	r23, 0x06	; 6
    3084:	8c e0       	ldi	r24, 0x0C	; 12
    3086:	0e 94 01 08 	call	0x1002	; 0x1002 <Enc28j60P__writeReg16>
    308a:	6f ef       	ldi	r22, 0xFF	; 255
    308c:	7f e1       	ldi	r23, 0x1F	; 31
    308e:	8a e0       	ldi	r24, 0x0A	; 10
    3090:	0e 94 01 08 	call	0x1002	; 0x1002 <Enc28j60P__writeReg16>
    3094:	60 e0       	ldi	r22, 0x00	; 0
    3096:	70 e0       	ldi	r23, 0x00	; 0
    3098:	84 e0       	ldi	r24, 0x04	; 4
    309a:	0e 94 01 08 	call	0x1002	; 0x1002 <Enc28j60P__writeReg16>
    309e:	60 e8       	ldi	r22, 0x80	; 128
    30a0:	8e e5       	ldi	r24, 0x5E	; 94
    30a2:	0e 94 ae 03 	call	0x75c	; 0x75c <Enc28j60P__writeSPI>
    30a6:	81 e0       	ldi	r24, 0x01	; 1
    30a8:	0e 94 36 0b 	call	0x166c	; 0x166c <Enc28j60P__setBank>
    30ac:	61 ea       	ldi	r22, 0xA1	; 161
    30ae:	88 e5       	ldi	r24, 0x58	; 88
    30b0:	0e 94 ae 03 	call	0x75c	; 0x75c <Enc28j60P__writeSPI>
    30b4:	82 e0       	ldi	r24, 0x02	; 2
    30b6:	0e 94 36 0b 	call	0x166c	; 0x166c <Enc28j60P__setBank>
    30ba:	60 e0       	ldi	r22, 0x00	; 0
    30bc:	81 e4       	ldi	r24, 0x41	; 65
    30be:	0e 94 ae 03 	call	0x75c	; 0x75c <Enc28j60P__writeSPI>
    30c2:	61 e0       	ldi	r22, 0x01	; 1
    30c4:	80 e4       	ldi	r24, 0x40	; 64
    30c6:	0e 94 ae 03 	call	0x75c	; 0x75c <Enc28j60P__writeSPI>
    30ca:	63 e3       	ldi	r22, 0x33	; 51
    30cc:	82 e4       	ldi	r24, 0x42	; 66
    30ce:	0e 94 ae 03 	call	0x75c	; 0x75c <Enc28j60P__writeSPI>
    30d2:	60 e0       	ldi	r22, 0x00	; 0
    30d4:	83 e4       	ldi	r24, 0x43	; 67
    30d6:	0e 94 ae 03 	call	0x75c	; 0x75c <Enc28j60P__writeSPI>
    30da:	6a e2       	ldi	r22, 0x2A	; 42
    30dc:	72 e0       	ldi	r23, 0x02	; 2
    30de:	8a e0       	ldi	r24, 0x0A	; 10
    30e0:	0e 94 01 08 	call	0x1002	; 0x1002 <Enc28j60P__writeReg16>
    30e4:	65 e1       	ldi	r22, 0x15	; 21
    30e6:	84 e4       	ldi	r24, 0x44	; 68
    30e8:	0e 94 ae 03 	call	0x75c	; 0x75c <Enc28j60P__writeSPI>
    30ec:	90 91 28 02 	lds	r25, 0x0228
    30f0:	80 91 29 02 	lds	r24, 0x0229
    30f4:	90 93 1b 02 	sts	0x021B, r25
    30f8:	80 93 1a 02 	sts	0x021A, r24
    30fc:	83 e0       	ldi	r24, 0x03	; 3
    30fe:	0e 94 36 0b 	call	0x166c	; 0x166c <Enc28j60P__setBank>
    3102:	60 91 1b 02 	lds	r22, 0x021B
    3106:	81 e4       	ldi	r24, 0x41	; 65
    3108:	0e 94 ae 03 	call	0x75c	; 0x75c <Enc28j60P__writeSPI>
    310c:	60 91 1a 02 	lds	r22, 0x021A
    3110:	80 e4       	ldi	r24, 0x40	; 64
    3112:	0e 94 ae 03 	call	0x75c	; 0x75c <Enc28j60P__writeSPI>
    3116:	60 91 19 02 	lds	r22, 0x0219
    311a:	83 e4       	ldi	r24, 0x43	; 67
    311c:	0e 94 ae 03 	call	0x75c	; 0x75c <Enc28j60P__writeSPI>
    3120:	60 91 18 02 	lds	r22, 0x0218
    3124:	82 e4       	ldi	r24, 0x42	; 66
    3126:	0e 94 ae 03 	call	0x75c	; 0x75c <Enc28j60P__writeSPI>
    312a:	60 91 17 02 	lds	r22, 0x0217
    312e:	85 e4       	ldi	r24, 0x45	; 69
    3130:	0e 94 ae 03 	call	0x75c	; 0x75c <Enc28j60P__writeSPI>
    3134:	60 91 16 02 	lds	r22, 0x0216
    3138:	84 e4       	ldi	r24, 0x44	; 68
    313a:	0e 94 ae 03 	call	0x75c	; 0x75c <Enc28j60P__writeSPI>
    313e:	82 e0       	ldi	r24, 0x02	; 2
    3140:	0e 94 36 0b 	call	0x166c	; 0x166c <Enc28j60P__setBank>
    3144:	64 e1       	ldi	r22, 0x14	; 20
    3146:	84 e5       	ldi	r24, 0x54	; 84
    3148:	0e 94 ae 03 	call	0x75c	; 0x75c <Enc28j60P__writeSPI>
    314c:	60 e4       	ldi	r22, 0x40	; 64
    314e:	71 e0       	ldi	r23, 0x01	; 1
    3150:	86 e1       	ldi	r24, 0x16	; 22
    3152:	0e 94 01 08 	call	0x1002	; 0x1002 <Enc28j60P__writeReg16>
    3156:	62 e1       	ldi	r22, 0x12	; 18
    3158:	84 e5       	ldi	r24, 0x54	; 84
    315a:	0e 94 ae 03 	call	0x75c	; 0x75c <Enc28j60P__writeSPI>
    315e:	62 e1       	ldi	r22, 0x12	; 18
    3160:	70 e0       	ldi	r23, 0x00	; 0
    3162:	86 e1       	ldi	r24, 0x16	; 22
    3164:	0e 94 01 08 	call	0x1002	; 0x1002 <Enc28j60P__writeReg16>
    3168:	60 ed       	ldi	r22, 0xD0	; 208
    316a:	8b e5       	ldi	r24, 0x5B	; 91
    316c:	0e 94 ae 03 	call	0x75c	; 0x75c <Enc28j60P__writeSPI>
    3170:	64 e0       	ldi	r22, 0x04	; 4
    3172:	8f e1       	ldi	r24, 0x1F	; 31
    3174:	0e 94 da 03 	call	0x7b4	; 0x7b4 <Enc28j60P__setBit>
    3178:	82 e0       	ldi	r24, 0x02	; 2
    317a:	80 93 11 03 	sts	0x0311, r24
    317e:	df c0       	rjmp	.+446    	; 0x333e <__stack+0x113f>
    3180:	80 91 0e 03 	lds	r24, 0x030E
    3184:	88 23       	and	r24, r24
    3186:	09 f4       	brne	.+2      	; 0x318a <__stack+0xf8b>
    3188:	3f c0       	rjmp	.+126    	; 0x3208 <__stack+0x1009>
    318a:	10 92 0e 03 	sts	0x030E, r1
    318e:	8c e1       	ldi	r24, 0x1C	; 28
    3190:	0e 94 c4 03 	call	0x788	; 0x788 <Enc28j60P__readSPI>
    3194:	18 2f       	mov	r17, r24
    3196:	84 ff       	sbrs	r24, 4
    3198:	20 c0       	rjmp	.+64     	; 0x31da <__stack+0xfdb>
    319a:	82 e0       	ldi	r24, 0x02	; 2
    319c:	0e 94 36 0b 	call	0x166c	; 0x166c <Enc28j60P__setBank>
    31a0:	63 e1       	ldi	r22, 0x13	; 19
    31a2:	84 e5       	ldi	r24, 0x54	; 84
    31a4:	0e 94 ae 03 	call	0x75c	; 0x75c <Enc28j60P__writeSPI>
    31a8:	61 e0       	ldi	r22, 0x01	; 1
    31aa:	82 e5       	ldi	r24, 0x52	; 82
    31ac:	0e 94 ae 03 	call	0x75c	; 0x75c <Enc28j60P__writeSPI>
    31b0:	83 e0       	ldi	r24, 0x03	; 3
    31b2:	0e 94 36 0b 	call	0x166c	; 0x166c <Enc28j60P__setBank>
    31b6:	8a e0       	ldi	r24, 0x0A	; 10
    31b8:	0e 94 89 24 	call	0x4912	; 0x4912 <Enc28j60P__readRegM>
    31bc:	80 fd       	sbrc	r24, 0
    31be:	fb cf       	rjmp	.-10     	; 0x31b6 <__stack+0xfb7>
    31c0:	82 e0       	ldi	r24, 0x02	; 2
    31c2:	0e 94 36 0b 	call	0x166c	; 0x166c <Enc28j60P__setBank>
    31c6:	60 e0       	ldi	r22, 0x00	; 0
    31c8:	82 e5       	ldi	r24, 0x52	; 82
    31ca:	0e 94 ae 03 	call	0x75c	; 0x75c <Enc28j60P__writeSPI>
    31ce:	88 e1       	ldi	r24, 0x18	; 24
    31d0:	0e 94 89 24 	call	0x4912	; 0x4912 <Enc28j60P__readRegM>
    31d4:	89 e1       	ldi	r24, 0x19	; 25
    31d6:	0e 94 89 24 	call	0x4912	; 0x4912 <Enc28j60P__readRegM>
    31da:	81 e0       	ldi	r24, 0x01	; 1
    31dc:	0e 94 36 0b 	call	0x166c	; 0x166c <Enc28j60P__setBank>
    31e0:	89 e1       	ldi	r24, 0x19	; 25
    31e2:	0e 94 c4 03 	call	0x788	; 0x788 <Enc28j60P__readSPI>
    31e6:	88 23       	and	r24, r24
    31e8:	19 f0       	breq	.+6      	; 0x31f0 <__stack+0xff1>
    31ea:	81 e0       	ldi	r24, 0x01	; 1
    31ec:	80 93 0f 03 	sts	0x030F, r24
    31f0:	10 ff       	sbrs	r17, 0
    31f2:	0a c0       	rjmp	.+20     	; 0x3208 <__stack+0x1009>
    31f4:	0e 94 f8 02 	call	0x5f0	; 0x5f0 <HplAtm128GeneralIOPinP__8__IO__clr>
    31f8:	8c eb       	ldi	r24, 0xBC	; 188
    31fa:	0e 94 ac 03 	call	0x758	; 0x758 <Enc28j60P__SpiByte__write>
    31fe:	81 e0       	ldi	r24, 0x01	; 1
    3200:	0e 94 ac 03 	call	0x758	; 0x758 <Enc28j60P__SpiByte__write>
    3204:	0e 94 f6 02 	call	0x5ec	; 0x5ec <HplAtm128GeneralIOPinP__8__IO__set>
    3208:	80 91 10 03 	lds	r24, 0x0310
    320c:	81 30       	cpi	r24, 0x01	; 1
    320e:	e1 f5       	brne	.+120    	; 0x3288 <__stack+0x1089>
    3210:	80 e0       	ldi	r24, 0x00	; 0
    3212:	0e 94 36 0b 	call	0x166c	; 0x166c <Enc28j60P__setBank>
    3216:	60 e0       	ldi	r22, 0x00	; 0
    3218:	70 e0       	ldi	r23, 0x00	; 0
    321a:	82 e0       	ldi	r24, 0x02	; 2
    321c:	0e 94 01 08 	call	0x1002	; 0x1002 <Enc28j60P__writeReg16>
    3220:	60 e0       	ldi	r22, 0x00	; 0
    3222:	8a e7       	ldi	r24, 0x7A	; 122
    3224:	0e 94 ae 03 	call	0x75c	; 0x75c <Enc28j60P__writeSPI>
    3228:	00 e0       	ldi	r16, 0x00	; 0
    322a:	10 e0       	ldi	r17, 0x00	; 0
    322c:	60 91 10 0d 	lds	r22, 0x0D10
    3230:	70 91 11 0d 	lds	r23, 0x0D11
    3234:	06 17       	cp	r16, r22
    3236:	17 07       	cpc	r17, r23
    3238:	68 f4       	brcc	.+26     	; 0x3254 <__stack+0x1055>
    323a:	e0 91 72 12 	lds	r30, 0x1272
    323e:	f0 91 73 12 	lds	r31, 0x1273
    3242:	e0 0f       	add	r30, r16
    3244:	f1 1f       	adc	r31, r17
    3246:	60 81       	ld	r22, Z
    3248:	8a e7       	ldi	r24, 0x7A	; 122
    324a:	0e 94 ae 03 	call	0x75c	; 0x75c <Enc28j60P__writeSPI>
    324e:	0f 5f       	subi	r16, 0xFF	; 255
    3250:	1f 4f       	sbci	r17, 0xFF	; 255
    3252:	ec cf       	rjmp	.-40     	; 0x322c <__stack+0x102d>
    3254:	86 e0       	ldi	r24, 0x06	; 6
    3256:	0e 94 01 08 	call	0x1002	; 0x1002 <Enc28j60P__writeReg16>
    325a:	68 e0       	ldi	r22, 0x08	; 8
    325c:	8f e1       	ldi	r24, 0x1F	; 31
    325e:	0e 94 da 03 	call	0x7b4	; 0x7b4 <Enc28j60P__setBit>
    3262:	10 92 10 03 	sts	0x0310, r1
    3266:	10 92 1c 03 	sts	0x031C, r1
    326a:	80 91 1d 03 	lds	r24, 0x031D
    326e:	6d e0       	ldi	r22, 0x0D	; 13
    3270:	86 9f       	mul	r24, r22
    3272:	f0 01       	movw	r30, r0
    3274:	11 24       	eor	r1, r1
    3276:	ed 53       	subi	r30, 0x3D	; 61
    3278:	f3 4f       	sbci	r31, 0xF3	; 243
    327a:	10 82       	st	Z, r1
    327c:	60 e0       	ldi	r22, 0x00	; 0
    327e:	0e 94 79 09 	call	0x12f2	; 0x12f2 <LlcQueueP__LlcQueue__sendDone>
    3282:	81 e1       	ldi	r24, 0x11	; 17
    3284:	0e 94 12 03 	call	0x624	; 0x624 <SchedulerBasicP__TaskBasic__postTask>
    3288:	80 91 0f 03 	lds	r24, 0x030F
    328c:	81 30       	cpi	r24, 0x01	; 1
    328e:	09 f0       	breq	.+2      	; 0x3292 <__stack+0x1093>
    3290:	56 c0       	rjmp	.+172    	; 0x333e <__stack+0x113f>
    3292:	80 e0       	ldi	r24, 0x00	; 0
    3294:	0e 94 36 0b 	call	0x166c	; 0x166c <Enc28j60P__setBank>
    3298:	60 91 14 02 	lds	r22, 0x0214
    329c:	70 91 15 02 	lds	r23, 0x0215
    32a0:	80 e0       	ldi	r24, 0x00	; 0
    32a2:	0e 94 01 08 	call	0x1002	; 0x1002 <Enc28j60P__writeReg16>
    32a6:	8a e3       	ldi	r24, 0x3A	; 58
    32a8:	0e 94 c4 03 	call	0x788	; 0x788 <Enc28j60P__readSPI>
    32ac:	90 e0       	ldi	r25, 0x00	; 0
    32ae:	90 93 15 02 	sts	0x0215, r25
    32b2:	80 93 14 02 	sts	0x0214, r24
    32b6:	8a e3       	ldi	r24, 0x3A	; 58
    32b8:	0e 94 c4 03 	call	0x788	; 0x788 <Enc28j60P__readSPI>
    32bc:	20 91 14 02 	lds	r18, 0x0214
    32c0:	30 91 15 02 	lds	r19, 0x0215
    32c4:	38 2b       	or	r19, r24
    32c6:	30 93 15 02 	sts	0x0215, r19
    32ca:	20 93 14 02 	sts	0x0214, r18
    32ce:	8a e3       	ldi	r24, 0x3A	; 58
    32d0:	0e 94 c4 03 	call	0x788	; 0x788 <Enc28j60P__readSPI>
    32d4:	08 2f       	mov	r16, r24
    32d6:	10 e0       	ldi	r17, 0x00	; 0
    32d8:	8a e3       	ldi	r24, 0x3A	; 58
    32da:	0e 94 c4 03 	call	0x788	; 0x788 <Enc28j60P__readSPI>
    32de:	18 2b       	or	r17, r24
    32e0:	8a e3       	ldi	r24, 0x3A	; 58
    32e2:	0e 94 c4 03 	call	0x788	; 0x788 <Enc28j60P__readSPI>
    32e6:	8a e3       	ldi	r24, 0x3A	; 58
    32e8:	0e 94 c4 03 	call	0x788	; 0x788 <Enc28j60P__readSPI>
    32ec:	c8 01       	movw	r24, r16
    32ee:	0f 97       	sbiw	r24, 0x0f	; 15
    32f0:	8b 31       	cpi	r24, 0x1B	; 27
    32f2:	92 40       	sbci	r25, 0x02	; 2
    32f4:	90 f4       	brcc	.+36     	; 0x331a <__stack+0x111b>
    32f6:	4e e4       	ldi	r20, 0x4E	; 78
    32f8:	e4 2e       	mov	r14, r20
    32fa:	48 e0       	ldi	r20, 0x08	; 8
    32fc:	f4 2e       	mov	r15, r20
    32fe:	8a e3       	ldi	r24, 0x3A	; 58
    3300:	0e 94 c4 03 	call	0x788	; 0x788 <Enc28j60P__readSPI>
    3304:	f7 01       	movw	r30, r14
    3306:	81 93       	st	Z+, r24
    3308:	7f 01       	movw	r14, r30
    330a:	cf 01       	movw	r24, r30
    330c:	8e 54       	subi	r24, 0x4E	; 78
    330e:	98 40       	sbci	r25, 0x08	; 8
    3310:	80 17       	cp	r24, r16
    3312:	91 07       	cpc	r25, r17
    3314:	a0 f3       	brcs	.-24     	; 0x32fe <__stack+0x10ff>
    3316:	10 e0       	ldi	r17, 0x00	; 0
    3318:	01 c0       	rjmp	.+2      	; 0x331c <__stack+0x111d>
    331a:	11 e0       	ldi	r17, 0x01	; 1
    331c:	60 91 14 02 	lds	r22, 0x0214
    3320:	70 91 15 02 	lds	r23, 0x0215
    3324:	8c e0       	ldi	r24, 0x0C	; 12
    3326:	0e 94 01 08 	call	0x1002	; 0x1002 <Enc28j60P__writeReg16>
    332a:	60 e4       	ldi	r22, 0x40	; 64
    332c:	8e e1       	ldi	r24, 0x1E	; 30
    332e:	0e 94 da 03 	call	0x7b4	; 0x7b4 <Enc28j60P__setBit>
    3332:	10 92 0f 03 	sts	0x030F, r1
    3336:	11 11       	cpse	r17, r1
    3338:	02 c0       	rjmp	.+4      	; 0x333e <__stack+0x113f>
    333a:	0e 94 a2 24 	call	0x4944	; 0x4944 <LlcTransceiverP__Mac__received.constprop.135>
    333e:	1f b7       	in	r17, 0x3f	; 63
    3340:	f8 94       	cli
    3342:	80 91 0d 03 	lds	r24, 0x030D
    3346:	82 30       	cpi	r24, 0x02	; 2
    3348:	11 f5       	brne	.+68     	; 0x338e <__stack+0x118f>
    334a:	80 91 11 02 	lds	r24, 0x0211
    334e:	81 11       	cpse	r24, r1
    3350:	1e c0       	rjmp	.+60     	; 0x338e <__stack+0x118f>
    3352:	80 91 13 02 	lds	r24, 0x0213
    3356:	8f 3f       	cpi	r24, 0xFF	; 255
    3358:	b1 f0       	breq	.+44     	; 0x3386 <__stack+0x1187>
    335a:	e8 2f       	mov	r30, r24
    335c:	f0 e0       	ldi	r31, 0x00	; 0
    335e:	ee 5e       	subi	r30, 0xEE	; 238
    3360:	f2 4f       	sbci	r31, 0xF2	; 242
    3362:	90 81       	ld	r25, Z
    3364:	90 93 13 02 	sts	0x0213, r25
    3368:	9f 3f       	cpi	r25, 0xFF	; 255
    336a:	11 f4       	brne	.+4      	; 0x3370 <__stack+0x1171>
    336c:	90 93 12 02 	sts	0x0212, r25
    3370:	9f ef       	ldi	r25, 0xFF	; 255
    3372:	90 83       	st	Z, r25
    3374:	80 93 11 02 	sts	0x0211, r24
    3378:	81 e0       	ldi	r24, 0x01	; 1
    337a:	80 93 0d 03 	sts	0x030D, r24
    337e:	89 e1       	ldi	r24, 0x19	; 25
    3380:	0e 94 12 03 	call	0x624	; 0x624 <SchedulerBasicP__TaskBasic__postTask>
    3384:	04 c0       	rjmp	.+8      	; 0x338e <__stack+0x118f>
    3386:	80 93 11 02 	sts	0x0211, r24
    338a:	10 92 0d 03 	sts	0x030D, r1
    338e:	1f bf       	out	0x3f, r17	; 63
    3390:	9f b7       	in	r25, 0x3f	; 63
    3392:	f8 94       	cli
    3394:	80 91 0d 03 	lds	r24, 0x030D
    3398:	88 23       	and	r24, r24
    339a:	09 f4       	brne	.+2      	; 0x339e <__stack+0x119f>
    339c:	c2 c6       	rjmp	.+3460   	; 0x4122 <__stack+0x1f23>
    339e:	9f bf       	out	0x3f, r25	; 63
    33a0:	1f b7       	in	r17, 0x3f	; 63
    33a2:	f8 94       	cli
    33a4:	4a 99       	sbic	0x09, 2	; 9
    33a6:	03 c0       	rjmp	.+6      	; 0x33ae <__stack+0x11af>
    33a8:	87 e1       	ldi	r24, 0x17	; 23
    33aa:	0e 94 12 03 	call	0x624	; 0x624 <SchedulerBasicP__TaskBasic__postTask>
    33ae:	1f bf       	out	0x3f, r17	; 63
    33b0:	1a c7       	rjmp	.+3636   	; 0x41e6 <__stack+0x1fe7>
    33b2:	80 91 0b 03 	lds	r24, 0x030B
    33b6:	81 11       	cpse	r24, r1
    33b8:	16 c7       	rjmp	.+3628   	; 0x41e6 <__stack+0x1fe7>
    33ba:	10 92 0c 03 	sts	0x030C, r1
    33be:	f0 90 08 10 	lds	r15, 0x1008
    33c2:	f1 e0       	ldi	r31, 0x01	; 1
    33c4:	ff 12       	cpse	r15, r31
    33c6:	0f c7       	rjmp	.+3614   	; 0x41e6 <__stack+0x1fe7>
    33c8:	b0 c6       	rjmp	.+3424   	; 0x412a <__stack+0x1f2b>
    33ca:	0e 94 80 0b 	call	0x1700	; 0x1700 <FMClickP__init__runTask>
    33ce:	0b c7       	rjmp	.+3606   	; 0x41e6 <__stack+0x1fe7>
    33d0:	9f b7       	in	r25, 0x3f	; 63
    33d2:	f8 94       	cli
    33d4:	80 91 dc 12 	lds	r24, 0x12DC
    33d8:	9f bf       	out	0x3f, r25	; 63
    33da:	81 11       	cpse	r24, r1
    33dc:	22 c0       	rjmp	.+68     	; 0x3422 <__stack+0x1223>
    33de:	2f b7       	in	r18, 0x3f	; 63
    33e0:	f8 94       	cli
    33e2:	80 91 3d 13 	lds	r24, 0x133D
    33e6:	90 91 3e 13 	lds	r25, 0x133E
    33ea:	8b 56       	subi	r24, 0x6B	; 107
    33ec:	93 40       	sbci	r25, 0x03	; 3
    33ee:	93 70       	andi	r25, 0x03	; 3
    33f0:	90 68       	ori	r25, 0x80	; 128
    33f2:	90 93 80 0a 	sts	0x0A80, r25
    33f6:	80 93 7f 0a 	sts	0x0A7F, r24
    33fa:	80 91 81 0a 	lds	r24, 0x0A81
    33fe:	90 91 82 0a 	lds	r25, 0x0A82
    3402:	9f 76       	andi	r25, 0x6F	; 111
    3404:	90 64       	ori	r25, 0x40	; 64
    3406:	90 93 82 0a 	sts	0x0A82, r25
    340a:	80 93 81 0a 	sts	0x0A81, r24
    340e:	84 e0       	ldi	r24, 0x04	; 4
    3410:	80 93 cf 12 	sts	0x12CF, r24
    3414:	81 e0       	ldi	r24, 0x01	; 1
    3416:	80 93 dc 12 	sts	0x12DC, r24
    341a:	2f bf       	out	0x3f, r18	; 63
    341c:	0e 94 3a 03 	call	0x674	; 0x674 <FMClickP__writeRegisters__postTask>
    3420:	e2 c6       	rjmp	.+3524   	; 0x41e6 <__stack+0x1fe7>
    3422:	81 30       	cpi	r24, 0x01	; 1
    3424:	51 f4       	brne	.+20     	; 0x343a <__stack+0x123b>
    3426:	8f b7       	in	r24, 0x3f	; 63
    3428:	f8 94       	cli
    342a:	92 e0       	ldi	r25, 0x02	; 2
    342c:	90 93 dc 12 	sts	0x12DC, r25
    3430:	8f bf       	out	0x3f, r24	; 63
    3432:	88 e0       	ldi	r24, 0x08	; 8
    3434:	8c bb       	out	0x1c, r24	; 28
    3436:	eb 9a       	sbi	0x1d, 3	; 29
    3438:	d6 c6       	rjmp	.+3500   	; 0x41e6 <__stack+0x1fe7>
    343a:	82 30       	cpi	r24, 0x02	; 2
    343c:	49 f4       	brne	.+18     	; 0x3450 <__stack+0x1251>
    343e:	8f b7       	in	r24, 0x3f	; 63
    3440:	f8 94       	cli
    3442:	93 e0       	ldi	r25, 0x03	; 3
    3444:	90 93 dc 12 	sts	0x12DC, r25
    3448:	8f bf       	out	0x3f, r24	; 63
    344a:	0e 94 49 03 	call	0x692	; 0x692 <FMClickP__readRegisters__postTask>
    344e:	cb c6       	rjmp	.+3478   	; 0x41e6 <__stack+0x1fe7>
    3450:	83 30       	cpi	r24, 0x03	; 3
    3452:	41 f5       	brne	.+80     	; 0x34a4 <__stack+0x12a5>
    3454:	2f b7       	in	r18, 0x3f	; 63
    3456:	f8 94       	cli
    3458:	80 91 8f 0a 	lds	r24, 0x0A8F
    345c:	90 91 90 0a 	lds	r25, 0x0A90
    3460:	93 70       	andi	r25, 0x03	; 3
    3462:	85 59       	subi	r24, 0x95	; 149
    3464:	9c 4f       	sbci	r25, 0xFC	; 252
    3466:	90 93 45 13 	sts	0x1345, r25
    346a:	80 93 44 13 	sts	0x1344, r24
    346e:	80 91 7f 0a 	lds	r24, 0x0A7F
    3472:	90 91 80 0a 	lds	r25, 0x0A80
    3476:	9f 77       	andi	r25, 0x7F	; 127
    3478:	90 93 80 0a 	sts	0x0A80, r25
    347c:	80 93 7f 0a 	sts	0x0A7F, r24
    3480:	80 91 81 0a 	lds	r24, 0x0A81
    3484:	90 91 82 0a 	lds	r25, 0x0A82
    3488:	9f 7b       	andi	r25, 0xBF	; 191
    348a:	90 93 82 0a 	sts	0x0A82, r25
    348e:	80 93 81 0a 	sts	0x0A81, r24
    3492:	84 e0       	ldi	r24, 0x04	; 4
    3494:	80 93 cf 12 	sts	0x12CF, r24
    3498:	80 93 dc 12 	sts	0x12DC, r24
    349c:	2f bf       	out	0x3f, r18	; 63
    349e:	0e 94 3a 03 	call	0x674	; 0x674 <FMClickP__writeRegisters__postTask>
    34a2:	a1 c6       	rjmp	.+3394   	; 0x41e6 <__stack+0x1fe7>
    34a4:	84 30       	cpi	r24, 0x04	; 4
    34a6:	49 f4       	brne	.+18     	; 0x34ba <__stack+0x12bb>
    34a8:	8f b7       	in	r24, 0x3f	; 63
    34aa:	f8 94       	cli
    34ac:	95 e0       	ldi	r25, 0x05	; 5
    34ae:	90 93 dc 12 	sts	0x12DC, r25
    34b2:	8f bf       	out	0x3f, r24	; 63
    34b4:	0e 94 49 03 	call	0x692	; 0x692 <FMClickP__readRegisters__postTask>
    34b8:	96 c6       	rjmp	.+3372   	; 0x41e6 <__stack+0x1fe7>
    34ba:	85 30       	cpi	r24, 0x05	; 5
    34bc:	09 f0       	breq	.+2      	; 0x34c0 <__stack+0x12c1>
    34be:	93 c6       	rjmp	.+3366   	; 0x41e6 <__stack+0x1fe7>
    34c0:	2f b7       	in	r18, 0x3f	; 63
    34c2:	f8 94       	cli
    34c4:	80 91 8d 0a 	lds	r24, 0x0A8D
    34c8:	90 91 8e 0a 	lds	r25, 0x0A8E
    34cc:	88 27       	eor	r24, r24
    34ce:	90 74       	andi	r25, 0x40	; 64
    34d0:	89 2f       	mov	r24, r25
    34d2:	99 27       	eor	r25, r25
    34d4:	2f bf       	out	0x3f, r18	; 63
    34d6:	89 2b       	or	r24, r25
    34d8:	81 f5       	brne	.+96     	; 0x353a <__stack+0x133b>
    34da:	20 91 44 13 	lds	r18, 0x1344
    34de:	30 91 45 13 	lds	r19, 0x1345
    34e2:	9f b7       	in	r25, 0x3f	; 63
    34e4:	f8 94       	cli
    34e6:	30 93 47 08 	sts	0x0847, r19
    34ea:	20 93 46 08 	sts	0x0846, r18
    34ee:	80 91 49 08 	lds	r24, 0x0849
    34f2:	9f bf       	out	0x3f, r25	; 63
    34f4:	83 30       	cpi	r24, 0x03	; 3
    34f6:	29 f0       	breq	.+10     	; 0x3502 <__stack+0x1303>
    34f8:	85 30       	cpi	r24, 0x05	; 5
    34fa:	19 f4       	brne	.+6      	; 0x3502 <__stack+0x1303>
    34fc:	0e 94 40 03 	call	0x680	; 0x680 <RadioScannerP__startSeekUp__postTask>
    3500:	02 c0       	rjmp	.+4      	; 0x3506 <__stack+0x1307>
    3502:	0e 94 46 03 	call	0x68c	; 0x68c <RadioScannerP__displayChannelInfo__postTask>
    3506:	8f b7       	in	r24, 0x3f	; 63
    3508:	f8 94       	cli
    350a:	9f e0       	ldi	r25, 0x0F	; 15
    350c:	90 93 e8 12 	sts	0x12E8, r25
    3510:	8f bf       	out	0x3f, r24	; 63
    3512:	80 91 df 12 	lds	r24, 0x12DF
    3516:	88 23       	and	r24, r24
    3518:	51 f0       	breq	.+20     	; 0x352e <__stack+0x132f>
    351a:	8f b7       	in	r24, 0x3f	; 63
    351c:	f8 94       	cli
    351e:	94 e0       	ldi	r25, 0x04	; 4
    3520:	90 93 d7 12 	sts	0x12D7, r25
    3524:	8f bf       	out	0x3f, r24	; 63
    3526:	81 e0       	ldi	r24, 0x01	; 1
    3528:	0e 94 76 07 	call	0xeec	; 0xeec <FMClickP__enableRDS>
    352c:	5c c6       	rjmp	.+3256   	; 0x41e6 <__stack+0x1fe7>
    352e:	8f b7       	in	r24, 0x3f	; 63
    3530:	f8 94       	cli
    3532:	10 92 d7 12 	sts	0x12D7, r1
    3536:	8f bf       	out	0x3f, r24	; 63
    3538:	56 c6       	rjmp	.+3244   	; 0x41e6 <__stack+0x1fe7>
    353a:	8f b7       	in	r24, 0x3f	; 63
    353c:	f8 94       	cli
    353e:	94 e0       	ldi	r25, 0x04	; 4
    3540:	90 93 dc 12 	sts	0x12DC, r25
    3544:	8f bf       	out	0x3f, r24	; 63
    3546:	0e 94 43 03 	call	0x686	; 0x686 <FMClickP__tune__postTask>
    354a:	4d c6       	rjmp	.+3226   	; 0x41e6 <__stack+0x1fe7>
    354c:	9f b7       	in	r25, 0x3f	; 63
    354e:	f8 94       	cli
    3550:	10 91 47 0f 	lds	r17, 0x0F47
    3554:	80 91 dd 12 	lds	r24, 0x12DD
    3558:	9f bf       	out	0x3f, r25	; 63
    355a:	81 11       	cpse	r24, r1
    355c:	3f c0       	rjmp	.+126    	; 0x35dc <__stack+0x13dd>
    355e:	2f b7       	in	r18, 0x3f	; 63
    3560:	12 30       	cpi	r17, 0x02	; 2
    3562:	61 f4       	brne	.+24     	; 0x357c <__stack+0x137d>
    3564:	f8 94       	cli
    3566:	80 91 7d 0a 	lds	r24, 0x0A7D
    356a:	90 91 7e 0a 	lds	r25, 0x0A7E
    356e:	95 60       	ori	r25, 0x05	; 5
    3570:	90 93 7e 0a 	sts	0x0A7E, r25
    3574:	80 93 7d 0a 	sts	0x0A7D, r24
    3578:	2f bf       	out	0x3f, r18	; 63
    357a:	0e c0       	rjmp	.+28     	; 0x3598 <__stack+0x1399>
    357c:	f8 94       	cli
    357e:	80 91 7d 0a 	lds	r24, 0x0A7D
    3582:	90 91 7e 0a 	lds	r25, 0x0A7E
    3586:	9a 7f       	andi	r25, 0xFA	; 250
    3588:	91 60       	ori	r25, 0x01	; 1
    358a:	90 93 7e 0a 	sts	0x0A7E, r25
    358e:	80 93 7d 0a 	sts	0x0A7D, r24
    3592:	2f bf       	out	0x3f, r18	; 63
    3594:	11 11       	cpse	r17, r1
    3596:	1f c6       	rjmp	.+3134   	; 0x41d6 <__stack+0x1fd7>
    3598:	2f b7       	in	r18, 0x3f	; 63
    359a:	f8 94       	cli
    359c:	80 91 7d 0a 	lds	r24, 0x0A7D
    35a0:	90 91 7e 0a 	lds	r25, 0x0A7E
    35a4:	92 60       	ori	r25, 0x02	; 2
    35a6:	90 93 7e 0a 	sts	0x0A7E, r25
    35aa:	80 93 7d 0a 	sts	0x0A7D, r24
    35ae:	2f bf       	out	0x3f, r18	; 63
    35b0:	2f b7       	in	r18, 0x3f	; 63
    35b2:	f8 94       	cli
    35b4:	80 91 81 0a 	lds	r24, 0x0A81
    35b8:	90 91 82 0a 	lds	r25, 0x0A82
    35bc:	9f 76       	andi	r25, 0x6F	; 111
    35be:	90 64       	ori	r25, 0x40	; 64
    35c0:	90 93 82 0a 	sts	0x0A82, r25
    35c4:	80 93 81 0a 	sts	0x0A81, r24
    35c8:	84 e0       	ldi	r24, 0x04	; 4
    35ca:	80 93 cf 12 	sts	0x12CF, r24
    35ce:	81 e0       	ldi	r24, 0x01	; 1
    35d0:	80 93 dd 12 	sts	0x12DD, r24
    35d4:	2f bf       	out	0x3f, r18	; 63
    35d6:	0e 94 3a 03 	call	0x674	; 0x674 <FMClickP__writeRegisters__postTask>
    35da:	05 c6       	rjmp	.+3082   	; 0x41e6 <__stack+0x1fe7>
    35dc:	81 30       	cpi	r24, 0x01	; 1
    35de:	51 f4       	brne	.+20     	; 0x35f4 <__stack+0x13f5>
    35e0:	8f b7       	in	r24, 0x3f	; 63
    35e2:	f8 94       	cli
    35e4:	92 e0       	ldi	r25, 0x02	; 2
    35e6:	90 93 dd 12 	sts	0x12DD, r25
    35ea:	8f bf       	out	0x3f, r24	; 63
    35ec:	88 e0       	ldi	r24, 0x08	; 8
    35ee:	8c bb       	out	0x1c, r24	; 28
    35f0:	eb 9a       	sbi	0x1d, 3	; 29
    35f2:	f9 c5       	rjmp	.+3058   	; 0x41e6 <__stack+0x1fe7>
    35f4:	82 30       	cpi	r24, 0x02	; 2
    35f6:	49 f4       	brne	.+18     	; 0x360a <__stack+0x140b>
    35f8:	8f b7       	in	r24, 0x3f	; 63
    35fa:	f8 94       	cli
    35fc:	93 e0       	ldi	r25, 0x03	; 3
    35fe:	90 93 dd 12 	sts	0x12DD, r25
    3602:	8f bf       	out	0x3f, r24	; 63
    3604:	0e 94 49 03 	call	0x692	; 0x692 <FMClickP__readRegisters__postTask>
    3608:	ee c5       	rjmp	.+3036   	; 0x41e6 <__stack+0x1fe7>
    360a:	83 30       	cpi	r24, 0x03	; 3
    360c:	81 f5       	brne	.+96     	; 0x366e <__stack+0x146f>
    360e:	2f b7       	in	r18, 0x3f	; 63
    3610:	f8 94       	cli
    3612:	80 91 8d 0a 	lds	r24, 0x0A8D
    3616:	90 91 8e 0a 	lds	r25, 0x0A8E
    361a:	88 27       	eor	r24, r24
    361c:	90 72       	andi	r25, 0x20	; 32
    361e:	90 93 1f 03 	sts	0x031F, r25
    3622:	80 91 8f 0a 	lds	r24, 0x0A8F
    3626:	90 91 90 0a 	lds	r25, 0x0A90
    362a:	93 70       	andi	r25, 0x03	; 3
    362c:	85 59       	subi	r24, 0x95	; 149
    362e:	9c 4f       	sbci	r25, 0xFC	; 252
    3630:	90 93 45 13 	sts	0x1345, r25
    3634:	80 93 44 13 	sts	0x1344, r24
    3638:	80 91 7d 0a 	lds	r24, 0x0A7D
    363c:	90 91 7e 0a 	lds	r25, 0x0A7E
    3640:	9e 7f       	andi	r25, 0xFE	; 254
    3642:	90 93 7e 0a 	sts	0x0A7E, r25
    3646:	80 93 7d 0a 	sts	0x0A7D, r24
    364a:	80 91 81 0a 	lds	r24, 0x0A81
    364e:	90 91 82 0a 	lds	r25, 0x0A82
    3652:	9f 7b       	andi	r25, 0xBF	; 191
    3654:	90 93 82 0a 	sts	0x0A82, r25
    3658:	80 93 81 0a 	sts	0x0A81, r24
    365c:	84 e0       	ldi	r24, 0x04	; 4
    365e:	80 93 cf 12 	sts	0x12CF, r24
    3662:	80 93 dd 12 	sts	0x12DD, r24
    3666:	2f bf       	out	0x3f, r18	; 63
    3668:	0e 94 3a 03 	call	0x674	; 0x674 <FMClickP__writeRegisters__postTask>
    366c:	bc c5       	rjmp	.+2936   	; 0x41e6 <__stack+0x1fe7>
    366e:	84 30       	cpi	r24, 0x04	; 4
    3670:	49 f4       	brne	.+18     	; 0x3684 <__stack+0x1485>
    3672:	8f b7       	in	r24, 0x3f	; 63
    3674:	f8 94       	cli
    3676:	95 e0       	ldi	r25, 0x05	; 5
    3678:	90 93 dd 12 	sts	0x12DD, r25
    367c:	8f bf       	out	0x3f, r24	; 63
    367e:	0e 94 49 03 	call	0x692	; 0x692 <FMClickP__readRegisters__postTask>
    3682:	b1 c5       	rjmp	.+2914   	; 0x41e6 <__stack+0x1fe7>
    3684:	85 30       	cpi	r24, 0x05	; 5
    3686:	09 f0       	breq	.+2      	; 0x368a <__stack+0x148b>
    3688:	ae c5       	rjmp	.+2908   	; 0x41e6 <__stack+0x1fe7>
    368a:	2f b7       	in	r18, 0x3f	; 63
    368c:	f8 94       	cli
    368e:	80 91 8d 0a 	lds	r24, 0x0A8D
    3692:	90 91 8e 0a 	lds	r25, 0x0A8E
    3696:	88 27       	eor	r24, r24
    3698:	90 74       	andi	r25, 0x40	; 64
    369a:	89 2f       	mov	r24, r25
    369c:	99 27       	eor	r25, r25
    369e:	2f bf       	out	0x3f, r18	; 63
    36a0:	89 2b       	or	r24, r25
    36a2:	09 f0       	breq	.+2      	; 0x36a6 <__stack+0x14a7>
    36a4:	45 c0       	rjmp	.+138    	; 0x3730 <__stack+0x1531>
    36a6:	80 91 1f 03 	lds	r24, 0x031F
    36aa:	81 11       	cpse	r24, r1
    36ac:	29 c0       	rjmp	.+82     	; 0x3700 <__stack+0x1501>
    36ae:	80 91 44 13 	lds	r24, 0x1344
    36b2:	90 91 45 13 	lds	r25, 0x1345
    36b6:	0e 94 5a 07 	call	0xeb4	; 0xeb4 <RadioScannerP__Radio__seekComplete>
    36ba:	8f b7       	in	r24, 0x3f	; 63
    36bc:	12 30       	cpi	r17, 0x02	; 2
    36be:	39 f4       	brne	.+14     	; 0x36ce <__stack+0x14cf>
    36c0:	f8 94       	cli
    36c2:	10 92 dd 12 	sts	0x12DD, r1
    36c6:	8f bf       	out	0x3f, r24	; 63
    36c8:	0e 94 3d 03 	call	0x67a	; 0x67a <FMClickP__seek__postTask>
    36cc:	8c c5       	rjmp	.+2840   	; 0x41e6 <__stack+0x1fe7>
    36ce:	f8 94       	cli
    36d0:	9f e0       	ldi	r25, 0x0F	; 15
    36d2:	90 93 e8 12 	sts	0x12E8, r25
    36d6:	8f bf       	out	0x3f, r24	; 63
    36d8:	80 91 df 12 	lds	r24, 0x12DF
    36dc:	88 23       	and	r24, r24
    36de:	51 f0       	breq	.+20     	; 0x36f4 <__stack+0x14f5>
    36e0:	8f b7       	in	r24, 0x3f	; 63
    36e2:	f8 94       	cli
    36e4:	94 e0       	ldi	r25, 0x04	; 4
    36e6:	90 93 d7 12 	sts	0x12D7, r25
    36ea:	8f bf       	out	0x3f, r24	; 63
    36ec:	81 e0       	ldi	r24, 0x01	; 1
    36ee:	0e 94 76 07 	call	0xeec	; 0xeec <FMClickP__enableRDS>
    36f2:	79 c5       	rjmp	.+2802   	; 0x41e6 <__stack+0x1fe7>
    36f4:	8f b7       	in	r24, 0x3f	; 63
    36f6:	f8 94       	cli
    36f8:	10 92 d7 12 	sts	0x12D7, r1
    36fc:	8f bf       	out	0x3f, r24	; 63
    36fe:	73 c5       	rjmp	.+2790   	; 0x41e6 <__stack+0x1fe7>
    3700:	8f ef       	ldi	r24, 0xFF	; 255
    3702:	9f ef       	ldi	r25, 0xFF	; 255
    3704:	0e 94 5a 07 	call	0xeb4	; 0xeb4 <RadioScannerP__Radio__seekComplete>
    3708:	80 91 df 12 	lds	r24, 0x12DF
    370c:	88 23       	and	r24, r24
    370e:	51 f0       	breq	.+20     	; 0x3724 <__stack+0x1525>
    3710:	8f b7       	in	r24, 0x3f	; 63
    3712:	f8 94       	cli
    3714:	94 e0       	ldi	r25, 0x04	; 4
    3716:	90 93 d7 12 	sts	0x12D7, r25
    371a:	8f bf       	out	0x3f, r24	; 63
    371c:	81 e0       	ldi	r24, 0x01	; 1
    371e:	0e 94 76 07 	call	0xeec	; 0xeec <FMClickP__enableRDS>
    3722:	61 c5       	rjmp	.+2754   	; 0x41e6 <__stack+0x1fe7>
    3724:	8f b7       	in	r24, 0x3f	; 63
    3726:	f8 94       	cli
    3728:	10 92 d7 12 	sts	0x12D7, r1
    372c:	8f bf       	out	0x3f, r24	; 63
    372e:	5b c5       	rjmp	.+2742   	; 0x41e6 <__stack+0x1fe7>
    3730:	8f b7       	in	r24, 0x3f	; 63
    3732:	f8 94       	cli
    3734:	94 e0       	ldi	r25, 0x04	; 4
    3736:	90 93 dd 12 	sts	0x12DD, r25
    373a:	8f bf       	out	0x3f, r24	; 63
    373c:	0e 94 3d 03 	call	0x67a	; 0x67a <FMClickP__seek__postTask>
    3740:	52 c5       	rjmp	.+2724   	; 0x41e6 <__stack+0x1fe7>
    3742:	8f b7       	in	r24, 0x3f	; 63
    3744:	f8 94       	cli
    3746:	60 91 de 12 	lds	r22, 0x12DE
    374a:	8f bf       	out	0x3f, r24	; 63
    374c:	61 11       	cpse	r22, r1
    374e:	09 c0       	rjmp	.+18     	; 0x3762 <__stack+0x1563>
    3750:	8f b7       	in	r24, 0x3f	; 63
    3752:	f8 94       	cli
    3754:	91 e0       	ldi	r25, 0x01	; 1
    3756:	90 93 de 12 	sts	0x12DE, r25
    375a:	8f bf       	out	0x3f, r24	; 63
    375c:	0e 94 49 03 	call	0x692	; 0x692 <FMClickP__readRegisters__postTask>
    3760:	42 c5       	rjmp	.+2692   	; 0x41e6 <__stack+0x1fe7>
    3762:	61 30       	cpi	r22, 0x01	; 1
    3764:	09 f0       	breq	.+2      	; 0x3768 <__stack+0x1569>
    3766:	3f c5       	rjmp	.+2686   	; 0x41e6 <__stack+0x1fe7>
    3768:	4f b7       	in	r20, 0x3f	; 63
    376a:	f8 94       	cli
    376c:	e0 91 91 0a 	lds	r30, 0x0A91
    3770:	f0 91 92 0a 	lds	r31, 0x0A92
    3774:	80 91 93 0a 	lds	r24, 0x0A93
    3778:	a0 91 94 0a 	lds	r26, 0x0A94
    377c:	90 91 95 0a 	lds	r25, 0x0A95
    3780:	70 91 96 0a 	lds	r23, 0x0A96
    3784:	20 91 97 0a 	lds	r18, 0x0A97
    3788:	30 91 98 0a 	lds	r19, 0x0A98
    378c:	4f bf       	out	0x3f, r20	; 63
    378e:	4a 2f       	mov	r20, r26
    3790:	46 95       	lsr	r20
    3792:	46 95       	lsr	r20
    3794:	46 95       	lsr	r20
    3796:	50 e0       	ldi	r21, 0x00	; 0
    3798:	44 30       	cpi	r20, 0x04	; 4
    379a:	51 05       	cpc	r21, r1
    379c:	09 f4       	brne	.+2      	; 0x37a0 <__stack+0x15a1>
    379e:	60 c0       	rjmp	.+192    	; 0x3860 <__stack+0x1661>
    37a0:	24 f4       	brge	.+8      	; 0x37aa <__stack+0x15ab>
    37a2:	42 30       	cpi	r20, 0x02	; 2
    37a4:	51 05       	cpc	r21, r1
    37a6:	50 f0       	brcs	.+20     	; 0x37bc <__stack+0x15bd>
    37a8:	0e c1       	rjmp	.+540    	; 0x39c6 <__stack+0x17c7>
    37aa:	45 30       	cpi	r20, 0x05	; 5
    37ac:	51 05       	cpc	r21, r1
    37ae:	09 f4       	brne	.+2      	; 0x37b2 <__stack+0x15b3>
    37b0:	84 c0       	rjmp	.+264    	; 0x38ba <__stack+0x16bb>
    37b2:	48 30       	cpi	r20, 0x08	; 8
    37b4:	51 05       	cpc	r21, r1
    37b6:	09 f4       	brne	.+2      	; 0x37ba <__stack+0x15bb>
    37b8:	bc c0       	rjmp	.+376    	; 0x3932 <__stack+0x1733>
    37ba:	05 c1       	rjmp	.+522    	; 0x39c6 <__stack+0x17c7>
    37bc:	4f b7       	in	r20, 0x3f	; 63
    37be:	f8 94       	cli
    37c0:	f0 93 f1 12 	sts	0x12F1, r31
    37c4:	e0 93 f2 12 	sts	0x12F2, r30
    37c8:	83 70       	andi	r24, 0x03	; 3
    37ca:	e8 2f       	mov	r30, r24
    37cc:	f0 e0       	ldi	r31, 0x00	; 0
    37ce:	ee 0f       	add	r30, r30
    37d0:	ff 1f       	adc	r31, r31
    37d2:	eb 51       	subi	r30, 0x1B	; 27
    37d4:	fd 4e       	sbci	r31, 0xED	; 237
    37d6:	34 83       	std	Z+4, r19	; 0x04
    37d8:	25 83       	std	Z+5, r18	; 0x05
    37da:	21 e0       	ldi	r18, 0x01	; 1
    37dc:	30 e0       	ldi	r19, 0x00	; 0
    37de:	d9 01       	movw	r26, r18
    37e0:	02 c0       	rjmp	.+4      	; 0x37e6 <__stack+0x15e7>
    37e2:	aa 0f       	add	r26, r26
    37e4:	bb 1f       	adc	r27, r27
    37e6:	8a 95       	dec	r24
    37e8:	e2 f7       	brpl	.-8      	; 0x37e2 <__stack+0x15e3>
    37ea:	cd 01       	movw	r24, r26
    37ec:	90 91 e5 12 	lds	r25, 0x12E5
    37f0:	89 2b       	or	r24, r25
    37f2:	80 93 e5 12 	sts	0x12E5, r24
    37f6:	4f bf       	out	0x3f, r20	; 63
    37f8:	8f 30       	cpi	r24, 0x0F	; 15
    37fa:	09 f0       	breq	.+2      	; 0x37fe <__stack+0x15ff>
    37fc:	e4 c0       	rjmp	.+456    	; 0x39c6 <__stack+0x17c7>
    37fe:	89 e0       	ldi	r24, 0x09	; 9
    3800:	ee ee       	ldi	r30, 0xEE	; 238
    3802:	f7 e0       	ldi	r31, 0x07	; 7
    3804:	df 01       	movw	r26, r30
    3806:	1d 92       	st	X+, r1
    3808:	8a 95       	dec	r24
    380a:	e9 f7       	brne	.-6      	; 0x3806 <__stack+0x1607>
    380c:	88 e0       	ldi	r24, 0x08	; 8
    380e:	e9 ee       	ldi	r30, 0xE9	; 233
    3810:	f2 e1       	ldi	r31, 0x12	; 18
    3812:	ae ee       	ldi	r26, 0xEE	; 238
    3814:	b7 e0       	ldi	r27, 0x07	; 7
    3816:	01 90       	ld	r0, Z+
    3818:	0d 92       	st	X+, r0
    381a:	8a 95       	dec	r24
    381c:	e1 f7       	brne	.-8      	; 0x3816 <__stack+0x1617>
    381e:	2f b7       	in	r18, 0x3f	; 63
    3820:	f8 94       	cli
    3822:	60 93 e8 07 	sts	0x07E8, r22
    3826:	60 93 e9 07 	sts	0x07E9, r22
    382a:	80 91 f1 12 	lds	r24, 0x12F1
    382e:	90 e0       	ldi	r25, 0x00	; 0
    3830:	98 2f       	mov	r25, r24
    3832:	88 27       	eor	r24, r24
    3834:	30 91 f2 12 	lds	r19, 0x12F2
    3838:	83 2b       	or	r24, r19
    383a:	90 93 ed 07 	sts	0x07ED, r25
    383e:	80 93 ec 07 	sts	0x07EC, r24
    3842:	2f bf       	out	0x3f, r18	; 63
    3844:	83 e0       	ldi	r24, 0x03	; 3
    3846:	0e 94 12 03 	call	0x624	; 0x624 <SchedulerBasicP__TaskBasic__postTask>
    384a:	48 e0       	ldi	r20, 0x08	; 8
    384c:	50 e0       	ldi	r21, 0x00	; 0
    384e:	60 e2       	ldi	r22, 0x20	; 32
    3850:	70 e0       	ldi	r23, 0x00	; 0
    3852:	89 ee       	ldi	r24, 0xE9	; 233
    3854:	92 e1       	ldi	r25, 0x12	; 18
    3856:	0e 94 42 2b 	call	0x5684	; 0x5684 <memset>
    385a:	10 92 e5 12 	sts	0x12E5, r1
    385e:	b3 c0       	rjmp	.+358    	; 0x39c6 <__stack+0x17c7>
    3860:	8f 70       	andi	r24, 0x0F	; 15
    3862:	ff b6       	in	r15, 0x3f	; 63
    3864:	f8 94       	cli
    3866:	b4 e0       	ldi	r27, 0x04	; 4
    3868:	8b 9f       	mul	r24, r27
    386a:	a0 01       	movw	r20, r0
    386c:	11 24       	eor	r1, r1
    386e:	8a 01       	movw	r16, r20
    3870:	0b 51       	subi	r16, 0x1B	; 27
    3872:	1d 4e       	sbci	r17, 0xED	; 237
    3874:	f8 01       	movw	r30, r16
    3876:	76 87       	std	Z+14, r23	; 0x0e
    3878:	ba 01       	movw	r22, r20
    387a:	6a 51       	subi	r22, 0x1A	; 26
    387c:	7d 4e       	sbci	r23, 0xED	; 237
    387e:	db 01       	movw	r26, r22
    3880:	1e 96       	adiw	r26, 0x0e	; 14
    3882:	9c 93       	st	X, r25
    3884:	da 01       	movw	r26, r20
    3886:	a9 51       	subi	r26, 0x19	; 25
    3888:	bd 4e       	sbci	r27, 0xED	; 237
    388a:	1e 96       	adiw	r26, 0x0e	; 14
    388c:	3c 93       	st	X, r19
    388e:	1e 97       	sbiw	r26, 0x0e	; 14
    3890:	48 51       	subi	r20, 0x18	; 24
    3892:	5d 4e       	sbci	r21, 0xED	; 237
    3894:	fa 01       	movw	r30, r20
    3896:	26 87       	std	Z+14, r18	; 0x0e
    3898:	ff be       	out	0x3f, r15	; 63
    389a:	f8 01       	movw	r30, r16
    389c:	96 85       	ldd	r25, Z+14	; 0x0e
    389e:	9d 30       	cpi	r25, 0x0D	; 13
    38a0:	21 f1       	breq	.+72     	; 0x38ea <__stack+0x16eb>
    38a2:	fb 01       	movw	r30, r22
    38a4:	96 85       	ldd	r25, Z+14	; 0x0e
    38a6:	9d 30       	cpi	r25, 0x0D	; 13
    38a8:	01 f1       	breq	.+64     	; 0x38ea <__stack+0x16eb>
    38aa:	1e 96       	adiw	r26, 0x0e	; 14
    38ac:	9c 91       	ld	r25, X
    38ae:	9d 30       	cpi	r25, 0x0D	; 13
    38b0:	e1 f0       	breq	.+56     	; 0x38ea <__stack+0x16eb>
    38b2:	da 01       	movw	r26, r20
    38b4:	1e 96       	adiw	r26, 0x0e	; 14
    38b6:	9c 91       	ld	r25, X
    38b8:	16 c0       	rjmp	.+44     	; 0x38e6 <__stack+0x16e7>
    38ba:	8f 70       	andi	r24, 0x0F	; 15
    38bc:	9f b7       	in	r25, 0x3f	; 63
    38be:	f8 94       	cli
    38c0:	e8 2f       	mov	r30, r24
    38c2:	f0 e0       	ldi	r31, 0x00	; 0
    38c4:	ee 0f       	add	r30, r30
    38c6:	ff 1f       	adc	r31, r31
    38c8:	df 01       	movw	r26, r30
    38ca:	ab 51       	subi	r26, 0x1B	; 27
    38cc:	bd 4e       	sbci	r27, 0xED	; 237
    38ce:	1e 96       	adiw	r26, 0x0e	; 14
    38d0:	3c 93       	st	X, r19
    38d2:	1e 97       	sbiw	r26, 0x0e	; 14
    38d4:	ea 51       	subi	r30, 0x1A	; 26
    38d6:	fd 4e       	sbci	r31, 0xED	; 237
    38d8:	26 87       	std	Z+14, r18	; 0x0e
    38da:	9f bf       	out	0x3f, r25	; 63
    38dc:	1e 96       	adiw	r26, 0x0e	; 14
    38de:	9c 91       	ld	r25, X
    38e0:	9d 30       	cpi	r25, 0x0D	; 13
    38e2:	19 f0       	breq	.+6      	; 0x38ea <__stack+0x16eb>
    38e4:	96 85       	ldd	r25, Z+14	; 0x0e
    38e6:	9d 30       	cpi	r25, 0x0D	; 13
    38e8:	11 f4       	brne	.+4      	; 0x38ee <__stack+0x16ef>
    38ea:	80 93 e8 12 	sts	0x12E8, r24
    38ee:	9f b7       	in	r25, 0x3f	; 63
    38f0:	f8 94       	cli
    38f2:	80 91 e6 12 	lds	r24, 0x12E6
    38f6:	8f 5f       	subi	r24, 0xFF	; 255
    38f8:	80 93 e6 12 	sts	0x12E6, r24
    38fc:	9f bf       	out	0x3f, r25	; 63
    38fe:	8f b7       	in	r24, 0x3f	; 63
    3900:	f8 94       	cli
    3902:	91 e0       	ldi	r25, 0x01	; 1
    3904:	90 93 ea 07 	sts	0x07EA, r25
    3908:	8f bf       	out	0x3f, r24	; 63
    390a:	81 e4       	ldi	r24, 0x41	; 65
    390c:	e7 ef       	ldi	r30, 0xF7	; 247
    390e:	f7 e0       	ldi	r31, 0x07	; 7
    3910:	df 01       	movw	r26, r30
    3912:	1d 92       	st	X+, r1
    3914:	8a 95       	dec	r24
    3916:	e9 f7       	brne	.-6      	; 0x3912 <__stack+0x1713>
    3918:	80 e4       	ldi	r24, 0x40	; 64
    391a:	e3 ef       	ldi	r30, 0xF3	; 243
    391c:	f2 e1       	ldi	r31, 0x12	; 18
    391e:	a7 ef       	ldi	r26, 0xF7	; 247
    3920:	b7 e0       	ldi	r27, 0x07	; 7
    3922:	01 90       	ld	r0, Z+
    3924:	0d 92       	st	X+, r0
    3926:	8a 95       	dec	r24
    3928:	e1 f7       	brne	.-8      	; 0x3922 <__stack+0x1723>
    392a:	83 e0       	ldi	r24, 0x03	; 3
    392c:	0e 94 12 03 	call	0x624	; 0x624 <SchedulerBasicP__TaskBasic__postTask>
    3930:	4a c0       	rjmp	.+148    	; 0x39c6 <__stack+0x17c7>
    3932:	89 2f       	mov	r24, r25
    3934:	82 95       	swap	r24
    3936:	80 71       	andi	r24, 0x10	; 16
    3938:	93 2f       	mov	r25, r19
    393a:	92 95       	swap	r25
    393c:	9f 70       	andi	r25, 0x0F	; 15
    393e:	89 2b       	or	r24, r25
    3940:	a9 01       	movw	r20, r18
    3942:	76 e0       	ldi	r23, 0x06	; 6
    3944:	56 95       	lsr	r21
    3946:	47 95       	ror	r20
    3948:	7a 95       	dec	r23
    394a:	e1 f7       	brne	.-8      	; 0x3944 <__stack+0x1745>
    394c:	4f 73       	andi	r20, 0x3F	; 63
    394e:	92 2f       	mov	r25, r18
    3950:	9f 71       	andi	r25, 0x1F	; 31
    3952:	96 95       	lsr	r25
    3954:	25 ff       	sbrs	r18, 5
    3956:	02 c0       	rjmp	.+4      	; 0x395c <__stack+0x175d>
    3958:	89 1b       	sub	r24, r25
    395a:	01 c0       	rjmp	.+2      	; 0x395e <__stack+0x175f>
    395c:	89 0f       	add	r24, r25
    395e:	0f b7       	in	r16, 0x3f	; 63
    3960:	f8 94       	cli
    3962:	e3 e3       	ldi	r30, 0x33	; 51
    3964:	f3 e1       	ldi	r31, 0x13	; 19
    3966:	16 e0       	ldi	r17, 0x06	; 6
    3968:	df 01       	movw	r26, r30
    396a:	21 2f       	mov	r18, r17
    396c:	1d 92       	st	X+, r1
    396e:	2a 95       	dec	r18
    3970:	e9 f7       	brne	.-6      	; 0x396c <__stack+0x176d>
    3972:	1f 92       	push	r1
    3974:	4f 93       	push	r20
    3976:	1f 92       	push	r1
    3978:	8f 93       	push	r24
    397a:	82 ec       	ldi	r24, 0xC2	; 194
    397c:	92 e0       	ldi	r25, 0x02	; 2
    397e:	9f 93       	push	r25
    3980:	8f 93       	push	r24
    3982:	ff 93       	push	r31
    3984:	ef 93       	push	r30
    3986:	0e 94 c7 2b 	call	0x578e	; 0x578e <sprintf>
    398a:	0f bf       	out	0x3f, r16	; 63
    398c:	8f b7       	in	r24, 0x3f	; 63
    398e:	f8 94       	cli
    3990:	91 e0       	ldi	r25, 0x01	; 1
    3992:	90 93 eb 07 	sts	0x07EB, r25
    3996:	8f bf       	out	0x3f, r24	; 63
    3998:	e8 e3       	ldi	r30, 0x38	; 56
    399a:	f8 e0       	ldi	r31, 0x08	; 8
    399c:	df 01       	movw	r26, r30
    399e:	21 2f       	mov	r18, r17
    39a0:	1d 92       	st	X+, r1
    39a2:	2a 95       	dec	r18
    39a4:	e9 f7       	brne	.-6      	; 0x39a0 <__stack+0x17a1>
    39a6:	e3 e3       	ldi	r30, 0x33	; 51
    39a8:	f3 e1       	ldi	r31, 0x13	; 19
    39aa:	a8 e3       	ldi	r26, 0x38	; 56
    39ac:	b8 e0       	ldi	r27, 0x08	; 8
    39ae:	01 90       	ld	r0, Z+
    39b0:	0d 92       	st	X+, r0
    39b2:	1a 95       	dec	r17
    39b4:	e1 f7       	brne	.-8      	; 0x39ae <__stack+0x17af>
    39b6:	83 e0       	ldi	r24, 0x03	; 3
    39b8:	0e 94 12 03 	call	0x624	; 0x624 <SchedulerBasicP__TaskBasic__postTask>
    39bc:	0f b6       	in	r0, 0x3f	; 63
    39be:	f8 94       	cli
    39c0:	de bf       	out	0x3e, r29	; 62
    39c2:	0f be       	out	0x3f, r0	; 63
    39c4:	cd bf       	out	0x3d, r28	; 61
    39c6:	80 91 df 12 	lds	r24, 0x12DF
    39ca:	81 11       	cpse	r24, r1
    39cc:	0c c0       	rjmp	.+24     	; 0x39e6 <__stack+0x17e7>
    39ce:	8f b7       	in	r24, 0x3f	; 63
    39d0:	f8 94       	cli
    39d2:	94 e0       	ldi	r25, 0x04	; 4
    39d4:	90 93 d7 12 	sts	0x12D7, r25
    39d8:	10 92 de 12 	sts	0x12DE, r1
    39dc:	8f bf       	out	0x3f, r24	; 63
    39de:	80 e0       	ldi	r24, 0x00	; 0
    39e0:	0e 94 76 07 	call	0xeec	; 0xeec <FMClickP__enableRDS>
    39e4:	00 c4       	rjmp	.+2048   	; 0x41e6 <__stack+0x1fe7>
    39e6:	8f b7       	in	r24, 0x3f	; 63
    39e8:	f8 94       	cli
    39ea:	10 92 d7 12 	sts	0x12D7, r1
    39ee:	10 92 de 12 	sts	0x12DE, r1
    39f2:	8f bf       	out	0x3f, r24	; 63
    39f4:	f8 c3       	rjmp	.+2032   	; 0x41e6 <__stack+0x1fe7>
    39f6:	9f b7       	in	r25, 0x3f	; 63
    39f8:	f8 94       	cli
    39fa:	80 91 da 12 	lds	r24, 0x12DA
    39fe:	9f bf       	out	0x3f, r25	; 63
    3a00:	88 23       	and	r24, r24
    3a02:	19 f0       	breq	.+6      	; 0x3a0a <__stack+0x180b>
    3a04:	0e 94 49 03 	call	0x692	; 0x692 <FMClickP__readRegisters__postTask>
    3a08:	ee c3       	rjmp	.+2012   	; 0x41e6 <__stack+0x1fe7>
    3a0a:	8f b7       	in	r24, 0x3f	; 63
    3a0c:	f8 94       	cli
    3a0e:	91 e0       	ldi	r25, 0x01	; 1
    3a10:	90 93 da 12 	sts	0x12DA, r25
    3a14:	8f bf       	out	0x3f, r24	; 63
    3a16:	0e 94 b0 06 	call	0xd60	; 0xd60 <ArbiterP__0__Resource__request.constprop.147>
    3a1a:	e5 c3       	rjmp	.+1994   	; 0x41e6 <__stack+0x1fe7>
    3a1c:	0e 94 18 07 	call	0xe30	; 0xe30 <FMClickP__readI2C__runTask>
    3a20:	e2 c3       	rjmp	.+1988   	; 0x41e6 <__stack+0x1fe7>
    3a22:	0e 94 d3 07 	call	0xfa6	; 0xfa6 <FMClickP__writeRegisters__runTask>
    3a26:	df c3       	rjmp	.+1982   	; 0x41e6 <__stack+0x1fe7>
    3a28:	9f b7       	in	r25, 0x3f	; 63
    3a2a:	f8 94       	cli
    3a2c:	80 91 cf 12 	lds	r24, 0x12CF
    3a30:	9f bf       	out	0x3f, r25	; 63
    3a32:	9f b7       	in	r25, 0x3f	; 63
    3a34:	f8 94       	cli
    3a36:	20 91 0d 02 	lds	r18, 0x020D
    3a3a:	21 11       	cpse	r18, r1
    3a3c:	36 c0       	rjmp	.+108    	; 0x3aaa <__stack+0x18ab>
    3a3e:	9f bf       	out	0x3f, r25	; 63
    3a40:	9f b7       	in	r25, 0x3f	; 63
    3a42:	f8 94       	cli
    3a44:	20 91 09 03 	lds	r18, 0x0309
    3a48:	21 30       	cpi	r18, 0x01	; 1
    3a4a:	79 f5       	brne	.+94     	; 0x3aaa <__stack+0x18ab>
    3a4c:	22 e0       	ldi	r18, 0x02	; 2
    3a4e:	20 93 09 03 	sts	0x0309, r18
    3a52:	9f bf       	out	0x3f, r25	; 63
    3a54:	9f b7       	in	r25, 0x3f	; 63
    3a56:	f8 94       	cli
    3a58:	20 e1       	ldi	r18, 0x10	; 16
    3a5a:	30 e0       	ldi	r19, 0x00	; 0
    3a5c:	30 93 46 0f 	sts	0x0F46, r19
    3a60:	20 93 45 0f 	sts	0x0F45, r18
    3a64:	24 e7       	ldi	r18, 0x74	; 116
    3a66:	32 e1       	ldi	r19, 0x12	; 18
    3a68:	30 93 0f 0d 	sts	0x0D0F, r19
    3a6c:	20 93 0e 0d 	sts	0x0D0E, r18
    3a70:	88 0f       	add	r24, r24
    3a72:	82 50       	subi	r24, 0x02	; 2
    3a74:	80 93 4a 08 	sts	0x084A, r24
    3a78:	83 e0       	ldi	r24, 0x03	; 3
    3a7a:	80 93 6e 13 	sts	0x136E, r24
    3a7e:	10 92 d0 12 	sts	0x12D0, r1
    3a82:	10 92 08 03 	sts	0x0308, r1
    3a86:	9f bf       	out	0x3f, r25	; 63
    3a88:	0e 94 68 03 	call	0x6d0	; 0x6d0 <HplAtm128I2CBusP__I2C__readCurrent>
    3a8c:	1f b7       	in	r17, 0x3f	; 63
    3a8e:	f8 94       	cli
    3a90:	80 91 54 12 	lds	r24, 0x1254
    3a94:	8f 7e       	andi	r24, 0xEF	; 239
    3a96:	81 6e       	ori	r24, 0xE1	; 225
    3a98:	80 93 54 12 	sts	0x1254, r24
    3a9c:	84 e0       	ldi	r24, 0x04	; 4
    3a9e:	80 93 09 03 	sts	0x0309, r24
    3aa2:	0e 94 f1 02 	call	0x5e2	; 0x5e2 <HplAtm128I2CBusP__I2C__sendCommand>
    3aa6:	1f bf       	out	0x3f, r17	; 63
    3aa8:	9e c3       	rjmp	.+1852   	; 0x41e6 <__stack+0x1fe7>
    3aaa:	9f bf       	out	0x3f, r25	; 63
    3aac:	82 e2       	ldi	r24, 0x22	; 34
    3aae:	0e 94 12 03 	call	0x624	; 0x624 <SchedulerBasicP__TaskBasic__postTask>
    3ab2:	99 c3       	rjmp	.+1842   	; 0x41e6 <__stack+0x1fe7>
    3ab4:	40 e0       	ldi	r20, 0x00	; 0
    3ab6:	50 e0       	ldi	r21, 0x00	; 0
    3ab8:	2a e0       	ldi	r18, 0x0A	; 10
    3aba:	da 01       	movw	r26, r20
    3abc:	ac 58       	subi	r26, 0x8C	; 140
    3abe:	bd 4e       	sbci	r27, 0xED	; 237
    3ac0:	e2 2f       	mov	r30, r18
    3ac2:	f0 e0       	ldi	r31, 0x00	; 0
    3ac4:	ee 0f       	add	r30, r30
    3ac6:	ff 1f       	adc	r31, r31
    3ac8:	e7 58       	subi	r30, 0x87	; 135
    3aca:	f5 4f       	sbci	r31, 0xF5	; 245
    3acc:	8c 91       	ld	r24, X
    3ace:	90 e0       	ldi	r25, 0x00	; 0
    3ad0:	98 2f       	mov	r25, r24
    3ad2:	88 27       	eor	r24, r24
    3ad4:	11 96       	adiw	r26, 0x01	; 1
    3ad6:	3c 91       	ld	r19, X
    3ad8:	83 2b       	or	r24, r19
    3ada:	91 83       	std	Z+1, r25	; 0x01
    3adc:	80 83       	st	Z, r24
    3ade:	2f 5f       	subi	r18, 0xFF	; 255
    3ae0:	2f 70       	andi	r18, 0x0F	; 15
    3ae2:	4e 5f       	subi	r20, 0xFE	; 254
    3ae4:	5f 4f       	sbci	r21, 0xFF	; 255
    3ae6:	40 32       	cpi	r20, 0x20	; 32
    3ae8:	51 05       	cpc	r21, r1
    3aea:	39 f7       	brne	.-50     	; 0x3aba <__stack+0x18bb>
    3aec:	7c c3       	rjmp	.+1784   	; 0x41e6 <__stack+0x1fe7>
    3aee:	8f b7       	in	r24, 0x3f	; 63
    3af0:	f8 94       	cli
    3af2:	90 91 ce 12 	lds	r25, 0x12CE
    3af6:	90 93 0e 02 	sts	0x020E, r25
    3afa:	93 e0       	ldi	r25, 0x03	; 3
    3afc:	90 93 0a 03 	sts	0x030A, r25
    3b00:	8f bf       	out	0x3f, r24	; 63
    3b02:	80 91 0e 02 	lds	r24, 0x020E
    3b06:	9f b7       	in	r25, 0x3f	; 63
    3b08:	f8 94       	cli
    3b0a:	80 93 0d 02 	sts	0x020D, r24
    3b0e:	9f bf       	out	0x3f, r25	; 63
    3b10:	81 11       	cpse	r24, r1
    3b12:	69 c3       	rjmp	.+1746   	; 0x41e6 <__stack+0x1fe7>
    3b14:	9f b7       	in	r25, 0x3f	; 63
    3b16:	f8 94       	cli
    3b18:	80 91 da 12 	lds	r24, 0x12DA
    3b1c:	9f bf       	out	0x3f, r25	; 63
    3b1e:	81 30       	cpi	r24, 0x01	; 1
    3b20:	31 f0       	breq	.+12     	; 0x3b2e <__stack+0x192f>
    3b22:	82 30       	cpi	r24, 0x02	; 2
    3b24:	41 f4       	brne	.+16     	; 0x3b36 <__stack+0x1937>
    3b26:	82 e2       	ldi	r24, 0x22	; 34
    3b28:	0e 94 12 03 	call	0x624	; 0x624 <SchedulerBasicP__TaskBasic__postTask>
    3b2c:	5c c3       	rjmp	.+1720   	; 0x41e6 <__stack+0x1fe7>
    3b2e:	80 e2       	ldi	r24, 0x20	; 32
    3b30:	0e 94 12 03 	call	0x624	; 0x624 <SchedulerBasicP__TaskBasic__postTask>
    3b34:	58 c3       	rjmp	.+1712   	; 0x41e6 <__stack+0x1fe7>
    3b36:	0e 94 e9 08 	call	0x11d2	; 0x11d2 <FMClickP__I2CResource__release>
    3b3a:	55 c3       	rjmp	.+1706   	; 0x41e6 <__stack+0x1fe7>
    3b3c:	1f b7       	in	r17, 0x3f	; 63
    3b3e:	f8 94       	cli
    3b40:	80 91 08 03 	lds	r24, 0x0308
    3b44:	88 23       	and	r24, r24
    3b46:	21 f0       	breq	.+8      	; 0x3b50 <__stack+0x1951>
    3b48:	81 e0       	ldi	r24, 0x01	; 1
    3b4a:	0e 94 33 0e 	call	0x1c66	; 0x1c66 <Atm128I2CMasterPacketP__0__readNextByte>
    3b4e:	02 c0       	rjmp	.+4      	; 0x3b54 <__stack+0x1955>
    3b50:	0e 94 a0 0e 	call	0x1d40	; 0x1d40 <Atm128I2CMasterPacketP__0__writeNextByte>
    3b54:	1f bf       	out	0x3f, r17	; 63
    3b56:	47 c3       	rjmp	.+1678   	; 0x41e6 <__stack+0x1fe7>
    3b58:	0e 94 ce 08 	call	0x119c	; 0x119c <ArbiterP__1__grantedTask__runTask>
    3b5c:	44 c3       	rjmp	.+1672   	; 0x41e6 <__stack+0x1fe7>
    3b5e:	10 92 e7 0f 	sts	0x0FE7, r1
    3b62:	00 91 56 12 	lds	r16, 0x1256
    3b66:	10 91 57 12 	lds	r17, 0x1257
    3b6a:	80 91 39 13 	lds	r24, 0x1339
    3b6e:	81 11       	cpse	r24, r1
    3b70:	3a c3       	rjmp	.+1652   	; 0x41e6 <__stack+0x1fe7>
    3b72:	ff b6       	in	r15, 0x3f	; 63
    3b74:	f8 94       	cli
    3b76:	80 91 06 03 	lds	r24, 0x0306
    3b7a:	83 30       	cpi	r24, 0x03	; 3
    3b7c:	09 f0       	breq	.+2      	; 0x3b80 <__stack+0x1981>
    3b7e:	3e c0       	rjmp	.+124    	; 0x3bfc <__stack+0x19fd>
    3b80:	80 91 0c 02 	lds	r24, 0x020C
    3b84:	81 11       	cpse	r24, r1
    3b86:	3a c0       	rjmp	.+116    	; 0x3bfc <__stack+0x19fd>
    3b88:	80 91 1d 12 	lds	r24, 0x121D
    3b8c:	88 23       	and	r24, r24
    3b8e:	09 f4       	brne	.+2      	; 0x3b92 <__stack+0x1993>
    3b90:	17 c3       	rjmp	.+1582   	; 0x41c0 <__stack+0x1fc1>
    3b92:	60 91 07 03 	lds	r22, 0x0307
    3b96:	70 e0       	ldi	r23, 0x00	; 0
    3b98:	cb 01       	movw	r24, r22
    3b9a:	01 96       	adiw	r24, 0x01	; 1
    3b9c:	a1 e0       	ldi	r26, 0x01	; 1
    3b9e:	b0 e0       	ldi	r27, 0x00	; 0
    3ba0:	81 30       	cpi	r24, 0x01	; 1
    3ba2:	91 05       	cpc	r25, r1
    3ba4:	11 f4       	brne	.+4      	; 0x3baa <__stack+0x19ab>
    3ba6:	80 e0       	ldi	r24, 0x00	; 0
    3ba8:	90 e0       	ldi	r25, 0x00	; 0
    3baa:	e8 2f       	mov	r30, r24
    3bac:	e6 95       	lsr	r30
    3bae:	e6 95       	lsr	r30
    3bb0:	e6 95       	lsr	r30
    3bb2:	f0 e0       	ldi	r31, 0x00	; 0
    3bb4:	e3 5e       	subi	r30, 0xE3	; 227
    3bb6:	fd 4e       	sbci	r31, 0xED	; 237
    3bb8:	20 81       	ld	r18, Z
    3bba:	38 2f       	mov	r19, r24
    3bbc:	37 70       	andi	r19, 0x07	; 7
    3bbe:	ad 01       	movw	r20, r26
    3bc0:	01 c0       	rjmp	.+2      	; 0x3bc4 <__stack+0x19c5>
    3bc2:	44 0f       	add	r20, r20
    3bc4:	3a 95       	dec	r19
    3bc6:	ea f7       	brpl	.-6      	; 0x3bc2 <__stack+0x19c3>
    3bc8:	32 2f       	mov	r19, r18
    3bca:	34 23       	and	r19, r20
    3bcc:	31 f0       	breq	.+12     	; 0x3bda <__stack+0x19db>
    3bce:	40 95       	com	r20
    3bd0:	24 23       	and	r18, r20
    3bd2:	20 83       	st	Z, r18
    3bd4:	80 93 07 03 	sts	0x0307, r24
    3bd8:	06 c0       	rjmp	.+12     	; 0x3be6 <__stack+0x19e7>
    3bda:	86 17       	cp	r24, r22
    3bdc:	97 07       	cpc	r25, r23
    3bde:	11 f0       	breq	.+4      	; 0x3be4 <__stack+0x19e5>
    3be0:	01 96       	adiw	r24, 0x01	; 1
    3be2:	de cf       	rjmp	.-68     	; 0x3ba0 <__stack+0x19a1>
    3be4:	8f ef       	ldi	r24, 0xFF	; 255
    3be6:	80 93 44 0f 	sts	0x0F44, r24
    3bea:	8f ef       	ldi	r24, 0xFF	; 255
    3bec:	80 93 0c 02 	sts	0x020C, r24
    3bf0:	81 e0       	ldi	r24, 0x01	; 1
    3bf2:	80 93 06 03 	sts	0x0306, r24
    3bf6:	86 e2       	ldi	r24, 0x26	; 38
    3bf8:	0e 94 12 03 	call	0x624	; 0x624 <SchedulerBasicP__TaskBasic__postTask>
    3bfc:	ff be       	out	0x3f, r15	; 63
    3bfe:	96 e0       	ldi	r25, 0x06	; 6
    3c00:	16 95       	lsr	r17
    3c02:	07 95       	ror	r16
    3c04:	9a 95       	dec	r25
    3c06:	e1 f7       	brne	.-8      	; 0x3c00 <__stack+0x1a01>
    3c08:	00 93 3b 04 	sts	0x043B, r16
    3c0c:	84 e0       	ldi	r24, 0x04	; 4
    3c0e:	0e 94 12 03 	call	0x624	; 0x624 <SchedulerBasicP__TaskBasic__postTask>
    3c12:	e9 c2       	rjmp	.+1490   	; 0x41e6 <__stack+0x1fe7>
    3c14:	80 91 4a 0f 	lds	r24, 0x0F4A
    3c18:	81 30       	cpi	r24, 0x01	; 1
    3c1a:	e1 f4       	brne	.+56     	; 0x3c54 <__stack+0x1a55>
    3c1c:	60 e0       	ldi	r22, 0x00	; 0
    3c1e:	80 e8       	ldi	r24, 0x80	; 128
    3c20:	0e 94 22 08 	call	0x1044	; 0x1044 <HplLcdP__write>
    3c24:	88 e2       	ldi	r24, 0x28	; 40
    3c26:	90 e0       	ldi	r25, 0x00	; 0
    3c28:	0e 94 5b 06 	call	0xcb6	; 0xcb6 <BusyWaitMicroC__BusyWait__wait.part.0>
    3c2c:	00 e0       	ldi	r16, 0x00	; 0
    3c2e:	10 e0       	ldi	r17, 0x00	; 0
    3c30:	f8 01       	movw	r30, r16
    3c32:	e8 51       	subi	r30, 0x18	; 24
    3c34:	f0 4f       	sbci	r31, 0xF0	; 240
    3c36:	61 e0       	ldi	r22, 0x01	; 1
    3c38:	80 81       	ld	r24, Z
    3c3a:	0e 94 22 08 	call	0x1044	; 0x1044 <HplLcdP__write>
    3c3e:	88 e2       	ldi	r24, 0x28	; 40
    3c40:	90 e0       	ldi	r25, 0x00	; 0
    3c42:	0e 94 5b 06 	call	0xcb6	; 0xcb6 <BusyWaitMicroC__BusyWait__wait.part.0>
    3c46:	0f 5f       	subi	r16, 0xFF	; 255
    3c48:	1f 4f       	sbci	r17, 0xFF	; 255
    3c4a:	00 31       	cpi	r16, 0x10	; 16
    3c4c:	11 05       	cpc	r17, r1
    3c4e:	81 f7       	brne	.-32     	; 0x3c30 <__stack+0x1a31>
    3c50:	10 92 4a 0f 	sts	0x0F4A, r1
    3c54:	80 91 4b 0f 	lds	r24, 0x0F4B
    3c58:	81 30       	cpi	r24, 0x01	; 1
    3c5a:	09 f0       	breq	.+2      	; 0x3c5e <__stack+0x1a5f>
    3c5c:	c4 c2       	rjmp	.+1416   	; 0x41e6 <__stack+0x1fe7>
    3c5e:	60 e0       	ldi	r22, 0x00	; 0
    3c60:	80 ec       	ldi	r24, 0xC0	; 192
    3c62:	0e 94 22 08 	call	0x1044	; 0x1044 <HplLcdP__write>
    3c66:	88 e2       	ldi	r24, 0x28	; 40
    3c68:	90 e0       	ldi	r25, 0x00	; 0
    3c6a:	0e 94 5b 06 	call	0xcb6	; 0xcb6 <BusyWaitMicroC__BusyWait__wait.part.0>
    3c6e:	00 e0       	ldi	r16, 0x00	; 0
    3c70:	10 e0       	ldi	r17, 0x00	; 0
    3c72:	f8 01       	movw	r30, r16
    3c74:	e8 50       	subi	r30, 0x08	; 8
    3c76:	f0 4f       	sbci	r31, 0xF0	; 240
    3c78:	61 e0       	ldi	r22, 0x01	; 1
    3c7a:	80 81       	ld	r24, Z
    3c7c:	0e 94 22 08 	call	0x1044	; 0x1044 <HplLcdP__write>
    3c80:	88 e2       	ldi	r24, 0x28	; 40
    3c82:	90 e0       	ldi	r25, 0x00	; 0
    3c84:	0e 94 5b 06 	call	0xcb6	; 0xcb6 <BusyWaitMicroC__BusyWait__wait.part.0>
    3c88:	0f 5f       	subi	r16, 0xFF	; 255
    3c8a:	1f 4f       	sbci	r17, 0xFF	; 255
    3c8c:	00 31       	cpi	r16, 0x10	; 16
    3c8e:	11 05       	cpc	r17, r1
    3c90:	81 f7       	brne	.-32     	; 0x3c72 <__stack+0x1a73>
    3c92:	10 92 4b 0f 	sts	0x0F4B, r1
    3c96:	a7 c2       	rjmp	.+1358   	; 0x41e6 <__stack+0x1fe7>
    3c98:	0e 94 34 03 	call	0x668	; 0x668 <RadioScannerP__startTune__postTask>
    3c9c:	a4 c2       	rjmp	.+1352   	; 0x41e6 <__stack+0x1fe7>
    3c9e:	e9 2f       	mov	r30, r25
    3ca0:	f0 e0       	ldi	r31, 0x00	; 0
    3ca2:	e3 5c       	subi	r30, 0xC3	; 195
    3ca4:	fb 4f       	sbci	r31, 0xFB	; 251
    3ca6:	81 83       	std	Z+1, r24	; 0x01
    3ca8:	9f 5f       	subi	r25, 0xFF	; 255
    3caa:	90 93 3d 04 	sts	0x043D, r25
    3cae:	ab e3       	ldi	r26, 0x3B	; 59
    3cb0:	8a 9f       	mul	r24, r26
    3cb2:	b0 01       	movw	r22, r0
    3cb4:	11 24       	eor	r1, r1
    3cb6:	fb 01       	movw	r30, r22
    3cb8:	e9 5b       	subi	r30, 0xB9	; 185
    3cba:	fb 4f       	sbci	r31, 0xFB	; 251
    3cbc:	92 83       	std	Z+2, r25	; 0x02
    3cbe:	67 5b       	subi	r22, 0xB7	; 183
    3cc0:	7b 4f       	sbci	r23, 0xFB	; 251
    3cc2:	0e 94 2e 05 	call	0xa5c	; 0xa5c <DatabaseP__Database__saveChannel>
    3cc6:	8f c2       	rjmp	.+1310   	; 0x41e6 <__stack+0x1fe7>
    3cc8:	e0 91 1d 03 	lds	r30, 0x031D
    3ccc:	bd e0       	ldi	r27, 0x0D	; 13
    3cce:	eb 9f       	mul	r30, r27
    3cd0:	c0 01       	movw	r24, r0
    3cd2:	11 24       	eor	r1, r1
    3cd4:	fc 01       	movw	r30, r24
    3cd6:	ec 53       	subi	r30, 0x3C	; 60
    3cd8:	f3 4f       	sbci	r31, 0xF3	; 243
    3cda:	26 e0       	ldi	r18, 0x06	; 6
    3cdc:	a9 e9       	ldi	r26, 0x99	; 153
    3cde:	ba e0       	ldi	r27, 0x0A	; 10
    3ce0:	01 90       	ld	r0, Z+
    3ce2:	0d 92       	st	X+, r0
    3ce4:	2a 95       	dec	r18
    3ce6:	e1 f7       	brne	.-8      	; 0x3ce0 <__stack+0x1ae1>
    3ce8:	26 e0       	ldi	r18, 0x06	; 6
    3cea:	e6 e1       	ldi	r30, 0x16	; 22
    3cec:	f2 e0       	ldi	r31, 0x02	; 2
    3cee:	af e9       	ldi	r26, 0x9F	; 159
    3cf0:	ba e0       	ldi	r27, 0x0A	; 10
    3cf2:	01 90       	ld	r0, Z+
    3cf4:	0d 92       	st	X+, r0
    3cf6:	2a 95       	dec	r18
    3cf8:	e1 f7       	brne	.-8      	; 0x3cf2 <__stack+0x1af3>
    3cfa:	fc 01       	movw	r30, r24
    3cfc:	ed 53       	subi	r30, 0x3D	; 61
    3cfe:	f3 4f       	sbci	r31, 0xF3	; 243
    3d00:	97 81       	ldd	r25, Z+7	; 0x07
    3d02:	80 85       	ldd	r24, Z+8	; 0x08
    3d04:	90 93 a6 0a 	sts	0x0AA6, r25
    3d08:	80 93 a5 0a 	sts	0x0AA5, r24
    3d0c:	03 85       	ldd	r16, Z+11	; 0x0b
    3d0e:	14 85       	ldd	r17, Z+12	; 0x0c
    3d10:	61 85       	ldd	r22, Z+9	; 0x09
    3d12:	72 85       	ldd	r23, Z+10	; 0x0a
    3d14:	a8 01       	movw	r20, r16
    3d16:	87 ea       	ldi	r24, 0xA7	; 167
    3d18:	9a e0       	ldi	r25, 0x0A	; 10
    3d1a:	0e 94 39 2b 	call	0x5672	; 0x5672 <memcpy>
    3d1e:	80 91 10 03 	lds	r24, 0x0310
    3d22:	81 11       	cpse	r24, r1
    3d24:	1a c0       	rjmp	.+52     	; 0x3d5a <__stack+0x1b5b>
    3d26:	80 91 11 03 	lds	r24, 0x0311
    3d2a:	82 30       	cpi	r24, 0x02	; 2
    3d2c:	b1 f4       	brne	.+44     	; 0x3d5a <__stack+0x1b5b>
    3d2e:	0e 94 30 08 	call	0x1060	; 0x1060 <Atm1280SpiP__Resource__request.constprop.124>
    3d32:	81 11       	cpse	r24, r1
    3d34:	14 c0       	rjmp	.+40     	; 0x3d5e <__stack+0x1b5f>
    3d36:	89 e9       	ldi	r24, 0x99	; 153
    3d38:	9a e0       	ldi	r25, 0x0A	; 10
    3d3a:	90 93 73 12 	sts	0x1273, r25
    3d3e:	80 93 72 12 	sts	0x1272, r24
    3d42:	02 5f       	subi	r16, 0xF2	; 242
    3d44:	1f 4f       	sbci	r17, 0xFF	; 255
    3d46:	10 93 11 0d 	sts	0x0D11, r17
    3d4a:	00 93 10 0d 	sts	0x0D10, r16
    3d4e:	81 e0       	ldi	r24, 0x01	; 1
    3d50:	80 93 10 03 	sts	0x0310, r24
    3d54:	80 93 1c 03 	sts	0x031C, r24
    3d58:	46 c2       	rjmp	.+1164   	; 0x41e6 <__stack+0x1fe7>
    3d5a:	65 e0       	ldi	r22, 0x05	; 5
    3d5c:	01 c0       	rjmp	.+2      	; 0x3d60 <__stack+0x1b61>
    3d5e:	67 e0       	ldi	r22, 0x07	; 7
    3d60:	80 91 1d 03 	lds	r24, 0x031D
    3d64:	2d e0       	ldi	r18, 0x0D	; 13
    3d66:	82 9f       	mul	r24, r18
    3d68:	f0 01       	movw	r30, r0
    3d6a:	11 24       	eor	r1, r1
    3d6c:	ed 53       	subi	r30, 0x3D	; 61
    3d6e:	f3 4f       	sbci	r31, 0xF3	; 243
    3d70:	10 82       	st	Z, r1
    3d72:	0e 94 79 09 	call	0x12f2	; 0x12f2 <LlcQueueP__LlcQueue__sendDone>
    3d76:	37 c2       	rjmp	.+1134   	; 0x41e6 <__stack+0x1fe7>
    3d78:	80 91 17 03 	lds	r24, 0x0317
    3d7c:	28 2f       	mov	r18, r24
    3d7e:	30 e0       	ldi	r19, 0x00	; 0
    3d80:	6d e1       	ldi	r22, 0x1D	; 29
    3d82:	86 9f       	mul	r24, r22
    3d84:	f0 01       	movw	r30, r0
    3d86:	11 24       	eor	r1, r1
    3d88:	af 01       	movw	r20, r30
    3d8a:	4b 56       	subi	r20, 0x6B	; 107
    3d8c:	5d 4e       	sbci	r21, 0xED	; 237
    3d8e:	90 91 d0 0c 	lds	r25, 0x0CD0
    3d92:	91 11       	cpse	r25, r1
    3d94:	26 c0       	rjmp	.+76     	; 0x3de2 <__stack+0x1be3>
    3d96:	61 ed       	ldi	r22, 0xD1	; 209
    3d98:	7c e0       	ldi	r23, 0x0C	; 12
    3d9a:	61 15       	cp	r22, r1
    3d9c:	71 05       	cpc	r23, r1
    3d9e:	09 f1       	breq	.+66     	; 0x3de2 <__stack+0x1be3>
    3da0:	e9 55       	subi	r30, 0x59	; 89
    3da2:	fd 4e       	sbci	r31, 0xED	; 237
    3da4:	86 e0       	ldi	r24, 0x06	; 6
    3da6:	db 01       	movw	r26, r22
    3da8:	01 90       	ld	r0, Z+
    3daa:	0d 92       	st	X+, r0
    3dac:	8a 95       	dec	r24
    3dae:	e1 f7       	brne	.-8      	; 0x3da8 <__stack+0x1ba9>
    3db0:	86 e0       	ldi	r24, 0x06	; 6
    3db2:	98 e0       	ldi	r25, 0x08	; 8
    3db4:	90 93 d8 0c 	sts	0x0CD8, r25
    3db8:	80 93 d7 0c 	sts	0x0CD7, r24
    3dbc:	50 93 da 0c 	sts	0x0CDA, r21
    3dc0:	40 93 d9 0c 	sts	0x0CD9, r20
    3dc4:	8c e1       	ldi	r24, 0x1C	; 28
    3dc6:	90 e0       	ldi	r25, 0x00	; 0
    3dc8:	90 93 dc 0c 	sts	0x0CDC, r25
    3dcc:	80 93 db 0c 	sts	0x0CDB, r24
    3dd0:	11 e0       	ldi	r17, 0x01	; 1
    3dd2:	10 93 d0 0c 	sts	0x0CD0, r17
    3dd6:	81 e1       	ldi	r24, 0x11	; 17
    3dd8:	0e 94 12 03 	call	0x624	; 0x624 <SchedulerBasicP__TaskBasic__postTask>
    3ddc:	10 93 16 03 	sts	0x0316, r17
    3de0:	02 c2       	rjmp	.+1028   	; 0x41e6 <__stack+0x1fe7>
    3de2:	9d e1       	ldi	r25, 0x1D	; 29
    3de4:	92 9f       	mul	r25, r18
    3de6:	f0 01       	movw	r30, r0
    3de8:	93 9f       	mul	r25, r19
    3dea:	f0 0d       	add	r31, r0
    3dec:	11 24       	eor	r1, r1
    3dee:	ec 56       	subi	r30, 0x6C	; 108
    3df0:	fd 4e       	sbci	r31, 0xED	; 237
    3df2:	10 82       	st	Z, r1
    3df4:	65 e0       	ldi	r22, 0x05	; 5
    3df6:	0e 94 66 09 	call	0x12cc	; 0x12cc <ArpP__PacketQueue__sendDone>
    3dfa:	f5 c1       	rjmp	.+1002   	; 0x41e6 <__stack+0x1fe7>
    3dfc:	f0 90 15 03 	lds	r15, 0x0315
    3e00:	85 e4       	ldi	r24, 0x45	; 69
    3e02:	80 93 14 0d 	sts	0x0D14, r24
    3e06:	10 92 15 0d 	sts	0x0D15, r1
    3e0a:	86 e6       	ldi	r24, 0x66	; 102
    3e0c:	80 93 19 0d 	sts	0x0D19, r24
    3e10:	80 93 18 0d 	sts	0x0D18, r24
    3e14:	10 92 1b 0d 	sts	0x0D1B, r1
    3e18:	10 92 1a 0d 	sts	0x0D1A, r1
    3e1c:	8f ef       	ldi	r24, 0xFF	; 255
    3e1e:	80 93 1c 0d 	sts	0x0D1C, r24
    3e22:	88 e0       	ldi	r24, 0x08	; 8
    3e24:	f8 9e       	mul	r15, r24
    3e26:	80 01       	movw	r16, r0
    3e28:	11 24       	eor	r1, r1
    3e2a:	d8 01       	movw	r26, r16
    3e2c:	a0 5d       	subi	r26, 0xD0	; 208
    3e2e:	b0 4f       	sbci	r27, 0xF0	; 240
    3e30:	6d 01       	movw	r12, r26
    3e32:	16 96       	adiw	r26, 0x06	; 6
    3e34:	4d 91       	ld	r20, X+
    3e36:	5c 91       	ld	r21, X
    3e38:	17 97       	sbiw	r26, 0x07	; 7
    3e3a:	ca 01       	movw	r24, r20
    3e3c:	44 96       	adiw	r24, 0x14	; 20
    3e3e:	80 93 17 0d 	sts	0x0D17, r24
    3e42:	90 93 16 0d 	sts	0x0D16, r25
    3e46:	11 96       	adiw	r26, 0x01	; 1
    3e48:	ed 91       	ld	r30, X+
    3e4a:	fc 91       	ld	r31, X
    3e4c:	12 97       	sbiw	r26, 0x02	; 2
    3e4e:	80 81       	ld	r24, Z
    3e50:	91 81       	ldd	r25, Z+1	; 0x01
    3e52:	a2 81       	ldd	r26, Z+2	; 0x02
    3e54:	b3 81       	ldd	r27, Z+3	; 0x03
    3e56:	80 93 24 0d 	sts	0x0D24, r24
    3e5a:	90 93 25 0d 	sts	0x0D25, r25
    3e5e:	a0 93 26 0d 	sts	0x0D26, r26
    3e62:	b0 93 27 0d 	sts	0x0D27, r27
    3e66:	80 91 24 02 	lds	r24, 0x0224
    3e6a:	90 91 25 02 	lds	r25, 0x0225
    3e6e:	a0 91 26 02 	lds	r26, 0x0226
    3e72:	b0 91 27 02 	lds	r27, 0x0227
    3e76:	80 93 20 0d 	sts	0x0D20, r24
    3e7a:	90 93 21 0d 	sts	0x0D21, r25
    3e7e:	a0 93 22 0d 	sts	0x0D22, r26
    3e82:	b0 93 23 0d 	sts	0x0D23, r27
    3e86:	f6 01       	movw	r30, r12
    3e88:	64 81       	ldd	r22, Z+4	; 0x04
    3e8a:	75 81       	ldd	r23, Z+5	; 0x05
    3e8c:	88 e2       	ldi	r24, 0x28	; 40
    3e8e:	9d e0       	ldi	r25, 0x0D	; 13
    3e90:	0e 94 39 2b 	call	0x5672	; 0x5672 <memcpy>
    3e94:	d6 01       	movw	r26, r12
    3e96:	13 96       	adiw	r26, 0x03	; 3
    3e98:	8c 91       	ld	r24, X
    3e9a:	80 93 1d 0d 	sts	0x0D1D, r24
    3e9e:	10 92 1f 0d 	sts	0x0D1F, r1
    3ea2:	10 92 1e 0d 	sts	0x0D1E, r1
    3ea6:	e4 e1       	ldi	r30, 0x14	; 20
    3ea8:	fd e0       	ldi	r31, 0x0D	; 13
    3eaa:	80 e0       	ldi	r24, 0x00	; 0
    3eac:	90 e0       	ldi	r25, 0x00	; 0
    3eae:	dc 01       	movw	r26, r24
    3eb0:	21 91       	ld	r18, Z+
    3eb2:	31 91       	ld	r19, Z+
    3eb4:	82 0f       	add	r24, r18
    3eb6:	93 1f       	adc	r25, r19
    3eb8:	a1 1d       	adc	r26, r1
    3eba:	b1 1d       	adc	r27, r1
    3ebc:	2d e0       	ldi	r18, 0x0D	; 13
    3ebe:	e8 32       	cpi	r30, 0x28	; 40
    3ec0:	f2 07       	cpc	r31, r18
    3ec2:	b1 f7       	brne	.-20     	; 0x3eb0 <__stack+0x1cb1>
    3ec4:	ad 01       	movw	r20, r26
    3ec6:	66 27       	eor	r22, r22
    3ec8:	77 27       	eor	r23, r23
    3eca:	41 15       	cp	r20, r1
    3ecc:	51 05       	cpc	r21, r1
    3ece:	61 05       	cpc	r22, r1
    3ed0:	71 05       	cpc	r23, r1
    3ed2:	39 f0       	breq	.+14     	; 0x3ee2 <__stack+0x1ce3>
    3ed4:	aa 27       	eor	r26, r26
    3ed6:	bb 27       	eor	r27, r27
    3ed8:	84 0f       	add	r24, r20
    3eda:	95 1f       	adc	r25, r21
    3edc:	a6 1f       	adc	r26, r22
    3ede:	b7 1f       	adc	r27, r23
    3ee0:	f1 cf       	rjmp	.-30     	; 0x3ec4 <__stack+0x1cc5>
    3ee2:	80 95       	com	r24
    3ee4:	90 95       	com	r25
    3ee6:	a0 95       	com	r26
    3ee8:	b0 95       	com	r27
    3eea:	90 93 1f 0d 	sts	0x0D1F, r25
    3eee:	80 93 1e 0d 	sts	0x0D1E, r24
    3ef2:	80 91 1c 02 	lds	r24, 0x021C
    3ef6:	90 91 1d 02 	lds	r25, 0x021D
    3efa:	a0 91 1e 02 	lds	r26, 0x021E
    3efe:	b0 91 1f 02 	lds	r27, 0x021F
    3f02:	80 90 24 0d 	lds	r8, 0x0D24
    3f06:	90 90 25 0d 	lds	r9, 0x0D25
    3f0a:	a0 90 26 0d 	lds	r10, 0x0D26
    3f0e:	b0 90 27 0d 	lds	r11, 0x0D27
    3f12:	40 91 20 0d 	lds	r20, 0x0D20
    3f16:	50 91 21 0d 	lds	r21, 0x0D21
    3f1a:	60 91 22 0d 	lds	r22, 0x0D22
    3f1e:	70 91 23 0d 	lds	r23, 0x0D23
    3f22:	48 25       	eor	r20, r8
    3f24:	59 25       	eor	r21, r9
    3f26:	6a 25       	eor	r22, r10
    3f28:	7b 25       	eor	r23, r11
    3f2a:	48 23       	and	r20, r24
    3f2c:	59 23       	and	r21, r25
    3f2e:	6a 23       	and	r22, r26
    3f30:	7b 23       	and	r23, r27
    3f32:	45 2b       	or	r20, r21
    3f34:	46 2b       	or	r20, r22
    3f36:	47 2b       	or	r20, r23
    3f38:	19 f4       	brne	.+6      	; 0x3f40 <__stack+0x1d41>
    3f3a:	e4 e2       	ldi	r30, 0x24	; 36
    3f3c:	fd e0       	ldi	r31, 0x0D	; 13
    3f3e:	02 c0       	rjmp	.+4      	; 0x3f44 <__stack+0x1d45>
    3f40:	e0 e2       	ldi	r30, 0x20	; 32
    3f42:	f2 e0       	ldi	r31, 0x02	; 2
    3f44:	80 80       	ld	r8, Z
    3f46:	91 80       	ldd	r9, Z+1	; 0x01
    3f48:	a2 80       	ldd	r10, Z+2	; 0x02
    3f4a:	b3 80       	ldd	r11, Z+3	; 0x03
    3f4c:	80 95       	com	r24
    3f4e:	90 95       	com	r25
    3f50:	a0 95       	com	r26
    3f52:	b0 95       	com	r27
    3f54:	ac 01       	movw	r20, r24
    3f56:	bd 01       	movw	r22, r26
    3f58:	48 21       	and	r20, r8
    3f5a:	59 21       	and	r21, r9
    3f5c:	6a 21       	and	r22, r10
    3f5e:	7b 21       	and	r23, r11
    3f60:	48 17       	cp	r20, r24
    3f62:	59 07       	cpc	r21, r25
    3f64:	6a 07       	cpc	r22, r26
    3f66:	7b 07       	cpc	r23, r27
    3f68:	19 f4       	brne	.+6      	; 0x3f70 <__stack+0x1d71>
    3f6a:	80 e0       	ldi	r24, 0x00	; 0
    3f6c:	92 e0       	ldi	r25, 0x02	; 2
    3f6e:	2d c0       	rjmp	.+90     	; 0x3fca <__stack+0x1dcb>
    3f70:	50 91 1b 03 	lds	r21, 0x031B
    3f74:	44 e0       	ldi	r20, 0x04	; 4
    3f76:	6a e0       	ldi	r22, 0x0A	; 10
    3f78:	25 2f       	mov	r18, r21
    3f7a:	30 e0       	ldi	r19, 0x00	; 0
    3f7c:	62 9f       	mul	r22, r18
    3f7e:	c0 01       	movw	r24, r0
    3f80:	63 9f       	mul	r22, r19
    3f82:	90 0d       	add	r25, r0
    3f84:	11 24       	eor	r1, r1
    3f86:	dc 01       	movw	r26, r24
    3f88:	aa 5b       	subi	r26, 0xBA	; 186
    3f8a:	bc 4e       	sbci	r27, 0xEC	; 236
    3f8c:	4d 90       	ld	r4, X+
    3f8e:	5d 90       	ld	r5, X+
    3f90:	6d 90       	ld	r6, X+
    3f92:	7c 90       	ld	r7, X
    3f94:	48 14       	cp	r4, r8
    3f96:	59 04       	cpc	r5, r9
    3f98:	6a 04       	cpc	r6, r10
    3f9a:	7b 04       	cpc	r7, r11
    3f9c:	29 f4       	brne	.+10     	; 0x3fa8 <__stack+0x1da9>
    3f9e:	50 93 1b 03 	sts	0x031B, r21
    3fa2:	86 5b       	subi	r24, 0xB6	; 182
    3fa4:	9c 4e       	sbci	r25, 0xEC	; 236
    3fa6:	0b c0       	rjmp	.+22     	; 0x3fbe <__stack+0x1dbf>
    3fa8:	c9 01       	movw	r24, r18
    3faa:	01 96       	adiw	r24, 0x01	; 1
    3fac:	83 70       	andi	r24, 0x03	; 3
    3fae:	99 27       	eor	r25, r25
    3fb0:	58 2f       	mov	r21, r24
    3fb2:	41 50       	subi	r20, 0x01	; 1
    3fb4:	09 f7       	brne	.-62     	; 0x3f78 <__stack+0x1d79>
    3fb6:	80 93 1b 03 	sts	0x031B, r24
    3fba:	80 e0       	ldi	r24, 0x00	; 0
    3fbc:	90 e0       	ldi	r25, 0x00	; 0
    3fbe:	90 93 21 03 	sts	0x0321, r25
    3fc2:	80 93 20 03 	sts	0x0320, r24
    3fc6:	00 97       	sbiw	r24, 0x00	; 0
    3fc8:	19 f0       	breq	.+6      	; 0x3fd0 <__stack+0x1dd1>
    3fca:	0e 94 4d 0b 	call	0x169a	; 0x169a <IpTransceiverP__Arp__resolved>
    3fce:	25 c0       	rjmp	.+74     	; 0x401a <__stack+0x1e1b>
    3fd0:	80 91 18 03 	lds	r24, 0x0318
    3fd4:	81 11       	cpse	r24, r1
    3fd6:	11 c0       	rjmp	.+34     	; 0x3ffa <__stack+0x1dfb>
    3fd8:	80 81       	ld	r24, Z
    3fda:	91 81       	ldd	r25, Z+1	; 0x01
    3fdc:	a2 81       	ldd	r26, Z+2	; 0x02
    3fde:	b3 81       	ldd	r27, Z+3	; 0x03
    3fe0:	80 93 3f 13 	sts	0x133F, r24
    3fe4:	90 93 40 13 	sts	0x1340, r25
    3fe8:	a0 93 41 13 	sts	0x1341, r26
    3fec:	b0 93 42 13 	sts	0x1342, r27
    3ff0:	10 92 19 03 	sts	0x0319, r1
    3ff4:	0e 94 a0 06 	call	0xd40	; 0xd40 <ArpP__sendRequest>
    3ff8:	10 c0       	rjmp	.+32     	; 0x401a <__stack+0x1e1b>
    3ffa:	f8 01       	movw	r30, r16
    3ffc:	e0 5d       	subi	r30, 0xD0	; 208
    3ffe:	f0 4f       	sbci	r31, 0xF0	; 240
    4000:	10 82       	st	Z, r1
    4002:	f1 10       	cpse	r15, r1
    4004:	03 c0       	rjmp	.+6      	; 0x400c <__stack+0x1e0d>
    4006:	0e 94 64 06 	call	0xcc8	; 0xcc8 <PacketQueueP__3__PacketSender__sendDone.isra.63>
    400a:	ed c0       	rjmp	.+474    	; 0x41e6 <__stack+0x1fe7>
    400c:	b1 e0       	ldi	r27, 0x01	; 1
    400e:	fb 12       	cpse	r15, r27
    4010:	ea c0       	rjmp	.+468    	; 0x41e6 <__stack+0x1fe7>
    4012:	85 e0       	ldi	r24, 0x05	; 5
    4014:	0e 94 3c 09 	call	0x1278	; 0x1278 <PacketQueueP__4__PacketSender__sendDone>
    4018:	e6 c0       	rjmp	.+460    	; 0x41e6 <__stack+0x1fe7>
    401a:	81 e0       	ldi	r24, 0x01	; 1
    401c:	80 93 14 03 	sts	0x0314, r24
    4020:	e2 c0       	rjmp	.+452    	; 0x41e6 <__stack+0x1fe7>
    4022:	e0 91 13 03 	lds	r30, 0x0313
    4026:	ee 2e       	mov	r14, r30
    4028:	f1 2c       	mov	r15, r1
    402a:	2b e0       	ldi	r18, 0x0B	; 11
    402c:	e2 9f       	mul	r30, r18
    402e:	f0 01       	movw	r30, r0
    4030:	11 24       	eor	r1, r1
    4032:	e4 5a       	subi	r30, 0xA4	; 164
    4034:	fd 4e       	sbci	r31, 0xED	; 237
    4036:	41 85       	ldd	r20, Z+9	; 0x09
    4038:	52 85       	ldd	r21, Z+10	; 0x0a
    403a:	8a 01       	movw	r16, r20
    403c:	0c 5f       	subi	r16, 0xFC	; 252
    403e:	1f 4f       	sbci	r17, 0xFF	; 255
    4040:	85 81       	ldd	r24, Z+5	; 0x05
    4042:	80 93 4d 0f 	sts	0x0F4D, r24
    4046:	86 81       	ldd	r24, Z+6	; 0x06
    4048:	80 93 4e 0f 	sts	0x0F4E, r24
    404c:	67 81       	ldd	r22, Z+7	; 0x07
    404e:	70 85       	ldd	r23, Z+8	; 0x08
    4050:	81 e5       	ldi	r24, 0x51	; 81
    4052:	9f e0       	ldi	r25, 0x0F	; 15
    4054:	0e 94 39 2b 	call	0x5672	; 0x5672 <memcpy>
    4058:	10 92 50 0f 	sts	0x0F50, r1
    405c:	10 92 4f 0f 	sts	0x0F4F, r1
    4060:	a8 01       	movw	r20, r16
    4062:	56 95       	lsr	r21
    4064:	47 95       	ror	r20
    4066:	ed e4       	ldi	r30, 0x4D	; 77
    4068:	ff e0       	ldi	r31, 0x0F	; 15
    406a:	20 e0       	ldi	r18, 0x00	; 0
    406c:	30 e0       	ldi	r19, 0x00	; 0
    406e:	80 e0       	ldi	r24, 0x00	; 0
    4070:	90 e0       	ldi	r25, 0x00	; 0
    4072:	dc 01       	movw	r26, r24
    4074:	24 17       	cp	r18, r20
    4076:	35 07       	cpc	r19, r21
    4078:	49 f0       	breq	.+18     	; 0x408c <__stack+0x1e8d>
    407a:	61 91       	ld	r22, Z+
    407c:	71 91       	ld	r23, Z+
    407e:	86 0f       	add	r24, r22
    4080:	97 1f       	adc	r25, r23
    4082:	a1 1d       	adc	r26, r1
    4084:	b1 1d       	adc	r27, r1
    4086:	2f 5f       	subi	r18, 0xFF	; 255
    4088:	3f 4f       	sbci	r19, 0xFF	; 255
    408a:	f4 cf       	rjmp	.-24     	; 0x4074 <__stack+0x1e75>
    408c:	ad 01       	movw	r20, r26
    408e:	66 27       	eor	r22, r22
    4090:	77 27       	eor	r23, r23
    4092:	41 15       	cp	r20, r1
    4094:	51 05       	cpc	r21, r1
    4096:	61 05       	cpc	r22, r1
    4098:	71 05       	cpc	r23, r1
    409a:	39 f0       	breq	.+14     	; 0x40aa <__stack+0x1eab>
    409c:	aa 27       	eor	r26, r26
    409e:	bb 27       	eor	r27, r27
    40a0:	84 0f       	add	r24, r20
    40a2:	95 1f       	adc	r25, r21
    40a4:	a6 1f       	adc	r26, r22
    40a6:	b7 1f       	adc	r27, r23
    40a8:	f1 cf       	rjmp	.-30     	; 0x408c <__stack+0x1e8d>
    40aa:	80 95       	com	r24
    40ac:	90 95       	com	r25
    40ae:	a0 95       	com	r26
    40b0:	b0 95       	com	r27
    40b2:	90 93 50 0f 	sts	0x0F50, r25
    40b6:	80 93 4f 0f 	sts	0x0F4F, r24
    40ba:	80 91 30 0f 	lds	r24, 0x0F30
    40be:	81 11       	cpse	r24, r1
    40c0:	26 c0       	rjmp	.+76     	; 0x410e <__stack+0x1f0f>
    40c2:	81 e3       	ldi	r24, 0x31	; 49
    40c4:	9f e0       	ldi	r25, 0x0F	; 15
    40c6:	89 2b       	or	r24, r25
    40c8:	11 f1       	breq	.+68     	; 0x410e <__stack+0x1f0f>
    40ca:	2b e0       	ldi	r18, 0x0B	; 11
    40cc:	2e 9d       	mul	r18, r14
    40ce:	c0 01       	movw	r24, r0
    40d0:	2f 9d       	mul	r18, r15
    40d2:	90 0d       	add	r25, r0
    40d4:	11 24       	eor	r1, r1
    40d6:	83 5a       	subi	r24, 0xA3	; 163
    40d8:	9d 4e       	sbci	r25, 0xED	; 237
    40da:	90 93 32 0f 	sts	0x0F32, r25
    40de:	80 93 31 0f 	sts	0x0F31, r24
    40e2:	ff 24       	eor	r15, r15
    40e4:	f3 94       	inc	r15
    40e6:	f0 92 33 0f 	sts	0x0F33, r15
    40ea:	8d e4       	ldi	r24, 0x4D	; 77
    40ec:	9f e0       	ldi	r25, 0x0F	; 15
    40ee:	90 93 35 0f 	sts	0x0F35, r25
    40f2:	80 93 34 0f 	sts	0x0F34, r24
    40f6:	10 93 37 0f 	sts	0x0F37, r17
    40fa:	00 93 36 0f 	sts	0x0F36, r16
    40fe:	f0 92 30 0f 	sts	0x0F30, r15
    4102:	85 e1       	ldi	r24, 0x15	; 21
    4104:	0e 94 12 03 	call	0x624	; 0x624 <SchedulerBasicP__TaskBasic__postTask>
    4108:	f0 92 12 03 	sts	0x0312, r15
    410c:	6c c0       	rjmp	.+216    	; 0x41e6 <__stack+0x1fe7>
    410e:	8b e0       	ldi	r24, 0x0B	; 11
    4110:	8e 9d       	mul	r24, r14
    4112:	f0 01       	movw	r30, r0
    4114:	8f 9d       	mul	r24, r15
    4116:	f0 0d       	add	r31, r0
    4118:	11 24       	eor	r1, r1
    411a:	e4 5a       	subi	r30, 0xA4	; 164
    411c:	fd 4e       	sbci	r31, 0xED	; 237
    411e:	10 82       	st	Z, r1
    4120:	62 c0       	rjmp	.+196    	; 0x41e6 <__stack+0x1fe7>
    4122:	8c b5       	in	r24, 0x2c	; 44
    4124:	8f 7b       	andi	r24, 0xBF	; 191
    4126:	8c bd       	out	0x2c, r24	; 44
    4128:	3a c9       	rjmp	.-3468   	; 0x339e <__stack+0x119f>
    412a:	90 91 0d 10 	lds	r25, 0x100D
    412e:	80 91 0e 10 	lds	r24, 0x100E
    4132:	90 93 16 10 	sts	0x1016, r25
    4136:	80 93 15 10 	sts	0x1015, r24
    413a:	90 91 0f 10 	lds	r25, 0x100F
    413e:	80 91 10 10 	lds	r24, 0x1010
    4142:	90 93 18 10 	sts	0x1018, r25
    4146:	80 93 17 10 	sts	0x1017, r24
    414a:	40 91 13 10 	lds	r20, 0x1013
    414e:	50 91 14 10 	lds	r21, 0x1014
    4152:	8a 01       	movw	r16, r20
    4154:	08 5f       	subi	r16, 0xF8	; 248
    4156:	1f 4f       	sbci	r17, 0xFF	; 255
    4158:	00 93 1a 10 	sts	0x101A, r16
    415c:	10 93 19 10 	sts	0x1019, r17
    4160:	60 91 11 10 	lds	r22, 0x1011
    4164:	70 91 12 10 	lds	r23, 0x1012
    4168:	8d e1       	ldi	r24, 0x1D	; 29
    416a:	90 e1       	ldi	r25, 0x10	; 16
    416c:	0e 94 39 2b 	call	0x5672	; 0x5672 <memcpy>
    4170:	80 91 38 0f 	lds	r24, 0x0F38
    4174:	81 11       	cpse	r24, r1
    4176:	1f c0       	rjmp	.+62     	; 0x41b6 <__stack+0x1fb7>
    4178:	89 e3       	ldi	r24, 0x39	; 57
    417a:	9f e0       	ldi	r25, 0x0F	; 15
    417c:	89 2b       	or	r24, r25
    417e:	d9 f0       	breq	.+54     	; 0x41b6 <__stack+0x1fb7>
    4180:	89 e0       	ldi	r24, 0x09	; 9
    4182:	90 e1       	ldi	r25, 0x10	; 16
    4184:	90 93 3a 0f 	sts	0x0F3A, r25
    4188:	80 93 39 0f 	sts	0x0F39, r24
    418c:	81 e1       	ldi	r24, 0x11	; 17
    418e:	80 93 3b 0f 	sts	0x0F3B, r24
    4192:	85 e1       	ldi	r24, 0x15	; 21
    4194:	90 e1       	ldi	r25, 0x10	; 16
    4196:	90 93 3d 0f 	sts	0x0F3D, r25
    419a:	80 93 3c 0f 	sts	0x0F3C, r24
    419e:	10 93 3f 0f 	sts	0x0F3F, r17
    41a2:	00 93 3e 0f 	sts	0x0F3E, r16
    41a6:	f0 92 38 0f 	sts	0x0F38, r15
    41aa:	85 e1       	ldi	r24, 0x15	; 21
    41ac:	0e 94 12 03 	call	0x624	; 0x624 <SchedulerBasicP__TaskBasic__postTask>
    41b0:	f0 92 0b 03 	sts	0x030B, r15
    41b4:	18 c0       	rjmp	.+48     	; 0x41e6 <__stack+0x1fe7>
    41b6:	10 92 08 10 	sts	0x1008, r1
    41ba:	0e 94 37 03 	call	0x66e	; 0x66e <DatabaseP__sendTask__postTask>
    41be:	13 c0       	rjmp	.+38     	; 0x41e6 <__stack+0x1fe7>
    41c0:	81 e0       	ldi	r24, 0x01	; 1
    41c2:	80 93 0c 02 	sts	0x020C, r24
    41c6:	10 92 06 03 	sts	0x0306, r1
    41ca:	80 91 7a 00 	lds	r24, 0x007A
    41ce:	8f 77       	andi	r24, 0x7F	; 127
    41d0:	80 93 7a 00 	sts	0x007A, r24
    41d4:	13 cd       	rjmp	.-1498   	; 0x3bfc <__stack+0x19fd>
    41d6:	2f b7       	in	r18, 0x3f	; 63
    41d8:	f8 94       	cli
    41da:	80 91 7d 0a 	lds	r24, 0x0A7D
    41de:	90 91 7e 0a 	lds	r25, 0x0A7E
    41e2:	9d 7f       	andi	r25, 0xFD	; 253
    41e4:	e0 c9       	rjmp	.-3136   	; 0x35a6 <__stack+0x13a7>
    41e6:	ed 96       	adiw	r28, 0x3d	; 61
    41e8:	0f b6       	in	r0, 0x3f	; 63
    41ea:	f8 94       	cli
    41ec:	de bf       	out	0x3e, r29	; 62
    41ee:	0f be       	out	0x3f, r0	; 63
    41f0:	cd bf       	out	0x3d, r28	; 61
    41f2:	df 91       	pop	r29
    41f4:	cf 91       	pop	r28
    41f6:	1f 91       	pop	r17
    41f8:	0f 91       	pop	r16
    41fa:	ff 90       	pop	r15
    41fc:	ef 90       	pop	r14
    41fe:	df 90       	pop	r13
    4200:	cf 90       	pop	r12
    4202:	bf 90       	pop	r11
    4204:	af 90       	pop	r10
    4206:	9f 90       	pop	r9
    4208:	8f 90       	pop	r8
    420a:	7f 90       	pop	r7
    420c:	6f 90       	pop	r6
    420e:	5f 90       	pop	r5
    4210:	4f 90       	pop	r4
    4212:	3f 90       	pop	r3
    4214:	08 95       	ret

00004216 <Atm128I2CMasterPacketP__0__i2c_abort>:
    4216:	cf 93       	push	r28
    4218:	df 93       	push	r29
    421a:	1f 92       	push	r1
    421c:	cd b7       	in	r28, 0x3d	; 61
    421e:	de b7       	in	r29, 0x3e	; 62
    4220:	89 83       	std	Y+1, r24	; 0x01
    4222:	0e 94 68 03 	call	0x6d0	; 0x6d0 <HplAtm128I2CBusP__I2C__readCurrent>
    4226:	90 91 54 12 	lds	r25, 0x1254
    422a:	9a 7f       	andi	r25, 0xFA	; 250
    422c:	90 93 54 12 	sts	0x1254, r25
    4230:	0e 94 f1 02 	call	0x5e2	; 0x5e2 <HplAtm128I2CBusP__I2C__sendCommand>
    4234:	0e 94 68 03 	call	0x6d0	; 0x6d0 <HplAtm128I2CBusP__I2C__readCurrent>
    4238:	90 91 54 12 	lds	r25, 0x1254
    423c:	94 60       	ori	r25, 0x04	; 4
    423e:	90 93 54 12 	sts	0x1254, r25
    4242:	0e 94 f1 02 	call	0x5e2	; 0x5e2 <HplAtm128I2CBusP__I2C__sendCommand>
    4246:	91 e0       	ldi	r25, 0x01	; 1
    4248:	90 93 09 03 	sts	0x0309, r25
    424c:	20 91 08 03 	lds	r18, 0x0308
    4250:	90 91 0d 02 	lds	r25, 0x020D
    4254:	89 81       	ldd	r24, Y+1	; 0x01
    4256:	22 23       	and	r18, r18
    4258:	39 f0       	breq	.+14     	; 0x4268 <Atm128I2CMasterPacketP__0__i2c_abort+0x52>
    425a:	91 11       	cpse	r25, r1
    425c:	0c c0       	rjmp	.+24     	; 0x4276 <Atm128I2CMasterPacketP__0__i2c_abort+0x60>
    425e:	0f 90       	pop	r0
    4260:	df 91       	pop	r29
    4262:	cf 91       	pop	r28
    4264:	0c 94 0d 0e 	jmp	0x1c1a	; 0x1c1a <FMClickP__I2C__readDone.isra.84>
    4268:	91 11       	cpse	r25, r1
    426a:	05 c0       	rjmp	.+10     	; 0x4276 <Atm128I2CMasterPacketP__0__i2c_abort+0x60>
    426c:	0f 90       	pop	r0
    426e:	df 91       	pop	r29
    4270:	cf 91       	pop	r28
    4272:	0c 94 7d 0e 	jmp	0x1cfa	; 0x1cfa <FMClickP__I2C__writeDone.isra.79>
    4276:	0f 90       	pop	r0
    4278:	df 91       	pop	r29
    427a:	cf 91       	pop	r28
    427c:	08 95       	ret

0000427e <__nesc_atomic_start>:
    427e:	8f b7       	in	r24, 0x3f	; 63
    4280:	f8 94       	cli
    4282:	08 95       	ret

00004284 <__nesc_atomic_end>:
    4284:	8f bf       	out	0x3f, r24	; 63
    4286:	08 95       	ret

00004288 <__vector_13>:
    4288:	1f 92       	push	r1
    428a:	0f 92       	push	r0
    428c:	0f b6       	in	r0, 0x3f	; 63
    428e:	0f 92       	push	r0
    4290:	11 24       	eor	r1, r1
    4292:	0b b6       	in	r0, 0x3b	; 59
    4294:	0f 92       	push	r0
    4296:	2f 93       	push	r18
    4298:	3f 93       	push	r19
    429a:	4f 93       	push	r20
    429c:	5f 93       	push	r21
    429e:	6f 93       	push	r22
    42a0:	7f 93       	push	r23
    42a2:	8f 93       	push	r24
    42a4:	9f 93       	push	r25
    42a6:	af 93       	push	r26
    42a8:	bf 93       	push	r27
    42aa:	ef 93       	push	r30
    42ac:	ff 93       	push	r31
    42ae:	2f b7       	in	r18, 0x3f	; 63
    42b0:	f8 94       	cli
    42b2:	80 91 40 0f 	lds	r24, 0x0F40
    42b6:	90 91 41 0f 	lds	r25, 0x0F41
    42ba:	a0 91 42 0f 	lds	r26, 0x0F42
    42be:	b0 91 43 0f 	lds	r27, 0x0F43
    42c2:	01 96       	adiw	r24, 0x01	; 1
    42c4:	a1 1d       	adc	r26, r1
    42c6:	b1 1d       	adc	r27, r1
    42c8:	80 93 40 0f 	sts	0x0F40, r24
    42cc:	90 93 41 0f 	sts	0x0F41, r25
    42d0:	a0 93 42 0f 	sts	0x0F42, r26
    42d4:	b0 93 43 0f 	sts	0x0F43, r27
    42d8:	2f bf       	out	0x3f, r18	; 63
    42da:	78 94       	sei
    42dc:	0e 94 58 04 	call	0x8b0	; 0x8b0 <Atm1280AlarmSyncP__0__checkAlarm>
    42e0:	ff 91       	pop	r31
    42e2:	ef 91       	pop	r30
    42e4:	bf 91       	pop	r27
    42e6:	af 91       	pop	r26
    42e8:	9f 91       	pop	r25
    42ea:	8f 91       	pop	r24
    42ec:	7f 91       	pop	r23
    42ee:	6f 91       	pop	r22
    42f0:	5f 91       	pop	r21
    42f2:	4f 91       	pop	r20
    42f4:	3f 91       	pop	r19
    42f6:	2f 91       	pop	r18
    42f8:	0f 90       	pop	r0
    42fa:	0b be       	out	0x3b, r0	; 59
    42fc:	0f 90       	pop	r0
    42fe:	0f be       	out	0x3f, r0	; 63
    4300:	0f 90       	pop	r0
    4302:	1f 90       	pop	r1
    4304:	18 95       	reti

00004306 <__vector_15>:
    4306:	1f 92       	push	r1
    4308:	0f 92       	push	r0
    430a:	0f b6       	in	r0, 0x3f	; 63
    430c:	0f 92       	push	r0
    430e:	11 24       	eor	r1, r1
    4310:	0f 90       	pop	r0
    4312:	0f be       	out	0x3f, r0	; 63
    4314:	0f 90       	pop	r0
    4316:	1f 90       	pop	r1
    4318:	18 95       	reti

0000431a <__vector_24>:
    431a:	1f 92       	push	r1
    431c:	0f 92       	push	r0
    431e:	0f b6       	in	r0, 0x3f	; 63
    4320:	0f 92       	push	r0
    4322:	11 24       	eor	r1, r1
    4324:	0b b6       	in	r0, 0x3b	; 59
    4326:	0f 92       	push	r0
    4328:	cf 92       	push	r12
    432a:	df 92       	push	r13
    432c:	ef 92       	push	r14
    432e:	ff 92       	push	r15
    4330:	0f 93       	push	r16
    4332:	1f 93       	push	r17
    4334:	2f 93       	push	r18
    4336:	3f 93       	push	r19
    4338:	4f 93       	push	r20
    433a:	5f 93       	push	r21
    433c:	6f 93       	push	r22
    433e:	7f 93       	push	r23
    4340:	8f 93       	push	r24
    4342:	9f 93       	push	r25
    4344:	af 93       	push	r26
    4346:	bf 93       	push	r27
    4348:	cf 93       	push	r28
    434a:	df 93       	push	r29
    434c:	ef 93       	push	r30
    434e:	ff 93       	push	r31
    4350:	2e b5       	in	r18, 0x2e	; 46
    4352:	e0 91 4c 08 	lds	r30, 0x084C
    4356:	f0 91 4d 08 	lds	r31, 0x084D
    435a:	30 97       	sbiw	r30, 0x00	; 0
    435c:	39 f0       	breq	.+14     	; 0x436c <__vector_24+0x52>
    435e:	80 91 48 0f 	lds	r24, 0x0F48
    4362:	90 91 49 0f 	lds	r25, 0x0F49
    4366:	e8 0f       	add	r30, r24
    4368:	f9 1f       	adc	r31, r25
    436a:	20 83       	st	Z, r18
    436c:	80 91 48 0f 	lds	r24, 0x0F48
    4370:	90 91 49 0f 	lds	r25, 0x0F49
    4374:	01 96       	adiw	r24, 0x01	; 1
    4376:	90 93 49 0f 	sts	0x0F49, r25
    437a:	80 93 48 0f 	sts	0x0F48, r24
    437e:	8c b5       	in	r24, 0x2c	; 44
    4380:	8f 77       	andi	r24, 0x7F	; 127
    4382:	8c bd       	out	0x2c, r24	; 44
    4384:	c0 91 48 0f 	lds	r28, 0x0F48
    4388:	d0 91 49 0f 	lds	r29, 0x0F49
    438c:	20 91 3a 13 	lds	r18, 0x133A
    4390:	30 91 3b 13 	lds	r19, 0x133B
    4394:	c2 17       	cp	r28, r18
    4396:	d3 07       	cpc	r29, r19
    4398:	d8 f5       	brcc	.+118    	; 0x4410 <__vector_24+0xf6>
    439a:	00 91 0b 0d 	lds	r16, 0x0D0B
    439e:	10 91 0c 0d 	lds	r17, 0x0D0C
    43a2:	c0 90 4c 08 	lds	r12, 0x084C
    43a6:	d0 90 4d 08 	lds	r13, 0x084D
    43aa:	ce 01       	movw	r24, r28
    43ac:	0a 96       	adiw	r24, 0x0a	; 10
    43ae:	28 17       	cp	r18, r24
    43b0:	39 07       	cpc	r19, r25
    43b2:	08 f4       	brcc	.+2      	; 0x43b6 <__vector_24+0x9c>
    43b4:	c9 01       	movw	r24, r18
    43b6:	7c 01       	movw	r14, r24
    43b8:	21 e0       	ldi	r18, 0x01	; 1
    43ba:	e2 1a       	sub	r14, r18
    43bc:	f1 08       	sbc	r15, r1
    43be:	ce 15       	cp	r28, r14
    43c0:	df 05       	cpc	r29, r15
    43c2:	a0 f4       	brcc	.+40     	; 0x43ec <__vector_24+0xd2>
    43c4:	01 15       	cp	r16, r1
    43c6:	11 05       	cpc	r17, r1
    43c8:	29 f0       	breq	.+10     	; 0x43d4 <__vector_24+0xba>
    43ca:	f8 01       	movw	r30, r16
    43cc:	ec 0f       	add	r30, r28
    43ce:	fd 1f       	adc	r31, r29
    43d0:	80 81       	ld	r24, Z
    43d2:	01 c0       	rjmp	.+2      	; 0x43d6 <__vector_24+0xbc>
    43d4:	80 e0       	ldi	r24, 0x00	; 0
    43d6:	0e 94 a6 03 	call	0x74c	; 0x74c <Atm1280SpiP__SpiByte__write>
    43da:	c1 14       	cp	r12, r1
    43dc:	d1 04       	cpc	r13, r1
    43de:	21 f0       	breq	.+8      	; 0x43e8 <__vector_24+0xce>
    43e0:	f6 01       	movw	r30, r12
    43e2:	ec 0f       	add	r30, r28
    43e4:	fd 1f       	adc	r31, r29
    43e6:	80 83       	st	Z, r24
    43e8:	21 96       	adiw	r28, 0x01	; 1
    43ea:	e9 cf       	rjmp	.-46     	; 0x43be <__vector_24+0xa4>
    43ec:	8c b5       	in	r24, 0x2c	; 44
    43ee:	80 68       	ori	r24, 0x80	; 128
    43f0:	8c bd       	out	0x2c, r24	; 44
    43f2:	01 15       	cp	r16, r1
    43f4:	11 05       	cpc	r17, r1
    43f6:	31 f0       	breq	.+12     	; 0x4404 <__vector_24+0xea>
    43f8:	f8 01       	movw	r30, r16
    43fa:	ec 0f       	add	r30, r28
    43fc:	fd 1f       	adc	r31, r29
    43fe:	80 81       	ld	r24, Z
    4400:	8e bd       	out	0x2e, r24	; 46
    4402:	01 c0       	rjmp	.+2      	; 0x4406 <__vector_24+0xec>
    4404:	1e bc       	out	0x2e, r1	; 46
    4406:	d0 93 49 0f 	sts	0x0F49, r29
    440a:	c0 93 48 0f 	sts	0x0F48, r28
    440e:	11 c0       	rjmp	.+34     	; 0x4432 <__vector_24+0x118>
    4410:	10 92 4d 08 	sts	0x084D, r1
    4414:	10 92 4c 08 	sts	0x084C, r1
    4418:	10 92 0c 0d 	sts	0x0D0C, r1
    441c:	10 92 0b 0d 	sts	0x0D0B, r1
    4420:	10 92 3b 13 	sts	0x133B, r1
    4424:	10 92 3a 13 	sts	0x133A, r1
    4428:	10 92 49 0f 	sts	0x0F49, r1
    442c:	10 92 48 0f 	sts	0x0F48, r1
    4430:	8e b5       	in	r24, 0x2e	; 46
    4432:	ff 91       	pop	r31
    4434:	ef 91       	pop	r30
    4436:	df 91       	pop	r29
    4438:	cf 91       	pop	r28
    443a:	bf 91       	pop	r27
    443c:	af 91       	pop	r26
    443e:	9f 91       	pop	r25
    4440:	8f 91       	pop	r24
    4442:	7f 91       	pop	r23
    4444:	6f 91       	pop	r22
    4446:	5f 91       	pop	r21
    4448:	4f 91       	pop	r20
    444a:	3f 91       	pop	r19
    444c:	2f 91       	pop	r18
    444e:	1f 91       	pop	r17
    4450:	0f 91       	pop	r16
    4452:	ff 90       	pop	r15
    4454:	ef 90       	pop	r14
    4456:	df 90       	pop	r13
    4458:	cf 90       	pop	r12
    445a:	0f 90       	pop	r0
    445c:	0b be       	out	0x3b, r0	; 59
    445e:	0f 90       	pop	r0
    4460:	0f be       	out	0x3f, r0	; 63
    4462:	0f 90       	pop	r0
    4464:	1f 90       	pop	r1
    4466:	18 95       	reti

00004468 <__vector_1>:
    4468:	1f 92       	push	r1
    446a:	0f 92       	push	r0
    446c:	0f b6       	in	r0, 0x3f	; 63
    446e:	0f 92       	push	r0
    4470:	11 24       	eor	r1, r1
    4472:	0f 90       	pop	r0
    4474:	0f be       	out	0x3f, r0	; 63
    4476:	0f 90       	pop	r0
    4478:	1f 90       	pop	r1
    447a:	18 95       	reti

0000447c <__vector_2>:
    447c:	1f 92       	push	r1
    447e:	0f 92       	push	r0
    4480:	0f b6       	in	r0, 0x3f	; 63
    4482:	0f 92       	push	r0
    4484:	11 24       	eor	r1, r1
    4486:	0f 90       	pop	r0
    4488:	0f be       	out	0x3f, r0	; 63
    448a:	0f 90       	pop	r0
    448c:	1f 90       	pop	r1
    448e:	18 95       	reti

00004490 <__vector_3>:
    4490:	1f 92       	push	r1
    4492:	0f 92       	push	r0
    4494:	0f b6       	in	r0, 0x3f	; 63
    4496:	0f 92       	push	r0
    4498:	11 24       	eor	r1, r1
    449a:	0b b6       	in	r0, 0x3b	; 59
    449c:	0f 92       	push	r0
    449e:	2f 93       	push	r18
    44a0:	3f 93       	push	r19
    44a2:	4f 93       	push	r20
    44a4:	5f 93       	push	r21
    44a6:	6f 93       	push	r22
    44a8:	7f 93       	push	r23
    44aa:	8f 93       	push	r24
    44ac:	9f 93       	push	r25
    44ae:	af 93       	push	r26
    44b0:	bf 93       	push	r27
    44b2:	ef 93       	push	r30
    44b4:	ff 93       	push	r31
    44b6:	87 e1       	ldi	r24, 0x17	; 23
    44b8:	0e 94 12 03 	call	0x624	; 0x624 <SchedulerBasicP__TaskBasic__postTask>
    44bc:	ff 91       	pop	r31
    44be:	ef 91       	pop	r30
    44c0:	bf 91       	pop	r27
    44c2:	af 91       	pop	r26
    44c4:	9f 91       	pop	r25
    44c6:	8f 91       	pop	r24
    44c8:	7f 91       	pop	r23
    44ca:	6f 91       	pop	r22
    44cc:	5f 91       	pop	r21
    44ce:	4f 91       	pop	r20
    44d0:	3f 91       	pop	r19
    44d2:	2f 91       	pop	r18
    44d4:	0f 90       	pop	r0
    44d6:	0b be       	out	0x3b, r0	; 59
    44d8:	0f 90       	pop	r0
    44da:	0f be       	out	0x3f, r0	; 63
    44dc:	0f 90       	pop	r0
    44de:	1f 90       	pop	r1
    44e0:	18 95       	reti

000044e2 <__vector_4>:
    44e2:	1f 92       	push	r1
    44e4:	0f 92       	push	r0
    44e6:	0f b6       	in	r0, 0x3f	; 63
    44e8:	0f 92       	push	r0
    44ea:	11 24       	eor	r1, r1
    44ec:	0b b6       	in	r0, 0x3b	; 59
    44ee:	0f 92       	push	r0
    44f0:	2f 93       	push	r18
    44f2:	3f 93       	push	r19
    44f4:	4f 93       	push	r20
    44f6:	5f 93       	push	r21
    44f8:	6f 93       	push	r22
    44fa:	7f 93       	push	r23
    44fc:	8f 93       	push	r24
    44fe:	9f 93       	push	r25
    4500:	af 93       	push	r26
    4502:	bf 93       	push	r27
    4504:	ef 93       	push	r30
    4506:	ff 93       	push	r31
    4508:	80 91 d7 12 	lds	r24, 0x12D7
    450c:	82 30       	cpi	r24, 0x02	; 2
    450e:	29 f0       	breq	.+10     	; 0x451a <__vector_4+0x38>
    4510:	83 30       	cpi	r24, 0x03	; 3
    4512:	41 f0       	breq	.+16     	; 0x4524 <__vector_4+0x42>
    4514:	81 11       	cpse	r24, r1
    4516:	16 c0       	rjmp	.+44     	; 0x4544 <__vector_4+0x62>
    4518:	0a c0       	rjmp	.+20     	; 0x452e <__vector_4+0x4c>
    451a:	0e 94 10 03 	call	0x620	; 0x620 <HplAtm128InterruptPinP__3__Irq__disable>
    451e:	0e 94 43 03 	call	0x686	; 0x686 <FMClickP__tune__postTask>
    4522:	12 c0       	rjmp	.+36     	; 0x4548 <__vector_4+0x66>
    4524:	0e 94 10 03 	call	0x620	; 0x620 <HplAtm128InterruptPinP__3__Irq__disable>
    4528:	0e 94 3d 03 	call	0x67a	; 0x67a <FMClickP__seek__postTask>
    452c:	0d c0       	rjmp	.+26     	; 0x4548 <__vector_4+0x66>
    452e:	80 91 df 12 	lds	r24, 0x12DF
    4532:	88 23       	and	r24, r24
    4534:	49 f0       	breq	.+18     	; 0x4548 <__vector_4+0x66>
    4536:	86 e0       	ldi	r24, 0x06	; 6
    4538:	80 93 d7 12 	sts	0x12D7, r24
    453c:	8e e1       	ldi	r24, 0x1E	; 30
    453e:	0e 94 12 03 	call	0x624	; 0x624 <SchedulerBasicP__TaskBasic__postTask>
    4542:	02 c0       	rjmp	.+4      	; 0x4548 <__vector_4+0x66>
    4544:	0e 94 10 03 	call	0x620	; 0x620 <HplAtm128InterruptPinP__3__Irq__disable>
    4548:	ff 91       	pop	r31
    454a:	ef 91       	pop	r30
    454c:	bf 91       	pop	r27
    454e:	af 91       	pop	r26
    4550:	9f 91       	pop	r25
    4552:	8f 91       	pop	r24
    4554:	7f 91       	pop	r23
    4556:	6f 91       	pop	r22
    4558:	5f 91       	pop	r21
    455a:	4f 91       	pop	r20
    455c:	3f 91       	pop	r19
    455e:	2f 91       	pop	r18
    4560:	0f 90       	pop	r0
    4562:	0b be       	out	0x3b, r0	; 59
    4564:	0f 90       	pop	r0
    4566:	0f be       	out	0x3f, r0	; 63
    4568:	0f 90       	pop	r0
    456a:	1f 90       	pop	r1
    456c:	18 95       	reti

0000456e <__vector_5>:
    456e:	1f 92       	push	r1
    4570:	0f 92       	push	r0
    4572:	0f b6       	in	r0, 0x3f	; 63
    4574:	0f 92       	push	r0
    4576:	11 24       	eor	r1, r1
    4578:	0f 90       	pop	r0
    457a:	0f be       	out	0x3f, r0	; 63
    457c:	0f 90       	pop	r0
    457e:	1f 90       	pop	r1
    4580:	18 95       	reti

00004582 <__vector_6>:
    4582:	1f 92       	push	r1
    4584:	0f 92       	push	r0
    4586:	0f b6       	in	r0, 0x3f	; 63
    4588:	0f 92       	push	r0
    458a:	11 24       	eor	r1, r1
    458c:	0f 90       	pop	r0
    458e:	0f be       	out	0x3f, r0	; 63
    4590:	0f 90       	pop	r0
    4592:	1f 90       	pop	r1
    4594:	18 95       	reti

00004596 <__vector_7>:
    4596:	1f 92       	push	r1
    4598:	0f 92       	push	r0
    459a:	0f b6       	in	r0, 0x3f	; 63
    459c:	0f 92       	push	r0
    459e:	11 24       	eor	r1, r1
    45a0:	0f 90       	pop	r0
    45a2:	0f be       	out	0x3f, r0	; 63
    45a4:	0f 90       	pop	r0
    45a6:	1f 90       	pop	r1
    45a8:	18 95       	reti

000045aa <__vector_8>:
    45aa:	1f 92       	push	r1
    45ac:	0f 92       	push	r0
    45ae:	0f b6       	in	r0, 0x3f	; 63
    45b0:	0f 92       	push	r0
    45b2:	11 24       	eor	r1, r1
    45b4:	0f 90       	pop	r0
    45b6:	0f be       	out	0x3f, r0	; 63
    45b8:	0f 90       	pop	r0
    45ba:	1f 90       	pop	r1
    45bc:	18 95       	reti

000045be <__vector_39>:
    45be:	1f 92       	push	r1
    45c0:	0f 92       	push	r0
    45c2:	0f b6       	in	r0, 0x3f	; 63
    45c4:	0f 92       	push	r0
    45c6:	11 24       	eor	r1, r1
    45c8:	0b b6       	in	r0, 0x3b	; 59
    45ca:	0f 92       	push	r0
    45cc:	2f 93       	push	r18
    45ce:	3f 93       	push	r19
    45d0:	4f 93       	push	r20
    45d2:	5f 93       	push	r21
    45d4:	6f 93       	push	r22
    45d6:	7f 93       	push	r23
    45d8:	8f 93       	push	r24
    45da:	9f 93       	push	r25
    45dc:	af 93       	push	r26
    45de:	bf 93       	push	r27
    45e0:	ef 93       	push	r30
    45e2:	ff 93       	push	r31
    45e4:	0e 94 68 03 	call	0x6d0	; 0x6d0 <HplAtm128I2CBusP__I2C__readCurrent>
    45e8:	80 91 b9 00 	lds	r24, 0x00B9
    45ec:	98 2f       	mov	r25, r24
    45ee:	98 7f       	andi	r25, 0xF8	; 248
    45f0:	20 91 09 03 	lds	r18, 0x0309
    45f4:	24 30       	cpi	r18, 0x04	; 4
    45f6:	79 f1       	breq	.+94     	; 0x4656 <__vector_39+0x98>
    45f8:	26 30       	cpi	r18, 0x06	; 6
    45fa:	21 f0       	breq	.+8      	; 0x4604 <__vector_39+0x46>
    45fc:	23 30       	cpi	r18, 0x03	; 3
    45fe:	09 f0       	breq	.+2      	; 0x4602 <__vector_39+0x44>
    4600:	4d c0       	rjmp	.+154    	; 0x469c <__vector_39+0xde>
    4602:	13 c0       	rjmp	.+38     	; 0x462a <__vector_39+0x6c>
    4604:	80 91 08 03 	lds	r24, 0x0308
    4608:	81 30       	cpi	r24, 0x01	; 1
    460a:	49 f4       	brne	.+18     	; 0x461e <__vector_39+0x60>
    460c:	90 34       	cpi	r25, 0x40	; 64
    460e:	29 f4       	brne	.+10     	; 0x461a <__vector_39+0x5c>
    4610:	83 e0       	ldi	r24, 0x03	; 3
    4612:	80 93 09 03 	sts	0x0309, r24
    4616:	81 e0       	ldi	r24, 0x01	; 1
    4618:	10 c0       	rjmp	.+32     	; 0x463a <__vector_39+0x7c>
    461a:	84 e0       	ldi	r24, 0x04	; 4
    461c:	16 c0       	rjmp	.+44     	; 0x464a <__vector_39+0x8c>
    461e:	98 31       	cpi	r25, 0x18	; 24
    4620:	e1 f7       	brne	.-8      	; 0x461a <__vector_39+0x5c>
    4622:	83 e0       	ldi	r24, 0x03	; 3
    4624:	80 93 09 03 	sts	0x0309, r24
    4628:	13 c0       	rjmp	.+38     	; 0x4650 <__vector_39+0x92>
    462a:	20 91 08 03 	lds	r18, 0x0308
    462e:	21 30       	cpi	r18, 0x01	; 1
    4630:	39 f4       	brne	.+14     	; 0x4640 <__vector_39+0x82>
    4632:	80 7f       	andi	r24, 0xF0	; 240
    4634:	80 35       	cpi	r24, 0x50	; 80
    4636:	41 f4       	brne	.+16     	; 0x4648 <__vector_39+0x8a>
    4638:	80 e0       	ldi	r24, 0x00	; 0
    463a:	0e 94 33 0e 	call	0x1c66	; 0x1c66 <Atm128I2CMasterPacketP__0__readNextByte>
    463e:	2e c0       	rjmp	.+92     	; 0x469c <__vector_39+0xde>
    4640:	98 32       	cpi	r25, 0x28	; 40
    4642:	31 f0       	breq	.+12     	; 0x4650 <__vector_39+0x92>
    4644:	90 33       	cpi	r25, 0x30	; 48
    4646:	21 f0       	breq	.+8      	; 0x4650 <__vector_39+0x92>
    4648:	81 e0       	ldi	r24, 0x01	; 1
    464a:	0e 94 0b 21 	call	0x4216	; 0x4216 <Atm128I2CMasterPacketP__0__i2c_abort>
    464e:	26 c0       	rjmp	.+76     	; 0x469c <__vector_39+0xde>
    4650:	0e 94 a0 0e 	call	0x1d40	; 0x1d40 <Atm128I2CMasterPacketP__0__writeNextByte>
    4654:	23 c0       	rjmp	.+70     	; 0x469c <__vector_39+0xde>
    4656:	80 91 6e 13 	lds	r24, 0x136E
    465a:	8e 7f       	andi	r24, 0xFE	; 254
    465c:	80 93 6e 13 	sts	0x136E, r24
    4660:	80 91 54 12 	lds	r24, 0x1254
    4664:	8f 7d       	andi	r24, 0xDF	; 223
    4666:	98 30       	cpi	r25, 0x08	; 8
    4668:	29 f0       	breq	.+10     	; 0x4674 <__vector_39+0xb6>
    466a:	90 31       	cpi	r25, 0x10	; 16
    466c:	19 f0       	breq	.+6      	; 0x4674 <__vector_39+0xb6>
    466e:	80 93 54 12 	sts	0x1254, r24
    4672:	ea cf       	rjmp	.-44     	; 0x4648 <__vector_39+0x8a>
    4674:	80 64       	ori	r24, 0x40	; 64
    4676:	80 93 54 12 	sts	0x1254, r24
    467a:	91 e0       	ldi	r25, 0x01	; 1
    467c:	80 91 08 03 	lds	r24, 0x0308
    4680:	81 30       	cpi	r24, 0x01	; 1
    4682:	09 f0       	breq	.+2      	; 0x4686 <__vector_39+0xc8>
    4684:	90 e0       	ldi	r25, 0x00	; 0
    4686:	80 91 45 0f 	lds	r24, 0x0F45
    468a:	88 0f       	add	r24, r24
    468c:	89 2b       	or	r24, r25
    468e:	80 93 bb 00 	sts	0x00BB, r24
    4692:	86 e0       	ldi	r24, 0x06	; 6
    4694:	80 93 09 03 	sts	0x0309, r24
    4698:	0e 94 f1 02 	call	0x5e2	; 0x5e2 <HplAtm128I2CBusP__I2C__sendCommand>
    469c:	ff 91       	pop	r31
    469e:	ef 91       	pop	r30
    46a0:	bf 91       	pop	r27
    46a2:	af 91       	pop	r26
    46a4:	9f 91       	pop	r25
    46a6:	8f 91       	pop	r24
    46a8:	7f 91       	pop	r23
    46aa:	6f 91       	pop	r22
    46ac:	5f 91       	pop	r21
    46ae:	4f 91       	pop	r20
    46b0:	3f 91       	pop	r19
    46b2:	2f 91       	pop	r18
    46b4:	0f 90       	pop	r0
    46b6:	0b be       	out	0x3b, r0	; 59
    46b8:	0f 90       	pop	r0
    46ba:	0f be       	out	0x3f, r0	; 63
    46bc:	0f 90       	pop	r0
    46be:	1f 90       	pop	r1
    46c0:	18 95       	reti

000046c2 <__vector_11>:
    46c2:	1f 92       	push	r1
    46c4:	0f 92       	push	r0
    46c6:	0f b6       	in	r0, 0x3f	; 63
    46c8:	0f 92       	push	r0
    46ca:	11 24       	eor	r1, r1
    46cc:	0b b6       	in	r0, 0x3b	; 59
    46ce:	0f 92       	push	r0
    46d0:	2f 93       	push	r18
    46d2:	3f 93       	push	r19
    46d4:	4f 93       	push	r20
    46d6:	5f 93       	push	r21
    46d8:	6f 93       	push	r22
    46da:	7f 93       	push	r23
    46dc:	8f 93       	push	r24
    46de:	9f 93       	push	r25
    46e0:	af 93       	push	r26
    46e2:	bf 93       	push	r27
    46e4:	ef 93       	push	r30
    46e6:	ff 93       	push	r31
    46e8:	90 91 06 01 	lds	r25, 0x0106
    46ec:	80 91 13 0d 	lds	r24, 0x0D13
    46f0:	97 fd       	sbrc	r25, 7
    46f2:	11 c0       	rjmp	.+34     	; 0x4716 <__vector_11+0x54>
    46f4:	83 50       	subi	r24, 0x03	; 3
    46f6:	88 30       	cpi	r24, 0x08	; 8
    46f8:	08 f0       	brcs	.+2      	; 0x46fc <__vector_11+0x3a>
    46fa:	7e c0       	rjmp	.+252    	; 0x47f8 <__vector_11+0x136>
    46fc:	80 91 1e 03 	lds	r24, 0x031E
    4700:	86 95       	lsr	r24
    4702:	80 93 1e 03 	sts	0x031E, r24
    4706:	90 91 06 01 	lds	r25, 0x0106
    470a:	96 ff       	sbrs	r25, 6
    470c:	75 c0       	rjmp	.+234    	; 0x47f8 <__vector_11+0x136>
    470e:	80 68       	ori	r24, 0x80	; 128
    4710:	80 93 1e 03 	sts	0x031E, r24
    4714:	71 c0       	rjmp	.+226    	; 0x47f8 <__vector_11+0x136>
    4716:	81 50       	subi	r24, 0x01	; 1
    4718:	80 93 13 0d 	sts	0x0D13, r24
    471c:	81 11       	cpse	r24, r1
    471e:	6c c0       	rjmp	.+216    	; 0x47f8 <__vector_11+0x136>
    4720:	80 91 1e 03 	lds	r24, 0x031E
    4724:	80 3e       	cpi	r24, 0xE0	; 224
    4726:	09 f4       	brne	.+2      	; 0x472a <__vector_11+0x68>
    4728:	64 c0       	rjmp	.+200    	; 0x47f2 <__vector_11+0x130>
    472a:	90 91 e3 12 	lds	r25, 0x12E3
    472e:	91 11       	cpse	r25, r1
    4730:	58 c0       	rjmp	.+176    	; 0x47e2 <__vector_11+0x120>
    4732:	89 35       	cpi	r24, 0x59	; 89
    4734:	49 f0       	breq	.+18     	; 0x4748 <__vector_11+0x86>
    4736:	80 3f       	cpi	r24, 0xF0	; 240
    4738:	19 f0       	breq	.+6      	; 0x4740 <__vector_11+0x7e>
    473a:	82 31       	cpi	r24, 0x12	; 18
    473c:	49 f4       	brne	.+18     	; 0x4750 <__vector_11+0x8e>
    473e:	04 c0       	rjmp	.+8      	; 0x4748 <__vector_11+0x86>
    4740:	81 e0       	ldi	r24, 0x01	; 1
    4742:	80 93 e3 12 	sts	0x12E3, r24
    4746:	55 c0       	rjmp	.+170    	; 0x47f2 <__vector_11+0x130>
    4748:	81 e0       	ldi	r24, 0x01	; 1
    474a:	80 93 06 0d 	sts	0x0D06, r24
    474e:	51 c0       	rjmp	.+162    	; 0x47f2 <__vector_11+0x130>
    4750:	90 91 06 0d 	lds	r25, 0x0D06
    4754:	60 e0       	ldi	r22, 0x00	; 0
    4756:	91 11       	cpse	r25, r1
    4758:	1f c0       	rjmp	.+62     	; 0x4798 <__vector_11+0xd6>
    475a:	91 e4       	ldi	r25, 0x41	; 65
    475c:	26 2f       	mov	r18, r22
    475e:	30 e0       	ldi	r19, 0x00	; 0
    4760:	29 0f       	add	r18, r25
    4762:	31 1d       	adc	r19, r1
    4764:	35 95       	asr	r19
    4766:	27 95       	ror	r18
    4768:	a9 01       	movw	r20, r18
    476a:	44 0f       	add	r20, r20
    476c:	55 1f       	adc	r21, r21
    476e:	fa 01       	movw	r30, r20
    4770:	ea 52       	subi	r30, 0x2A	; 42
    4772:	fe 4f       	sbci	r31, 0xFE	; 254
    4774:	e4 91       	lpm	r30, Z
    4776:	e8 17       	cp	r30, r24
    4778:	18 f4       	brcc	.+6      	; 0x4780 <__vector_11+0xbe>
    477a:	61 e0       	ldi	r22, 0x01	; 1
    477c:	62 0f       	add	r22, r18
    477e:	09 c0       	rjmp	.+18     	; 0x4792 <__vector_11+0xd0>
    4780:	8e 17       	cp	r24, r30
    4782:	18 f4       	brcc	.+6      	; 0x478a <__vector_11+0xc8>
    4784:	9f ef       	ldi	r25, 0xFF	; 255
    4786:	92 0f       	add	r25, r18
    4788:	04 c0       	rjmp	.+8      	; 0x4792 <__vector_11+0xd0>
    478a:	fa 01       	movw	r30, r20
    478c:	e9 52       	subi	r30, 0x29	; 41
    478e:	fe 4f       	sbci	r31, 0xFE	; 254
    4790:	1e c0       	rjmp	.+60     	; 0x47ce <__vector_11+0x10c>
    4792:	96 17       	cp	r25, r22
    4794:	18 f7       	brcc	.-58     	; 0x475c <__vector_11+0x9a>
    4796:	2d c0       	rjmp	.+90     	; 0x47f2 <__vector_11+0x130>
    4798:	91 e4       	ldi	r25, 0x41	; 65
    479a:	26 2f       	mov	r18, r22
    479c:	30 e0       	ldi	r19, 0x00	; 0
    479e:	29 0f       	add	r18, r25
    47a0:	31 1d       	adc	r19, r1
    47a2:	35 95       	asr	r19
    47a4:	27 95       	ror	r18
    47a6:	a9 01       	movw	r20, r18
    47a8:	44 0f       	add	r20, r20
    47aa:	55 1f       	adc	r21, r21
    47ac:	fa 01       	movw	r30, r20
    47ae:	e2 5b       	subi	r30, 0xB2	; 178
    47b0:	fe 4f       	sbci	r31, 0xFE	; 254
    47b2:	e4 91       	lpm	r30, Z
    47b4:	e8 17       	cp	r30, r24
    47b6:	18 f4       	brcc	.+6      	; 0x47be <__vector_11+0xfc>
    47b8:	61 e0       	ldi	r22, 0x01	; 1
    47ba:	62 0f       	add	r22, r18
    47bc:	0f c0       	rjmp	.+30     	; 0x47dc <__vector_11+0x11a>
    47be:	8e 17       	cp	r24, r30
    47c0:	18 f4       	brcc	.+6      	; 0x47c8 <__vector_11+0x106>
    47c2:	9f ef       	ldi	r25, 0xFF	; 255
    47c4:	92 0f       	add	r25, r18
    47c6:	0a c0       	rjmp	.+20     	; 0x47dc <__vector_11+0x11a>
    47c8:	fa 01       	movw	r30, r20
    47ca:	e1 5b       	subi	r30, 0xB1	; 177
    47cc:	fe 4f       	sbci	r31, 0xFE	; 254
    47ce:	e4 91       	lpm	r30, Z
    47d0:	e0 93 48 08 	sts	0x0848, r30
    47d4:	8b e0       	ldi	r24, 0x0B	; 11
    47d6:	0e 94 12 03 	call	0x624	; 0x624 <SchedulerBasicP__TaskBasic__postTask>
    47da:	0b c0       	rjmp	.+22     	; 0x47f2 <__vector_11+0x130>
    47dc:	96 17       	cp	r25, r22
    47de:	e8 f6       	brcc	.-70     	; 0x479a <__vector_11+0xd8>
    47e0:	08 c0       	rjmp	.+16     	; 0x47f2 <__vector_11+0x130>
    47e2:	10 92 e3 12 	sts	0x12E3, r1
    47e6:	82 31       	cpi	r24, 0x12	; 18
    47e8:	11 f0       	breq	.+4      	; 0x47ee <__vector_11+0x12c>
    47ea:	89 35       	cpi	r24, 0x59	; 89
    47ec:	11 f4       	brne	.+4      	; 0x47f2 <__vector_11+0x130>
    47ee:	10 92 06 0d 	sts	0x0D06, r1
    47f2:	8b e0       	ldi	r24, 0x0B	; 11
    47f4:	80 93 13 0d 	sts	0x0D13, r24
    47f8:	ff 91       	pop	r31
    47fa:	ef 91       	pop	r30
    47fc:	bf 91       	pop	r27
    47fe:	af 91       	pop	r26
    4800:	9f 91       	pop	r25
    4802:	8f 91       	pop	r24
    4804:	7f 91       	pop	r23
    4806:	6f 91       	pop	r22
    4808:	5f 91       	pop	r21
    480a:	4f 91       	pop	r20
    480c:	3f 91       	pop	r19
    480e:	2f 91       	pop	r18
    4810:	0f 90       	pop	r0
    4812:	0b be       	out	0x3b, r0	; 59
    4814:	0f 90       	pop	r0
    4816:	0f be       	out	0x3f, r0	; 63
    4818:	0f 90       	pop	r0
    481a:	1f 90       	pop	r1
    481c:	18 95       	reti

0000481e <__vector_29>:
    481e:	1f 92       	push	r1
    4820:	0f 92       	push	r0
    4822:	0f b6       	in	r0, 0x3f	; 63
    4824:	0f 92       	push	r0
    4826:	11 24       	eor	r1, r1
    4828:	0b b6       	in	r0, 0x3b	; 59
    482a:	0f 92       	push	r0
    482c:	2f 93       	push	r18
    482e:	3f 93       	push	r19
    4830:	4f 93       	push	r20
    4832:	5f 93       	push	r21
    4834:	6f 93       	push	r22
    4836:	7f 93       	push	r23
    4838:	8f 93       	push	r24
    483a:	9f 93       	push	r25
    483c:	af 93       	push	r26
    483e:	bf 93       	push	r27
    4840:	cf 93       	push	r28
    4842:	ef 93       	push	r30
    4844:	ff 93       	push	r31
    4846:	20 91 78 00 	lds	r18, 0x0078
    484a:	30 91 79 00 	lds	r19, 0x0079
    484e:	78 94       	sei
    4850:	4f b7       	in	r20, 0x3f	; 63
    4852:	f8 94       	cli
    4854:	80 91 3c 13 	lds	r24, 0x133C
    4858:	81 fb       	bst	r24, 1
    485a:	99 27       	eor	r25, r25
    485c:	90 f9       	bld	r25, 0
    485e:	81 70       	andi	r24, 0x01	; 1
    4860:	4f bf       	out	0x3f, r20	; 63
    4862:	81 11       	cpse	r24, r1
    4864:	22 c0       	rjmp	.+68     	; 0x48aa <__vector_29+0x8c>
    4866:	80 91 7a 00 	lds	r24, 0x007A
    486a:	87 7f       	andi	r24, 0xF7	; 247
    486c:	80 93 7a 00 	sts	0x007A, r24
    4870:	80 91 e7 0f 	lds	r24, 0x0FE7
    4874:	81 30       	cpi	r24, 0x01	; 1
    4876:	19 f0       	breq	.+6      	; 0x487e <__vector_29+0x60>
    4878:	82 30       	cpi	r24, 0x02	; 2
    487a:	91 f0       	breq	.+36     	; 0x48a0 <__vector_29+0x82>
    487c:	36 c0       	rjmp	.+108    	; 0x48ea <__vector_29+0xcc>
    487e:	91 11       	cpse	r25, r1
    4880:	07 c0       	rjmp	.+14     	; 0x4890 <__vector_29+0x72>
    4882:	8d e7       	ldi	r24, 0x7D	; 125
    4884:	90 e0       	ldi	r25, 0x00	; 0
    4886:	0e 94 5b 06 	call	0xcb6	; 0xcb6 <BusyWaitMicroC__BusyWait__wait.part.0>
    488a:	0e 94 82 08 	call	0x1104	; 0x1104 <AdcP__sample>
    488e:	2d c0       	rjmp	.+90     	; 0x48ea <__vector_29+0xcc>
    4890:	30 93 57 12 	sts	0x1257, r19
    4894:	20 93 56 12 	sts	0x1256, r18
    4898:	87 e2       	ldi	r24, 0x27	; 39
    489a:	0e 94 12 03 	call	0x624	; 0x624 <SchedulerBasicP__TaskBasic__postTask>
    489e:	25 c0       	rjmp	.+74     	; 0x48ea <__vector_29+0xcc>
    48a0:	99 23       	and	r25, r25
    48a2:	79 f3       	breq	.-34     	; 0x4882 <__vector_29+0x64>
    48a4:	10 92 e7 0f 	sts	0x0FE7, r1
    48a8:	20 c0       	rjmp	.+64     	; 0x48ea <__vector_29+0xcc>
    48aa:	cf b7       	in	r28, 0x3f	; 63
    48ac:	f8 94       	cli
    48ae:	0e 94 4c 03 	call	0x698	; 0x698 <HplAtm1280AdcP__HplAtm1280Adc__getAdmux>
    48b2:	cf bf       	out	0x3f, r28	; 63
    48b4:	2f b7       	in	r18, 0x3f	; 63
    48b6:	f8 94       	cli
    48b8:	80 91 7a 00 	lds	r24, 0x007A
    48bc:	86 fb       	bst	r24, 6
    48be:	99 27       	eor	r25, r25
    48c0:	90 f9       	bld	r25, 0
    48c2:	87 7f       	andi	r24, 0xF7	; 247
    48c4:	80 61       	ori	r24, 0x10	; 16
    48c6:	90 fb       	bst	r25, 0
    48c8:	86 f9       	bld	r24, 6
    48ca:	8f 77       	andi	r24, 0x7F	; 127
    48cc:	80 93 7a 00 	sts	0x007A, r24
    48d0:	87 7f       	andi	r24, 0xF7	; 247
    48d2:	80 61       	ori	r24, 0x10	; 16
    48d4:	8f 7b       	andi	r24, 0xBF	; 191
    48d6:	8f 77       	andi	r24, 0x7F	; 127
    48d8:	80 93 7a 00 	sts	0x007A, r24
    48dc:	87 7f       	andi	r24, 0xF7	; 247
    48de:	80 61       	ori	r24, 0x10	; 16
    48e0:	8f 7b       	andi	r24, 0xBF	; 191
    48e2:	80 68       	ori	r24, 0x80	; 128
    48e4:	80 93 7a 00 	sts	0x007A, r24
    48e8:	2f bf       	out	0x3f, r18	; 63
    48ea:	ff 91       	pop	r31
    48ec:	ef 91       	pop	r30
    48ee:	cf 91       	pop	r28
    48f0:	bf 91       	pop	r27
    48f2:	af 91       	pop	r26
    48f4:	9f 91       	pop	r25
    48f6:	8f 91       	pop	r24
    48f8:	7f 91       	pop	r23
    48fa:	6f 91       	pop	r22
    48fc:	5f 91       	pop	r21
    48fe:	4f 91       	pop	r20
    4900:	3f 91       	pop	r19
    4902:	2f 91       	pop	r18
    4904:	0f 90       	pop	r0
    4906:	0b be       	out	0x3b, r0	; 59
    4908:	0f 90       	pop	r0
    490a:	0f be       	out	0x3f, r0	; 63
    490c:	0f 90       	pop	r0
    490e:	1f 90       	pop	r1
    4910:	18 95       	reti

00004912 <Enc28j60P__readRegM>:
    4912:	cf 93       	push	r28
    4914:	df 93       	push	r29
    4916:	1f 92       	push	r1
    4918:	cd b7       	in	r28, 0x3d	; 61
    491a:	de b7       	in	r29, 0x3e	; 62
    491c:	89 83       	std	Y+1, r24	; 0x01
    491e:	0e 94 f8 02 	call	0x5f0	; 0x5f0 <HplAtm128GeneralIOPinP__8__IO__clr>
    4922:	89 81       	ldd	r24, Y+1	; 0x01
    4924:	0e 94 ac 03 	call	0x758	; 0x758 <Enc28j60P__SpiByte__write>
    4928:	8f ef       	ldi	r24, 0xFF	; 255
    492a:	0e 94 ac 03 	call	0x758	; 0x758 <Enc28j60P__SpiByte__write>
    492e:	8f ef       	ldi	r24, 0xFF	; 255
    4930:	0e 94 a6 03 	call	0x74c	; 0x74c <Atm1280SpiP__SpiByte__write>
    4934:	89 83       	std	Y+1, r24	; 0x01
    4936:	0e 94 f6 02 	call	0x5ec	; 0x5ec <HplAtm128GeneralIOPinP__8__IO__set>
    493a:	89 81       	ldd	r24, Y+1	; 0x01
    493c:	0f 90       	pop	r0
    493e:	df 91       	pop	r29
    4940:	cf 91       	pop	r28
    4942:	08 95       	ret

00004944 <LlcTransceiverP__Mac__received.constprop.135>:
    4944:	8f 92       	push	r8
    4946:	9f 92       	push	r9
    4948:	af 92       	push	r10
    494a:	bf 92       	push	r11
    494c:	cf 92       	push	r12
    494e:	df 92       	push	r13
    4950:	ef 92       	push	r14
    4952:	ff 92       	push	r15
    4954:	0f 93       	push	r16
    4956:	1f 93       	push	r17
    4958:	cf 93       	push	r28
    495a:	df 93       	push	r29
    495c:	80 91 5a 08 	lds	r24, 0x085A
    4960:	90 e0       	ldi	r25, 0x00	; 0
    4962:	98 2f       	mov	r25, r24
    4964:	88 27       	eor	r24, r24
    4966:	20 91 5b 08 	lds	r18, 0x085B
    496a:	82 2b       	or	r24, r18
    496c:	81 15       	cp	r24, r1
    496e:	28 e0       	ldi	r18, 0x08	; 8
    4970:	92 07       	cpc	r25, r18
    4972:	29 f0       	breq	.+10     	; 0x497e <LlcTransceiverP__Mac__received.constprop.135+0x3a>
    4974:	86 30       	cpi	r24, 0x06	; 6
    4976:	98 40       	sbci	r25, 0x08	; 8
    4978:	09 f4       	brne	.+2      	; 0x497c <LlcTransceiverP__Mac__received.constprop.135+0x38>
    497a:	7a c0       	rjmp	.+244    	; 0x4a70 <LlcTransceiverP__Mac__received.constprop.135+0x12c>
    497c:	e6 c0       	rjmp	.+460    	; 0x4b4a <LlcTransceiverP__Mac__received.constprop.135+0x206>
    497e:	8c e5       	ldi	r24, 0x5C	; 92
    4980:	98 e0       	ldi	r25, 0x08	; 8
    4982:	90 93 d6 12 	sts	0x12D6, r25
    4986:	80 93 d5 12 	sts	0x12D5, r24
    498a:	80 91 6c 08 	lds	r24, 0x086C
    498e:	90 91 6d 08 	lds	r25, 0x086D
    4992:	a0 91 6e 08 	lds	r26, 0x086E
    4996:	b0 91 6f 08 	lds	r27, 0x086F
    499a:	00 91 24 02 	lds	r16, 0x0224
    499e:	10 91 25 02 	lds	r17, 0x0225
    49a2:	20 91 26 02 	lds	r18, 0x0226
    49a6:	30 91 27 02 	lds	r19, 0x0227
    49aa:	80 17       	cp	r24, r16
    49ac:	91 07       	cpc	r25, r17
    49ae:	a2 07       	cpc	r26, r18
    49b0:	b3 07       	cpc	r27, r19
    49b2:	39 f1       	breq	.+78     	; 0x4a02 <LlcTransceiverP__Mac__received.constprop.135+0xbe>
    49b4:	40 91 1c 02 	lds	r20, 0x021C
    49b8:	50 91 1d 02 	lds	r21, 0x021D
    49bc:	60 91 1e 02 	lds	r22, 0x021E
    49c0:	70 91 1f 02 	lds	r23, 0x021F
    49c4:	6a 01       	movw	r12, r20
    49c6:	7b 01       	movw	r14, r22
    49c8:	c0 94       	com	r12
    49ca:	d0 94       	com	r13
    49cc:	e0 94       	com	r14
    49ce:	f0 94       	com	r15
    49d0:	46 01       	movw	r8, r12
    49d2:	57 01       	movw	r10, r14
    49d4:	88 22       	and	r8, r24
    49d6:	99 22       	and	r9, r25
    49d8:	aa 22       	and	r10, r26
    49da:	bb 22       	and	r11, r27
    49dc:	8c 14       	cp	r8, r12
    49de:	9d 04       	cpc	r9, r13
    49e0:	ae 04       	cpc	r10, r14
    49e2:	bf 04       	cpc	r11, r15
    49e4:	09 f0       	breq	.+2      	; 0x49e8 <LlcTransceiverP__Mac__received.constprop.135+0xa4>
    49e6:	b1 c0       	rjmp	.+354    	; 0x4b4a <LlcTransceiverP__Mac__received.constprop.135+0x206>
    49e8:	80 27       	eor	r24, r16
    49ea:	91 27       	eor	r25, r17
    49ec:	a2 27       	eor	r26, r18
    49ee:	b3 27       	eor	r27, r19
    49f0:	84 23       	and	r24, r20
    49f2:	95 23       	and	r25, r21
    49f4:	a6 23       	and	r26, r22
    49f6:	b7 23       	and	r27, r23
    49f8:	89 2b       	or	r24, r25
    49fa:	8a 2b       	or	r24, r26
    49fc:	8b 2b       	or	r24, r27
    49fe:	09 f0       	breq	.+2      	; 0x4a02 <LlcTransceiverP__Mac__received.constprop.135+0xbe>
    4a00:	a4 c0       	rjmp	.+328    	; 0x4b4a <LlcTransceiverP__Mac__received.constprop.135+0x206>
    4a02:	80 91 65 08 	lds	r24, 0x0865
    4a06:	81 31       	cpi	r24, 0x11	; 17
    4a08:	09 f0       	breq	.+2      	; 0x4a0c <LlcTransceiverP__Mac__received.constprop.135+0xc8>
    4a0a:	9f c0       	rjmp	.+318    	; 0x4b4a <LlcTransceiverP__Mac__received.constprop.135+0x206>
    4a0c:	20 91 74 08 	lds	r18, 0x0874
    4a10:	c0 91 75 08 	lds	r28, 0x0875
    4a14:	80 91 72 08 	lds	r24, 0x0872
    4a18:	90 e0       	ldi	r25, 0x00	; 0
    4a1a:	98 2f       	mov	r25, r24
    4a1c:	88 27       	eor	r24, r24
    4a1e:	30 91 73 08 	lds	r19, 0x0873
    4a22:	83 2b       	or	r24, r19
    4a24:	80 35       	cpi	r24, 0x50	; 80
    4a26:	93 4c       	sbci	r25, 0xC3	; 195
    4a28:	09 f0       	breq	.+2      	; 0x4a2c <LlcTransceiverP__Mac__received.constprop.135+0xe8>
    4a2a:	8f c0       	rjmp	.+286    	; 0x4b4a <LlcTransceiverP__Mac__received.constprop.135+0x206>
    4a2c:	d0 e0       	ldi	r29, 0x00	; 0
    4a2e:	d2 2b       	or	r29, r18
    4a30:	28 97       	sbiw	r28, 0x08	; 8
    4a32:	c1 38       	cpi	r28, 0x81	; 129
    4a34:	d1 05       	cpc	r29, r1
    4a36:	10 f0       	brcs	.+4      	; 0x4a3c <LlcTransceiverP__Mac__received.constprop.135+0xf8>
    4a38:	c0 e8       	ldi	r28, 0x80	; 128
    4a3a:	d0 e0       	ldi	r29, 0x00	; 0
    4a3c:	ae 01       	movw	r20, r28
    4a3e:	68 e7       	ldi	r22, 0x78	; 120
    4a40:	78 e0       	ldi	r23, 0x08	; 8
    4a42:	87 eb       	ldi	r24, 0xB7	; 183
    4a44:	93 e0       	ldi	r25, 0x03	; 3
    4a46:	0e 94 39 2b 	call	0x5672	; 0x5672 <memcpy>
    4a4a:	d0 93 b6 03 	sts	0x03B6, r29
    4a4e:	c0 93 b5 03 	sts	0x03B5, r28
    4a52:	8f e0       	ldi	r24, 0x0F	; 15
    4a54:	df 91       	pop	r29
    4a56:	cf 91       	pop	r28
    4a58:	1f 91       	pop	r17
    4a5a:	0f 91       	pop	r16
    4a5c:	ff 90       	pop	r15
    4a5e:	ef 90       	pop	r14
    4a60:	df 90       	pop	r13
    4a62:	cf 90       	pop	r12
    4a64:	bf 90       	pop	r11
    4a66:	af 90       	pop	r10
    4a68:	9f 90       	pop	r9
    4a6a:	8f 90       	pop	r8
    4a6c:	0c 94 12 03 	jmp	0x624	; 0x624 <SchedulerBasicP__TaskBasic__postTask>
    4a70:	80 91 62 08 	lds	r24, 0x0862
    4a74:	90 e0       	ldi	r25, 0x00	; 0
    4a76:	98 2f       	mov	r25, r24
    4a78:	88 27       	eor	r24, r24
    4a7a:	20 91 63 08 	lds	r18, 0x0863
    4a7e:	82 2b       	or	r24, r18
    4a80:	81 30       	cpi	r24, 0x01	; 1
    4a82:	91 05       	cpc	r25, r1
    4a84:	19 f0       	breq	.+6      	; 0x4a8c <LlcTransceiverP__Mac__received.constprop.135+0x148>
    4a86:	02 97       	sbiw	r24, 0x02	; 2
    4a88:	51 f1       	breq	.+84     	; 0x4ade <LlcTransceiverP__Mac__received.constprop.135+0x19a>
    4a8a:	5f c0       	rjmp	.+190    	; 0x4b4a <LlcTransceiverP__Mac__received.constprop.135+0x206>
    4a8c:	40 91 24 02 	lds	r20, 0x0224
    4a90:	50 91 25 02 	lds	r21, 0x0225
    4a94:	60 91 26 02 	lds	r22, 0x0226
    4a98:	70 91 27 02 	lds	r23, 0x0227
    4a9c:	80 91 74 08 	lds	r24, 0x0874
    4aa0:	90 91 75 08 	lds	r25, 0x0875
    4aa4:	a0 91 76 08 	lds	r26, 0x0876
    4aa8:	b0 91 77 08 	lds	r27, 0x0877
    4aac:	48 17       	cp	r20, r24
    4aae:	59 07       	cpc	r21, r25
    4ab0:	6a 07       	cpc	r22, r26
    4ab2:	7b 07       	cpc	r23, r27
    4ab4:	09 f0       	breq	.+2      	; 0x4ab8 <LlcTransceiverP__Mac__received.constprop.135+0x174>
    4ab6:	49 c0       	rjmp	.+146    	; 0x4b4a <LlcTransceiverP__Mac__received.constprop.135+0x206>
    4ab8:	4a e6       	ldi	r20, 0x6A	; 106
    4aba:	58 e0       	ldi	r21, 0x08	; 8
    4abc:	64 e6       	ldi	r22, 0x64	; 100
    4abe:	78 e0       	ldi	r23, 0x08	; 8
    4ac0:	82 e0       	ldi	r24, 0x02	; 2
    4ac2:	df 91       	pop	r29
    4ac4:	cf 91       	pop	r28
    4ac6:	1f 91       	pop	r17
    4ac8:	0f 91       	pop	r16
    4aca:	ff 90       	pop	r15
    4acc:	ef 90       	pop	r14
    4ace:	df 90       	pop	r13
    4ad0:	cf 90       	pop	r12
    4ad2:	bf 90       	pop	r11
    4ad4:	af 90       	pop	r10
    4ad6:	9f 90       	pop	r9
    4ad8:	8f 90       	pop	r8
    4ada:	0c 94 f1 03 	jmp	0x7e2	; 0x7e2 <ArpP__send_packet>
    4ade:	80 91 18 03 	lds	r24, 0x0318
    4ae2:	81 30       	cpi	r24, 0x01	; 1
    4ae4:	91 f5       	brne	.+100    	; 0x4b4a <LlcTransceiverP__Mac__received.constprop.135+0x206>
    4ae6:	80 91 1a 03 	lds	r24, 0x031A
    4aea:	2a e0       	ldi	r18, 0x0A	; 10
    4aec:	82 9f       	mul	r24, r18
    4aee:	c0 01       	movw	r24, r0
    4af0:	11 24       	eor	r1, r1
    4af2:	fc 01       	movw	r30, r24
    4af4:	ea 5b       	subi	r30, 0xBA	; 186
    4af6:	fc 4e       	sbci	r31, 0xEC	; 236
    4af8:	40 91 6a 08 	lds	r20, 0x086A
    4afc:	50 91 6b 08 	lds	r21, 0x086B
    4b00:	60 91 6c 08 	lds	r22, 0x086C
    4b04:	70 91 6d 08 	lds	r23, 0x086D
    4b08:	40 83       	st	Z, r20
    4b0a:	51 83       	std	Z+1, r21	; 0x01
    4b0c:	62 83       	std	Z+2, r22	; 0x02
    4b0e:	73 83       	std	Z+3, r23	; 0x03
    4b10:	dc 01       	movw	r26, r24
    4b12:	a6 5b       	subi	r26, 0xB6	; 182
    4b14:	bc 4e       	sbci	r27, 0xEC	; 236
    4b16:	26 e0       	ldi	r18, 0x06	; 6
    4b18:	e4 e6       	ldi	r30, 0x64	; 100
    4b1a:	f8 e0       	ldi	r31, 0x08	; 8
    4b1c:	01 90       	ld	r0, Z+
    4b1e:	0d 92       	st	X+, r0
    4b20:	2a 95       	dec	r18
    4b22:	e1 f7       	brne	.-8      	; 0x4b1c <LlcTransceiverP__Mac__received.constprop.135+0x1d8>
    4b24:	20 91 26 12 	lds	r18, 0x1226
    4b28:	2d 7f       	andi	r18, 0xFD	; 253
    4b2a:	20 93 26 12 	sts	0x1226, r18
    4b2e:	10 92 18 03 	sts	0x0318, r1
    4b32:	86 5b       	subi	r24, 0xB6	; 182
    4b34:	9c 4e       	sbci	r25, 0xEC	; 236
    4b36:	0e 94 4d 0b 	call	0x169a	; 0x169a <IpTransceiverP__Arp__resolved>
    4b3a:	80 91 1a 03 	lds	r24, 0x031A
    4b3e:	90 e0       	ldi	r25, 0x00	; 0
    4b40:	01 96       	adiw	r24, 0x01	; 1
    4b42:	83 70       	andi	r24, 0x03	; 3
    4b44:	99 27       	eor	r25, r25
    4b46:	80 93 1a 03 	sts	0x031A, r24
    4b4a:	df 91       	pop	r29
    4b4c:	cf 91       	pop	r28
    4b4e:	1f 91       	pop	r17
    4b50:	0f 91       	pop	r16
    4b52:	ff 90       	pop	r15
    4b54:	ef 90       	pop	r14
    4b56:	df 90       	pop	r13
    4b58:	cf 90       	pop	r12
    4b5a:	bf 90       	pop	r11
    4b5c:	af 90       	pop	r10
    4b5e:	9f 90       	pop	r9
    4b60:	8f 90       	pop	r8
    4b62:	08 95       	ret

00004b64 <RadioScannerP__DB__receivedChannelEntry.isra.61>:
    4b64:	ef 92       	push	r14
    4b66:	ff 92       	push	r15
    4b68:	0f 93       	push	r16
    4b6a:	1f 93       	push	r17
    4b6c:	cf 93       	push	r28
    4b6e:	df 93       	push	r29
    4b70:	cd b7       	in	r28, 0x3d	; 61
    4b72:	de b7       	in	r29, 0x3e	; 62
    4b74:	c2 5b       	subi	r28, 0xB2	; 178
    4b76:	d1 09       	sbc	r29, r1
    4b78:	0f b6       	in	r0, 0x3f	; 63
    4b7a:	f8 94       	cli
    4b7c:	de bf       	out	0x3e, r29	; 62
    4b7e:	0f be       	out	0x3f, r0	; 63
    4b80:	cd bf       	out	0x3d, r28	; 61
    4b82:	8f 3f       	cpi	r24, 0xFF	; 255
    4b84:	39 f4       	brne	.+14     	; 0x4b94 <RadioScannerP__DB__receivedChannelEntry.isra.61+0x30>
    4b86:	4c e3       	ldi	r20, 0x3C	; 60
    4b88:	60 e0       	ldi	r22, 0x00	; 0
    4b8a:	83 e6       	ldi	r24, 0x63	; 99
    4b8c:	92 e0       	ldi	r25, 0x02	; 2
    4b8e:	0e 94 a5 0d 	call	0x1b4a	; 0x1b4a <GlcdP__Glcd__drawText>
    4b92:	38 c0       	rjmp	.+112    	; 0x4c04 <RadioScannerP__DB__receivedChannelEntry.isra.61+0xa0>
    4b94:	ce 01       	movw	r24, r28
    4b96:	86 55       	subi	r24, 0x56	; 86
    4b98:	9f 4f       	sbci	r25, 0xFF	; 255
    4b9a:	78 e0       	ldi	r23, 0x08	; 8
    4b9c:	f8 01       	movw	r30, r16
    4b9e:	dc 01       	movw	r26, r24
    4ba0:	01 90       	ld	r0, Z+
    4ba2:	0d 92       	st	X+, r0
    4ba4:	7a 95       	dec	r23
    4ba6:	e1 f7       	brne	.-8      	; 0x4ba0 <RadioScannerP__DB__receivedChannelEntry.isra.61+0x3c>
    4ba8:	fc 01       	movw	r30, r24
    4baa:	10 86       	std	Z+8, r1	; 0x08
    4bac:	7e 01       	movw	r14, r28
    4bae:	f1 e8       	ldi	r31, 0x81	; 129
    4bb0:	ef 0e       	add	r14, r31
    4bb2:	f1 1c       	adc	r15, r1
    4bb4:	78 e2       	ldi	r23, 0x28	; 40
    4bb6:	f8 01       	movw	r30, r16
    4bb8:	d7 01       	movw	r26, r14
    4bba:	01 90       	ld	r0, Z+
    4bbc:	0d 92       	st	X+, r0
    4bbe:	7a 95       	dec	r23
    4bc0:	e1 f7       	brne	.-8      	; 0x4bba <RadioScannerP__DB__receivedChannelEntry.isra.61+0x56>
    4bc2:	f7 01       	movw	r30, r14
    4bc4:	10 a6       	std	Z+40, r1	; 0x28
    4bc6:	ff 92       	push	r15
    4bc8:	ef 92       	push	r14
    4bca:	9f 93       	push	r25
    4bcc:	8f 93       	push	r24
    4bce:	3f 93       	push	r19
    4bd0:	2f 93       	push	r18
    4bd2:	5f 93       	push	r21
    4bd4:	4f 93       	push	r20
    4bd6:	1f 92       	push	r1
    4bd8:	6f 93       	push	r22
    4bda:	8c e6       	ldi	r24, 0x6C	; 108
    4bdc:	92 e0       	ldi	r25, 0x02	; 2
    4bde:	9f 93       	push	r25
    4be0:	8f 93       	push	r24
    4be2:	8e 01       	movw	r16, r28
    4be4:	0f 5f       	subi	r16, 0xFF	; 255
    4be6:	1f 4f       	sbci	r17, 0xFF	; 255
    4be8:	1f 93       	push	r17
    4bea:	0f 93       	push	r16
    4bec:	0e 94 c7 2b 	call	0x578e	; 0x578e <sprintf>
    4bf0:	48 e2       	ldi	r20, 0x28	; 40
    4bf2:	60 e0       	ldi	r22, 0x00	; 0
    4bf4:	c8 01       	movw	r24, r16
    4bf6:	0e 94 a5 0d 	call	0x1b4a	; 0x1b4a <GlcdP__Glcd__drawText>
    4bfa:	0f b6       	in	r0, 0x3f	; 63
    4bfc:	f8 94       	cli
    4bfe:	de bf       	out	0x3e, r29	; 62
    4c00:	0f be       	out	0x3f, r0	; 63
    4c02:	cd bf       	out	0x3d, r28	; 61
    4c04:	ce 54       	subi	r28, 0x4E	; 78
    4c06:	df 4f       	sbci	r29, 0xFF	; 255
    4c08:	0f b6       	in	r0, 0x3f	; 63
    4c0a:	f8 94       	cli
    4c0c:	de bf       	out	0x3e, r29	; 62
    4c0e:	0f be       	out	0x3f, r0	; 63
    4c10:	cd bf       	out	0x3d, r28	; 61
    4c12:	df 91       	pop	r29
    4c14:	cf 91       	pop	r28
    4c16:	1f 91       	pop	r17
    4c18:	0f 91       	pop	r16
    4c1a:	ff 90       	pop	r15
    4c1c:	ef 90       	pop	r14
    4c1e:	08 95       	ret

00004c20 <main>:
    4c20:	cf 93       	push	r28
    4c22:	df 93       	push	r29
    4c24:	cd b7       	in	r28, 0x3d	; 61
    4c26:	de b7       	in	r29, 0x3e	; 62
    4c28:	6b 97       	sbiw	r28, 0x1b	; 27
    4c2a:	0f b6       	in	r0, 0x3f	; 63
    4c2c:	f8 94       	cli
    4c2e:	de bf       	out	0x3e, r29	; 62
    4c30:	0f be       	out	0x3f, r0	; 63
    4c32:	cd bf       	out	0x3d, r28	; 61
    4c34:	0f b7       	in	r16, 0x3f	; 63
    4c36:	f8 94       	cli
    4c38:	49 e2       	ldi	r20, 0x29	; 41
    4c3a:	50 e0       	ldi	r21, 0x00	; 0
    4c3c:	6f ef       	ldi	r22, 0xFF	; 255
    4c3e:	70 e0       	ldi	r23, 0x00	; 0
    4c40:	8d ed       	ldi	r24, 0xDD	; 221
    4c42:	9c e0       	ldi	r25, 0x0C	; 12
    4c44:	0e 94 42 2b 	call	0x5684	; 0x5684 <memset>
    4c48:	8f ef       	ldi	r24, 0xFF	; 255
    4c4a:	80 93 e0 12 	sts	0x12E0, r24
    4c4e:	80 93 43 13 	sts	0x1343, r24
    4c52:	88 ee       	ldi	r24, 0xE8	; 232
    4c54:	91 e0       	ldi	r25, 0x01	; 1
    4c56:	90 93 e2 12 	sts	0x12E2, r25
    4c5a:	80 93 e1 12 	sts	0x12E1, r24
    4c5e:	08 9a       	sbi	0x01, 0	; 1
    4c60:	09 9a       	sbi	0x01, 1	; 1
    4c62:	0a 9a       	sbi	0x01, 2	; 1
    4c64:	10 98       	cbi	0x02, 0	; 2
    4c66:	11 98       	cbi	0x02, 1	; 2
    4c68:	12 98       	cbi	0x02, 2	; 2
    4c6a:	80 e0       	ldi	r24, 0x00	; 0
    4c6c:	87 7f       	andi	r24, 0xF7	; 247
    4c6e:	8f 7e       	andi	r24, 0xEF	; 239
    4c70:	8f 7d       	andi	r24, 0xDF	; 223
    4c72:	8f 7b       	andi	r24, 0xBF	; 191
    4c74:	8f 77       	andi	r24, 0x7F	; 127
    4c76:	80 93 7a 00 	sts	0x007A, r24
    4c7a:	81 e0       	ldi	r24, 0x01	; 1
    4c7c:	83 bf       	out	0x33, r24	; 51
    4c7e:	0e 94 fe 02 	call	0x5fc	; 0x5fc <SchedulerBasicP__popTask>
    4c82:	8f 3f       	cpi	r24, 0xFF	; 255
    4c84:	19 f0       	breq	.+6      	; 0x4c8c <main+0x6c>
    4c86:	0e 94 d3 0e 	call	0x1da6	; 0x1da6 <SchedulerBasicP__TaskBasic__runTask>
    4c8a:	f9 cf       	rjmp	.-14     	; 0x4c7e <main+0x5e>
    4c8c:	87 b1       	in	r24, 0x07	; 7
    4c8e:	8c 6f       	ori	r24, 0xFC	; 252
    4c90:	87 b9       	out	0x07, r24	; 7
    4c92:	18 e2       	ldi	r17, 0x28	; 40
    4c94:	88 ee       	ldi	r24, 0xE8	; 232
    4c96:	93 e0       	ldi	r25, 0x03	; 3
    4c98:	0e 94 5b 06 	call	0xcb6	; 0xcb6 <BusyWaitMicroC__BusyWait__wait.part.0>
    4c9c:	11 50       	subi	r17, 0x01	; 1
    4c9e:	d1 f7       	brne	.-12     	; 0x4c94 <main+0x74>
    4ca0:	60 e0       	ldi	r22, 0x00	; 0
    4ca2:	88 e2       	ldi	r24, 0x28	; 40
    4ca4:	0e 94 22 08 	call	0x1044	; 0x1044 <HplLcdP__write>
    4ca8:	88 e2       	ldi	r24, 0x28	; 40
    4caa:	90 e0       	ldi	r25, 0x00	; 0
    4cac:	0e 94 5b 06 	call	0xcb6	; 0xcb6 <BusyWaitMicroC__BusyWait__wait.part.0>
    4cb0:	60 e0       	ldi	r22, 0x00	; 0
    4cb2:	88 e2       	ldi	r24, 0x28	; 40
    4cb4:	0e 94 22 08 	call	0x1044	; 0x1044 <HplLcdP__write>
    4cb8:	88 e2       	ldi	r24, 0x28	; 40
    4cba:	90 e0       	ldi	r25, 0x00	; 0
    4cbc:	0e 94 5b 06 	call	0xcb6	; 0xcb6 <BusyWaitMicroC__BusyWait__wait.part.0>
    4cc0:	60 e0       	ldi	r22, 0x00	; 0
    4cc2:	8c e0       	ldi	r24, 0x0C	; 12
    4cc4:	0e 94 22 08 	call	0x1044	; 0x1044 <HplLcdP__write>
    4cc8:	88 e2       	ldi	r24, 0x28	; 40
    4cca:	90 e0       	ldi	r25, 0x00	; 0
    4ccc:	0e 94 5b 06 	call	0xcb6	; 0xcb6 <BusyWaitMicroC__BusyWait__wait.part.0>
    4cd0:	60 e0       	ldi	r22, 0x00	; 0
    4cd2:	81 e0       	ldi	r24, 0x01	; 1
    4cd4:	0e 94 22 08 	call	0x1044	; 0x1044 <HplLcdP__write>
    4cd8:	88 ee       	ldi	r24, 0xE8	; 232
    4cda:	93 e0       	ldi	r25, 0x03	; 3
    4cdc:	0e 94 5b 06 	call	0xcb6	; 0xcb6 <BusyWaitMicroC__BusyWait__wait.part.0>
    4ce0:	88 ee       	ldi	r24, 0xE8	; 232
    4ce2:	93 e0       	ldi	r25, 0x03	; 3
    4ce4:	0e 94 5b 06 	call	0xcb6	; 0xcb6 <BusyWaitMicroC__BusyWait__wait.part.0>
    4ce8:	60 e0       	ldi	r22, 0x00	; 0
    4cea:	86 e0       	ldi	r24, 0x06	; 6
    4cec:	0e 94 22 08 	call	0x1044	; 0x1044 <HplLcdP__write>
    4cf0:	88 e2       	ldi	r24, 0x28	; 40
    4cf2:	90 e0       	ldi	r25, 0x00	; 0
    4cf4:	0e 94 5b 06 	call	0xcb6	; 0xcb6 <BusyWaitMicroC__BusyWait__wait.part.0>
    4cf8:	40 e2       	ldi	r20, 0x20	; 32
    4cfa:	50 e0       	ldi	r21, 0x00	; 0
    4cfc:	60 e2       	ldi	r22, 0x20	; 32
    4cfe:	70 e0       	ldi	r23, 0x00	; 0
    4d00:	88 ee       	ldi	r24, 0xE8	; 232
    4d02:	9f e0       	ldi	r25, 0x0F	; 15
    4d04:	0e 94 42 2b 	call	0x5684	; 0x5684 <memset>
    4d08:	81 e0       	ldi	r24, 0x01	; 1
    4d0a:	80 93 4a 0f 	sts	0x0F4A, r24
    4d0e:	80 93 4b 0f 	sts	0x0F4B, r24
    4d12:	10 92 e4 12 	sts	0x12E4, r1
    4d16:	10 92 55 12 	sts	0x1255, r1
    4d1a:	10 92 1d 12 	sts	0x121D, r1
    4d1e:	1f ef       	ldi	r17, 0xFF	; 255
    4d20:	10 93 4c 0f 	sts	0x0F4C, r17
    4d24:	10 93 12 0d 	sts	0x0D12, r17
    4d28:	72 9a       	sbi	0x0e, 2	; 14
    4d2a:	73 9a       	sbi	0x0e, 3	; 14
    4d2c:	74 98       	cbi	0x0e, 4	; 14
    4d2e:	75 9a       	sbi	0x0e, 5	; 14
    4d30:	0e 94 fc 02 	call	0x5f8	; 0x5f8 <HplAtm128GeneralIOPinP__38__IO__set>
    4d34:	77 9a       	sbi	0x0e, 7	; 14
    4d36:	6a 9a       	sbi	0x0d, 2	; 13
    4d38:	6b 9a       	sbi	0x0d, 3	; 13
    4d3a:	6c 9a       	sbi	0x0d, 4	; 13
    4d3c:	6d 9a       	sbi	0x0d, 5	; 13
    4d3e:	6e 9a       	sbi	0x0d, 6	; 13
    4d40:	6f 9a       	sbi	0x0d, 7	; 13
    4d42:	82 b1       	in	r24, 0x02	; 2
    4d44:	12 b8       	out	0x02, r1	; 2
    4d46:	81 b1       	in	r24, 0x01	; 1
    4d48:	11 b9       	out	0x01, r17	; 1
    4d4a:	6f e3       	ldi	r22, 0x3F	; 63
    4d4c:	80 e0       	ldi	r24, 0x00	; 0
    4d4e:	0e 94 c6 0c 	call	0x198c	; 0x198c <HplKS0108P__HplKS0108__controlWrite>
    4d52:	6f e3       	ldi	r22, 0x3F	; 63
    4d54:	81 e0       	ldi	r24, 0x01	; 1
    4d56:	0e 94 c6 0c 	call	0x198c	; 0x198c <HplKS0108P__HplKS0108__controlWrite>
    4d5a:	60 ec       	ldi	r22, 0xC0	; 192
    4d5c:	80 e0       	ldi	r24, 0x00	; 0
    4d5e:	0e 94 c6 0c 	call	0x198c	; 0x198c <HplKS0108P__HplKS0108__controlWrite>
    4d62:	60 ec       	ldi	r22, 0xC0	; 192
    4d64:	81 e0       	ldi	r24, 0x01	; 1
    4d66:	0e 94 c6 0c 	call	0x198c	; 0x198c <HplKS0108P__HplKS0108__controlWrite>
    4d6a:	80 91 b6 00 	lds	r24, 0x00B6
    4d6e:	80 72       	andi	r24, 0x20	; 32
    4d70:	80 93 b6 00 	sts	0x00B6, r24
    4d74:	80 91 b6 00 	lds	r24, 0x00B6
    4d78:	81 fd       	sbrc	r24, 1
    4d7a:	fc cf       	rjmp	.-8      	; 0x4d74 <main+0x154>
    4d7c:	82 e0       	ldi	r24, 0x02	; 2
    4d7e:	80 93 b0 00 	sts	0x00B0, r24
    4d82:	80 91 b6 00 	lds	r24, 0x00B6
    4d86:	80 fd       	sbrc	r24, 0
    4d88:	fc cf       	rjmp	.-8      	; 0x4d82 <main+0x162>
    4d8a:	85 e0       	ldi	r24, 0x05	; 5
    4d8c:	80 93 b1 00 	sts	0x00B1, r24
    4d90:	8c e7       	ldi	r24, 0x7C	; 124
    4d92:	80 93 b3 00 	sts	0x00B3, r24
    4d96:	80 91 70 00 	lds	r24, 0x0070
    4d9a:	82 60       	ori	r24, 0x02	; 2
    4d9c:	80 93 70 00 	sts	0x0070, r24
    4da0:	0e 94 70 03 	call	0x6e0	; 0x6e0 <Atm1280AlarmSyncP__0__Counter__get>
    4da4:	60 93 27 12 	sts	0x1227, r22
    4da8:	70 93 28 12 	sts	0x1228, r23
    4dac:	80 93 29 12 	sts	0x1229, r24
    4db0:	90 93 2a 12 	sts	0x122A, r25
    4db4:	80 e3       	ldi	r24, 0x30	; 48
    4db6:	95 e7       	ldi	r25, 0x75	; 117
    4db8:	a0 e0       	ldi	r26, 0x00	; 0
    4dba:	b0 e0       	ldi	r27, 0x00	; 0
    4dbc:	80 93 2b 12 	sts	0x122B, r24
    4dc0:	90 93 2c 12 	sts	0x122C, r25
    4dc4:	a0 93 2d 12 	sts	0x122D, r26
    4dc8:	b0 93 2e 12 	sts	0x122E, r27
    4dcc:	80 91 2f 12 	lds	r24, 0x122F
    4dd0:	8e 7f       	andi	r24, 0xFE	; 254
    4dd2:	82 60       	ori	r24, 0x02	; 2
    4dd4:	80 93 2f 12 	sts	0x122F, r24
    4dd8:	83 e1       	ldi	r24, 0x13	; 19
    4dda:	0e 94 12 03 	call	0x624	; 0x624 <SchedulerBasicP__TaskBasic__postTask>
    4dde:	80 91 28 02 	lds	r24, 0x0228
    4de2:	90 91 29 02 	lds	r25, 0x0229
    4de6:	90 93 26 02 	sts	0x0226, r25
    4dea:	80 93 27 02 	sts	0x0227, r24
    4dee:	0e 94 fe 02 	call	0x5fc	; 0x5fc <SchedulerBasicP__popTask>
    4df2:	8f 3f       	cpi	r24, 0xFF	; 255
    4df4:	19 f0       	breq	.+6      	; 0x4dfc <main+0x1dc>
    4df6:	0e 94 d3 0e 	call	0x1da6	; 0x1da6 <SchedulerBasicP__TaskBasic__runTask>
    4dfa:	f9 cf       	rjmp	.-14     	; 0x4dee <main+0x1ce>
    4dfc:	0f bf       	out	0x3f, r16	; 63
    4dfe:	78 94       	sei
    4e00:	8f b7       	in	r24, 0x3f	; 63
    4e02:	f8 94       	cli
    4e04:	10 92 49 08 	sts	0x0849, r1
    4e08:	8f bf       	out	0x3f, r24	; 63
    4e0a:	10 92 47 04 	sts	0x0447, r1
    4e0e:	10 92 48 04 	sts	0x0448, r1
    4e12:	10 92 3d 04 	sts	0x043D, r1
    4e16:	49 e0       	ldi	r20, 0x09	; 9
    4e18:	50 e0       	ldi	r21, 0x00	; 0
    4e1a:	6f ef       	ldi	r22, 0xFF	; 255
    4e1c:	70 e0       	ldi	r23, 0x00	; 0
    4e1e:	8e e3       	ldi	r24, 0x3E	; 62
    4e20:	94 e0       	ldi	r25, 0x04	; 4
    4e22:	0e 94 42 2b 	call	0x5684	; 0x5684 <memset>
    4e26:	10 92 3c 04 	sts	0x043C, r1
    4e2a:	10 92 3b 04 	sts	0x043B, r1
    4e2e:	68 e7       	ldi	r22, 0x78	; 120
    4e30:	75 e0       	ldi	r23, 0x05	; 5
    4e32:	ce 01       	movw	r24, r28
    4e34:	42 96       	adiw	r24, 0x12	; 18
    4e36:	0e 94 fb 2a 	call	0x55f6	; 0x55f6 <strcpy_P>
    4e3a:	19 8e       	std	Y+25, r1	; 0x19
    4e3c:	10 92 e4 12 	sts	0x12E4, r1
    4e40:	10 92 55 12 	sts	0x1255, r1
    4e44:	ce 01       	movw	r24, r28
    4e46:	42 96       	adiw	r24, 0x12	; 18
    4e48:	0e 94 b6 04 	call	0x96c	; 0x96c <BufferedLcdP__0__BufferedLcd__write>
    4e4c:	0e 94 fd 04 	call	0x9fa	; 0x9fa <RadioScannerP__printVolume>
    4e50:	0e 94 ef 0d 	call	0x1bde	; 0x1bde <RadioScannerP__Glcd__fill.constprop.99>
    4e54:	9f b7       	in	r25, 0x3f	; 63
    4e56:	f8 94       	cli
    4e58:	80 91 07 01 	lds	r24, 0x0107
    4e5c:	8f 77       	andi	r24, 0x7F	; 127
    4e5e:	80 93 07 01 	sts	0x0107, r24
    4e62:	9f bf       	out	0x3f, r25	; 63
    4e64:	9f b7       	in	r25, 0x3f	; 63
    4e66:	f8 94       	cli
    4e68:	80 91 07 01 	lds	r24, 0x0107
    4e6c:	8f 7b       	andi	r24, 0xBF	; 191
    4e6e:	80 93 07 01 	sts	0x0107, r24
    4e72:	9f bf       	out	0x3f, r25	; 63
    4e74:	80 91 6d 00 	lds	r24, 0x006D
    4e78:	80 68       	ori	r24, 0x80	; 128
    4e7a:	80 93 6d 00 	sts	0x006D, r24
    4e7e:	8f b7       	in	r24, 0x3f	; 63
    4e80:	f8 94       	cli
    4e82:	9b e0       	ldi	r25, 0x0B	; 11
    4e84:	90 93 13 0d 	sts	0x0D13, r25
    4e88:	10 92 06 0d 	sts	0x0D06, r1
    4e8c:	10 92 e3 12 	sts	0x12E3, r1
    4e90:	8f bf       	out	0x3f, r24	; 63
    4e92:	80 91 68 00 	lds	r24, 0x0068
    4e96:	84 60       	ori	r24, 0x04	; 4
    4e98:	80 93 68 00 	sts	0x0068, r24
    4e9c:	9f b7       	in	r25, 0x3f	; 63
    4e9e:	f8 94       	cli
    4ea0:	80 91 d7 12 	lds	r24, 0x12D7
    4ea4:	9f bf       	out	0x3f, r25	; 63
    4ea6:	81 11       	cpse	r24, r1
    4ea8:	35 c0       	rjmp	.+106    	; 0x4f14 <main+0x2f4>
    4eaa:	9f b7       	in	r25, 0x3f	; 63
    4eac:	f8 94       	cli
    4eae:	81 e0       	ldi	r24, 0x01	; 1
    4eb0:	80 93 d7 12 	sts	0x12D7, r24
    4eb4:	10 92 d8 12 	sts	0x12D8, r1
    4eb8:	10 92 d9 12 	sts	0x12D9, r1
    4ebc:	10 92 da 12 	sts	0x12DA, r1
    4ec0:	10 92 db 12 	sts	0x12DB, r1
    4ec4:	10 92 df 12 	sts	0x12DF, r1
    4ec8:	80 e2       	ldi	r24, 0x20	; 32
    4eca:	e9 e7       	ldi	r30, 0x79	; 121
    4ecc:	fa e0       	ldi	r31, 0x0A	; 10
    4ece:	df 01       	movw	r26, r30
    4ed0:	28 2f       	mov	r18, r24
    4ed2:	1d 92       	st	X+, r1
    4ed4:	2a 95       	dec	r18
    4ed6:	e9 f7       	brne	.-6      	; 0x4ed2 <main+0x2b2>
    4ed8:	e4 e7       	ldi	r30, 0x74	; 116
    4eda:	f2 e1       	ldi	r31, 0x12	; 18
    4edc:	df 01       	movw	r26, r30
    4ede:	1d 92       	st	X+, r1
    4ee0:	8a 95       	dec	r24
    4ee2:	e9 f7       	brne	.-6      	; 0x4ede <main+0x2be>
    4ee4:	9f bf       	out	0x3f, r25	; 63
    4ee6:	52 9a       	sbi	0x0a, 2	; 10
    4ee8:	5a 98       	cbi	0x0b, 2	; 11
    4eea:	51 9a       	sbi	0x0a, 1	; 10
    4eec:	59 98       	cbi	0x0b, 1	; 11
    4eee:	53 98       	cbi	0x0a, 3	; 10
    4ef0:	5b 98       	cbi	0x0b, 3	; 11
    4ef2:	80 91 69 00 	lds	r24, 0x0069
    4ef6:	80 68       	ori	r24, 0x80	; 128
    4ef8:	80 93 69 00 	sts	0x0069, r24
    4efc:	80 91 69 00 	lds	r24, 0x0069
    4f00:	8f 7b       	andi	r24, 0xBF	; 191
    4f02:	80 93 69 00 	sts	0x0069, r24
    4f06:	41 e0       	ldi	r20, 0x01	; 1
    4f08:	50 e0       	ldi	r21, 0x00	; 0
    4f0a:	60 e0       	ldi	r22, 0x00	; 0
    4f0c:	70 e0       	ldi	r23, 0x00	; 0
    4f0e:	82 e0       	ldi	r24, 0x02	; 2
    4f10:	0e 94 7c 03 	call	0x6f8	; 0x6f8 <VirtualizeTimerC__0__Timer__startOneShot>
    4f14:	8f b7       	in	r24, 0x3f	; 63
    4f16:	f8 94       	cli
    4f18:	51 e0       	ldi	r21, 0x01	; 1
    4f1a:	50 93 39 04 	sts	0x0439, r21
    4f1e:	8f bf       	out	0x3f, r24	; 63
    4f20:	80 ec       	ldi	r24, 0xC0	; 192
    4f22:	80 93 24 02 	sts	0x0224, r24
    4f26:	98 ea       	ldi	r25, 0xA8	; 168
    4f28:	90 93 25 02 	sts	0x0225, r25
    4f2c:	2a e2       	ldi	r18, 0x2A	; 42
    4f2e:	20 93 26 02 	sts	0x0226, r18
    4f32:	42 e0       	ldi	r20, 0x02	; 2
    4f34:	40 93 27 02 	sts	0x0227, r20
    4f38:	3f ef       	ldi	r19, 0xFF	; 255
    4f3a:	30 93 1c 02 	sts	0x021C, r19
    4f3e:	30 93 1d 02 	sts	0x021D, r19
    4f42:	30 93 1e 02 	sts	0x021E, r19
    4f46:	10 92 1f 02 	sts	0x021F, r1
    4f4a:	80 93 20 02 	sts	0x0220, r24
    4f4e:	90 93 21 02 	sts	0x0221, r25
    4f52:	20 93 22 02 	sts	0x0222, r18
    4f56:	50 93 23 02 	sts	0x0223, r21
    4f5a:	1f 92       	push	r1
    4f5c:	4f 93       	push	r20
    4f5e:	1f 92       	push	r1
    4f60:	2f 93       	push	r18
    4f62:	1f 92       	push	r1
    4f64:	9f 93       	push	r25
    4f66:	1f 92       	push	r1
    4f68:	8f 93       	push	r24
    4f6a:	89 ee       	ldi	r24, 0xE9	; 233
    4f6c:	92 e0       	ldi	r25, 0x02	; 2
    4f6e:	9f 93       	push	r25
    4f70:	8f 93       	push	r24
    4f72:	8e 01       	movw	r16, r28
    4f74:	0f 5f       	subi	r16, 0xFF	; 255
    4f76:	1f 4f       	sbci	r17, 0xFF	; 255
    4f78:	1f 93       	push	r17
    4f7a:	0f 93       	push	r16
    4f7c:	0e 94 c7 2b 	call	0x578e	; 0x578e <sprintf>
    4f80:	4c e3       	ldi	r20, 0x3C	; 60
    4f82:	60 e0       	ldi	r22, 0x00	; 0
    4f84:	c8 01       	movw	r24, r16
    4f86:	0e 94 a5 0d 	call	0x1b4a	; 0x1b4a <GlcdP__Glcd__drawText>
    4f8a:	10 92 38 04 	sts	0x0438, r1
    4f8e:	0f b6       	in	r0, 0x3f	; 63
    4f90:	f8 94       	cli
    4f92:	de bf       	out	0x3e, r29	; 62
    4f94:	0f be       	out	0x3f, r0	; 63
    4f96:	cd bf       	out	0x3d, r28	; 61
    4f98:	80 91 11 03 	lds	r24, 0x0311
    4f9c:	81 11       	cpse	r24, r1
    4f9e:	36 c0       	rjmp	.+108    	; 0x500c <main+0x3ec>
    4fa0:	20 9a       	sbi	0x04, 0	; 4
    4fa2:	0e 94 f6 02 	call	0x5ec	; 0x5ec <HplAtm128GeneralIOPinP__8__IO__set>
    4fa6:	24 9a       	sbi	0x04, 4	; 4
    4fa8:	2c 98       	cbi	0x05, 4	; 5
    4faa:	1b 8e       	std	Y+27, r1	; 0x1b
    4fac:	1a 8e       	std	Y+26, r1	; 0x1a
    4fae:	8a 8d       	ldd	r24, Y+26	; 0x1a
    4fb0:	9b 8d       	ldd	r25, Y+27	; 0x1b
    4fb2:	80 32       	cpi	r24, 0x20	; 32
    4fb4:	9e 44       	sbci	r25, 0x4E	; 78
    4fb6:	30 f4       	brcc	.+12     	; 0x4fc4 <main+0x3a4>
    4fb8:	8a 8d       	ldd	r24, Y+26	; 0x1a
    4fba:	9b 8d       	ldd	r25, Y+27	; 0x1b
    4fbc:	01 96       	adiw	r24, 0x01	; 1
    4fbe:	9b 8f       	std	Y+27, r25	; 0x1b
    4fc0:	8a 8f       	std	Y+26, r24	; 0x1a
    4fc2:	f5 cf       	rjmp	.-22     	; 0x4fae <main+0x38e>
    4fc4:	2c 9a       	sbi	0x05, 4	; 5
    4fc6:	1b 8e       	std	Y+27, r1	; 0x1b
    4fc8:	1a 8e       	std	Y+26, r1	; 0x1a
    4fca:	8a 8d       	ldd	r24, Y+26	; 0x1a
    4fcc:	9b 8d       	ldd	r25, Y+27	; 0x1b
    4fce:	80 32       	cpi	r24, 0x20	; 32
    4fd0:	9e 44       	sbci	r25, 0x4E	; 78
    4fd2:	30 f4       	brcc	.+12     	; 0x4fe0 <main+0x3c0>
    4fd4:	8a 8d       	ldd	r24, Y+26	; 0x1a
    4fd6:	9b 8d       	ldd	r25, Y+27	; 0x1b
    4fd8:	01 96       	adiw	r24, 0x01	; 1
    4fda:	9b 8f       	std	Y+27, r25	; 0x1b
    4fdc:	8a 8f       	std	Y+26, r24	; 0x1a
    4fde:	f5 cf       	rjmp	.-22     	; 0x4fca <main+0x3aa>
    4fe0:	52 98       	cbi	0x0a, 2	; 10
    4fe2:	5a 9a       	sbi	0x0b, 2	; 11
    4fe4:	84 e0       	ldi	r24, 0x04	; 4
    4fe6:	8c bb       	out	0x1c, r24	; 28
    4fe8:	80 91 69 00 	lds	r24, 0x0069
    4fec:	80 62       	ori	r24, 0x20	; 32
    4fee:	80 93 69 00 	sts	0x0069, r24
    4ff2:	80 91 69 00 	lds	r24, 0x0069
    4ff6:	8f 7e       	andi	r24, 0xEF	; 239
    4ff8:	80 93 69 00 	sts	0x0069, r24
    4ffc:	ea 9a       	sbi	0x1d, 2	; 29
    4ffe:	0e 94 30 08 	call	0x1060	; 0x1060 <Atm1280SpiP__Resource__request.constprop.124>
    5002:	81 11       	cpse	r24, r1
    5004:	03 c0       	rjmp	.+6      	; 0x500c <main+0x3ec>
    5006:	81 e0       	ldi	r24, 0x01	; 1
    5008:	80 93 11 03 	sts	0x0311, r24
    500c:	8f b7       	in	r24, 0x3f	; 63
    500e:	f8 94       	cli
    5010:	10 92 39 04 	sts	0x0439, r1
    5014:	8f bf       	out	0x3f, r24	; 63
    5016:	4a e0       	ldi	r20, 0x0A	; 10
    5018:	60 e0       	ldi	r22, 0x00	; 0
    501a:	8e ef       	ldi	r24, 0xFE	; 254
    501c:	92 e0       	ldi	r25, 0x02	; 2
    501e:	0e 94 a5 0d 	call	0x1b4a	; 0x1b4a <GlcdP__Glcd__drawText>
    5022:	0e 94 de 04 	call	0x9bc	; 0x9bc <RadioScannerP__clearRDSData>
    5026:	1f b7       	in	r17, 0x3f	; 63
    5028:	f8 94       	cli
    502a:	0e 94 fe 02 	call	0x5fc	; 0x5fc <SchedulerBasicP__popTask>
    502e:	8f 3f       	cpi	r24, 0xFF	; 255
    5030:	09 f0       	breq	.+2      	; 0x5034 <main+0x414>
    5032:	58 c0       	rjmp	.+176    	; 0x50e4 <main+0x4c4>
    5034:	80 91 70 00 	lds	r24, 0x0070
    5038:	83 70       	andi	r24, 0x03	; 3
    503a:	89 f0       	breq	.+34     	; 0x505e <main+0x43e>
    503c:	80 91 b6 00 	lds	r24, 0x00B6
    5040:	8a 71       	andi	r24, 0x1A	; 26
    5042:	e1 f7       	brne	.-8      	; 0x503c <main+0x41c>
    5044:	80 91 b3 00 	lds	r24, 0x00B3
    5048:	90 91 b2 00 	lds	r25, 0x00B2
    504c:	89 1b       	sub	r24, r25
    504e:	88 30       	cpi	r24, 0x08	; 8
    5050:	40 f0       	brcs	.+16     	; 0x5062 <main+0x442>
    5052:	80 91 b2 00 	lds	r24, 0x00B2
    5056:	89 3f       	cpi	r24, 0xF9	; 249
    5058:	20 f4       	brcc	.+8      	; 0x5062 <main+0x442>
    505a:	83 e0       	ldi	r24, 0x03	; 3
    505c:	03 c0       	rjmp	.+6      	; 0x5064 <main+0x444>
    505e:	85 e0       	ldi	r24, 0x05	; 5
    5060:	01 c0       	rjmp	.+2      	; 0x5064 <main+0x444>
    5062:	82 e0       	ldi	r24, 0x02	; 2
    5064:	e0 91 6e 00 	lds	r30, 0x006E
    5068:	e6 70       	andi	r30, 0x06	; 6
    506a:	29 f5       	brne	.+74     	; 0x50b6 <main+0x496>
    506c:	90 91 6f 00 	lds	r25, 0x006F
    5070:	9e 72       	andi	r25, 0x2E	; 46
    5072:	21 f5       	brne	.+72     	; 0x50bc <main+0x49c>
    5074:	e0 91 71 00 	lds	r30, 0x0071
    5078:	ee 72       	andi	r30, 0x2E	; 46
    507a:	e9 f4       	brne	.+58     	; 0x50b6 <main+0x496>
    507c:	90 91 72 00 	lds	r25, 0x0072
    5080:	9e 72       	andi	r25, 0x2E	; 46
    5082:	e1 f4       	brne	.+56     	; 0x50bc <main+0x49c>
    5084:	e0 91 73 00 	lds	r30, 0x0073
    5088:	ee 72       	andi	r30, 0x2E	; 46
    508a:	a9 f4       	brne	.+42     	; 0x50b6 <main+0x496>
    508c:	0c b4       	in	r0, 0x2c	; 44
    508e:	07 fc       	sbrc	r0, 7
    5090:	15 c0       	rjmp	.+42     	; 0x50bc <main+0x49c>
    5092:	90 91 c1 00 	lds	r25, 0x00C1
    5096:	98 71       	andi	r25, 0x18	; 24
    5098:	89 f4       	brne	.+34     	; 0x50bc <main+0x49c>
    509a:	e0 91 c9 00 	lds	r30, 0x00C9
    509e:	e8 71       	andi	r30, 0x18	; 24
    50a0:	51 f4       	brne	.+20     	; 0x50b6 <main+0x496>
    50a2:	90 91 bc 00 	lds	r25, 0x00BC
    50a6:	92 fd       	sbrc	r25, 2
    50a8:	09 c0       	rjmp	.+18     	; 0x50bc <main+0x49c>
    50aa:	90 91 7a 00 	lds	r25, 0x007A
    50ae:	97 fd       	sbrc	r25, 7
    50b0:	04 c0       	rjmp	.+8      	; 0x50ba <main+0x49a>
    50b2:	e5 e0       	ldi	r30, 0x05	; 5
    50b4:	03 c0       	rjmp	.+6      	; 0x50bc <main+0x49c>
    50b6:	e0 e0       	ldi	r30, 0x00	; 0
    50b8:	01 c0       	rjmp	.+2      	; 0x50bc <main+0x49c>
    50ba:	e1 e0       	ldi	r30, 0x01	; 1
    50bc:	93 b7       	in	r25, 0x33	; 51
    50be:	8e 17       	cp	r24, r30
    50c0:	08 f4       	brcc	.+2      	; 0x50c4 <main+0x4a4>
    50c2:	e8 2f       	mov	r30, r24
    50c4:	f0 e0       	ldi	r31, 0x00	; 0
    50c6:	e8 5b       	subi	r30, 0xB8	; 184
    50c8:	fe 4f       	sbci	r31, 0xFE	; 254
    50ca:	84 91       	lpm	r24, Z
    50cc:	e9 2f       	mov	r30, r25
    50ce:	e0 7f       	andi	r30, 0xF0	; 240
    50d0:	e1 60       	ori	r30, 0x01	; 1
    50d2:	e8 2b       	or	r30, r24
    50d4:	e3 bf       	out	0x33, r30	; 51
    50d6:	78 94       	sei
    50d8:	88 95       	sleep
    50da:	f8 94       	cli
    50dc:	83 b7       	in	r24, 0x33	; 51
    50de:	8e 7f       	andi	r24, 0xFE	; 254
    50e0:	83 bf       	out	0x33, r24	; 51
    50e2:	a3 cf       	rjmp	.-186    	; 0x502a <main+0x40a>
    50e4:	1f bf       	out	0x3f, r17	; 63
    50e6:	0e 94 d3 0e 	call	0x1da6	; 0x1da6 <SchedulerBasicP__TaskBasic__runTask>
    50ea:	9d cf       	rjmp	.-198    	; 0x5026 <main+0x406>

000050ec <__udivmodhi4>:
    50ec:	aa 1b       	sub	r26, r26
    50ee:	bb 1b       	sub	r27, r27
    50f0:	51 e1       	ldi	r21, 0x11	; 17
    50f2:	07 c0       	rjmp	.+14     	; 0x5102 <__udivmodhi4_ep>

000050f4 <__udivmodhi4_loop>:
    50f4:	aa 1f       	adc	r26, r26
    50f6:	bb 1f       	adc	r27, r27
    50f8:	a6 17       	cp	r26, r22
    50fa:	b7 07       	cpc	r27, r23
    50fc:	10 f0       	brcs	.+4      	; 0x5102 <__udivmodhi4_ep>
    50fe:	a6 1b       	sub	r26, r22
    5100:	b7 0b       	sbc	r27, r23

00005102 <__udivmodhi4_ep>:
    5102:	88 1f       	adc	r24, r24
    5104:	99 1f       	adc	r25, r25
    5106:	5a 95       	dec	r21
    5108:	a9 f7       	brne	.-22     	; 0x50f4 <__udivmodhi4_loop>
    510a:	80 95       	com	r24
    510c:	90 95       	com	r25
    510e:	bc 01       	movw	r22, r24
    5110:	cd 01       	movw	r24, r26
    5112:	08 95       	ret

00005114 <__tablejump2__>:
    5114:	ee 0f       	add	r30, r30
    5116:	ff 1f       	adc	r31, r31

00005118 <__tablejump__>:
    5118:	05 90       	lpm	r0, Z+
    511a:	f4 91       	lpm	r31, Z
    511c:	e0 2d       	mov	r30, r0
    511e:	09 94       	ijmp

00005120 <strtol>:
    5120:	2f 92       	push	r2
    5122:	3f 92       	push	r3
    5124:	4f 92       	push	r4
    5126:	5f 92       	push	r5
    5128:	6f 92       	push	r6
    512a:	7f 92       	push	r7
    512c:	8f 92       	push	r8
    512e:	9f 92       	push	r9
    5130:	af 92       	push	r10
    5132:	bf 92       	push	r11
    5134:	cf 92       	push	r12
    5136:	df 92       	push	r13
    5138:	ef 92       	push	r14
    513a:	ff 92       	push	r15
    513c:	0f 93       	push	r16
    513e:	1f 93       	push	r17
    5140:	cf 93       	push	r28
    5142:	df 93       	push	r29
    5144:	5c 01       	movw	r10, r24
    5146:	6b 01       	movw	r12, r22
    5148:	7a 01       	movw	r14, r20
    514a:	61 15       	cp	r22, r1
    514c:	71 05       	cpc	r23, r1
    514e:	19 f0       	breq	.+6      	; 0x5156 <strtol+0x36>
    5150:	fb 01       	movw	r30, r22
    5152:	91 83       	std	Z+1, r25	; 0x01
    5154:	80 83       	st	Z, r24
    5156:	e1 14       	cp	r14, r1
    5158:	f1 04       	cpc	r15, r1
    515a:	29 f0       	breq	.+10     	; 0x5166 <strtol+0x46>
    515c:	c7 01       	movw	r24, r14
    515e:	02 97       	sbiw	r24, 0x02	; 2
    5160:	83 97       	sbiw	r24, 0x23	; 35
    5162:	08 f0       	brcs	.+2      	; 0x5166 <strtol+0x46>
    5164:	f1 c0       	rjmp	.+482    	; 0x5348 <strtol+0x228>
    5166:	e5 01       	movw	r28, r10
    5168:	21 96       	adiw	r28, 0x01	; 1
    516a:	f5 01       	movw	r30, r10
    516c:	10 81       	ld	r17, Z
    516e:	81 2f       	mov	r24, r17
    5170:	90 e0       	ldi	r25, 0x00	; 0
    5172:	0e 94 f3 2a 	call	0x55e6	; 0x55e6 <isspace>
    5176:	89 2b       	or	r24, r25
    5178:	11 f0       	breq	.+4      	; 0x517e <strtol+0x5e>
    517a:	5e 01       	movw	r10, r28
    517c:	f4 cf       	rjmp	.-24     	; 0x5166 <strtol+0x46>
    517e:	1d 32       	cpi	r17, 0x2D	; 45
    5180:	29 f4       	brne	.+10     	; 0x518c <strtol+0x6c>
    5182:	21 96       	adiw	r28, 0x01	; 1
    5184:	f5 01       	movw	r30, r10
    5186:	11 81       	ldd	r17, Z+1	; 0x01
    5188:	01 e0       	ldi	r16, 0x01	; 1
    518a:	07 c0       	rjmp	.+14     	; 0x519a <strtol+0x7a>
    518c:	1b 32       	cpi	r17, 0x2B	; 43
    518e:	21 f4       	brne	.+8      	; 0x5198 <strtol+0x78>
    5190:	e5 01       	movw	r28, r10
    5192:	22 96       	adiw	r28, 0x02	; 2
    5194:	f5 01       	movw	r30, r10
    5196:	11 81       	ldd	r17, Z+1	; 0x01
    5198:	00 e0       	ldi	r16, 0x00	; 0
    519a:	e1 14       	cp	r14, r1
    519c:	f1 04       	cpc	r15, r1
    519e:	59 f1       	breq	.+86     	; 0x51f6 <strtol+0xd6>
    51a0:	f0 e1       	ldi	r31, 0x10	; 16
    51a2:	ef 16       	cp	r14, r31
    51a4:	f1 04       	cpc	r15, r1
    51a6:	61 f4       	brne	.+24     	; 0x51c0 <strtol+0xa0>
    51a8:	10 33       	cpi	r17, 0x30	; 48
    51aa:	e1 f4       	brne	.+56     	; 0x51e4 <strtol+0xc4>
    51ac:	88 81       	ld	r24, Y
    51ae:	8f 7d       	andi	r24, 0xDF	; 223
    51b0:	88 35       	cpi	r24, 0x58	; 88
    51b2:	69 f5       	brne	.+90     	; 0x520e <strtol+0xee>
    51b4:	19 81       	ldd	r17, Y+1	; 0x01
    51b6:	22 96       	adiw	r28, 0x02	; 2
    51b8:	02 60       	ori	r16, 0x02	; 2
    51ba:	70 e1       	ldi	r23, 0x10	; 16
    51bc:	e7 2e       	mov	r14, r23
    51be:	f1 2c       	mov	r15, r1
    51c0:	88 e0       	ldi	r24, 0x08	; 8
    51c2:	e8 16       	cp	r14, r24
    51c4:	f1 04       	cpc	r15, r1
    51c6:	39 f1       	breq	.+78     	; 0x5216 <strtol+0xf6>
    51c8:	2c f4       	brge	.+10     	; 0x51d4 <strtol+0xb4>
    51ca:	f2 e0       	ldi	r31, 0x02	; 2
    51cc:	ef 16       	cp	r14, r31
    51ce:	f1 04       	cpc	r15, r1
    51d0:	c9 f1       	breq	.+114    	; 0x5244 <strtol+0x124>
    51d2:	2a c0       	rjmp	.+84     	; 0x5228 <strtol+0x108>
    51d4:	8a e0       	ldi	r24, 0x0A	; 10
    51d6:	e8 16       	cp	r14, r24
    51d8:	f1 04       	cpc	r15, r1
    51da:	79 f0       	breq	.+30     	; 0x51fa <strtol+0xda>
    51dc:	e0 e1       	ldi	r30, 0x10	; 16
    51de:	ee 16       	cp	r14, r30
    51e0:	f1 04       	cpc	r15, r1
    51e2:	11 f5       	brne	.+68     	; 0x5228 <strtol+0x108>
    51e4:	50 e1       	ldi	r21, 0x10	; 16
    51e6:	e5 2e       	mov	r14, r21
    51e8:	f1 2c       	mov	r15, r1
    51ea:	81 2c       	mov	r8, r1
    51ec:	91 2c       	mov	r9, r1
    51ee:	a1 2c       	mov	r10, r1
    51f0:	68 e0       	ldi	r22, 0x08	; 8
    51f2:	b6 2e       	mov	r11, r22
    51f4:	2c c0       	rjmp	.+88     	; 0x524e <strtol+0x12e>
    51f6:	10 33       	cpi	r17, 0x30	; 48
    51f8:	c9 f2       	breq	.-78     	; 0x51ac <strtol+0x8c>
    51fa:	3a e0       	ldi	r19, 0x0A	; 10
    51fc:	e3 2e       	mov	r14, r19
    51fe:	f1 2c       	mov	r15, r1
    5200:	4c ec       	ldi	r20, 0xCC	; 204
    5202:	84 2e       	mov	r8, r20
    5204:	98 2c       	mov	r9, r8
    5206:	a8 2c       	mov	r10, r8
    5208:	4c e0       	ldi	r20, 0x0C	; 12
    520a:	b4 2e       	mov	r11, r20
    520c:	20 c0       	rjmp	.+64     	; 0x524e <strtol+0x12e>
    520e:	10 e3       	ldi	r17, 0x30	; 48
    5210:	e1 14       	cp	r14, r1
    5212:	f1 04       	cpc	r15, r1
    5214:	a9 f6       	brne	.-86     	; 0x51c0 <strtol+0xa0>
    5216:	98 e0       	ldi	r25, 0x08	; 8
    5218:	e9 2e       	mov	r14, r25
    521a:	f1 2c       	mov	r15, r1
    521c:	81 2c       	mov	r8, r1
    521e:	91 2c       	mov	r9, r1
    5220:	a1 2c       	mov	r10, r1
    5222:	20 e1       	ldi	r18, 0x10	; 16
    5224:	b2 2e       	mov	r11, r18
    5226:	13 c0       	rjmp	.+38     	; 0x524e <strtol+0x12e>
    5228:	60 e0       	ldi	r22, 0x00	; 0
    522a:	70 e0       	ldi	r23, 0x00	; 0
    522c:	80 e0       	ldi	r24, 0x00	; 0
    522e:	90 e8       	ldi	r25, 0x80	; 128
    5230:	97 01       	movw	r18, r14
    5232:	44 27       	eor	r20, r20
    5234:	37 fd       	sbrc	r19, 7
    5236:	40 95       	com	r20
    5238:	54 2f       	mov	r21, r20
    523a:	0e 94 b1 2e 	call	0x5d62	; 0x5d62 <__udivmodsi4>
    523e:	49 01       	movw	r8, r18
    5240:	5a 01       	movw	r10, r20
    5242:	05 c0       	rjmp	.+10     	; 0x524e <strtol+0x12e>
    5244:	81 2c       	mov	r8, r1
    5246:	91 2c       	mov	r9, r1
    5248:	a1 2c       	mov	r10, r1
    524a:	80 e4       	ldi	r24, 0x40	; 64
    524c:	b8 2e       	mov	r11, r24
    524e:	60 e0       	ldi	r22, 0x00	; 0
    5250:	20 e0       	ldi	r18, 0x00	; 0
    5252:	30 e0       	ldi	r19, 0x00	; 0
    5254:	a9 01       	movw	r20, r18
    5256:	27 01       	movw	r4, r14
    5258:	66 24       	eor	r6, r6
    525a:	57 fc       	sbrc	r5, 7
    525c:	60 94       	com	r6
    525e:	76 2c       	mov	r7, r6
    5260:	1e 01       	movw	r2, r28
    5262:	e0 ed       	ldi	r30, 0xD0	; 208
    5264:	e1 0f       	add	r30, r17
    5266:	ea 30       	cpi	r30, 0x0A	; 10
    5268:	60 f0       	brcs	.+24     	; 0x5282 <strtol+0x162>
    526a:	8f eb       	ldi	r24, 0xBF	; 191
    526c:	81 0f       	add	r24, r17
    526e:	8a 31       	cpi	r24, 0x1A	; 26
    5270:	10 f4       	brcc	.+4      	; 0x5276 <strtol+0x156>
    5272:	e9 ec       	ldi	r30, 0xC9	; 201
    5274:	05 c0       	rjmp	.+10     	; 0x5280 <strtol+0x160>
    5276:	8f e9       	ldi	r24, 0x9F	; 159
    5278:	81 0f       	add	r24, r17
    527a:	8a 31       	cpi	r24, 0x1A	; 26
    527c:	28 f5       	brcc	.+74     	; 0x52c8 <strtol+0x1a8>
    527e:	e9 ea       	ldi	r30, 0xA9	; 169
    5280:	e1 0f       	add	r30, r17
    5282:	8e 2f       	mov	r24, r30
    5284:	90 e0       	ldi	r25, 0x00	; 0
    5286:	8e 15       	cp	r24, r14
    5288:	9f 05       	cpc	r25, r15
    528a:	f4 f4       	brge	.+60     	; 0x52c8 <strtol+0x1a8>
    528c:	67 fd       	sbrc	r22, 7
    528e:	18 c0       	rjmp	.+48     	; 0x52c0 <strtol+0x1a0>
    5290:	82 16       	cp	r8, r18
    5292:	93 06       	cpc	r9, r19
    5294:	a4 06       	cpc	r10, r20
    5296:	b5 06       	cpc	r11, r21
    5298:	90 f0       	brcs	.+36     	; 0x52be <strtol+0x19e>
    529a:	c3 01       	movw	r24, r6
    529c:	b2 01       	movw	r22, r4
    529e:	0e 94 a1 2e 	call	0x5d42	; 0x5d42 <__mulsi3>
    52a2:	9b 01       	movw	r18, r22
    52a4:	ac 01       	movw	r20, r24
    52a6:	2e 0f       	add	r18, r30
    52a8:	31 1d       	adc	r19, r1
    52aa:	41 1d       	adc	r20, r1
    52ac:	51 1d       	adc	r21, r1
    52ae:	21 30       	cpi	r18, 0x01	; 1
    52b0:	31 05       	cpc	r19, r1
    52b2:	41 05       	cpc	r20, r1
    52b4:	f0 e8       	ldi	r31, 0x80	; 128
    52b6:	5f 07       	cpc	r21, r31
    52b8:	10 f4       	brcc	.+4      	; 0x52be <strtol+0x19e>
    52ba:	61 e0       	ldi	r22, 0x01	; 1
    52bc:	01 c0       	rjmp	.+2      	; 0x52c0 <strtol+0x1a0>
    52be:	6f ef       	ldi	r22, 0xFF	; 255
    52c0:	21 96       	adiw	r28, 0x01	; 1
    52c2:	f1 01       	movw	r30, r2
    52c4:	10 81       	ld	r17, Z
    52c6:	cc cf       	rjmp	.-104    	; 0x5260 <strtol+0x140>
    52c8:	80 2f       	mov	r24, r16
    52ca:	81 70       	andi	r24, 0x01	; 1
    52cc:	c1 14       	cp	r12, r1
    52ce:	d1 04       	cpc	r13, r1
    52d0:	71 f0       	breq	.+28     	; 0x52ee <strtol+0x1ce>
    52d2:	66 23       	and	r22, r22
    52d4:	29 f0       	breq	.+10     	; 0x52e0 <strtol+0x1c0>
    52d6:	21 97       	sbiw	r28, 0x01	; 1
    52d8:	f6 01       	movw	r30, r12
    52da:	d1 83       	std	Z+1, r29	; 0x01
    52dc:	c0 83       	st	Z, r28
    52de:	07 c0       	rjmp	.+14     	; 0x52ee <strtol+0x1ce>
    52e0:	01 ff       	sbrs	r16, 1
    52e2:	19 c0       	rjmp	.+50     	; 0x5316 <strtol+0x1f6>
    52e4:	22 97       	sbiw	r28, 0x02	; 2
    52e6:	f6 01       	movw	r30, r12
    52e8:	d1 83       	std	Z+1, r29	; 0x01
    52ea:	c0 83       	st	Z, r28
    52ec:	14 c0       	rjmp	.+40     	; 0x5316 <strtol+0x1f6>
    52ee:	67 ff       	sbrs	r22, 7
    52f0:	12 c0       	rjmp	.+36     	; 0x5316 <strtol+0x1f6>
    52f2:	81 11       	cpse	r24, r1
    52f4:	05 c0       	rjmp	.+10     	; 0x5300 <strtol+0x1e0>
    52f6:	2f ef       	ldi	r18, 0xFF	; 255
    52f8:	3f ef       	ldi	r19, 0xFF	; 255
    52fa:	4f ef       	ldi	r20, 0xFF	; 255
    52fc:	5f e7       	ldi	r21, 0x7F	; 127
    52fe:	04 c0       	rjmp	.+8      	; 0x5308 <strtol+0x1e8>
    5300:	20 e0       	ldi	r18, 0x00	; 0
    5302:	30 e0       	ldi	r19, 0x00	; 0
    5304:	40 e0       	ldi	r20, 0x00	; 0
    5306:	50 e8       	ldi	r21, 0x80	; 128
    5308:	82 e2       	ldi	r24, 0x22	; 34
    530a:	90 e0       	ldi	r25, 0x00	; 0
    530c:	90 93 70 13 	sts	0x1370, r25
    5310:	80 93 6f 13 	sts	0x136F, r24
    5314:	16 c0       	rjmp	.+44     	; 0x5342 <strtol+0x222>
    5316:	88 23       	and	r24, r24
    5318:	41 f0       	breq	.+16     	; 0x532a <strtol+0x20a>
    531a:	50 95       	com	r21
    531c:	40 95       	com	r20
    531e:	30 95       	com	r19
    5320:	21 95       	neg	r18
    5322:	3f 4f       	sbci	r19, 0xFF	; 255
    5324:	4f 4f       	sbci	r20, 0xFF	; 255
    5326:	5f 4f       	sbci	r21, 0xFF	; 255
    5328:	0c c0       	rjmp	.+24     	; 0x5342 <strtol+0x222>
    532a:	57 ff       	sbrs	r21, 7
    532c:	0a c0       	rjmp	.+20     	; 0x5342 <strtol+0x222>
    532e:	82 e2       	ldi	r24, 0x22	; 34
    5330:	90 e0       	ldi	r25, 0x00	; 0
    5332:	90 93 70 13 	sts	0x1370, r25
    5336:	80 93 6f 13 	sts	0x136F, r24
    533a:	2f ef       	ldi	r18, 0xFF	; 255
    533c:	3f ef       	ldi	r19, 0xFF	; 255
    533e:	4f ef       	ldi	r20, 0xFF	; 255
    5340:	5f e7       	ldi	r21, 0x7F	; 127
    5342:	b9 01       	movw	r22, r18
    5344:	ca 01       	movw	r24, r20
    5346:	04 c0       	rjmp	.+8      	; 0x5350 <strtol+0x230>
    5348:	60 e0       	ldi	r22, 0x00	; 0
    534a:	70 e0       	ldi	r23, 0x00	; 0
    534c:	80 e0       	ldi	r24, 0x00	; 0
    534e:	90 e0       	ldi	r25, 0x00	; 0
    5350:	df 91       	pop	r29
    5352:	cf 91       	pop	r28
    5354:	1f 91       	pop	r17
    5356:	0f 91       	pop	r16
    5358:	ff 90       	pop	r15
    535a:	ef 90       	pop	r14
    535c:	df 90       	pop	r13
    535e:	cf 90       	pop	r12
    5360:	bf 90       	pop	r11
    5362:	af 90       	pop	r10
    5364:	9f 90       	pop	r9
    5366:	8f 90       	pop	r8
    5368:	7f 90       	pop	r7
    536a:	6f 90       	pop	r6
    536c:	5f 90       	pop	r5
    536e:	4f 90       	pop	r4
    5370:	3f 90       	pop	r3
    5372:	2f 90       	pop	r2
    5374:	08 95       	ret

00005376 <strtoul>:
    5376:	2f 92       	push	r2
    5378:	3f 92       	push	r3
    537a:	4f 92       	push	r4
    537c:	5f 92       	push	r5
    537e:	6f 92       	push	r6
    5380:	7f 92       	push	r7
    5382:	8f 92       	push	r8
    5384:	9f 92       	push	r9
    5386:	af 92       	push	r10
    5388:	bf 92       	push	r11
    538a:	cf 92       	push	r12
    538c:	df 92       	push	r13
    538e:	ef 92       	push	r14
    5390:	ff 92       	push	r15
    5392:	0f 93       	push	r16
    5394:	1f 93       	push	r17
    5396:	cf 93       	push	r28
    5398:	df 93       	push	r29
    539a:	00 d0       	rcall	.+0      	; 0x539c <strtoul+0x26>
    539c:	00 d0       	rcall	.+0      	; 0x539e <strtoul+0x28>
    539e:	00 d0       	rcall	.+0      	; 0x53a0 <strtoul+0x2a>
    53a0:	cd b7       	in	r28, 0x3d	; 61
    53a2:	de b7       	in	r29, 0x3e	; 62
    53a4:	5c 01       	movw	r10, r24
    53a6:	6b 01       	movw	r12, r22
    53a8:	7a 01       	movw	r14, r20
    53aa:	61 15       	cp	r22, r1
    53ac:	71 05       	cpc	r23, r1
    53ae:	19 f0       	breq	.+6      	; 0x53b6 <strtoul+0x40>
    53b0:	db 01       	movw	r26, r22
    53b2:	8d 93       	st	X+, r24
    53b4:	9c 93       	st	X, r25
    53b6:	e1 14       	cp	r14, r1
    53b8:	f1 04       	cpc	r15, r1
    53ba:	29 f0       	breq	.+10     	; 0x53c6 <strtoul+0x50>
    53bc:	c7 01       	movw	r24, r14
    53be:	02 97       	sbiw	r24, 0x02	; 2
    53c0:	83 97       	sbiw	r24, 0x23	; 35
    53c2:	08 f0       	brcs	.+2      	; 0x53c6 <strtoul+0x50>
    53c4:	dc c0       	rjmp	.+440    	; 0x557e <strtoul+0x208>
    53c6:	35 01       	movw	r6, r10
    53c8:	bf ef       	ldi	r27, 0xFF	; 255
    53ca:	6b 1a       	sub	r6, r27
    53cc:	7b 0a       	sbc	r7, r27
    53ce:	f5 01       	movw	r30, r10
    53d0:	10 81       	ld	r17, Z
    53d2:	81 2f       	mov	r24, r17
    53d4:	90 e0       	ldi	r25, 0x00	; 0
    53d6:	0e 94 f3 2a 	call	0x55e6	; 0x55e6 <isspace>
    53da:	89 2b       	or	r24, r25
    53dc:	11 f0       	breq	.+4      	; 0x53e2 <strtoul+0x6c>
    53de:	53 01       	movw	r10, r6
    53e0:	f2 cf       	rjmp	.-28     	; 0x53c6 <strtoul+0x50>
    53e2:	1d 32       	cpi	r17, 0x2D	; 45
    53e4:	49 f4       	brne	.+18     	; 0x53f8 <strtoul+0x82>
    53e6:	35 01       	movw	r6, r10
    53e8:	f2 e0       	ldi	r31, 0x02	; 2
    53ea:	6f 0e       	add	r6, r31
    53ec:	71 1c       	adc	r7, r1
    53ee:	d5 01       	movw	r26, r10
    53f0:	11 96       	adiw	r26, 0x01	; 1
    53f2:	1c 91       	ld	r17, X
    53f4:	01 e0       	ldi	r16, 0x01	; 1
    53f6:	09 c0       	rjmp	.+18     	; 0x540a <strtoul+0x94>
    53f8:	1b 32       	cpi	r17, 0x2B	; 43
    53fa:	31 f4       	brne	.+12     	; 0x5408 <strtoul+0x92>
    53fc:	35 01       	movw	r6, r10
    53fe:	b2 e0       	ldi	r27, 0x02	; 2
    5400:	6b 0e       	add	r6, r27
    5402:	71 1c       	adc	r7, r1
    5404:	f5 01       	movw	r30, r10
    5406:	11 81       	ldd	r17, Z+1	; 0x01
    5408:	00 e0       	ldi	r16, 0x00	; 0
    540a:	e1 14       	cp	r14, r1
    540c:	f1 04       	cpc	r15, r1
    540e:	09 f4       	brne	.+2      	; 0x5412 <strtoul+0x9c>
    5410:	c4 c0       	rjmp	.+392    	; 0x559a <strtoul+0x224>
    5412:	f0 e1       	ldi	r31, 0x10	; 16
    5414:	ef 16       	cp	r14, r31
    5416:	f1 04       	cpc	r15, r1
    5418:	89 f4       	brne	.+34     	; 0x543c <strtoul+0xc6>
    541a:	10 33       	cpi	r17, 0x30	; 48
    541c:	99 f5       	brne	.+102    	; 0x5484 <strtoul+0x10e>
    541e:	d3 01       	movw	r26, r6
    5420:	8c 91       	ld	r24, X
    5422:	8f 7d       	andi	r24, 0xDF	; 223
    5424:	88 35       	cpi	r24, 0x58	; 88
    5426:	09 f0       	breq	.+2      	; 0x542a <strtoul+0xb4>
    5428:	b2 c0       	rjmp	.+356    	; 0x558e <strtoul+0x218>
    542a:	11 96       	adiw	r26, 0x01	; 1
    542c:	1c 91       	ld	r17, X
    542e:	b2 e0       	ldi	r27, 0x02	; 2
    5430:	6b 0e       	add	r6, r27
    5432:	71 1c       	adc	r7, r1
    5434:	02 60       	ori	r16, 0x02	; 2
    5436:	50 e1       	ldi	r21, 0x10	; 16
    5438:	e5 2e       	mov	r14, r21
    543a:	f1 2c       	mov	r15, r1
    543c:	ea e0       	ldi	r30, 0x0A	; 10
    543e:	ee 16       	cp	r14, r30
    5440:	f1 04       	cpc	r15, r1
    5442:	09 f4       	brne	.+2      	; 0x5446 <strtoul+0xd0>
    5444:	b0 c0       	rjmp	.+352    	; 0x55a6 <strtoul+0x230>
    5446:	f0 e1       	ldi	r31, 0x10	; 16
    5448:	ef 16       	cp	r14, r31
    544a:	f1 04       	cpc	r15, r1
    544c:	d9 f0       	breq	.+54     	; 0x5484 <strtoul+0x10e>
    544e:	28 e0       	ldi	r18, 0x08	; 8
    5450:	e2 16       	cp	r14, r18
    5452:	f1 04       	cpc	r15, r1
    5454:	51 f4       	brne	.+20     	; 0x546a <strtoul+0xf4>
    5456:	38 e0       	ldi	r19, 0x08	; 8
    5458:	e3 2e       	mov	r14, r19
    545a:	f1 2c       	mov	r15, r1
    545c:	88 24       	eor	r8, r8
    545e:	8a 94       	dec	r8
    5460:	98 2c       	mov	r9, r8
    5462:	a8 2c       	mov	r10, r8
    5464:	4f e1       	ldi	r20, 0x1F	; 31
    5466:	b4 2e       	mov	r11, r20
    5468:	13 c0       	rjmp	.+38     	; 0x5490 <strtoul+0x11a>
    546a:	6f ef       	ldi	r22, 0xFF	; 255
    546c:	7f ef       	ldi	r23, 0xFF	; 255
    546e:	cb 01       	movw	r24, r22
    5470:	97 01       	movw	r18, r14
    5472:	44 27       	eor	r20, r20
    5474:	37 fd       	sbrc	r19, 7
    5476:	40 95       	com	r20
    5478:	54 2f       	mov	r21, r20
    547a:	0e 94 b1 2e 	call	0x5d62	; 0x5d62 <__udivmodsi4>
    547e:	49 01       	movw	r8, r18
    5480:	5a 01       	movw	r10, r20
    5482:	06 c0       	rjmp	.+12     	; 0x5490 <strtoul+0x11a>
    5484:	88 24       	eor	r8, r8
    5486:	8a 94       	dec	r8
    5488:	98 2c       	mov	r9, r8
    548a:	a8 2c       	mov	r10, r8
    548c:	2f e0       	ldi	r18, 0x0F	; 15
    548e:	b2 2e       	mov	r11, r18
    5490:	7e 82       	std	Y+6, r7	; 0x06
    5492:	6d 82       	std	Y+5, r6	; 0x05
    5494:	60 e0       	ldi	r22, 0x00	; 0
    5496:	20 e0       	ldi	r18, 0x00	; 0
    5498:	30 e0       	ldi	r19, 0x00	; 0
    549a:	a9 01       	movw	r20, r18
    549c:	27 01       	movw	r4, r14
    549e:	66 24       	eor	r6, r6
    54a0:	57 fc       	sbrc	r5, 7
    54a2:	60 94       	com	r6
    54a4:	76 2c       	mov	r7, r6
    54a6:	2d 80       	ldd	r2, Y+5	; 0x05
    54a8:	3e 80       	ldd	r3, Y+6	; 0x06
    54aa:	e0 ed       	ldi	r30, 0xD0	; 208
    54ac:	e1 0f       	add	r30, r17
    54ae:	ea 30       	cpi	r30, 0x0A	; 10
    54b0:	60 f0       	brcs	.+24     	; 0x54ca <strtoul+0x154>
    54b2:	8f eb       	ldi	r24, 0xBF	; 191
    54b4:	81 0f       	add	r24, r17
    54b6:	8a 31       	cpi	r24, 0x1A	; 26
    54b8:	10 f4       	brcc	.+4      	; 0x54be <strtoul+0x148>
    54ba:	e9 ec       	ldi	r30, 0xC9	; 201
    54bc:	05 c0       	rjmp	.+10     	; 0x54c8 <strtoul+0x152>
    54be:	8f e9       	ldi	r24, 0x9F	; 159
    54c0:	81 0f       	add	r24, r17
    54c2:	8a 31       	cpi	r24, 0x1A	; 26
    54c4:	90 f5       	brcc	.+100    	; 0x552a <strtoul+0x1b4>
    54c6:	e9 ea       	ldi	r30, 0xA9	; 169
    54c8:	e1 0f       	add	r30, r17
    54ca:	8e 2f       	mov	r24, r30
    54cc:	90 e0       	ldi	r25, 0x00	; 0
    54ce:	8e 15       	cp	r24, r14
    54d0:	9f 05       	cpc	r25, r15
    54d2:	5c f5       	brge	.+86     	; 0x552a <strtoul+0x1b4>
    54d4:	6f 3f       	cpi	r22, 0xFF	; 255
    54d6:	09 f1       	breq	.+66     	; 0x551a <strtoul+0x1a4>
    54d8:	82 16       	cp	r8, r18
    54da:	93 06       	cpc	r9, r19
    54dc:	a4 06       	cpc	r10, r20
    54de:	b5 06       	cpc	r11, r21
    54e0:	d8 f0       	brcs	.+54     	; 0x5518 <strtoul+0x1a2>
    54e2:	c3 01       	movw	r24, r6
    54e4:	b2 01       	movw	r22, r4
    54e6:	0e 94 a1 2e 	call	0x5d42	; 0x5d42 <__mulsi3>
    54ea:	2e 2f       	mov	r18, r30
    54ec:	30 e0       	ldi	r19, 0x00	; 0
    54ee:	40 e0       	ldi	r20, 0x00	; 0
    54f0:	50 e0       	ldi	r21, 0x00	; 0
    54f2:	29 83       	std	Y+1, r18	; 0x01
    54f4:	3a 83       	std	Y+2, r19	; 0x02
    54f6:	4b 83       	std	Y+3, r20	; 0x03
    54f8:	5c 83       	std	Y+4, r21	; 0x04
    54fa:	26 0f       	add	r18, r22
    54fc:	37 1f       	adc	r19, r23
    54fe:	48 1f       	adc	r20, r24
    5500:	59 1f       	adc	r21, r25
    5502:	89 81       	ldd	r24, Y+1	; 0x01
    5504:	9a 81       	ldd	r25, Y+2	; 0x02
    5506:	ab 81       	ldd	r26, Y+3	; 0x03
    5508:	bc 81       	ldd	r27, Y+4	; 0x04
    550a:	28 17       	cp	r18, r24
    550c:	39 07       	cpc	r19, r25
    550e:	4a 07       	cpc	r20, r26
    5510:	5b 07       	cpc	r21, r27
    5512:	10 f0       	brcs	.+4      	; 0x5518 <strtoul+0x1a2>
    5514:	61 e0       	ldi	r22, 0x01	; 1
    5516:	01 c0       	rjmp	.+2      	; 0x551a <strtoul+0x1a4>
    5518:	6f ef       	ldi	r22, 0xFF	; 255
    551a:	ed 81       	ldd	r30, Y+5	; 0x05
    551c:	fe 81       	ldd	r31, Y+6	; 0x06
    551e:	31 96       	adiw	r30, 0x01	; 1
    5520:	fe 83       	std	Y+6, r31	; 0x06
    5522:	ed 83       	std	Y+5, r30	; 0x05
    5524:	d1 01       	movw	r26, r2
    5526:	1c 91       	ld	r17, X
    5528:	be cf       	rjmp	.-132    	; 0x54a6 <strtoul+0x130>
    552a:	c1 14       	cp	r12, r1
    552c:	d1 04       	cpc	r13, r1
    552e:	89 f0       	breq	.+34     	; 0x5552 <strtoul+0x1dc>
    5530:	66 23       	and	r22, r22
    5532:	39 f0       	breq	.+14     	; 0x5542 <strtoul+0x1cc>
    5534:	8d 81       	ldd	r24, Y+5	; 0x05
    5536:	9e 81       	ldd	r25, Y+6	; 0x06
    5538:	01 97       	sbiw	r24, 0x01	; 1
    553a:	f6 01       	movw	r30, r12
    553c:	91 83       	std	Z+1, r25	; 0x01
    553e:	80 83       	st	Z, r24
    5540:	08 c0       	rjmp	.+16     	; 0x5552 <strtoul+0x1dc>
    5542:	01 ff       	sbrs	r16, 1
    5544:	06 c0       	rjmp	.+12     	; 0x5552 <strtoul+0x1dc>
    5546:	8d 81       	ldd	r24, Y+5	; 0x05
    5548:	9e 81       	ldd	r25, Y+6	; 0x06
    554a:	02 97       	sbiw	r24, 0x02	; 2
    554c:	d6 01       	movw	r26, r12
    554e:	8d 93       	st	X+, r24
    5550:	9c 93       	st	X, r25
    5552:	00 ff       	sbrs	r16, 0
    5554:	07 c0       	rjmp	.+14     	; 0x5564 <strtoul+0x1ee>
    5556:	50 95       	com	r21
    5558:	40 95       	com	r20
    555a:	30 95       	com	r19
    555c:	21 95       	neg	r18
    555e:	3f 4f       	sbci	r19, 0xFF	; 255
    5560:	4f 4f       	sbci	r20, 0xFF	; 255
    5562:	5f 4f       	sbci	r21, 0xFF	; 255
    5564:	67 ff       	sbrs	r22, 7
    5566:	10 c0       	rjmp	.+32     	; 0x5588 <strtoul+0x212>
    5568:	82 e2       	ldi	r24, 0x22	; 34
    556a:	90 e0       	ldi	r25, 0x00	; 0
    556c:	90 93 70 13 	sts	0x1370, r25
    5570:	80 93 6f 13 	sts	0x136F, r24
    5574:	6f ef       	ldi	r22, 0xFF	; 255
    5576:	7f ef       	ldi	r23, 0xFF	; 255
    5578:	8f ef       	ldi	r24, 0xFF	; 255
    557a:	9f ef       	ldi	r25, 0xFF	; 255
    557c:	1b c0       	rjmp	.+54     	; 0x55b4 <strtoul+0x23e>
    557e:	60 e0       	ldi	r22, 0x00	; 0
    5580:	70 e0       	ldi	r23, 0x00	; 0
    5582:	80 e0       	ldi	r24, 0x00	; 0
    5584:	90 e0       	ldi	r25, 0x00	; 0
    5586:	16 c0       	rjmp	.+44     	; 0x55b4 <strtoul+0x23e>
    5588:	b9 01       	movw	r22, r18
    558a:	ca 01       	movw	r24, r20
    558c:	13 c0       	rjmp	.+38     	; 0x55b4 <strtoul+0x23e>
    558e:	10 e3       	ldi	r17, 0x30	; 48
    5590:	e1 14       	cp	r14, r1
    5592:	f1 04       	cpc	r15, r1
    5594:	09 f4       	brne	.+2      	; 0x5598 <strtoul+0x222>
    5596:	5f cf       	rjmp	.-322    	; 0x5456 <strtoul+0xe0>
    5598:	51 cf       	rjmp	.-350    	; 0x543c <strtoul+0xc6>
    559a:	10 33       	cpi	r17, 0x30	; 48
    559c:	09 f4       	brne	.+2      	; 0x55a0 <strtoul+0x22a>
    559e:	3f cf       	rjmp	.-386    	; 0x541e <strtoul+0xa8>
    55a0:	9a e0       	ldi	r25, 0x0A	; 10
    55a2:	e9 2e       	mov	r14, r25
    55a4:	f1 2c       	mov	r15, r1
    55a6:	89 e9       	ldi	r24, 0x99	; 153
    55a8:	88 2e       	mov	r8, r24
    55aa:	98 2c       	mov	r9, r8
    55ac:	a8 2c       	mov	r10, r8
    55ae:	89 e1       	ldi	r24, 0x19	; 25
    55b0:	b8 2e       	mov	r11, r24
    55b2:	6e cf       	rjmp	.-292    	; 0x5490 <strtoul+0x11a>
    55b4:	26 96       	adiw	r28, 0x06	; 6
    55b6:	0f b6       	in	r0, 0x3f	; 63
    55b8:	f8 94       	cli
    55ba:	de bf       	out	0x3e, r29	; 62
    55bc:	0f be       	out	0x3f, r0	; 63
    55be:	cd bf       	out	0x3d, r28	; 61
    55c0:	df 91       	pop	r29
    55c2:	cf 91       	pop	r28
    55c4:	1f 91       	pop	r17
    55c6:	0f 91       	pop	r16
    55c8:	ff 90       	pop	r15
    55ca:	ef 90       	pop	r14
    55cc:	df 90       	pop	r13
    55ce:	cf 90       	pop	r12
    55d0:	bf 90       	pop	r11
    55d2:	af 90       	pop	r10
    55d4:	9f 90       	pop	r9
    55d6:	8f 90       	pop	r8
    55d8:	7f 90       	pop	r7
    55da:	6f 90       	pop	r6
    55dc:	5f 90       	pop	r5
    55de:	4f 90       	pop	r4
    55e0:	3f 90       	pop	r3
    55e2:	2f 90       	pop	r2
    55e4:	08 95       	ret

000055e6 <isspace>:
    55e6:	91 11       	cpse	r25, r1
    55e8:	fd c2       	rjmp	.+1530   	; 0x5be4 <__ctype_isfalse>
    55ea:	80 32       	cpi	r24, 0x20	; 32
    55ec:	19 f0       	breq	.+6      	; 0x55f4 <isspace+0xe>
    55ee:	89 50       	subi	r24, 0x09	; 9
    55f0:	85 50       	subi	r24, 0x05	; 5
    55f2:	d0 f7       	brcc	.-12     	; 0x55e8 <isspace+0x2>
    55f4:	08 95       	ret

000055f6 <strcpy_P>:
    55f6:	fb 01       	movw	r30, r22
    55f8:	dc 01       	movw	r26, r24
    55fa:	05 90       	lpm	r0, Z+
    55fc:	0d 92       	st	X+, r0
    55fe:	00 20       	and	r0, r0
    5600:	e1 f7       	brne	.-8      	; 0x55fa <strcpy_P+0x4>
    5602:	08 95       	ret

00005604 <strncmp_P>:
    5604:	fb 01       	movw	r30, r22
    5606:	dc 01       	movw	r26, r24
    5608:	41 50       	subi	r20, 0x01	; 1
    560a:	50 40       	sbci	r21, 0x00	; 0
    560c:	30 f0       	brcs	.+12     	; 0x561a <strncmp_P+0x16>
    560e:	8d 91       	ld	r24, X+
    5610:	05 90       	lpm	r0, Z+
    5612:	80 19       	sub	r24, r0
    5614:	19 f4       	brne	.+6      	; 0x561c <strncmp_P+0x18>
    5616:	00 20       	and	r0, r0
    5618:	b9 f7       	brne	.-18     	; 0x5608 <strncmp_P+0x4>
    561a:	88 1b       	sub	r24, r24
    561c:	99 0b       	sbc	r25, r25
    561e:	08 95       	ret

00005620 <strncpy_P>:
    5620:	fb 01       	movw	r30, r22
    5622:	dc 01       	movw	r26, r24
    5624:	41 50       	subi	r20, 0x01	; 1
    5626:	50 40       	sbci	r21, 0x00	; 0
    5628:	48 f0       	brcs	.+18     	; 0x563c <strncpy_P+0x1c>
    562a:	05 90       	lpm	r0, Z+
    562c:	0d 92       	st	X+, r0
    562e:	00 20       	and	r0, r0
    5630:	c9 f7       	brne	.-14     	; 0x5624 <strncpy_P+0x4>
    5632:	01 c0       	rjmp	.+2      	; 0x5636 <strncpy_P+0x16>
    5634:	1d 92       	st	X+, r1
    5636:	41 50       	subi	r20, 0x01	; 1
    5638:	50 40       	sbci	r21, 0x00	; 0
    563a:	e0 f7       	brcc	.-8      	; 0x5634 <strncpy_P+0x14>
    563c:	08 95       	ret

0000563e <strstr_P>:
    563e:	fb 01       	movw	r30, r22
    5640:	55 91       	lpm	r21, Z+
    5642:	55 23       	and	r21, r21
    5644:	a9 f0       	breq	.+42     	; 0x5670 <strstr_P+0x32>
    5646:	bf 01       	movw	r22, r30
    5648:	dc 01       	movw	r26, r24
    564a:	4d 91       	ld	r20, X+
    564c:	45 17       	cp	r20, r21
    564e:	41 11       	cpse	r20, r1
    5650:	e1 f7       	brne	.-8      	; 0x564a <strstr_P+0xc>
    5652:	59 f4       	brne	.+22     	; 0x566a <strstr_P+0x2c>
    5654:	cd 01       	movw	r24, r26
    5656:	05 90       	lpm	r0, Z+
    5658:	00 20       	and	r0, r0
    565a:	49 f0       	breq	.+18     	; 0x566e <strstr_P+0x30>
    565c:	4d 91       	ld	r20, X+
    565e:	40 15       	cp	r20, r0
    5660:	41 11       	cpse	r20, r1
    5662:	c9 f3       	breq	.-14     	; 0x5656 <strstr_P+0x18>
    5664:	fb 01       	movw	r30, r22
    5666:	41 11       	cpse	r20, r1
    5668:	ef cf       	rjmp	.-34     	; 0x5648 <strstr_P+0xa>
    566a:	81 e0       	ldi	r24, 0x01	; 1
    566c:	90 e0       	ldi	r25, 0x00	; 0
    566e:	01 97       	sbiw	r24, 0x01	; 1
    5670:	08 95       	ret

00005672 <memcpy>:
    5672:	fb 01       	movw	r30, r22
    5674:	dc 01       	movw	r26, r24
    5676:	02 c0       	rjmp	.+4      	; 0x567c <memcpy+0xa>
    5678:	01 90       	ld	r0, Z+
    567a:	0d 92       	st	X+, r0
    567c:	41 50       	subi	r20, 0x01	; 1
    567e:	50 40       	sbci	r21, 0x00	; 0
    5680:	d8 f7       	brcc	.-10     	; 0x5678 <memcpy+0x6>
    5682:	08 95       	ret

00005684 <memset>:
    5684:	dc 01       	movw	r26, r24
    5686:	01 c0       	rjmp	.+2      	; 0x568a <memset+0x6>
    5688:	6d 93       	st	X+, r22
    568a:	41 50       	subi	r20, 0x01	; 1
    568c:	50 40       	sbci	r21, 0x00	; 0
    568e:	e0 f7       	brcc	.-8      	; 0x5688 <memset+0x4>
    5690:	08 95       	ret

00005692 <strchr>:
    5692:	fc 01       	movw	r30, r24
    5694:	81 91       	ld	r24, Z+
    5696:	86 17       	cp	r24, r22
    5698:	21 f0       	breq	.+8      	; 0x56a2 <strchr+0x10>
    569a:	88 23       	and	r24, r24
    569c:	d9 f7       	brne	.-10     	; 0x5694 <strchr+0x2>
    569e:	99 27       	eor	r25, r25
    56a0:	08 95       	ret
    56a2:	31 97       	sbiw	r30, 0x01	; 1
    56a4:	cf 01       	movw	r24, r30
    56a6:	08 95       	ret

000056a8 <strncpy>:
    56a8:	fb 01       	movw	r30, r22
    56aa:	dc 01       	movw	r26, r24
    56ac:	41 50       	subi	r20, 0x01	; 1
    56ae:	50 40       	sbci	r21, 0x00	; 0
    56b0:	48 f0       	brcs	.+18     	; 0x56c4 <strncpy+0x1c>
    56b2:	01 90       	ld	r0, Z+
    56b4:	0d 92       	st	X+, r0
    56b6:	00 20       	and	r0, r0
    56b8:	c9 f7       	brne	.-14     	; 0x56ac <strncpy+0x4>
    56ba:	01 c0       	rjmp	.+2      	; 0x56be <strncpy+0x16>
    56bc:	1d 92       	st	X+, r1
    56be:	41 50       	subi	r20, 0x01	; 1
    56c0:	50 40       	sbci	r21, 0x00	; 0
    56c2:	e0 f7       	brcc	.-8      	; 0x56bc <strncpy+0x14>
    56c4:	08 95       	ret

000056c6 <strtok_r>:
    56c6:	fa 01       	movw	r30, r20
    56c8:	a1 91       	ld	r26, Z+
    56ca:	b0 81       	ld	r27, Z
    56cc:	00 97       	sbiw	r24, 0x00	; 0
    56ce:	19 f4       	brne	.+6      	; 0x56d6 <strtok_r+0x10>
    56d0:	10 97       	sbiw	r26, 0x00	; 0
    56d2:	e1 f0       	breq	.+56     	; 0x570c <strtok_r+0x46>
    56d4:	cd 01       	movw	r24, r26
    56d6:	dc 01       	movw	r26, r24
    56d8:	cd 01       	movw	r24, r26
    56da:	0d 90       	ld	r0, X+
    56dc:	00 20       	and	r0, r0
    56de:	11 f4       	brne	.+4      	; 0x56e4 <strtok_r+0x1e>
    56e0:	c0 01       	movw	r24, r0
    56e2:	13 c0       	rjmp	.+38     	; 0x570a <strtok_r+0x44>
    56e4:	fb 01       	movw	r30, r22
    56e6:	21 91       	ld	r18, Z+
    56e8:	22 23       	and	r18, r18
    56ea:	19 f0       	breq	.+6      	; 0x56f2 <strtok_r+0x2c>
    56ec:	20 15       	cp	r18, r0
    56ee:	d9 f7       	brne	.-10     	; 0x56e6 <strtok_r+0x20>
    56f0:	f3 cf       	rjmp	.-26     	; 0x56d8 <strtok_r+0x12>
    56f2:	fb 01       	movw	r30, r22
    56f4:	21 91       	ld	r18, Z+
    56f6:	20 15       	cp	r18, r0
    56f8:	19 f4       	brne	.+6      	; 0x5700 <strtok_r+0x3a>
    56fa:	1e 92       	st	-X, r1
    56fc:	11 96       	adiw	r26, 0x01	; 1
    56fe:	06 c0       	rjmp	.+12     	; 0x570c <strtok_r+0x46>
    5700:	22 23       	and	r18, r18
    5702:	c1 f7       	brne	.-16     	; 0x56f4 <strtok_r+0x2e>
    5704:	0d 90       	ld	r0, X+
    5706:	00 20       	and	r0, r0
    5708:	a1 f7       	brne	.-24     	; 0x56f2 <strtok_r+0x2c>
    570a:	d0 01       	movw	r26, r0
    570c:	fa 01       	movw	r30, r20
    570e:	a1 93       	st	Z+, r26
    5710:	b0 83       	st	Z, r27
    5712:	08 95       	ret

00005714 <snprintf>:
    5714:	0f 93       	push	r16
    5716:	1f 93       	push	r17
    5718:	cf 93       	push	r28
    571a:	df 93       	push	r29
    571c:	cd b7       	in	r28, 0x3d	; 61
    571e:	de b7       	in	r29, 0x3e	; 62
    5720:	2e 97       	sbiw	r28, 0x0e	; 14
    5722:	0f b6       	in	r0, 0x3f	; 63
    5724:	f8 94       	cli
    5726:	de bf       	out	0x3e, r29	; 62
    5728:	0f be       	out	0x3f, r0	; 63
    572a:	cd bf       	out	0x3d, r28	; 61
    572c:	0d 89       	ldd	r16, Y+21	; 0x15
    572e:	1e 89       	ldd	r17, Y+22	; 0x16
    5730:	8f 89       	ldd	r24, Y+23	; 0x17
    5732:	98 8d       	ldd	r25, Y+24	; 0x18
    5734:	26 e0       	ldi	r18, 0x06	; 6
    5736:	2c 83       	std	Y+4, r18	; 0x04
    5738:	1a 83       	std	Y+2, r17	; 0x02
    573a:	09 83       	std	Y+1, r16	; 0x01
    573c:	97 ff       	sbrs	r25, 7
    573e:	02 c0       	rjmp	.+4      	; 0x5744 <snprintf+0x30>
    5740:	80 e0       	ldi	r24, 0x00	; 0
    5742:	90 e8       	ldi	r25, 0x80	; 128
    5744:	01 97       	sbiw	r24, 0x01	; 1
    5746:	9e 83       	std	Y+6, r25	; 0x06
    5748:	8d 83       	std	Y+5, r24	; 0x05
    574a:	ae 01       	movw	r20, r28
    574c:	45 5e       	subi	r20, 0xE5	; 229
    574e:	5f 4f       	sbci	r21, 0xFF	; 255
    5750:	69 8d       	ldd	r22, Y+25	; 0x19
    5752:	7a 8d       	ldd	r23, Y+26	; 0x1a
    5754:	ce 01       	movw	r24, r28
    5756:	01 96       	adiw	r24, 0x01	; 1
    5758:	0e 94 f7 2b 	call	0x57ee	; 0x57ee <vfprintf>
    575c:	4d 81       	ldd	r20, Y+5	; 0x05
    575e:	5e 81       	ldd	r21, Y+6	; 0x06
    5760:	57 fd       	sbrc	r21, 7
    5762:	0a c0       	rjmp	.+20     	; 0x5778 <snprintf+0x64>
    5764:	2f 81       	ldd	r18, Y+7	; 0x07
    5766:	38 85       	ldd	r19, Y+8	; 0x08
    5768:	42 17       	cp	r20, r18
    576a:	53 07       	cpc	r21, r19
    576c:	0c f4       	brge	.+2      	; 0x5770 <snprintf+0x5c>
    576e:	9a 01       	movw	r18, r20
    5770:	f8 01       	movw	r30, r16
    5772:	e2 0f       	add	r30, r18
    5774:	f3 1f       	adc	r31, r19
    5776:	10 82       	st	Z, r1
    5778:	2e 96       	adiw	r28, 0x0e	; 14
    577a:	0f b6       	in	r0, 0x3f	; 63
    577c:	f8 94       	cli
    577e:	de bf       	out	0x3e, r29	; 62
    5780:	0f be       	out	0x3f, r0	; 63
    5782:	cd bf       	out	0x3d, r28	; 61
    5784:	df 91       	pop	r29
    5786:	cf 91       	pop	r28
    5788:	1f 91       	pop	r17
    578a:	0f 91       	pop	r16
    578c:	08 95       	ret

0000578e <sprintf>:
    578e:	0f 93       	push	r16
    5790:	1f 93       	push	r17
    5792:	cf 93       	push	r28
    5794:	df 93       	push	r29
    5796:	cd b7       	in	r28, 0x3d	; 61
    5798:	de b7       	in	r29, 0x3e	; 62
    579a:	2e 97       	sbiw	r28, 0x0e	; 14
    579c:	0f b6       	in	r0, 0x3f	; 63
    579e:	f8 94       	cli
    57a0:	de bf       	out	0x3e, r29	; 62
    57a2:	0f be       	out	0x3f, r0	; 63
    57a4:	cd bf       	out	0x3d, r28	; 61
    57a6:	0d 89       	ldd	r16, Y+21	; 0x15
    57a8:	1e 89       	ldd	r17, Y+22	; 0x16
    57aa:	86 e0       	ldi	r24, 0x06	; 6
    57ac:	8c 83       	std	Y+4, r24	; 0x04
    57ae:	1a 83       	std	Y+2, r17	; 0x02
    57b0:	09 83       	std	Y+1, r16	; 0x01
    57b2:	8f ef       	ldi	r24, 0xFF	; 255
    57b4:	9f e7       	ldi	r25, 0x7F	; 127
    57b6:	9e 83       	std	Y+6, r25	; 0x06
    57b8:	8d 83       	std	Y+5, r24	; 0x05
    57ba:	ae 01       	movw	r20, r28
    57bc:	47 5e       	subi	r20, 0xE7	; 231
    57be:	5f 4f       	sbci	r21, 0xFF	; 255
    57c0:	6f 89       	ldd	r22, Y+23	; 0x17
    57c2:	78 8d       	ldd	r23, Y+24	; 0x18
    57c4:	ce 01       	movw	r24, r28
    57c6:	01 96       	adiw	r24, 0x01	; 1
    57c8:	0e 94 f7 2b 	call	0x57ee	; 0x57ee <vfprintf>
    57cc:	2f 81       	ldd	r18, Y+7	; 0x07
    57ce:	38 85       	ldd	r19, Y+8	; 0x08
    57d0:	f8 01       	movw	r30, r16
    57d2:	e2 0f       	add	r30, r18
    57d4:	f3 1f       	adc	r31, r19
    57d6:	10 82       	st	Z, r1
    57d8:	2e 96       	adiw	r28, 0x0e	; 14
    57da:	0f b6       	in	r0, 0x3f	; 63
    57dc:	f8 94       	cli
    57de:	de bf       	out	0x3e, r29	; 62
    57e0:	0f be       	out	0x3f, r0	; 63
    57e2:	cd bf       	out	0x3d, r28	; 61
    57e4:	df 91       	pop	r29
    57e6:	cf 91       	pop	r28
    57e8:	1f 91       	pop	r17
    57ea:	0f 91       	pop	r16
    57ec:	08 95       	ret

000057ee <vfprintf>:
    57ee:	2f 92       	push	r2
    57f0:	3f 92       	push	r3
    57f2:	4f 92       	push	r4
    57f4:	5f 92       	push	r5
    57f6:	6f 92       	push	r6
    57f8:	7f 92       	push	r7
    57fa:	8f 92       	push	r8
    57fc:	9f 92       	push	r9
    57fe:	af 92       	push	r10
    5800:	bf 92       	push	r11
    5802:	cf 92       	push	r12
    5804:	df 92       	push	r13
    5806:	ef 92       	push	r14
    5808:	ff 92       	push	r15
    580a:	0f 93       	push	r16
    580c:	1f 93       	push	r17
    580e:	cf 93       	push	r28
    5810:	df 93       	push	r29
    5812:	cd b7       	in	r28, 0x3d	; 61
    5814:	de b7       	in	r29, 0x3e	; 62
    5816:	2c 97       	sbiw	r28, 0x0c	; 12
    5818:	0f b6       	in	r0, 0x3f	; 63
    581a:	f8 94       	cli
    581c:	de bf       	out	0x3e, r29	; 62
    581e:	0f be       	out	0x3f, r0	; 63
    5820:	cd bf       	out	0x3d, r28	; 61
    5822:	7c 01       	movw	r14, r24
    5824:	6b 01       	movw	r12, r22
    5826:	8a 01       	movw	r16, r20
    5828:	fc 01       	movw	r30, r24
    582a:	17 82       	std	Z+7, r1	; 0x07
    582c:	16 82       	std	Z+6, r1	; 0x06
    582e:	83 81       	ldd	r24, Z+3	; 0x03
    5830:	81 ff       	sbrs	r24, 1
    5832:	bd c1       	rjmp	.+890    	; 0x5bae <vfprintf+0x3c0>
    5834:	ce 01       	movw	r24, r28
    5836:	01 96       	adiw	r24, 0x01	; 1
    5838:	4c 01       	movw	r8, r24
    583a:	f7 01       	movw	r30, r14
    583c:	93 81       	ldd	r25, Z+3	; 0x03
    583e:	f6 01       	movw	r30, r12
    5840:	93 fd       	sbrc	r25, 3
    5842:	85 91       	lpm	r24, Z+
    5844:	93 ff       	sbrs	r25, 3
    5846:	81 91       	ld	r24, Z+
    5848:	6f 01       	movw	r12, r30
    584a:	88 23       	and	r24, r24
    584c:	09 f4       	brne	.+2      	; 0x5850 <vfprintf+0x62>
    584e:	ab c1       	rjmp	.+854    	; 0x5ba6 <vfprintf+0x3b8>
    5850:	85 32       	cpi	r24, 0x25	; 37
    5852:	39 f4       	brne	.+14     	; 0x5862 <vfprintf+0x74>
    5854:	93 fd       	sbrc	r25, 3
    5856:	85 91       	lpm	r24, Z+
    5858:	93 ff       	sbrs	r25, 3
    585a:	81 91       	ld	r24, Z+
    585c:	6f 01       	movw	r12, r30
    585e:	85 32       	cpi	r24, 0x25	; 37
    5860:	29 f4       	brne	.+10     	; 0x586c <vfprintf+0x7e>
    5862:	b7 01       	movw	r22, r14
    5864:	90 e0       	ldi	r25, 0x00	; 0
    5866:	0e 94 0b 2e 	call	0x5c16	; 0x5c16 <fputc>
    586a:	e7 cf       	rjmp	.-50     	; 0x583a <vfprintf+0x4c>
    586c:	51 2c       	mov	r5, r1
    586e:	31 2c       	mov	r3, r1
    5870:	20 e0       	ldi	r18, 0x00	; 0
    5872:	20 32       	cpi	r18, 0x20	; 32
    5874:	a0 f4       	brcc	.+40     	; 0x589e <vfprintf+0xb0>
    5876:	8b 32       	cpi	r24, 0x2B	; 43
    5878:	69 f0       	breq	.+26     	; 0x5894 <vfprintf+0xa6>
    587a:	30 f4       	brcc	.+12     	; 0x5888 <vfprintf+0x9a>
    587c:	80 32       	cpi	r24, 0x20	; 32
    587e:	59 f0       	breq	.+22     	; 0x5896 <vfprintf+0xa8>
    5880:	83 32       	cpi	r24, 0x23	; 35
    5882:	69 f4       	brne	.+26     	; 0x589e <vfprintf+0xb0>
    5884:	20 61       	ori	r18, 0x10	; 16
    5886:	2c c0       	rjmp	.+88     	; 0x58e0 <vfprintf+0xf2>
    5888:	8d 32       	cpi	r24, 0x2D	; 45
    588a:	39 f0       	breq	.+14     	; 0x589a <vfprintf+0xac>
    588c:	80 33       	cpi	r24, 0x30	; 48
    588e:	39 f4       	brne	.+14     	; 0x589e <vfprintf+0xb0>
    5890:	21 60       	ori	r18, 0x01	; 1
    5892:	26 c0       	rjmp	.+76     	; 0x58e0 <vfprintf+0xf2>
    5894:	22 60       	ori	r18, 0x02	; 2
    5896:	24 60       	ori	r18, 0x04	; 4
    5898:	23 c0       	rjmp	.+70     	; 0x58e0 <vfprintf+0xf2>
    589a:	28 60       	ori	r18, 0x08	; 8
    589c:	21 c0       	rjmp	.+66     	; 0x58e0 <vfprintf+0xf2>
    589e:	27 fd       	sbrc	r18, 7
    58a0:	27 c0       	rjmp	.+78     	; 0x58f0 <vfprintf+0x102>
    58a2:	30 ed       	ldi	r19, 0xD0	; 208
    58a4:	38 0f       	add	r19, r24
    58a6:	3a 30       	cpi	r19, 0x0A	; 10
    58a8:	78 f4       	brcc	.+30     	; 0x58c8 <vfprintf+0xda>
    58aa:	26 ff       	sbrs	r18, 6
    58ac:	06 c0       	rjmp	.+12     	; 0x58ba <vfprintf+0xcc>
    58ae:	fa e0       	ldi	r31, 0x0A	; 10
    58b0:	5f 9e       	mul	r5, r31
    58b2:	30 0d       	add	r19, r0
    58b4:	11 24       	eor	r1, r1
    58b6:	53 2e       	mov	r5, r19
    58b8:	13 c0       	rjmp	.+38     	; 0x58e0 <vfprintf+0xf2>
    58ba:	8a e0       	ldi	r24, 0x0A	; 10
    58bc:	38 9e       	mul	r3, r24
    58be:	30 0d       	add	r19, r0
    58c0:	11 24       	eor	r1, r1
    58c2:	33 2e       	mov	r3, r19
    58c4:	20 62       	ori	r18, 0x20	; 32
    58c6:	0c c0       	rjmp	.+24     	; 0x58e0 <vfprintf+0xf2>
    58c8:	8e 32       	cpi	r24, 0x2E	; 46
    58ca:	21 f4       	brne	.+8      	; 0x58d4 <vfprintf+0xe6>
    58cc:	26 fd       	sbrc	r18, 6
    58ce:	6b c1       	rjmp	.+726    	; 0x5ba6 <vfprintf+0x3b8>
    58d0:	20 64       	ori	r18, 0x40	; 64
    58d2:	06 c0       	rjmp	.+12     	; 0x58e0 <vfprintf+0xf2>
    58d4:	8c 36       	cpi	r24, 0x6C	; 108
    58d6:	11 f4       	brne	.+4      	; 0x58dc <vfprintf+0xee>
    58d8:	20 68       	ori	r18, 0x80	; 128
    58da:	02 c0       	rjmp	.+4      	; 0x58e0 <vfprintf+0xf2>
    58dc:	88 36       	cpi	r24, 0x68	; 104
    58de:	41 f4       	brne	.+16     	; 0x58f0 <vfprintf+0x102>
    58e0:	f6 01       	movw	r30, r12
    58e2:	93 fd       	sbrc	r25, 3
    58e4:	85 91       	lpm	r24, Z+
    58e6:	93 ff       	sbrs	r25, 3
    58e8:	81 91       	ld	r24, Z+
    58ea:	6f 01       	movw	r12, r30
    58ec:	81 11       	cpse	r24, r1
    58ee:	c1 cf       	rjmp	.-126    	; 0x5872 <vfprintf+0x84>
    58f0:	98 2f       	mov	r25, r24
    58f2:	9f 7d       	andi	r25, 0xDF	; 223
    58f4:	95 54       	subi	r25, 0x45	; 69
    58f6:	93 30       	cpi	r25, 0x03	; 3
    58f8:	28 f4       	brcc	.+10     	; 0x5904 <vfprintf+0x116>
    58fa:	0c 5f       	subi	r16, 0xFC	; 252
    58fc:	1f 4f       	sbci	r17, 0xFF	; 255
    58fe:	ff e3       	ldi	r31, 0x3F	; 63
    5900:	f9 83       	std	Y+1, r31	; 0x01
    5902:	0d c0       	rjmp	.+26     	; 0x591e <vfprintf+0x130>
    5904:	83 36       	cpi	r24, 0x63	; 99
    5906:	31 f0       	breq	.+12     	; 0x5914 <vfprintf+0x126>
    5908:	83 37       	cpi	r24, 0x73	; 115
    590a:	71 f0       	breq	.+28     	; 0x5928 <vfprintf+0x13a>
    590c:	83 35       	cpi	r24, 0x53	; 83
    590e:	09 f0       	breq	.+2      	; 0x5912 <vfprintf+0x124>
    5910:	5b c0       	rjmp	.+182    	; 0x59c8 <vfprintf+0x1da>
    5912:	22 c0       	rjmp	.+68     	; 0x5958 <vfprintf+0x16a>
    5914:	f8 01       	movw	r30, r16
    5916:	80 81       	ld	r24, Z
    5918:	89 83       	std	Y+1, r24	; 0x01
    591a:	0e 5f       	subi	r16, 0xFE	; 254
    591c:	1f 4f       	sbci	r17, 0xFF	; 255
    591e:	44 24       	eor	r4, r4
    5920:	43 94       	inc	r4
    5922:	51 2c       	mov	r5, r1
    5924:	54 01       	movw	r10, r8
    5926:	15 c0       	rjmp	.+42     	; 0x5952 <vfprintf+0x164>
    5928:	38 01       	movw	r6, r16
    592a:	f2 e0       	ldi	r31, 0x02	; 2
    592c:	6f 0e       	add	r6, r31
    592e:	71 1c       	adc	r7, r1
    5930:	f8 01       	movw	r30, r16
    5932:	a0 80       	ld	r10, Z
    5934:	b1 80       	ldd	r11, Z+1	; 0x01
    5936:	26 ff       	sbrs	r18, 6
    5938:	03 c0       	rjmp	.+6      	; 0x5940 <vfprintf+0x152>
    593a:	65 2d       	mov	r22, r5
    593c:	70 e0       	ldi	r23, 0x00	; 0
    593e:	02 c0       	rjmp	.+4      	; 0x5944 <vfprintf+0x156>
    5940:	6f ef       	ldi	r22, 0xFF	; 255
    5942:	7f ef       	ldi	r23, 0xFF	; 255
    5944:	c5 01       	movw	r24, r10
    5946:	2c 87       	std	Y+12, r18	; 0x0c
    5948:	0e 94 00 2e 	call	0x5c00	; 0x5c00 <strnlen>
    594c:	2c 01       	movw	r4, r24
    594e:	83 01       	movw	r16, r6
    5950:	2c 85       	ldd	r18, Y+12	; 0x0c
    5952:	2f 77       	andi	r18, 0x7F	; 127
    5954:	22 2e       	mov	r2, r18
    5956:	17 c0       	rjmp	.+46     	; 0x5986 <vfprintf+0x198>
    5958:	38 01       	movw	r6, r16
    595a:	f2 e0       	ldi	r31, 0x02	; 2
    595c:	6f 0e       	add	r6, r31
    595e:	71 1c       	adc	r7, r1
    5960:	f8 01       	movw	r30, r16
    5962:	a0 80       	ld	r10, Z
    5964:	b1 80       	ldd	r11, Z+1	; 0x01
    5966:	26 ff       	sbrs	r18, 6
    5968:	03 c0       	rjmp	.+6      	; 0x5970 <vfprintf+0x182>
    596a:	65 2d       	mov	r22, r5
    596c:	70 e0       	ldi	r23, 0x00	; 0
    596e:	02 c0       	rjmp	.+4      	; 0x5974 <vfprintf+0x186>
    5970:	6f ef       	ldi	r22, 0xFF	; 255
    5972:	7f ef       	ldi	r23, 0xFF	; 255
    5974:	c5 01       	movw	r24, r10
    5976:	2c 87       	std	Y+12, r18	; 0x0c
    5978:	0e 94 f5 2d 	call	0x5bea	; 0x5bea <strnlen_P>
    597c:	2c 01       	movw	r4, r24
    597e:	2c 85       	ldd	r18, Y+12	; 0x0c
    5980:	20 68       	ori	r18, 0x80	; 128
    5982:	22 2e       	mov	r2, r18
    5984:	83 01       	movw	r16, r6
    5986:	23 fc       	sbrc	r2, 3
    5988:	1b c0       	rjmp	.+54     	; 0x59c0 <vfprintf+0x1d2>
    598a:	83 2d       	mov	r24, r3
    598c:	90 e0       	ldi	r25, 0x00	; 0
    598e:	48 16       	cp	r4, r24
    5990:	59 06       	cpc	r5, r25
    5992:	b0 f4       	brcc	.+44     	; 0x59c0 <vfprintf+0x1d2>
    5994:	b7 01       	movw	r22, r14
    5996:	80 e2       	ldi	r24, 0x20	; 32
    5998:	90 e0       	ldi	r25, 0x00	; 0
    599a:	0e 94 0b 2e 	call	0x5c16	; 0x5c16 <fputc>
    599e:	3a 94       	dec	r3
    59a0:	f4 cf       	rjmp	.-24     	; 0x598a <vfprintf+0x19c>
    59a2:	f5 01       	movw	r30, r10
    59a4:	27 fc       	sbrc	r2, 7
    59a6:	85 91       	lpm	r24, Z+
    59a8:	27 fe       	sbrs	r2, 7
    59aa:	81 91       	ld	r24, Z+
    59ac:	5f 01       	movw	r10, r30
    59ae:	b7 01       	movw	r22, r14
    59b0:	90 e0       	ldi	r25, 0x00	; 0
    59b2:	0e 94 0b 2e 	call	0x5c16	; 0x5c16 <fputc>
    59b6:	31 10       	cpse	r3, r1
    59b8:	3a 94       	dec	r3
    59ba:	f1 e0       	ldi	r31, 0x01	; 1
    59bc:	4f 1a       	sub	r4, r31
    59be:	51 08       	sbc	r5, r1
    59c0:	41 14       	cp	r4, r1
    59c2:	51 04       	cpc	r5, r1
    59c4:	71 f7       	brne	.-36     	; 0x59a2 <vfprintf+0x1b4>
    59c6:	e5 c0       	rjmp	.+458    	; 0x5b92 <vfprintf+0x3a4>
    59c8:	84 36       	cpi	r24, 0x64	; 100
    59ca:	11 f0       	breq	.+4      	; 0x59d0 <vfprintf+0x1e2>
    59cc:	89 36       	cpi	r24, 0x69	; 105
    59ce:	39 f5       	brne	.+78     	; 0x5a1e <vfprintf+0x230>
    59d0:	f8 01       	movw	r30, r16
    59d2:	27 ff       	sbrs	r18, 7
    59d4:	07 c0       	rjmp	.+14     	; 0x59e4 <vfprintf+0x1f6>
    59d6:	60 81       	ld	r22, Z
    59d8:	71 81       	ldd	r23, Z+1	; 0x01
    59da:	82 81       	ldd	r24, Z+2	; 0x02
    59dc:	93 81       	ldd	r25, Z+3	; 0x03
    59de:	0c 5f       	subi	r16, 0xFC	; 252
    59e0:	1f 4f       	sbci	r17, 0xFF	; 255
    59e2:	08 c0       	rjmp	.+16     	; 0x59f4 <vfprintf+0x206>
    59e4:	60 81       	ld	r22, Z
    59e6:	71 81       	ldd	r23, Z+1	; 0x01
    59e8:	88 27       	eor	r24, r24
    59ea:	77 fd       	sbrc	r23, 7
    59ec:	80 95       	com	r24
    59ee:	98 2f       	mov	r25, r24
    59f0:	0e 5f       	subi	r16, 0xFE	; 254
    59f2:	1f 4f       	sbci	r17, 0xFF	; 255
    59f4:	2f 76       	andi	r18, 0x6F	; 111
    59f6:	72 2e       	mov	r7, r18
    59f8:	97 ff       	sbrs	r25, 7
    59fa:	09 c0       	rjmp	.+18     	; 0x5a0e <vfprintf+0x220>
    59fc:	90 95       	com	r25
    59fe:	80 95       	com	r24
    5a00:	70 95       	com	r23
    5a02:	61 95       	neg	r22
    5a04:	7f 4f       	sbci	r23, 0xFF	; 255
    5a06:	8f 4f       	sbci	r24, 0xFF	; 255
    5a08:	9f 4f       	sbci	r25, 0xFF	; 255
    5a0a:	20 68       	ori	r18, 0x80	; 128
    5a0c:	72 2e       	mov	r7, r18
    5a0e:	2a e0       	ldi	r18, 0x0A	; 10
    5a10:	30 e0       	ldi	r19, 0x00	; 0
    5a12:	a4 01       	movw	r20, r8
    5a14:	0e 94 43 2e 	call	0x5c86	; 0x5c86 <__ultoa_invert>
    5a18:	a8 2e       	mov	r10, r24
    5a1a:	a8 18       	sub	r10, r8
    5a1c:	44 c0       	rjmp	.+136    	; 0x5aa6 <vfprintf+0x2b8>
    5a1e:	85 37       	cpi	r24, 0x75	; 117
    5a20:	29 f4       	brne	.+10     	; 0x5a2c <vfprintf+0x23e>
    5a22:	2f 7e       	andi	r18, 0xEF	; 239
    5a24:	b2 2e       	mov	r11, r18
    5a26:	2a e0       	ldi	r18, 0x0A	; 10
    5a28:	30 e0       	ldi	r19, 0x00	; 0
    5a2a:	25 c0       	rjmp	.+74     	; 0x5a76 <vfprintf+0x288>
    5a2c:	f2 2f       	mov	r31, r18
    5a2e:	f9 7f       	andi	r31, 0xF9	; 249
    5a30:	bf 2e       	mov	r11, r31
    5a32:	8f 36       	cpi	r24, 0x6F	; 111
    5a34:	c1 f0       	breq	.+48     	; 0x5a66 <vfprintf+0x278>
    5a36:	18 f4       	brcc	.+6      	; 0x5a3e <vfprintf+0x250>
    5a38:	88 35       	cpi	r24, 0x58	; 88
    5a3a:	79 f0       	breq	.+30     	; 0x5a5a <vfprintf+0x26c>
    5a3c:	b4 c0       	rjmp	.+360    	; 0x5ba6 <vfprintf+0x3b8>
    5a3e:	80 37       	cpi	r24, 0x70	; 112
    5a40:	19 f0       	breq	.+6      	; 0x5a48 <vfprintf+0x25a>
    5a42:	88 37       	cpi	r24, 0x78	; 120
    5a44:	21 f0       	breq	.+8      	; 0x5a4e <vfprintf+0x260>
    5a46:	af c0       	rjmp	.+350    	; 0x5ba6 <vfprintf+0x3b8>
    5a48:	2f 2f       	mov	r18, r31
    5a4a:	20 61       	ori	r18, 0x10	; 16
    5a4c:	b2 2e       	mov	r11, r18
    5a4e:	b4 fe       	sbrs	r11, 4
    5a50:	0d c0       	rjmp	.+26     	; 0x5a6c <vfprintf+0x27e>
    5a52:	8b 2d       	mov	r24, r11
    5a54:	84 60       	ori	r24, 0x04	; 4
    5a56:	b8 2e       	mov	r11, r24
    5a58:	09 c0       	rjmp	.+18     	; 0x5a6c <vfprintf+0x27e>
    5a5a:	24 ff       	sbrs	r18, 4
    5a5c:	0a c0       	rjmp	.+20     	; 0x5a72 <vfprintf+0x284>
    5a5e:	9f 2f       	mov	r25, r31
    5a60:	96 60       	ori	r25, 0x06	; 6
    5a62:	b9 2e       	mov	r11, r25
    5a64:	06 c0       	rjmp	.+12     	; 0x5a72 <vfprintf+0x284>
    5a66:	28 e0       	ldi	r18, 0x08	; 8
    5a68:	30 e0       	ldi	r19, 0x00	; 0
    5a6a:	05 c0       	rjmp	.+10     	; 0x5a76 <vfprintf+0x288>
    5a6c:	20 e1       	ldi	r18, 0x10	; 16
    5a6e:	30 e0       	ldi	r19, 0x00	; 0
    5a70:	02 c0       	rjmp	.+4      	; 0x5a76 <vfprintf+0x288>
    5a72:	20 e1       	ldi	r18, 0x10	; 16
    5a74:	32 e0       	ldi	r19, 0x02	; 2
    5a76:	f8 01       	movw	r30, r16
    5a78:	b7 fe       	sbrs	r11, 7
    5a7a:	07 c0       	rjmp	.+14     	; 0x5a8a <vfprintf+0x29c>
    5a7c:	60 81       	ld	r22, Z
    5a7e:	71 81       	ldd	r23, Z+1	; 0x01
    5a80:	82 81       	ldd	r24, Z+2	; 0x02
    5a82:	93 81       	ldd	r25, Z+3	; 0x03
    5a84:	0c 5f       	subi	r16, 0xFC	; 252
    5a86:	1f 4f       	sbci	r17, 0xFF	; 255
    5a88:	06 c0       	rjmp	.+12     	; 0x5a96 <vfprintf+0x2a8>
    5a8a:	60 81       	ld	r22, Z
    5a8c:	71 81       	ldd	r23, Z+1	; 0x01
    5a8e:	80 e0       	ldi	r24, 0x00	; 0
    5a90:	90 e0       	ldi	r25, 0x00	; 0
    5a92:	0e 5f       	subi	r16, 0xFE	; 254
    5a94:	1f 4f       	sbci	r17, 0xFF	; 255
    5a96:	a4 01       	movw	r20, r8
    5a98:	0e 94 43 2e 	call	0x5c86	; 0x5c86 <__ultoa_invert>
    5a9c:	a8 2e       	mov	r10, r24
    5a9e:	a8 18       	sub	r10, r8
    5aa0:	fb 2d       	mov	r31, r11
    5aa2:	ff 77       	andi	r31, 0x7F	; 127
    5aa4:	7f 2e       	mov	r7, r31
    5aa6:	76 fe       	sbrs	r7, 6
    5aa8:	0b c0       	rjmp	.+22     	; 0x5ac0 <vfprintf+0x2d2>
    5aaa:	37 2d       	mov	r19, r7
    5aac:	3e 7f       	andi	r19, 0xFE	; 254
    5aae:	a5 14       	cp	r10, r5
    5ab0:	50 f4       	brcc	.+20     	; 0x5ac6 <vfprintf+0x2d8>
    5ab2:	74 fe       	sbrs	r7, 4
    5ab4:	0a c0       	rjmp	.+20     	; 0x5aca <vfprintf+0x2dc>
    5ab6:	72 fc       	sbrc	r7, 2
    5ab8:	08 c0       	rjmp	.+16     	; 0x5aca <vfprintf+0x2dc>
    5aba:	37 2d       	mov	r19, r7
    5abc:	3e 7e       	andi	r19, 0xEE	; 238
    5abe:	05 c0       	rjmp	.+10     	; 0x5aca <vfprintf+0x2dc>
    5ac0:	ba 2c       	mov	r11, r10
    5ac2:	37 2d       	mov	r19, r7
    5ac4:	03 c0       	rjmp	.+6      	; 0x5acc <vfprintf+0x2de>
    5ac6:	ba 2c       	mov	r11, r10
    5ac8:	01 c0       	rjmp	.+2      	; 0x5acc <vfprintf+0x2de>
    5aca:	b5 2c       	mov	r11, r5
    5acc:	34 ff       	sbrs	r19, 4
    5ace:	0d c0       	rjmp	.+26     	; 0x5aea <vfprintf+0x2fc>
    5ad0:	fe 01       	movw	r30, r28
    5ad2:	ea 0d       	add	r30, r10
    5ad4:	f1 1d       	adc	r31, r1
    5ad6:	80 81       	ld	r24, Z
    5ad8:	80 33       	cpi	r24, 0x30	; 48
    5ada:	11 f4       	brne	.+4      	; 0x5ae0 <vfprintf+0x2f2>
    5adc:	39 7e       	andi	r19, 0xE9	; 233
    5ade:	09 c0       	rjmp	.+18     	; 0x5af2 <vfprintf+0x304>
    5ae0:	32 ff       	sbrs	r19, 2
    5ae2:	06 c0       	rjmp	.+12     	; 0x5af0 <vfprintf+0x302>
    5ae4:	b3 94       	inc	r11
    5ae6:	b3 94       	inc	r11
    5ae8:	04 c0       	rjmp	.+8      	; 0x5af2 <vfprintf+0x304>
    5aea:	83 2f       	mov	r24, r19
    5aec:	86 78       	andi	r24, 0x86	; 134
    5aee:	09 f0       	breq	.+2      	; 0x5af2 <vfprintf+0x304>
    5af0:	b3 94       	inc	r11
    5af2:	33 fd       	sbrc	r19, 3
    5af4:	13 c0       	rjmp	.+38     	; 0x5b1c <vfprintf+0x32e>
    5af6:	30 ff       	sbrs	r19, 0
    5af8:	06 c0       	rjmp	.+12     	; 0x5b06 <vfprintf+0x318>
    5afa:	5a 2c       	mov	r5, r10
    5afc:	b3 14       	cp	r11, r3
    5afe:	18 f4       	brcc	.+6      	; 0x5b06 <vfprintf+0x318>
    5b00:	53 0c       	add	r5, r3
    5b02:	5b 18       	sub	r5, r11
    5b04:	b3 2c       	mov	r11, r3
    5b06:	b3 14       	cp	r11, r3
    5b08:	68 f4       	brcc	.+26     	; 0x5b24 <vfprintf+0x336>
    5b0a:	b7 01       	movw	r22, r14
    5b0c:	80 e2       	ldi	r24, 0x20	; 32
    5b0e:	90 e0       	ldi	r25, 0x00	; 0
    5b10:	3c 87       	std	Y+12, r19	; 0x0c
    5b12:	0e 94 0b 2e 	call	0x5c16	; 0x5c16 <fputc>
    5b16:	b3 94       	inc	r11
    5b18:	3c 85       	ldd	r19, Y+12	; 0x0c
    5b1a:	f5 cf       	rjmp	.-22     	; 0x5b06 <vfprintf+0x318>
    5b1c:	b3 14       	cp	r11, r3
    5b1e:	10 f4       	brcc	.+4      	; 0x5b24 <vfprintf+0x336>
    5b20:	3b 18       	sub	r3, r11
    5b22:	01 c0       	rjmp	.+2      	; 0x5b26 <vfprintf+0x338>
    5b24:	31 2c       	mov	r3, r1
    5b26:	34 ff       	sbrs	r19, 4
    5b28:	12 c0       	rjmp	.+36     	; 0x5b4e <vfprintf+0x360>
    5b2a:	b7 01       	movw	r22, r14
    5b2c:	80 e3       	ldi	r24, 0x30	; 48
    5b2e:	90 e0       	ldi	r25, 0x00	; 0
    5b30:	3c 87       	std	Y+12, r19	; 0x0c
    5b32:	0e 94 0b 2e 	call	0x5c16	; 0x5c16 <fputc>
    5b36:	3c 85       	ldd	r19, Y+12	; 0x0c
    5b38:	32 ff       	sbrs	r19, 2
    5b3a:	17 c0       	rjmp	.+46     	; 0x5b6a <vfprintf+0x37c>
    5b3c:	31 fd       	sbrc	r19, 1
    5b3e:	03 c0       	rjmp	.+6      	; 0x5b46 <vfprintf+0x358>
    5b40:	88 e7       	ldi	r24, 0x78	; 120
    5b42:	90 e0       	ldi	r25, 0x00	; 0
    5b44:	02 c0       	rjmp	.+4      	; 0x5b4a <vfprintf+0x35c>
    5b46:	88 e5       	ldi	r24, 0x58	; 88
    5b48:	90 e0       	ldi	r25, 0x00	; 0
    5b4a:	b7 01       	movw	r22, r14
    5b4c:	0c c0       	rjmp	.+24     	; 0x5b66 <vfprintf+0x378>
    5b4e:	83 2f       	mov	r24, r19
    5b50:	86 78       	andi	r24, 0x86	; 134
    5b52:	59 f0       	breq	.+22     	; 0x5b6a <vfprintf+0x37c>
    5b54:	31 ff       	sbrs	r19, 1
    5b56:	02 c0       	rjmp	.+4      	; 0x5b5c <vfprintf+0x36e>
    5b58:	8b e2       	ldi	r24, 0x2B	; 43
    5b5a:	01 c0       	rjmp	.+2      	; 0x5b5e <vfprintf+0x370>
    5b5c:	80 e2       	ldi	r24, 0x20	; 32
    5b5e:	37 fd       	sbrc	r19, 7
    5b60:	8d e2       	ldi	r24, 0x2D	; 45
    5b62:	b7 01       	movw	r22, r14
    5b64:	90 e0       	ldi	r25, 0x00	; 0
    5b66:	0e 94 0b 2e 	call	0x5c16	; 0x5c16 <fputc>
    5b6a:	a5 14       	cp	r10, r5
    5b6c:	38 f4       	brcc	.+14     	; 0x5b7c <vfprintf+0x38e>
    5b6e:	b7 01       	movw	r22, r14
    5b70:	80 e3       	ldi	r24, 0x30	; 48
    5b72:	90 e0       	ldi	r25, 0x00	; 0
    5b74:	0e 94 0b 2e 	call	0x5c16	; 0x5c16 <fputc>
    5b78:	5a 94       	dec	r5
    5b7a:	f7 cf       	rjmp	.-18     	; 0x5b6a <vfprintf+0x37c>
    5b7c:	aa 94       	dec	r10
    5b7e:	f4 01       	movw	r30, r8
    5b80:	ea 0d       	add	r30, r10
    5b82:	f1 1d       	adc	r31, r1
    5b84:	80 81       	ld	r24, Z
    5b86:	b7 01       	movw	r22, r14
    5b88:	90 e0       	ldi	r25, 0x00	; 0
    5b8a:	0e 94 0b 2e 	call	0x5c16	; 0x5c16 <fputc>
    5b8e:	a1 10       	cpse	r10, r1
    5b90:	f5 cf       	rjmp	.-22     	; 0x5b7c <vfprintf+0x38e>
    5b92:	33 20       	and	r3, r3
    5b94:	09 f4       	brne	.+2      	; 0x5b98 <vfprintf+0x3aa>
    5b96:	51 ce       	rjmp	.-862    	; 0x583a <vfprintf+0x4c>
    5b98:	b7 01       	movw	r22, r14
    5b9a:	80 e2       	ldi	r24, 0x20	; 32
    5b9c:	90 e0       	ldi	r25, 0x00	; 0
    5b9e:	0e 94 0b 2e 	call	0x5c16	; 0x5c16 <fputc>
    5ba2:	3a 94       	dec	r3
    5ba4:	f6 cf       	rjmp	.-20     	; 0x5b92 <vfprintf+0x3a4>
    5ba6:	f7 01       	movw	r30, r14
    5ba8:	86 81       	ldd	r24, Z+6	; 0x06
    5baa:	97 81       	ldd	r25, Z+7	; 0x07
    5bac:	02 c0       	rjmp	.+4      	; 0x5bb2 <vfprintf+0x3c4>
    5bae:	8f ef       	ldi	r24, 0xFF	; 255
    5bb0:	9f ef       	ldi	r25, 0xFF	; 255
    5bb2:	2c 96       	adiw	r28, 0x0c	; 12
    5bb4:	0f b6       	in	r0, 0x3f	; 63
    5bb6:	f8 94       	cli
    5bb8:	de bf       	out	0x3e, r29	; 62
    5bba:	0f be       	out	0x3f, r0	; 63
    5bbc:	cd bf       	out	0x3d, r28	; 61
    5bbe:	df 91       	pop	r29
    5bc0:	cf 91       	pop	r28
    5bc2:	1f 91       	pop	r17
    5bc4:	0f 91       	pop	r16
    5bc6:	ff 90       	pop	r15
    5bc8:	ef 90       	pop	r14
    5bca:	df 90       	pop	r13
    5bcc:	cf 90       	pop	r12
    5bce:	bf 90       	pop	r11
    5bd0:	af 90       	pop	r10
    5bd2:	9f 90       	pop	r9
    5bd4:	8f 90       	pop	r8
    5bd6:	7f 90       	pop	r7
    5bd8:	6f 90       	pop	r6
    5bda:	5f 90       	pop	r5
    5bdc:	4f 90       	pop	r4
    5bde:	3f 90       	pop	r3
    5be0:	2f 90       	pop	r2
    5be2:	08 95       	ret

00005be4 <__ctype_isfalse>:
    5be4:	99 27       	eor	r25, r25
    5be6:	88 27       	eor	r24, r24

00005be8 <__ctype_istrue>:
    5be8:	08 95       	ret

00005bea <strnlen_P>:
    5bea:	fc 01       	movw	r30, r24
    5bec:	05 90       	lpm	r0, Z+
    5bee:	61 50       	subi	r22, 0x01	; 1
    5bf0:	70 40       	sbci	r23, 0x00	; 0
    5bf2:	01 10       	cpse	r0, r1
    5bf4:	d8 f7       	brcc	.-10     	; 0x5bec <strnlen_P+0x2>
    5bf6:	80 95       	com	r24
    5bf8:	90 95       	com	r25
    5bfa:	8e 0f       	add	r24, r30
    5bfc:	9f 1f       	adc	r25, r31
    5bfe:	08 95       	ret

00005c00 <strnlen>:
    5c00:	fc 01       	movw	r30, r24
    5c02:	61 50       	subi	r22, 0x01	; 1
    5c04:	70 40       	sbci	r23, 0x00	; 0
    5c06:	01 90       	ld	r0, Z+
    5c08:	01 10       	cpse	r0, r1
    5c0a:	d8 f7       	brcc	.-10     	; 0x5c02 <strnlen+0x2>
    5c0c:	80 95       	com	r24
    5c0e:	90 95       	com	r25
    5c10:	8e 0f       	add	r24, r30
    5c12:	9f 1f       	adc	r25, r31
    5c14:	08 95       	ret

00005c16 <fputc>:
    5c16:	0f 93       	push	r16
    5c18:	1f 93       	push	r17
    5c1a:	cf 93       	push	r28
    5c1c:	df 93       	push	r29
    5c1e:	fb 01       	movw	r30, r22
    5c20:	23 81       	ldd	r18, Z+3	; 0x03
    5c22:	21 fd       	sbrc	r18, 1
    5c24:	03 c0       	rjmp	.+6      	; 0x5c2c <fputc+0x16>
    5c26:	8f ef       	ldi	r24, 0xFF	; 255
    5c28:	9f ef       	ldi	r25, 0xFF	; 255
    5c2a:	28 c0       	rjmp	.+80     	; 0x5c7c <fputc+0x66>
    5c2c:	22 ff       	sbrs	r18, 2
    5c2e:	16 c0       	rjmp	.+44     	; 0x5c5c <fputc+0x46>
    5c30:	46 81       	ldd	r20, Z+6	; 0x06
    5c32:	57 81       	ldd	r21, Z+7	; 0x07
    5c34:	24 81       	ldd	r18, Z+4	; 0x04
    5c36:	35 81       	ldd	r19, Z+5	; 0x05
    5c38:	42 17       	cp	r20, r18
    5c3a:	53 07       	cpc	r21, r19
    5c3c:	44 f4       	brge	.+16     	; 0x5c4e <fputc+0x38>
    5c3e:	a0 81       	ld	r26, Z
    5c40:	b1 81       	ldd	r27, Z+1	; 0x01
    5c42:	9d 01       	movw	r18, r26
    5c44:	2f 5f       	subi	r18, 0xFF	; 255
    5c46:	3f 4f       	sbci	r19, 0xFF	; 255
    5c48:	31 83       	std	Z+1, r19	; 0x01
    5c4a:	20 83       	st	Z, r18
    5c4c:	8c 93       	st	X, r24
    5c4e:	26 81       	ldd	r18, Z+6	; 0x06
    5c50:	37 81       	ldd	r19, Z+7	; 0x07
    5c52:	2f 5f       	subi	r18, 0xFF	; 255
    5c54:	3f 4f       	sbci	r19, 0xFF	; 255
    5c56:	37 83       	std	Z+7, r19	; 0x07
    5c58:	26 83       	std	Z+6, r18	; 0x06
    5c5a:	10 c0       	rjmp	.+32     	; 0x5c7c <fputc+0x66>
    5c5c:	eb 01       	movw	r28, r22
    5c5e:	09 2f       	mov	r16, r25
    5c60:	18 2f       	mov	r17, r24
    5c62:	00 84       	ldd	r0, Z+8	; 0x08
    5c64:	f1 85       	ldd	r31, Z+9	; 0x09
    5c66:	e0 2d       	mov	r30, r0
    5c68:	09 95       	icall
    5c6a:	89 2b       	or	r24, r25
    5c6c:	e1 f6       	brne	.-72     	; 0x5c26 <fputc+0x10>
    5c6e:	8e 81       	ldd	r24, Y+6	; 0x06
    5c70:	9f 81       	ldd	r25, Y+7	; 0x07
    5c72:	01 96       	adiw	r24, 0x01	; 1
    5c74:	9f 83       	std	Y+7, r25	; 0x07
    5c76:	8e 83       	std	Y+6, r24	; 0x06
    5c78:	81 2f       	mov	r24, r17
    5c7a:	90 2f       	mov	r25, r16
    5c7c:	df 91       	pop	r29
    5c7e:	cf 91       	pop	r28
    5c80:	1f 91       	pop	r17
    5c82:	0f 91       	pop	r16
    5c84:	08 95       	ret

00005c86 <__ultoa_invert>:
    5c86:	fa 01       	movw	r30, r20
    5c88:	aa 27       	eor	r26, r26
    5c8a:	28 30       	cpi	r18, 0x08	; 8
    5c8c:	51 f1       	breq	.+84     	; 0x5ce2 <__ultoa_invert+0x5c>
    5c8e:	20 31       	cpi	r18, 0x10	; 16
    5c90:	81 f1       	breq	.+96     	; 0x5cf2 <__ultoa_invert+0x6c>
    5c92:	e8 94       	clt
    5c94:	6f 93       	push	r22
    5c96:	6e 7f       	andi	r22, 0xFE	; 254
    5c98:	6e 5f       	subi	r22, 0xFE	; 254
    5c9a:	7f 4f       	sbci	r23, 0xFF	; 255
    5c9c:	8f 4f       	sbci	r24, 0xFF	; 255
    5c9e:	9f 4f       	sbci	r25, 0xFF	; 255
    5ca0:	af 4f       	sbci	r26, 0xFF	; 255
    5ca2:	b1 e0       	ldi	r27, 0x01	; 1
    5ca4:	3e d0       	rcall	.+124    	; 0x5d22 <__ultoa_invert+0x9c>
    5ca6:	b4 e0       	ldi	r27, 0x04	; 4
    5ca8:	3c d0       	rcall	.+120    	; 0x5d22 <__ultoa_invert+0x9c>
    5caa:	67 0f       	add	r22, r23
    5cac:	78 1f       	adc	r23, r24
    5cae:	89 1f       	adc	r24, r25
    5cb0:	9a 1f       	adc	r25, r26
    5cb2:	a1 1d       	adc	r26, r1
    5cb4:	68 0f       	add	r22, r24
    5cb6:	79 1f       	adc	r23, r25
    5cb8:	8a 1f       	adc	r24, r26
    5cba:	91 1d       	adc	r25, r1
    5cbc:	a1 1d       	adc	r26, r1
    5cbe:	6a 0f       	add	r22, r26
    5cc0:	71 1d       	adc	r23, r1
    5cc2:	81 1d       	adc	r24, r1
    5cc4:	91 1d       	adc	r25, r1
    5cc6:	a1 1d       	adc	r26, r1
    5cc8:	20 d0       	rcall	.+64     	; 0x5d0a <__ultoa_invert+0x84>
    5cca:	09 f4       	brne	.+2      	; 0x5cce <__ultoa_invert+0x48>
    5ccc:	68 94       	set
    5cce:	3f 91       	pop	r19
    5cd0:	2a e0       	ldi	r18, 0x0A	; 10
    5cd2:	26 9f       	mul	r18, r22
    5cd4:	11 24       	eor	r1, r1
    5cd6:	30 19       	sub	r19, r0
    5cd8:	30 5d       	subi	r19, 0xD0	; 208
    5cda:	31 93       	st	Z+, r19
    5cdc:	de f6       	brtc	.-74     	; 0x5c94 <__ultoa_invert+0xe>
    5cde:	cf 01       	movw	r24, r30
    5ce0:	08 95       	ret
    5ce2:	46 2f       	mov	r20, r22
    5ce4:	47 70       	andi	r20, 0x07	; 7
    5ce6:	40 5d       	subi	r20, 0xD0	; 208
    5ce8:	41 93       	st	Z+, r20
    5cea:	b3 e0       	ldi	r27, 0x03	; 3
    5cec:	0f d0       	rcall	.+30     	; 0x5d0c <__ultoa_invert+0x86>
    5cee:	c9 f7       	brne	.-14     	; 0x5ce2 <__ultoa_invert+0x5c>
    5cf0:	f6 cf       	rjmp	.-20     	; 0x5cde <__ultoa_invert+0x58>
    5cf2:	46 2f       	mov	r20, r22
    5cf4:	4f 70       	andi	r20, 0x0F	; 15
    5cf6:	40 5d       	subi	r20, 0xD0	; 208
    5cf8:	4a 33       	cpi	r20, 0x3A	; 58
    5cfa:	18 f0       	brcs	.+6      	; 0x5d02 <__ultoa_invert+0x7c>
    5cfc:	49 5d       	subi	r20, 0xD9	; 217
    5cfe:	31 fd       	sbrc	r19, 1
    5d00:	40 52       	subi	r20, 0x20	; 32
    5d02:	41 93       	st	Z+, r20
    5d04:	02 d0       	rcall	.+4      	; 0x5d0a <__ultoa_invert+0x84>
    5d06:	a9 f7       	brne	.-22     	; 0x5cf2 <__ultoa_invert+0x6c>
    5d08:	ea cf       	rjmp	.-44     	; 0x5cde <__ultoa_invert+0x58>
    5d0a:	b4 e0       	ldi	r27, 0x04	; 4
    5d0c:	a6 95       	lsr	r26
    5d0e:	97 95       	ror	r25
    5d10:	87 95       	ror	r24
    5d12:	77 95       	ror	r23
    5d14:	67 95       	ror	r22
    5d16:	ba 95       	dec	r27
    5d18:	c9 f7       	brne	.-14     	; 0x5d0c <__ultoa_invert+0x86>
    5d1a:	00 97       	sbiw	r24, 0x00	; 0
    5d1c:	61 05       	cpc	r22, r1
    5d1e:	71 05       	cpc	r23, r1
    5d20:	08 95       	ret
    5d22:	9b 01       	movw	r18, r22
    5d24:	ac 01       	movw	r20, r24
    5d26:	0a 2e       	mov	r0, r26
    5d28:	06 94       	lsr	r0
    5d2a:	57 95       	ror	r21
    5d2c:	47 95       	ror	r20
    5d2e:	37 95       	ror	r19
    5d30:	27 95       	ror	r18
    5d32:	ba 95       	dec	r27
    5d34:	c9 f7       	brne	.-14     	; 0x5d28 <__ultoa_invert+0xa2>
    5d36:	62 0f       	add	r22, r18
    5d38:	73 1f       	adc	r23, r19
    5d3a:	84 1f       	adc	r24, r20
    5d3c:	95 1f       	adc	r25, r21
    5d3e:	a0 1d       	adc	r26, r0
    5d40:	08 95       	ret

00005d42 <__mulsi3>:
    5d42:	db 01       	movw	r26, r22
    5d44:	8f 93       	push	r24
    5d46:	9f 93       	push	r25
    5d48:	0e 94 d3 2e 	call	0x5da6	; 0x5da6 <__muluhisi3>
    5d4c:	bf 91       	pop	r27
    5d4e:	af 91       	pop	r26
    5d50:	a2 9f       	mul	r26, r18
    5d52:	80 0d       	add	r24, r0
    5d54:	91 1d       	adc	r25, r1
    5d56:	a3 9f       	mul	r26, r19
    5d58:	90 0d       	add	r25, r0
    5d5a:	b2 9f       	mul	r27, r18
    5d5c:	90 0d       	add	r25, r0
    5d5e:	11 24       	eor	r1, r1
    5d60:	08 95       	ret

00005d62 <__udivmodsi4>:
    5d62:	a1 e2       	ldi	r26, 0x21	; 33
    5d64:	1a 2e       	mov	r1, r26
    5d66:	aa 1b       	sub	r26, r26
    5d68:	bb 1b       	sub	r27, r27
    5d6a:	fd 01       	movw	r30, r26
    5d6c:	0d c0       	rjmp	.+26     	; 0x5d88 <__udivmodsi4_ep>

00005d6e <__udivmodsi4_loop>:
    5d6e:	aa 1f       	adc	r26, r26
    5d70:	bb 1f       	adc	r27, r27
    5d72:	ee 1f       	adc	r30, r30
    5d74:	ff 1f       	adc	r31, r31
    5d76:	a2 17       	cp	r26, r18
    5d78:	b3 07       	cpc	r27, r19
    5d7a:	e4 07       	cpc	r30, r20
    5d7c:	f5 07       	cpc	r31, r21
    5d7e:	20 f0       	brcs	.+8      	; 0x5d88 <__udivmodsi4_ep>
    5d80:	a2 1b       	sub	r26, r18
    5d82:	b3 0b       	sbc	r27, r19
    5d84:	e4 0b       	sbc	r30, r20
    5d86:	f5 0b       	sbc	r31, r21

00005d88 <__udivmodsi4_ep>:
    5d88:	66 1f       	adc	r22, r22
    5d8a:	77 1f       	adc	r23, r23
    5d8c:	88 1f       	adc	r24, r24
    5d8e:	99 1f       	adc	r25, r25
    5d90:	1a 94       	dec	r1
    5d92:	69 f7       	brne	.-38     	; 0x5d6e <__udivmodsi4_loop>
    5d94:	60 95       	com	r22
    5d96:	70 95       	com	r23
    5d98:	80 95       	com	r24
    5d9a:	90 95       	com	r25
    5d9c:	9b 01       	movw	r18, r22
    5d9e:	ac 01       	movw	r20, r24
    5da0:	bd 01       	movw	r22, r26
    5da2:	cf 01       	movw	r24, r30
    5da4:	08 95       	ret

00005da6 <__muluhisi3>:
    5da6:	0e 94 de 2e 	call	0x5dbc	; 0x5dbc <__umulhisi3>
    5daa:	a5 9f       	mul	r26, r21
    5dac:	90 0d       	add	r25, r0
    5dae:	b4 9f       	mul	r27, r20
    5db0:	90 0d       	add	r25, r0
    5db2:	a4 9f       	mul	r26, r20
    5db4:	80 0d       	add	r24, r0
    5db6:	91 1d       	adc	r25, r1
    5db8:	11 24       	eor	r1, r1
    5dba:	08 95       	ret

00005dbc <__umulhisi3>:
    5dbc:	a2 9f       	mul	r26, r18
    5dbe:	b0 01       	movw	r22, r0
    5dc0:	b3 9f       	mul	r27, r19
    5dc2:	c0 01       	movw	r24, r0
    5dc4:	a3 9f       	mul	r26, r19
    5dc6:	70 0d       	add	r23, r0
    5dc8:	81 1d       	adc	r24, r1
    5dca:	11 24       	eor	r1, r1
    5dcc:	91 1d       	adc	r25, r1
    5dce:	b2 9f       	mul	r27, r18
    5dd0:	70 0d       	add	r23, r0
    5dd2:	81 1d       	adc	r24, r1
    5dd4:	11 24       	eor	r1, r1
    5dd6:	91 1d       	adc	r25, r1
    5dd8:	08 95       	ret

00005dda <_exit>:
    5dda:	f8 94       	cli

00005ddc <__stop_program>:
    5ddc:	ff cf       	rjmp	.-2      	; 0x5ddc <__stop_program>
