
build/bigAVR6_1280/main.exe:     file format elf32-avr


Disassembly of section .text:

00000000 <__vectors>:
       0:	0c 94 dd 02 	jmp	0x5ba	; 0x5ba <__ctors_end>
       4:	0c 94 a8 25 	jmp	0x4b50	; 0x4b50 <__vector_1>
       8:	0c 94 b2 25 	jmp	0x4b64	; 0x4b64 <__vector_2>
       c:	0c 94 bc 25 	jmp	0x4b78	; 0x4b78 <__vector_3>
      10:	0c 94 e5 25 	jmp	0x4bca	; 0x4bca <__vector_4>
      14:	0c 94 26 26 	jmp	0x4c4c	; 0x4c4c <__vector_5>
      18:	0c 94 30 26 	jmp	0x4c60	; 0x4c60 <__vector_6>
      1c:	0c 94 3a 26 	jmp	0x4c74	; 0x4c74 <__vector_7>
      20:	0c 94 44 26 	jmp	0x4c88	; 0x4c88 <__vector_8>
      24:	0c 94 fc 02 	jmp	0x5f8	; 0x5f8 <__bad_interrupt>
      28:	0c 94 fc 02 	jmp	0x5f8	; 0x5f8 <__bad_interrupt>
      2c:	0c 94 d0 26 	jmp	0x4da0	; 0x4da0 <__vector_11>
      30:	0c 94 fc 02 	jmp	0x5f8	; 0x5f8 <__bad_interrupt>
      34:	0c 94 b8 24 	jmp	0x4970	; 0x4970 <__vector_13>
      38:	0c 94 fc 02 	jmp	0x5f8	; 0x5f8 <__bad_interrupt>
      3c:	0c 94 f7 24 	jmp	0x49ee	; 0x49ee <__vector_15>
      40:	0c 94 fc 02 	jmp	0x5f8	; 0x5f8 <__bad_interrupt>
      44:	0c 94 fc 02 	jmp	0x5f8	; 0x5f8 <__bad_interrupt>
      48:	0c 94 fc 02 	jmp	0x5f8	; 0x5f8 <__bad_interrupt>
      4c:	0c 94 fc 02 	jmp	0x5f8	; 0x5f8 <__bad_interrupt>
      50:	0c 94 fc 02 	jmp	0x5f8	; 0x5f8 <__bad_interrupt>
      54:	0c 94 fc 02 	jmp	0x5f8	; 0x5f8 <__bad_interrupt>
      58:	0c 94 fc 02 	jmp	0x5f8	; 0x5f8 <__bad_interrupt>
      5c:	0c 94 fc 02 	jmp	0x5f8	; 0x5f8 <__bad_interrupt>
      60:	0c 94 01 25 	jmp	0x4a02	; 0x4a02 <__vector_24>
      64:	0c 94 fc 02 	jmp	0x5f8	; 0x5f8 <__bad_interrupt>
      68:	0c 94 fc 02 	jmp	0x5f8	; 0x5f8 <__bad_interrupt>
      6c:	0c 94 fc 02 	jmp	0x5f8	; 0x5f8 <__bad_interrupt>
      70:	0c 94 fc 02 	jmp	0x5f8	; 0x5f8 <__bad_interrupt>
      74:	0c 94 7b 27 	jmp	0x4ef6	; 0x4ef6 <__vector_29>
      78:	0c 94 fc 02 	jmp	0x5f8	; 0x5f8 <__bad_interrupt>
      7c:	0c 94 fc 02 	jmp	0x5f8	; 0x5f8 <__bad_interrupt>
      80:	0c 94 fc 02 	jmp	0x5f8	; 0x5f8 <__bad_interrupt>
      84:	0c 94 fc 02 	jmp	0x5f8	; 0x5f8 <__bad_interrupt>
      88:	0c 94 fc 02 	jmp	0x5f8	; 0x5f8 <__bad_interrupt>
      8c:	0c 94 fc 02 	jmp	0x5f8	; 0x5f8 <__bad_interrupt>
      90:	0c 94 fc 02 	jmp	0x5f8	; 0x5f8 <__bad_interrupt>
      94:	0c 94 fc 02 	jmp	0x5f8	; 0x5f8 <__bad_interrupt>
      98:	0c 94 fc 02 	jmp	0x5f8	; 0x5f8 <__bad_interrupt>
      9c:	0c 94 4e 26 	jmp	0x4c9c	; 0x4c9c <__vector_39>
      a0:	0c 94 fc 02 	jmp	0x5f8	; 0x5f8 <__bad_interrupt>
      a4:	0c 94 fc 02 	jmp	0x5f8	; 0x5f8 <__bad_interrupt>
      a8:	0c 94 fc 02 	jmp	0x5f8	; 0x5f8 <__bad_interrupt>
      ac:	0c 94 fc 02 	jmp	0x5f8	; 0x5f8 <__bad_interrupt>
      b0:	0c 94 fc 02 	jmp	0x5f8	; 0x5f8 <__bad_interrupt>
      b4:	0c 94 fc 02 	jmp	0x5f8	; 0x5f8 <__bad_interrupt>
      b8:	0c 94 fc 02 	jmp	0x5f8	; 0x5f8 <__bad_interrupt>
      bc:	0c 94 fc 02 	jmp	0x5f8	; 0x5f8 <__bad_interrupt>
      c0:	0c 94 fc 02 	jmp	0x5f8	; 0x5f8 <__bad_interrupt>
      c4:	0c 94 fc 02 	jmp	0x5f8	; 0x5f8 <__bad_interrupt>
      c8:	0c 94 fc 02 	jmp	0x5f8	; 0x5f8 <__bad_interrupt>
      cc:	0c 94 fc 02 	jmp	0x5f8	; 0x5f8 <__bad_interrupt>
      d0:	0c 94 fc 02 	jmp	0x5f8	; 0x5f8 <__bad_interrupt>
      d4:	0c 94 fc 02 	jmp	0x5f8	; 0x5f8 <__bad_interrupt>
      d8:	0c 94 fc 02 	jmp	0x5f8	; 0x5f8 <__bad_interrupt>
      dc:	0c 94 fc 02 	jmp	0x5f8	; 0x5f8 <__bad_interrupt>
      e0:	0c 94 fc 02 	jmp	0x5f8	; 0x5f8 <__bad_interrupt>
      e4:	8c 11       	cpse	r24, r12
      e6:	90 11       	cpse	r25, r0
      e8:	1c 12       	cpse	r1, r28
      ea:	30 13       	cpse	r19, r16
      ec:	bc 13       	cpse	r27, r28
      ee:	e9 13       	cpse	r30, r25
      f0:	f5 13       	cpse	r31, r21
      f2:	01 14       	cp	r0, r1
      f4:	0d 14       	cp	r0, r13
      f6:	34 14       	cp	r3, r4
      f8:	1c 15       	cp	r17, r12
      fa:	20 15       	cp	r18, r0
      fc:	66 15       	cp	r22, r6
      fe:	01 17       	cp	r16, r17
     100:	38 17       	cp	r19, r24
     102:	89 19       	sub	r24, r9
     104:	0b 1a       	sub	r0, r27
     106:	31 1a       	sub	r3, r17
     108:	7c 1a       	sub	r7, r28
     10a:	ec 1a       	sub	r14, r28
     10c:	19 1b       	sub	r17, r25
     10e:	45 1b       	sub	r20, r21
     110:	49 1b       	sub	r20, r25
     112:	50 1b       	sub	r21, r16
     114:	65 1b       	sub	r22, r21
     116:	90 1e       	adc	r9, r16
     118:	9c 1e       	adc	r9, r28
     11a:	db 1f       	adc	r29, r27
     11c:	9b 20       	and	r9, r11
     11e:	9e 20       	and	r9, r14
     120:	c2 21       	and	r28, r2
     122:	d5 21       	and	r29, r5
     124:	d8 21       	and	r29, r8
     126:	09 22       	and	r0, r25
     128:	4f 22       	and	r4, r31
     12a:	6c 22       	and	r6, r28
     12c:	93 22       	and	r9, r19
     12e:	96 22       	and	r9, r22
     130:	b1 22       	and	r11, r17
     132:	0f 23       	and	r16, r31
     134:	3c 15       	cp	r19, r12
     136:	3f 15       	cp	r19, r15
     138:	42 15       	cp	r20, r2
     13a:	45 15       	cp	r20, r5
     13c:	48 15       	cp	r20, r8
     13e:	4b 15       	cp	r20, r11
     140:	4e 15       	cp	r20, r14
     142:	51 15       	cp	r21, r1
     144:	54 15       	cp	r21, r4

00000146 <McuSleepC__atm128PowerBits>:
     146:	00 02 0e 06 0c 04                                   ......

0000014c <shifted>:
     14c:	0d 09 0e 78 15 51 16 21 1a 59 1b 53 1c 41 1d 57     ...x.Q.!.Y.S.A.W
     15c:	1e 22 21 43 22 58 23 44 24 45 25 78 26 23 29 20     ."!C"X#D$E%x&#) 
     16c:	2a 56 2b 46 2c 54 2d 52 2e 25 31 4e 32 42 33 48     *V+F,T-R.%1N2B3H
     17c:	34 47 35 5a 36 26 39 4c 3a 4d 3b 4a 3c 55 3d 2f     4G5Z6&9L:M;J<U=/
     18c:	3e 28 41 3b 42 4b 43 49 44 4f 45 3d 46 29 49 3a     >(A;BKCIDOE=F)I:
     19c:	4a 5f 4b 4c 4c 78 4d 50 4e 3f 52 78 54 78 55 60     J_KLLxMPN?RxTxU`
     1ac:	5a 0a 5b 5e 5d 2a 61 3e 66 08 69 31 6b 34 6c 37     Z.[^]*a>f.i1k4l7
     1bc:	70 30 71 2c 72 32 73 35 74 36 75 38 79 2b 7a 33     p0q,r2s5t6u8y+z3
     1cc:	7b 2d 7c 2a 7d 39 00 00                             {-|*}9..

000001d4 <unshifted>:
     1d4:	0d 09 0e 7c 15 71 16 31 1a 79 1b 73 1c 61 1d 77     ...|.q.1.y.s.a.w
     1e4:	1e 32 21 63 22 78 23 64 24 65 25 34 26 33 29 20     .2!c"x#d$e%4&3) 
     1f4:	2a 76 2b 66 2c 74 2d 72 2e 35 31 6e 32 62 33 68     *v+f,t-r.51n2b3h
     204:	34 67 35 7a 36 36 39 2c 3a 6d 3b 6a 3c 75 3d 37     4g5z669,:m;j<u=7
     214:	3e 38 41 2c 42 6b 43 69 44 6f 45 30 46 39 49 2e     >8A,BkCiDoE0F9I.
     224:	4a 2d 4b 6c 4c 6f 4d 70 4e 2b 52 6f 54 6f 55 5c     J-KlLoMpN+RoToU\
     234:	5a 0a 5b 78 5d 27 61 3c 66 08 69 31 6b 34 6c 37     Z.[x]'a<f.i1k4l7
     244:	70 30 71 2c 72 32 73 35 74 36 75 38 79 2b 7a 33     p0q,r2s5t6u8y+z3
     254:	7b 2d 7c 2a 7d 39 00 00                             {-|*}9..

0000025c <Font5x7>:
     25c:	00 00 00 00 00 00 00 5f 00 00 00 07 00 07 00 14     ......._........
     26c:	7f 14 7f 14 24 2a 7f 2a 12 23 13 08 64 62 36 49     ....$*.*.#..db6I
     27c:	55 22 50 00 05 03 00 00 00 1c 22 41 00 00 41 22     U"P......."A..A"
     28c:	1c 00 08 2a 1c 2a 08 08 08 3e 08 08 00 50 30 00     ...*.*...>...P0.
     29c:	00 08 08 08 08 08 00 60 60 00 00 20 10 08 04 02     .......``.. ....
     2ac:	3e 51 49 45 3e 00 42 7f 40 00 42 61 51 49 46 21     >QIE>.B.@.BaQIF!
     2bc:	41 45 4b 31 18 14 12 7f 10 27 45 45 45 39 3c 4a     AEK1.....'EEE9<J
     2cc:	49 49 30 01 71 09 05 03 36 49 49 49 36 06 49 49     II0.q...6III6.II
     2dc:	29 1e 00 36 36 00 00 00 56 36 00 00 00 08 14 22     )..66...V6....."
     2ec:	41 14 14 14 14 14 41 22 14 08 00 02 01 51 09 06     A.....A".....Q..
     2fc:	32 49 79 41 3e 7e 11 11 11 7e 7f 49 49 49 36 3e     2IyA>~...~.III6>
     30c:	41 41 41 22 7f 41 41 22 1c 7f 49 49 49 41 7f 09     AAA".AA"..IIIA..
     31c:	09 01 01 3e 41 41 51 32 7f 08 08 08 7f 00 41 7f     ...>AAQ2......A.
     32c:	41 00 20 40 41 3f 01 7f 08 14 22 41 7f 40 40 40     A. @A?...."A.@@@
     33c:	40 7f 02 04 02 7f 7f 04 08 10 7f 3e 41 41 41 3e     @..........>AAA>
     34c:	7f 09 09 09 06 3e 41 51 21 5e 7f 09 19 29 46 46     .....>AQ!^...)FF
     35c:	49 49 49 31 01 01 7f 01 01 3f 40 40 40 3f 1f 20     III1.....?@@@?. 
     36c:	40 20 1f 7f 20 18 20 7f 63 14 08 14 63 03 04 78     @ .. . .c...c..x
     37c:	04 03 61 51 49 45 43 00 00 7f 41 41 02 04 08 10     ..aQIEC...AA....
     38c:	20 41 41 7f 00 00 04 02 01 02 04 40 40 40 40 40      AA........@@@@@
     39c:	00 01 02 04 00 20 54 54 54 78 7f 48 44 44 38 38     ..... TTTx.HDD88
     3ac:	44 44 44 20 38 44 44 48 7f 38 54 54 54 18 08 7e     DDD 8DDH.8TTT..~
     3bc:	09 01 02 08 14 54 54 3c 7f 08 04 04 78 00 44 7d     .....TT<....x.D}
     3cc:	40 00 20 40 44 3d 00 00 7f 10 28 44 00 41 7f 40     @. @D=....(D.A.@
     3dc:	00 7c 04 18 04 78 7c 08 04 04 78 38 44 44 44 38     .|...x|...x8DDD8
     3ec:	7c 14 14 14 08 08 14 14 18 7c 7c 08 04 04 08 48     |........||....H
     3fc:	54 54 54 20 04 3f 44 40 20 3c 40 40 20 7c 1c 20     TTT .?D@ <@@ |. 
     40c:	40 20 1c 3c 40 30 40 3c 44 28 10 28 44 0c 50 50     @ .<@0@<D(.(D.PP
     41c:	50 3c 44 64 54 4c 44 00 08 36 41 00 00 00 7f 00     P<DdTLD..6A.....
     42c:	00 00 41 36 08 00 08 08 2a 1c 08 08 1c 2a 08 08     ..A6....*....*..

0000043c <cmd_note>:
     43c:	6e 6f 74 65 00                                      note.

00000441 <cmd_name>:
     441:	6e 61 6d 65 00                                      name.

00000446 <cmd_qdial>:
     446:	71 64 69 61 6c 00                                   qdial.

0000044c <cmd_picode>:
     44c:	70 69 63 6f 64 65 00                                picode.

00000453 <cmd_freq>:
     453:	66 72 65 71 00                                      freq.

00000458 <cmd_id>:
     458:	69 64 00                                            id.

0000045b <cmd_dbFull>:
     45b:	43 68 61 6e 6e 65 6c 20 44 42 20 46 75 6c 6c 00     Channel DB Full.

0000046b <cmd_get>:
     46b:	67 65 74 00                                         get.

0000046f <cmd_msg>:
     46f:	6d 73 67 00                                         msg.

00000473 <cmd_purgeall>:
     473:	70 75 72 67 65 61 6c 6c 00                          purgeall.

0000047c <cmd_list>:
     47c:	6c 69 73 74 00                                      list.

00000481 <cmd_update>:
     481:	75 70 64 61 74 65 00                                update.

00000488 <cmd_add>:
     488:	61 64 64 00                                         add.

0000048c <cmd_ok>:
     48c:	6f 6b 00                                            ok.

0000048f <text_isFav>:
     48f:	41 6c 72 65 61 64 79 20 66 61 76 6f 75 72 69 74     Already favourit
     49f:	65 21 00                                            e!.

000004a2 <text_chanNlist>:
     4a2:	43 68 61 6e 6e 65 6c 20 6e 6f 74 20 69 6e 20 6c     Channel not in l
     4b2:	69 73 74 21 00                                      ist!.

000004b7 <text_favNset>:
     4b7:	46 61 76 6f 75 72 69 74 65 20 6e 6f 74 20 73 65     Favourite not se
     4c7:	74 21 00                                            t!.

000004ca <text_bandLimit>:
     4ca:	42 61 6e 64 20 6c 69 6d 69 74 20 72 65 61 63 68     Band limit reach
     4da:	65 64 21 00                                         ed!.

000004de <text_dbErr>:
     4de:	44 42 20 65 72 72 6f 72 21 00                       DB error!.

000004e8 <text_dbFull>:
     4e8:	44 42 20 66 75 6c 6c 21 00                          DB full!.

000004f1 <text_favsFull>:
     4f1:	46 61 76 6f 75 72 69 74 65 73 20 66 75 6c 6c 21     Favourites full!
	...

00000502 <text_listFull>:
     502:	43 68 61 6e 6e 65 6c 20 6c 69 73 74 20 66 75 6c     Channel list ful
     512:	6c 21 00                                            l!.

00000515 <text_chanInval>:
     515:	49 6e 76 61 6c 69 64 20 63 68 61 6e 6e 65 6c 21     Invalid channel!
	...

00000526 <text_FMClickInitFail>:
     526:	46 4d 43 6c 69 63 6b 20 69 6e 69 74 20 66 61 69     FMClick init fai
     536:	6c 65 64 21 00                                      led!.

0000053b <text_unknownError>:
     53b:	55 6e 6b 6e 6f 77 6e 20 65 72 72 6f 72 21 00        Unknown error!.

0000054a <text_error>:
     54a:	45 72 72 6f 72 3a 00                                Error:.

00000551 <text_init>:
     551:	49 6e 69 74 69 61 6c 69 7a 69 6e 67 2e 2e 2e 00     Initializing....

00000561 <text_noRDS>:
     561:	4e 6f 20 52 44 53 20 64 61 74 61 21 00              No RDS data!.

0000056e <text_emptyLine>:
     56e:	20 20 20 20 20 20 20 20 20 20 20 20 20 20 20 20                     
     57e:	20 20 20 20 20 00                                        .

00000584 <text_emptyTime>:
     584:	20 20 20 20 20 00                                        .

0000058a <text_emptyName>:
     58a:	20 20 20 20 20 20 20 20 00                                  .

00000593 <text_volume>:
     593:	56 6f 6c 75 6d 65 3a 00                             Volume:.

0000059b <text_MHz>:
     59b:	4d 48 7a 00                                         MHz.

0000059f <text_noteInput>:
     59f:	45 6e 74 65 72 20 4e 6f 74 65 3a 00                 Enter Note:.

000005ab <text_channelInput>:
     5ab:	45 6e 74 65 72 20 43 68 61 6e 6e 65 6c 3a 00        Enter Channel:.

000005ba <__ctors_end>:
     5ba:	11 24       	eor	r1, r1
     5bc:	1f be       	out	0x3f, r1	; 63
     5be:	cf ef       	ldi	r28, 0xFF	; 255
     5c0:	d1 e2       	ldi	r29, 0x21	; 33
     5c2:	de bf       	out	0x3e, r29	; 62
     5c4:	cd bf       	out	0x3d, r28	; 61

000005c6 <__do_copy_data>:
     5c6:	12 e0       	ldi	r17, 0x02	; 2
     5c8:	a0 e0       	ldi	r26, 0x00	; 0
     5ca:	b2 e0       	ldi	r27, 0x02	; 2
     5cc:	e4 ed       	ldi	r30, 0xD4	; 212
     5ce:	f1 e6       	ldi	r31, 0x61	; 97
     5d0:	00 e0       	ldi	r16, 0x00	; 0
     5d2:	0b bf       	out	0x3b, r16	; 59
     5d4:	02 c0       	rjmp	.+4      	; 0x5da <__do_copy_data+0x14>
     5d6:	07 90       	elpm	r0, Z+
     5d8:	0d 92       	st	X+, r0
     5da:	ae 38       	cpi	r26, 0x8E	; 142
     5dc:	b1 07       	cpc	r27, r17
     5de:	d9 f7       	brne	.-10     	; 0x5d6 <__do_copy_data+0x10>

000005e0 <__do_clear_bss>:
     5e0:	12 e1       	ldi	r17, 0x12	; 18
     5e2:	ae e8       	ldi	r26, 0x8E	; 142
     5e4:	b2 e0       	ldi	r27, 0x02	; 2
     5e6:	01 c0       	rjmp	.+2      	; 0x5ea <.do_clear_bss_start>

000005e8 <.do_clear_bss_loop>:
     5e8:	1d 92       	st	X+, r1

000005ea <.do_clear_bss_start>:
     5ea:	ac 3f       	cpi	r26, 0xFC	; 252
     5ec:	b1 07       	cpc	r27, r17
     5ee:	e1 f7       	brne	.-8      	; 0x5e8 <.do_clear_bss_loop>
     5f0:	0e 94 0e 28 	call	0x501c	; 0x501c <main>
     5f4:	0c 94 e8 30 	jmp	0x61d0	; 0x61d0 <_exit>

000005f8 <__bad_interrupt>:
     5f8:	0c 94 00 00 	jmp	0	; 0x0 <__vectors>

000005fc <HplAtm128I2CBusP__I2C__sendCommand>:
     5fc:	80 91 e5 11 	lds	r24, 0x11E5
     600:	80 93 bc 00 	sts	0x00BC, r24
     604:	08 95       	ret

00000606 <HplAtm128InterruptPinP__3__Irq__enable>:
     606:	eb 9a       	sbi	0x1d, 3	; 29
     608:	08 95       	ret

0000060a <HplAtm128GeneralIOPinP__8__IO__set>:
     60a:	28 9a       	sbi	0x05, 0	; 5
     60c:	08 95       	ret

0000060e <HplAtm128GeneralIOPinP__8__IO__clr>:
     60e:	28 98       	cbi	0x05, 0	; 5
     610:	08 95       	ret

00000612 <HplAtm128GeneralIOPinP__38__IO__clr>:
     612:	76 98       	cbi	0x0e, 6	; 14
     614:	08 95       	ret

00000616 <HplAtm128GeneralIOPinP__38__IO__set>:
     616:	76 9a       	sbi	0x0e, 6	; 14
     618:	08 95       	ret

0000061a <SchedulerBasicP__popTask>:
     61a:	80 91 6f 12 	lds	r24, 0x126F
     61e:	8f 3f       	cpi	r24, 0xFF	; 255
     620:	69 f0       	breq	.+26     	; 0x63c <SchedulerBasicP__popTask+0x22>
     622:	e8 2f       	mov	r30, r24
     624:	f0 e0       	ldi	r31, 0x00	; 0
     626:	e9 59       	subi	r30, 0x99	; 153
     628:	f3 4f       	sbci	r31, 0xF3	; 243
     62a:	90 81       	ld	r25, Z
     62c:	90 93 6f 12 	sts	0x126F, r25
     630:	9f 3f       	cpi	r25, 0xFF	; 255
     632:	11 f4       	brne	.+4      	; 0x638 <SchedulerBasicP__popTask+0x1e>
     634:	90 93 ce 12 	sts	0x12CE, r25
     638:	9f ef       	ldi	r25, 0xFF	; 255
     63a:	90 83       	st	Z, r25
     63c:	08 95       	ret

0000063e <SchedulerBasicP__TaskBasic__postTask>:
     63e:	9f b7       	in	r25, 0x3f	; 63
     640:	f8 94       	cli
     642:	e8 2f       	mov	r30, r24
     644:	f0 e0       	ldi	r31, 0x00	; 0
     646:	e9 59       	subi	r30, 0x99	; 153
     648:	f3 4f       	sbci	r31, 0xF3	; 243
     64a:	20 81       	ld	r18, Z
     64c:	2f 3f       	cpi	r18, 0xFF	; 255
     64e:	99 f4       	brne	.+38     	; 0x676 <SchedulerBasicP__TaskBasic__postTask+0x38>
     650:	e0 91 ce 12 	lds	r30, 0x12CE
     654:	e8 17       	cp	r30, r24
     656:	79 f0       	breq	.+30     	; 0x676 <SchedulerBasicP__TaskBasic__postTask+0x38>
     658:	20 91 6f 12 	lds	r18, 0x126F
     65c:	2f 3f       	cpi	r18, 0xFF	; 255
     65e:	19 f4       	brne	.+6      	; 0x666 <SchedulerBasicP__TaskBasic__postTask+0x28>
     660:	80 93 6f 12 	sts	0x126F, r24
     664:	04 c0       	rjmp	.+8      	; 0x66e <SchedulerBasicP__TaskBasic__postTask+0x30>
     666:	f0 e0       	ldi	r31, 0x00	; 0
     668:	e9 59       	subi	r30, 0x99	; 153
     66a:	f3 4f       	sbci	r31, 0xF3	; 243
     66c:	80 83       	st	Z, r24
     66e:	80 93 ce 12 	sts	0x12CE, r24
     672:	80 e0       	ldi	r24, 0x00	; 0
     674:	01 c0       	rjmp	.+2      	; 0x678 <SchedulerBasicP__TaskBasic__postTask+0x3a>
     676:	85 e0       	ldi	r24, 0x05	; 5
     678:	9f bf       	out	0x3f, r25	; 63
     67a:	08 95       	ret

0000067c <RadioScannerP__displaySoftError__postTask>:
     67c:	8b e0       	ldi	r24, 0x0B	; 11
     67e:	0c 94 1f 03 	jmp	0x63e	; 0x63e <SchedulerBasicP__TaskBasic__postTask>

00000682 <RadioScannerP__startTune__postTask>:
     682:	88 e0       	ldi	r24, 0x08	; 8
     684:	0c 94 1f 03 	jmp	0x63e	; 0x63e <SchedulerBasicP__TaskBasic__postTask>

00000688 <DatabaseP__sendTask__postTask>:
     688:	8d e0       	ldi	r24, 0x0D	; 13
     68a:	0c 94 1f 03 	jmp	0x63e	; 0x63e <SchedulerBasicP__TaskBasic__postTask>

0000068e <FMClickP__writeRegisters__postTask>:
     68e:	80 e2       	ldi	r24, 0x20	; 32
     690:	0c 94 1f 03 	jmp	0x63e	; 0x63e <SchedulerBasicP__TaskBasic__postTask>

00000694 <FMClickP__seek__postTask>:
     694:	8c e1       	ldi	r24, 0x1C	; 28
     696:	0c 94 1f 03 	jmp	0x63e	; 0x63e <SchedulerBasicP__TaskBasic__postTask>

0000069a <FMClickP__tune__postTask>:
     69a:	8b e1       	ldi	r24, 0x1B	; 27
     69c:	0c 94 1f 03 	jmp	0x63e	; 0x63e <SchedulerBasicP__TaskBasic__postTask>

000006a0 <RadioScannerP__displayChannelInfo__postTask>:
     6a0:	82 e0       	ldi	r24, 0x02	; 2
     6a2:	0c 94 1f 03 	jmp	0x63e	; 0x63e <SchedulerBasicP__TaskBasic__postTask>

000006a6 <FMClickP__readRegisters__postTask>:
     6a6:	8e e1       	ldi	r24, 0x1E	; 30
     6a8:	0c 94 1f 03 	jmp	0x63e	; 0x63e <SchedulerBasicP__TaskBasic__postTask>

000006ac <HplAtm1280AdcP__HplAtm1280Adc__getAdmux>:
     6ac:	ec e7       	ldi	r30, 0x7C	; 124
     6ae:	f0 e0       	ldi	r31, 0x00	; 0
     6b0:	20 81       	ld	r18, Z
     6b2:	80 91 7b 00 	lds	r24, 0x007B
     6b6:	30 81       	ld	r19, Z
     6b8:	90 81       	ld	r25, Z
     6ba:	88 70       	andi	r24, 0x08	; 8
     6bc:	88 0f       	add	r24, r24
     6be:	88 0f       	add	r24, r24
     6c0:	2f 71       	andi	r18, 0x1F	; 31
     6c2:	82 2b       	or	r24, r18
     6c4:	35 fb       	bst	r19, 5
     6c6:	22 27       	eor	r18, r18
     6c8:	20 f9       	bld	r18, 0
     6ca:	20 fb       	bst	r18, 0
     6cc:	86 f9       	bld	r24, 6
     6ce:	92 95       	swap	r25
     6d0:	96 95       	lsr	r25
     6d2:	96 95       	lsr	r25
     6d4:	93 70       	andi	r25, 0x03	; 3
     6d6:	29 2f       	mov	r18, r25
     6d8:	27 95       	ror	r18
     6da:	22 27       	eor	r18, r18
     6dc:	27 95       	ror	r18
     6de:	82 2b       	or	r24, r18
     6e0:	96 95       	lsr	r25
     6e2:	08 95       	ret

000006e4 <HplAtm128I2CBusP__I2C__readCurrent>:
     6e4:	8f b7       	in	r24, 0x3f	; 63
     6e6:	f8 94       	cli
     6e8:	90 91 bc 00 	lds	r25, 0x00BC
     6ec:	90 93 e5 11 	sts	0x11E5, r25
     6f0:	8f bf       	out	0x3f, r24	; 63
     6f2:	08 95       	ret

000006f4 <Atm1280AlarmSyncP__0__Counter__get>:
     6f4:	2f b7       	in	r18, 0x3f	; 63
     6f6:	f8 94       	cli
     6f8:	60 91 c7 0e 	lds	r22, 0x0EC7
     6fc:	70 91 c8 0e 	lds	r23, 0x0EC8
     700:	80 91 c9 0e 	lds	r24, 0x0EC9
     704:	90 91 ca 0e 	lds	r25, 0x0ECA
     708:	2f bf       	out	0x3f, r18	; 63
     70a:	08 95       	ret

0000070c <VirtualizeTimerC__0__Timer__startOneShot>:
     70c:	cf 92       	push	r12
     70e:	df 92       	push	r13
     710:	ef 92       	push	r14
     712:	ff 92       	push	r15
     714:	cf 93       	push	r28
     716:	c8 2f       	mov	r28, r24
     718:	6a 01       	movw	r12, r20
     71a:	7b 01       	movw	r14, r22
     71c:	0e 94 7a 03 	call	0x6f4	; 0x6f4 <Atm1280AlarmSyncP__0__Counter__get>
     720:	29 e0       	ldi	r18, 0x09	; 9
     722:	c2 9f       	mul	r28, r18
     724:	f0 01       	movw	r30, r0
     726:	11 24       	eor	r1, r1
     728:	df 01       	movw	r26, r30
     72a:	aa 55       	subi	r26, 0x5A	; 90
     72c:	be 4e       	sbci	r27, 0xEE	; 238
     72e:	6d 93       	st	X+, r22
     730:	7d 93       	st	X+, r23
     732:	8d 93       	st	X+, r24
     734:	9c 93       	st	X, r25
     736:	13 97       	sbiw	r26, 0x03	; 3
     738:	14 96       	adiw	r26, 0x04	; 4
     73a:	cd 92       	st	X+, r12
     73c:	dd 92       	st	X+, r13
     73e:	ed 92       	st	X+, r14
     740:	fc 92       	st	X, r15
     742:	17 97       	sbiw	r26, 0x07	; 7
     744:	e2 55       	subi	r30, 0x52	; 82
     746:	fe 4e       	sbci	r31, 0xEE	; 238
     748:	80 81       	ld	r24, Z
     74a:	81 60       	ori	r24, 0x01	; 1
     74c:	82 60       	ori	r24, 0x02	; 2
     74e:	80 83       	st	Z, r24
     750:	82 e1       	ldi	r24, 0x12	; 18
     752:	cf 91       	pop	r28
     754:	ff 90       	pop	r15
     756:	ef 90       	pop	r14
     758:	df 90       	pop	r13
     75a:	cf 90       	pop	r12
     75c:	0c 94 1f 03 	jmp	0x63e	; 0x63e <SchedulerBasicP__TaskBasic__postTask>

00000760 <Atm1280SpiP__SpiByte__write>:
     760:	8e bd       	out	0x2e, r24	; 46
     762:	0d b4       	in	r0, 0x2d	; 45
     764:	07 fe       	sbrs	r0, 7
     766:	fd cf       	rjmp	.-6      	; 0x762 <Atm1280SpiP__SpiByte__write+0x2>
     768:	8e b5       	in	r24, 0x2e	; 46
     76a:	08 95       	ret

0000076c <Enc28j60P__SpiByte__write>:
     76c:	0c 94 b0 03 	jmp	0x760	; 0x760 <Atm1280SpiP__SpiByte__write>

00000770 <Enc28j60P__writeSPI>:
     770:	cf 93       	push	r28
     772:	df 93       	push	r29
     774:	00 d0       	rcall	.+0      	; 0x776 <Enc28j60P__writeSPI+0x6>
     776:	cd b7       	in	r28, 0x3d	; 61
     778:	de b7       	in	r29, 0x3e	; 62
     77a:	6a 83       	std	Y+2, r22	; 0x02
     77c:	89 83       	std	Y+1, r24	; 0x01
     77e:	0e 94 07 03 	call	0x60e	; 0x60e <HplAtm128GeneralIOPinP__8__IO__clr>
     782:	89 81       	ldd	r24, Y+1	; 0x01
     784:	0e 94 b6 03 	call	0x76c	; 0x76c <Enc28j60P__SpiByte__write>
     788:	6a 81       	ldd	r22, Y+2	; 0x02
     78a:	86 2f       	mov	r24, r22
     78c:	0e 94 b6 03 	call	0x76c	; 0x76c <Enc28j60P__SpiByte__write>
     790:	0f 90       	pop	r0
     792:	0f 90       	pop	r0
     794:	df 91       	pop	r29
     796:	cf 91       	pop	r28
     798:	0c 94 05 03 	jmp	0x60a	; 0x60a <HplAtm128GeneralIOPinP__8__IO__set>

0000079c <Enc28j60P__readSPI>:
     79c:	cf 93       	push	r28
     79e:	df 93       	push	r29
     7a0:	1f 92       	push	r1
     7a2:	cd b7       	in	r28, 0x3d	; 61
     7a4:	de b7       	in	r29, 0x3e	; 62
     7a6:	89 83       	std	Y+1, r24	; 0x01
     7a8:	0e 94 07 03 	call	0x60e	; 0x60e <HplAtm128GeneralIOPinP__8__IO__clr>
     7ac:	89 81       	ldd	r24, Y+1	; 0x01
     7ae:	0e 94 b6 03 	call	0x76c	; 0x76c <Enc28j60P__SpiByte__write>
     7b2:	80 e0       	ldi	r24, 0x00	; 0
     7b4:	0e 94 b0 03 	call	0x760	; 0x760 <Atm1280SpiP__SpiByte__write>
     7b8:	89 83       	std	Y+1, r24	; 0x01
     7ba:	0e 94 05 03 	call	0x60a	; 0x60a <HplAtm128GeneralIOPinP__8__IO__set>
     7be:	89 81       	ldd	r24, Y+1	; 0x01
     7c0:	0f 90       	pop	r0
     7c2:	df 91       	pop	r29
     7c4:	cf 91       	pop	r28
     7c6:	08 95       	ret

000007c8 <Enc28j60P__setBit>:
     7c8:	cf 93       	push	r28
     7ca:	df 93       	push	r29
     7cc:	00 d0       	rcall	.+0      	; 0x7ce <Enc28j60P__setBit+0x6>
     7ce:	cd b7       	in	r28, 0x3d	; 61
     7d0:	de b7       	in	r29, 0x3e	; 62
     7d2:	6a 83       	std	Y+2, r22	; 0x02
     7d4:	89 83       	std	Y+1, r24	; 0x01
     7d6:	0e 94 07 03 	call	0x60e	; 0x60e <HplAtm128GeneralIOPinP__8__IO__clr>
     7da:	89 81       	ldd	r24, Y+1	; 0x01
     7dc:	80 68       	ori	r24, 0x80	; 128
     7de:	0e 94 b6 03 	call	0x76c	; 0x76c <Enc28j60P__SpiByte__write>
     7e2:	6a 81       	ldd	r22, Y+2	; 0x02
     7e4:	86 2f       	mov	r24, r22
     7e6:	0e 94 b6 03 	call	0x76c	; 0x76c <Enc28j60P__SpiByte__write>
     7ea:	0f 90       	pop	r0
     7ec:	0f 90       	pop	r0
     7ee:	df 91       	pop	r29
     7f0:	cf 91       	pop	r28
     7f2:	0c 94 05 03 	jmp	0x60a	; 0x60a <HplAtm128GeneralIOPinP__8__IO__set>

000007f6 <ArpP__send_packet>:
     7f6:	8f 92       	push	r8
     7f8:	9f 92       	push	r9
     7fa:	af 92       	push	r10
     7fc:	bf 92       	push	r11
     7fe:	cf 92       	push	r12
     800:	df 92       	push	r13
     802:	ef 92       	push	r14
     804:	ff 92       	push	r15
     806:	0f 93       	push	r16
     808:	1f 93       	push	r17
     80a:	cf 93       	push	r28
     80c:	df 93       	push	r29
     80e:	2f ef       	ldi	r18, 0xFF	; 255
     810:	28 0f       	add	r18, r24
     812:	9d e1       	ldi	r25, 0x1D	; 29
     814:	29 9f       	mul	r18, r25
     816:	90 01       	movw	r18, r0
     818:	11 24       	eor	r1, r1
     81a:	89 01       	movw	r16, r18
     81c:	0b 5d       	subi	r16, 0xDB	; 219
     81e:	1d 4e       	sbci	r17, 0xED	; 237
     820:	f8 01       	movw	r30, r16
     822:	90 81       	ld	r25, Z
     824:	91 11       	cpse	r25, r1
     826:	40 c0       	rjmp	.+128    	; 0x8a8 <ArpP__send_packet+0xb2>
     828:	e9 01       	movw	r28, r18
     82a:	ca 5d       	subi	r28, 0xDA	; 218
     82c:	dd 4e       	sbci	r29, 0xED	; 237
     82e:	20 97       	sbiw	r28, 0x00	; 0
     830:	d9 f1       	breq	.+118    	; 0x8a8 <ArpP__send_packet+0xb2>
     832:	7a 01       	movw	r14, r20
     834:	51 e0       	ldi	r21, 0x01	; 1
     836:	59 83       	std	Y+1, r21	; 0x01
     838:	18 82       	st	Y, r1
     83a:	1b 82       	std	Y+3, r1	; 0x03
     83c:	98 e0       	ldi	r25, 0x08	; 8
     83e:	9a 83       	std	Y+2, r25	; 0x02
     840:	96 e0       	ldi	r25, 0x06	; 6
     842:	9c 83       	std	Y+4, r25	; 0x04
     844:	44 e0       	ldi	r20, 0x04	; 4
     846:	4d 83       	std	Y+5, r20	; 0x05
     848:	80 90 24 02 	lds	r8, 0x0224
     84c:	90 90 25 02 	lds	r9, 0x0225
     850:	a0 90 26 02 	lds	r10, 0x0226
     854:	b0 90 27 02 	lds	r11, 0x0227
     858:	87 86       	std	Z+15, r8	; 0x0f
     85a:	90 8a       	std	Z+16, r9	; 0x10
     85c:	a1 8a       	std	Z+17, r10	; 0x11
     85e:	b2 8a       	std	Z+18, r11	; 0x12
     860:	d9 01       	movw	r26, r18
     862:	a2 5d       	subi	r26, 0xD2	; 210
     864:	bd 4e       	sbci	r27, 0xED	; 237
     866:	e6 e1       	ldi	r30, 0x16	; 22
     868:	f2 e0       	ldi	r31, 0x02	; 2
     86a:	49 2f       	mov	r20, r25
     86c:	01 90       	ld	r0, Z+
     86e:	0d 92       	st	X+, r0
     870:	4a 95       	dec	r20
     872:	e1 f7       	brne	.-8      	; 0x86c <ArpP__send_packet+0x76>
     874:	d9 01       	movw	r26, r18
     876:	a8 5c       	subi	r26, 0xC8	; 200
     878:	bd 4e       	sbci	r27, 0xED	; 237
     87a:	fb 01       	movw	r30, r22
     87c:	01 90       	ld	r0, Z+
     87e:	0d 92       	st	X+, r0
     880:	9a 95       	dec	r25
     882:	e1 f7       	brne	.-8      	; 0x87c <ArpP__send_packet+0x86>
     884:	f7 01       	movw	r30, r14
     886:	c0 80       	ld	r12, Z
     888:	d1 80       	ldd	r13, Z+1	; 0x01
     88a:	e2 80       	ldd	r14, Z+2	; 0x02
     88c:	f3 80       	ldd	r15, Z+3	; 0x03
     88e:	f8 01       	movw	r30, r16
     890:	c1 8e       	std	Z+25, r12	; 0x19
     892:	d2 8e       	std	Z+26, r13	; 0x1a
     894:	e3 8e       	std	Z+27, r14	; 0x1b
     896:	f4 8e       	std	Z+28, r15	; 0x1c
     898:	8f 83       	std	Y+7, r24	; 0x07
     89a:	1e 82       	std	Y+6, r1	; 0x06
     89c:	50 83       	st	Z, r21
     89e:	83 e1       	ldi	r24, 0x13	; 19
     8a0:	0e 94 1f 03 	call	0x63e	; 0x63e <SchedulerBasicP__TaskBasic__postTask>
     8a4:	80 e0       	ldi	r24, 0x00	; 0
     8a6:	01 c0       	rjmp	.+2      	; 0x8aa <ArpP__send_packet+0xb4>
     8a8:	85 e0       	ldi	r24, 0x05	; 5
     8aa:	df 91       	pop	r29
     8ac:	cf 91       	pop	r28
     8ae:	1f 91       	pop	r17
     8b0:	0f 91       	pop	r16
     8b2:	ff 90       	pop	r15
     8b4:	ef 90       	pop	r14
     8b6:	df 90       	pop	r13
     8b8:	cf 90       	pop	r12
     8ba:	bf 90       	pop	r11
     8bc:	af 90       	pop	r10
     8be:	9f 90       	pop	r9
     8c0:	8f 90       	pop	r8
     8c2:	08 95       	ret

000008c4 <Atm1280AlarmSyncP__0__checkAlarm>:
     8c4:	2f b7       	in	r18, 0x3f	; 63
     8c6:	f8 94       	cli
     8c8:	80 91 d5 07 	lds	r24, 0x07D5
     8cc:	88 23       	and	r24, r24
     8ce:	09 f1       	breq	.+66     	; 0x912 <Atm1280AlarmSyncP__0__checkAlarm+0x4e>
     8d0:	40 91 e9 11 	lds	r20, 0x11E9
     8d4:	50 91 ea 11 	lds	r21, 0x11EA
     8d8:	60 91 eb 11 	lds	r22, 0x11EB
     8dc:	70 91 ec 11 	lds	r23, 0x11EC
     8e0:	80 91 8f 0c 	lds	r24, 0x0C8F
     8e4:	90 91 90 0c 	lds	r25, 0x0C90
     8e8:	a0 91 91 0c 	lds	r26, 0x0C91
     8ec:	b0 91 92 0c 	lds	r27, 0x0C92
     8f0:	84 0f       	add	r24, r20
     8f2:	95 1f       	adc	r25, r21
     8f4:	a6 1f       	adc	r26, r22
     8f6:	b7 1f       	adc	r27, r23
     8f8:	40 91 c7 0e 	lds	r20, 0x0EC7
     8fc:	50 91 c8 0e 	lds	r21, 0x0EC8
     900:	60 91 c9 0e 	lds	r22, 0x0EC9
     904:	70 91 ca 0e 	lds	r23, 0x0ECA
     908:	48 17       	cp	r20, r24
     90a:	59 07       	cpc	r21, r25
     90c:	6a 07       	cpc	r22, r26
     90e:	7b 07       	cpc	r23, r27
     910:	11 f0       	breq	.+4      	; 0x916 <Atm1280AlarmSyncP__0__checkAlarm+0x52>
     912:	2f bf       	out	0x3f, r18	; 63
     914:	08 95       	ret
     916:	10 92 d5 07 	sts	0x07D5, r1
     91a:	2f bf       	out	0x3f, r18	; 63
     91c:	81 e1       	ldi	r24, 0x11	; 17
     91e:	0c 94 1f 03 	jmp	0x63e	; 0x63e <SchedulerBasicP__TaskBasic__postTask>

00000922 <RadioScannerP__getListId>:
     922:	bc 01       	movw	r22, r24
     924:	40 91 d2 03 	lds	r20, 0x03D2
     928:	22 ed       	ldi	r18, 0xD2	; 210
     92a:	33 e0       	ldi	r19, 0x03	; 3
     92c:	90 e0       	ldi	r25, 0x00	; 0
     92e:	94 17       	cp	r25, r20
     930:	61 f0       	breq	.+24     	; 0x94a <RadioScannerP__getListId+0x28>
     932:	25 5c       	subi	r18, 0xC5	; 197
     934:	3f 4f       	sbci	r19, 0xFF	; 255
     936:	f9 01       	movw	r30, r18
     938:	f9 97       	sbiw	r30, 0x39	; 57
     93a:	01 90       	ld	r0, Z+
     93c:	f0 81       	ld	r31, Z
     93e:	e0 2d       	mov	r30, r0
     940:	e6 17       	cp	r30, r22
     942:	f7 07       	cpc	r31, r23
     944:	21 f0       	breq	.+8      	; 0x94e <RadioScannerP__getListId+0x2c>
     946:	9f 5f       	subi	r25, 0xFF	; 255
     948:	f2 cf       	rjmp	.-28     	; 0x92e <RadioScannerP__getListId+0xc>
     94a:	8f ef       	ldi	r24, 0xFF	; 255
     94c:	08 95       	ret
     94e:	89 2f       	mov	r24, r25
     950:	08 95       	ret

00000952 <RadioScannerP__removeIllegalChars>:
     952:	28 2f       	mov	r18, r24
     954:	fc 01       	movw	r30, r24
     956:	90 e2       	ldi	r25, 0x20	; 32
     958:	8e 2f       	mov	r24, r30
     95a:	82 1b       	sub	r24, r18
     95c:	86 17       	cp	r24, r22
     95e:	40 f4       	brcc	.+16     	; 0x970 <RadioScannerP__removeIllegalChars+0x1e>
     960:	80 81       	ld	r24, Z
     962:	8a 30       	cpi	r24, 0x0A	; 10
     964:	11 f0       	breq	.+4      	; 0x96a <RadioScannerP__removeIllegalChars+0x18>
     966:	8d 30       	cpi	r24, 0x0D	; 13
     968:	09 f4       	brne	.+2      	; 0x96c <RadioScannerP__removeIllegalChars+0x1a>
     96a:	90 83       	st	Z, r25
     96c:	31 96       	adiw	r30, 0x01	; 1
     96e:	f4 cf       	rjmp	.-24     	; 0x958 <RadioScannerP__removeIllegalChars+0x6>
     970:	08 95       	ret

00000972 <FMClickP__FMClick__seek>:
     972:	2f b7       	in	r18, 0x3f	; 63
     974:	f8 94       	cli
     976:	90 91 68 12 	lds	r25, 0x1268
     97a:	2f bf       	out	0x3f, r18	; 63
     97c:	91 11       	cpse	r25, r1
     97e:	0e c0       	rjmp	.+28     	; 0x99c <FMClickP__FMClick__seek+0x2a>
     980:	9f b7       	in	r25, 0x3f	; 63
     982:	f8 94       	cli
     984:	23 e0       	ldi	r18, 0x03	; 3
     986:	20 93 68 12 	sts	0x1268, r18
     98a:	10 92 6c 12 	sts	0x126C, r1
     98e:	80 93 cf 0e 	sts	0x0ECF, r24
     992:	9f bf       	out	0x3f, r25	; 63
     994:	0e 94 4a 03 	call	0x694	; 0x694 <FMClickP__seek__postTask>
     998:	80 e0       	ldi	r24, 0x00	; 0
     99a:	08 95       	ret
     99c:	81 e0       	ldi	r24, 0x01	; 1
     99e:	08 95       	ret

000009a0 <BufferedLcdP__0__BufferedLcd__write>:
     9a0:	dc 01       	movw	r26, r24
     9a2:	81 e0       	ldi	r24, 0x01	; 1
     9a4:	4d 91       	ld	r20, X+
     9a6:	44 23       	and	r20, r20
     9a8:	11 f1       	breq	.+68     	; 0x9ee <BufferedLcdP__0__BufferedLcd__write+0x4e>
     9aa:	20 91 72 12 	lds	r18, 0x1272
     9ae:	30 e0       	ldi	r19, 0x00	; 0
     9b0:	90 91 e6 11 	lds	r25, 0x11E6
     9b4:	f9 01       	movw	r30, r18
     9b6:	54 e0       	ldi	r21, 0x04	; 4
     9b8:	ee 0f       	add	r30, r30
     9ba:	ff 1f       	adc	r31, r31
     9bc:	5a 95       	dec	r21
     9be:	e1 f7       	brne	.-8      	; 0x9b8 <BufferedLcdP__0__BufferedLcd__write+0x18>
     9c0:	e9 0f       	add	r30, r25
     9c2:	f1 1d       	adc	r31, r1
     9c4:	e0 59       	subi	r30, 0x90	; 144
     9c6:	f0 4f       	sbci	r31, 0xF0	; 240
     9c8:	40 83       	st	Z, r20
     9ca:	9f 5f       	subi	r25, 0xFF	; 255
     9cc:	90 93 e6 11 	sts	0x11E6, r25
     9d0:	f9 01       	movw	r30, r18
     9d2:	ee 52       	subi	r30, 0x2E	; 46
     9d4:	f1 4f       	sbci	r31, 0xF1	; 241
     9d6:	80 83       	st	Z, r24
     9d8:	90 31       	cpi	r25, 0x10	; 16
     9da:	21 f7       	brne	.-56     	; 0x9a4 <BufferedLcdP__0__BufferedLcd__write+0x4>
     9dc:	10 92 e6 11 	sts	0x11E6, r1
     9e0:	2f 5f       	subi	r18, 0xFF	; 255
     9e2:	3f 4f       	sbci	r19, 0xFF	; 255
     9e4:	21 70       	andi	r18, 0x01	; 1
     9e6:	33 27       	eor	r19, r19
     9e8:	20 93 72 12 	sts	0x1272, r18
     9ec:	db cf       	rjmp	.-74     	; 0x9a4 <BufferedLcdP__0__BufferedLcd__write+0x4>
     9ee:	08 95       	ret

000009f0 <RadioScannerP__Keyboard__receivedChar>:
     9f0:	90 91 d3 07 	lds	r25, 0x07D3
     9f4:	80 93 d2 07 	sts	0x07D2, r24
     9f8:	92 30       	cpi	r25, 0x02	; 2
     9fa:	31 f0       	breq	.+12     	; 0xa08 <RadioScannerP__Keyboard__receivedChar+0x18>
     9fc:	98 30       	cpi	r25, 0x08	; 8
     9fe:	31 f0       	breq	.+12     	; 0xa0c <RadioScannerP__Keyboard__receivedChar+0x1c>
     a00:	91 30       	cpi	r25, 0x01	; 1
     a02:	39 f4       	brne	.+14     	; 0xa12 <RadioScannerP__Keyboard__receivedChar+0x22>
     a04:	8c e0       	ldi	r24, 0x0C	; 12
     a06:	03 c0       	rjmp	.+6      	; 0xa0e <RadioScannerP__Keyboard__receivedChar+0x1e>
     a08:	80 e0       	ldi	r24, 0x00	; 0
     a0a:	01 c0       	rjmp	.+2      	; 0xa0e <RadioScannerP__Keyboard__receivedChar+0x1e>
     a0c:	81 e0       	ldi	r24, 0x01	; 1
     a0e:	0c 94 1f 03 	jmp	0x63e	; 0x63e <SchedulerBasicP__TaskBasic__postTask>
     a12:	08 95       	ret

00000a14 <RadioScannerP__clearRDSData>:
     a14:	8f b7       	in	r24, 0x3f	; 63
     a16:	f8 94       	cli
     a18:	e2 e7       	ldi	r30, 0x72	; 114
     a1a:	f7 e0       	ldi	r31, 0x07	; 7
     a1c:	10 82       	st	Z, r1
     a1e:	11 82       	std	Z+1, r1	; 0x01
     a20:	12 82       	std	Z+2, r1	; 0x02
     a22:	13 82       	std	Z+3, r1	; 0x03
     a24:	8f bf       	out	0x3f, r24	; 63
     a26:	89 e0       	ldi	r24, 0x09	; 9
     a28:	e8 e7       	ldi	r30, 0x78	; 120
     a2a:	f7 e0       	ldi	r31, 0x07	; 7
     a2c:	df 01       	movw	r26, r30
     a2e:	1d 92       	st	X+, r1
     a30:	8a 95       	dec	r24
     a32:	e9 f7       	brne	.-6      	; 0xa2e <RadioScannerP__clearRDSData+0x1a>
     a34:	81 e4       	ldi	r24, 0x41	; 65
     a36:	e1 e8       	ldi	r30, 0x81	; 129
     a38:	f7 e0       	ldi	r31, 0x07	; 7
     a3a:	df 01       	movw	r26, r30
     a3c:	1d 92       	st	X+, r1
     a3e:	8a 95       	dec	r24
     a40:	e9 f7       	brne	.-6      	; 0xa3c <RadioScannerP__clearRDSData+0x28>
     a42:	86 e0       	ldi	r24, 0x06	; 6
     a44:	e2 ec       	ldi	r30, 0xC2	; 194
     a46:	f7 e0       	ldi	r31, 0x07	; 7
     a48:	df 01       	movw	r26, r30
     a4a:	1d 92       	st	X+, r1
     a4c:	8a 95       	dec	r24
     a4e:	e9 f7       	brne	.-6      	; 0xa4a <RadioScannerP__clearRDSData+0x36>
     a50:	08 95       	ret

00000a52 <RadioScannerP__Radio__seekComplete>:
     a52:	3f b7       	in	r19, 0x3f	; 63
     a54:	f8 94       	cli
     a56:	90 93 d1 07 	sts	0x07D1, r25
     a5a:	80 93 d0 07 	sts	0x07D0, r24
     a5e:	20 91 d3 07 	lds	r18, 0x07D3
     a62:	3f bf       	out	0x3f, r19	; 63
     a64:	24 30       	cpi	r18, 0x04	; 4
     a66:	d9 f0       	breq	.+54     	; 0xa9e <RadioScannerP__Radio__seekComplete+0x4c>
     a68:	25 30       	cpi	r18, 0x05	; 5
     a6a:	c9 f4       	brne	.+50     	; 0xa9e <RadioScannerP__Radio__seekComplete+0x4c>
     a6c:	89 33       	cpi	r24, 0x39	; 57
     a6e:	94 40       	sbci	r25, 0x04	; 4
     a70:	e0 f0       	brcs	.+56     	; 0xaaa <RadioScannerP__Radio__seekComplete+0x58>
     a72:	80 91 d2 03 	lds	r24, 0x03D2
     a76:	88 23       	and	r24, r24
     a78:	91 f0       	breq	.+36     	; 0xa9e <RadioScannerP__Radio__seekComplete+0x4c>
     a7a:	0e 94 0a 05 	call	0xa14	; 0xa14 <RadioScannerP__clearRDSData>
     a7e:	8f b7       	in	r24, 0x3f	; 63
     a80:	f8 94       	cli
     a82:	20 91 d4 03 	lds	r18, 0x03D4
     a86:	30 91 d5 03 	lds	r19, 0x03D5
     a8a:	30 93 cf 07 	sts	0x07CF, r19
     a8e:	20 93 ce 07 	sts	0x07CE, r18
     a92:	93 e0       	ldi	r25, 0x03	; 3
     a94:	90 93 d3 07 	sts	0x07D3, r25
     a98:	8f bf       	out	0x3f, r24	; 63
     a9a:	0c 94 41 03 	jmp	0x682	; 0x682 <RadioScannerP__startTune__postTask>
     a9e:	8f b7       	in	r24, 0x3f	; 63
     aa0:	f8 94       	cli
     aa2:	91 e0       	ldi	r25, 0x01	; 1
     aa4:	90 93 d3 07 	sts	0x07D3, r25
     aa8:	8f bf       	out	0x3f, r24	; 63
     aaa:	0c 94 50 03 	jmp	0x6a0	; 0x6a0 <RadioScannerP__displayChannelInfo__postTask>

00000aae <RadioScannerP__printVolume>:
     aae:	0f 93       	push	r16
     ab0:	1f 93       	push	r17
     ab2:	cf 93       	push	r28
     ab4:	df 93       	push	r29
     ab6:	00 d0       	rcall	.+0      	; 0xab8 <RadioScannerP__printVolume+0xa>
     ab8:	1f 92       	push	r1
     aba:	cd b7       	in	r28, 0x3d	; 61
     abc:	de b7       	in	r29, 0x3e	; 62
     abe:	80 91 c7 03 	lds	r24, 0x03C7
     ac2:	1f 92       	push	r1
     ac4:	8f 93       	push	r24
     ac6:	89 e8       	ldi	r24, 0x89	; 137
     ac8:	92 e0       	ldi	r25, 0x02	; 2
     aca:	9f 93       	push	r25
     acc:	8f 93       	push	r24
     ace:	8e 01       	movw	r16, r28
     ad0:	0f 5f       	subi	r16, 0xFF	; 255
     ad2:	1f 4f       	sbci	r17, 0xFF	; 255
     ad4:	1f 93       	push	r17
     ad6:	0f 93       	push	r16
     ad8:	0e 94 c2 2d 	call	0x5b84	; 0x5b84 <sprintf>
     adc:	1b 82       	std	Y+3, r1	; 0x03
     ade:	10 92 72 12 	sts	0x1272, r1
     ae2:	88 e0       	ldi	r24, 0x08	; 8
     ae4:	80 93 e6 11 	sts	0x11E6, r24
     ae8:	c8 01       	movw	r24, r16
     aea:	0e 94 d0 04 	call	0x9a0	; 0x9a0 <BufferedLcdP__0__BufferedLcd__write>
     aee:	87 e2       	ldi	r24, 0x27	; 39
     af0:	0e 94 1f 03 	call	0x63e	; 0x63e <SchedulerBasicP__TaskBasic__postTask>
     af4:	0f 90       	pop	r0
     af6:	0f 90       	pop	r0
     af8:	0f 90       	pop	r0
     afa:	0f 90       	pop	r0
     afc:	0f 90       	pop	r0
     afe:	0f 90       	pop	r0
     b00:	0f 90       	pop	r0
     b02:	0f 90       	pop	r0
     b04:	0f 90       	pop	r0
     b06:	df 91       	pop	r29
     b08:	cf 91       	pop	r28
     b0a:	1f 91       	pop	r17
     b0c:	0f 91       	pop	r16
     b0e:	08 95       	ret

00000b10 <DatabaseP__Database__saveChannel>:
     b10:	2f 92       	push	r2
     b12:	3f 92       	push	r3
     b14:	4f 92       	push	r4
     b16:	5f 92       	push	r5
     b18:	6f 92       	push	r6
     b1a:	7f 92       	push	r7
     b1c:	8f 92       	push	r8
     b1e:	9f 92       	push	r9
     b20:	af 92       	push	r10
     b22:	bf 92       	push	r11
     b24:	cf 92       	push	r12
     b26:	df 92       	push	r13
     b28:	ef 92       	push	r14
     b2a:	ff 92       	push	r15
     b2c:	0f 93       	push	r16
     b2e:	1f 93       	push	r17
     b30:	cf 93       	push	r28
     b32:	df 93       	push	r29
     b34:	cd b7       	in	r28, 0x3d	; 61
     b36:	de b7       	in	r29, 0x3e	; 62
     b38:	ad 97       	sbiw	r28, 0x2d	; 45
     b3a:	0f b6       	in	r0, 0x3f	; 63
     b3c:	f8 94       	cli
     b3e:	de bf       	out	0x3e, r29	; 62
     b40:	0f be       	out	0x3f, r0	; 63
     b42:	cd bf       	out	0x3d, r28	; 61
     b44:	2f b7       	in	r18, 0x3f	; 63
     b46:	f8 94       	cli
     b48:	90 91 c4 03 	lds	r25, 0x03C4
     b4c:	2f bf       	out	0x3f, r18	; 63
     b4e:	91 11       	cpse	r25, r1
     b50:	f3 c0       	rjmp	.+486    	; 0xd38 <DatabaseP__Database__saveChannel+0x228>
     b52:	8b 01       	movw	r16, r22
     b54:	8b a7       	std	Y+43, r24	; 0x2b
     b56:	8f b7       	in	r24, 0x3f	; 63
     b58:	f8 94       	cli
     b5a:	92 e0       	ldi	r25, 0x02	; 2
     b5c:	90 93 c4 03 	sts	0x03C4, r25
     b60:	8f bf       	out	0x3f, r24	; 63
     b62:	44 e0       	ldi	r20, 0x04	; 4
     b64:	50 e0       	ldi	r21, 0x00	; 0
     b66:	68 e8       	ldi	r22, 0x88	; 136
     b68:	74 e0       	ldi	r23, 0x04	; 4
     b6a:	ce 01       	movw	r24, r28
     b6c:	01 96       	adiw	r24, 0x01	; 1
     b6e:	1c 01       	movw	r2, r24
     b70:	0e 94 0b 2d 	call	0x5a16	; 0x5a16 <strncpy_P>
     b74:	9e 01       	movw	r18, r28
     b76:	2b 5f       	subi	r18, 0xFB	; 251
     b78:	3f 4f       	sbci	r19, 0xFF	; 255
     b7a:	47 e0       	ldi	r20, 0x07	; 7
     b7c:	50 e0       	ldi	r21, 0x00	; 0
     b7e:	61 e8       	ldi	r22, 0x81	; 129
     b80:	74 e0       	ldi	r23, 0x04	; 4
     b82:	c9 01       	movw	r24, r18
     b84:	2c a7       	std	Y+44, r18	; 0x2c
     b86:	3d a7       	std	Y+45, r19	; 0x2d
     b88:	0e 94 0b 2d 	call	0x5a16	; 0x5a16 <strncpy_P>
     b8c:	2e 01       	movw	r4, r28
     b8e:	9c e0       	ldi	r25, 0x0C	; 12
     b90:	49 0e       	add	r4, r25
     b92:	51 1c       	adc	r5, r1
     b94:	43 e0       	ldi	r20, 0x03	; 3
     b96:	50 e0       	ldi	r21, 0x00	; 0
     b98:	68 e5       	ldi	r22, 0x58	; 88
     b9a:	74 e0       	ldi	r23, 0x04	; 4
     b9c:	c2 01       	movw	r24, r4
     b9e:	0e 94 0b 2d 	call	0x5a16	; 0x5a16 <strncpy_P>
     ba2:	5e 01       	movw	r10, r28
     ba4:	af e0       	ldi	r26, 0x0F	; 15
     ba6:	aa 0e       	add	r10, r26
     ba8:	b1 1c       	adc	r11, r1
     baa:	45 e0       	ldi	r20, 0x05	; 5
     bac:	50 e0       	ldi	r21, 0x00	; 0
     bae:	63 e5       	ldi	r22, 0x53	; 83
     bb0:	74 e0       	ldi	r23, 0x04	; 4
     bb2:	c5 01       	movw	r24, r10
     bb4:	0e 94 0b 2d 	call	0x5a16	; 0x5a16 <strncpy_P>
     bb8:	4e 01       	movw	r8, r28
     bba:	ba e1       	ldi	r27, 0x1A	; 26
     bbc:	8b 0e       	add	r8, r27
     bbe:	91 1c       	adc	r9, r1
     bc0:	47 e0       	ldi	r20, 0x07	; 7
     bc2:	50 e0       	ldi	r21, 0x00	; 0
     bc4:	6c e4       	ldi	r22, 0x4C	; 76
     bc6:	74 e0       	ldi	r23, 0x04	; 4
     bc8:	c4 01       	movw	r24, r8
     bca:	0e 94 0b 2d 	call	0x5a16	; 0x5a16 <strncpy_P>
     bce:	6e 01       	movw	r12, r28
     bd0:	84 e1       	ldi	r24, 0x14	; 20
     bd2:	c8 0e       	add	r12, r24
     bd4:	d1 1c       	adc	r13, r1
     bd6:	46 e0       	ldi	r20, 0x06	; 6
     bd8:	50 e0       	ldi	r21, 0x00	; 0
     bda:	66 e4       	ldi	r22, 0x46	; 70
     bdc:	74 e0       	ldi	r23, 0x04	; 4
     bde:	c6 01       	movw	r24, r12
     be0:	0e 94 0b 2d 	call	0x5a16	; 0x5a16 <strncpy_P>
     be4:	7e 01       	movw	r14, r28
     be6:	91 e2       	ldi	r25, 0x21	; 33
     be8:	e9 0e       	add	r14, r25
     bea:	f1 1c       	adc	r15, r1
     bec:	45 e0       	ldi	r20, 0x05	; 5
     bee:	50 e0       	ldi	r21, 0x00	; 0
     bf0:	61 e4       	ldi	r22, 0x41	; 65
     bf2:	74 e0       	ldi	r23, 0x04	; 4
     bf4:	c7 01       	movw	r24, r14
     bf6:	0e 94 0b 2d 	call	0x5a16	; 0x5a16 <strncpy_P>
     bfa:	3e 01       	movw	r6, r28
     bfc:	a6 e2       	ldi	r26, 0x26	; 38
     bfe:	6a 0e       	add	r6, r26
     c00:	71 1c       	adc	r7, r1
     c02:	45 e0       	ldi	r20, 0x05	; 5
     c04:	50 e0       	ldi	r21, 0x00	; 0
     c06:	6c e3       	ldi	r22, 0x3C	; 60
     c08:	74 e0       	ldi	r23, 0x04	; 4
     c0a:	c3 01       	movw	r24, r6
     c0c:	0e 94 0b 2d 	call	0x5a16	; 0x5a16 <strncpy_P>
     c10:	e0 ec       	ldi	r30, 0xC0	; 192
     c12:	f2 e0       	ldi	r31, 0x02	; 2
     c14:	80 e8       	ldi	r24, 0x80	; 128
     c16:	df 01       	movw	r26, r30
     c18:	1d 92       	st	X+, r1
     c1a:	8a 95       	dec	r24
     c1c:	e9 f7       	brne	.-6      	; 0xc18 <DatabaseP__Database__saveChannel+0x108>
     c1e:	2c a5       	ldd	r18, Y+44	; 0x2c
     c20:	3d a5       	ldd	r19, Y+45	; 0x2d
     c22:	bb a5       	ldd	r27, Y+43	; 0x2b
     c24:	bf 3f       	cpi	r27, 0xFF	; 255
     c26:	a1 f5       	brne	.+104    	; 0xc90 <DatabaseP__Database__saveChannel+0x180>
     c28:	d8 01       	movw	r26, r16
     c2a:	18 96       	adiw	r26, 0x08	; 8
     c2c:	8c 91       	ld	r24, X
     c2e:	18 97       	sbiw	r26, 0x08	; 8
     c30:	8f 93       	push	r24
     c32:	17 96       	adiw	r26, 0x07	; 7
     c34:	8c 91       	ld	r24, X
     c36:	17 97       	sbiw	r26, 0x07	; 7
     c38:	8f 93       	push	r24
     c3a:	7f 92       	push	r7
     c3c:	6f 92       	push	r6
     c3e:	14 96       	adiw	r26, 0x04	; 4
     c40:	8c 91       	ld	r24, X
     c42:	14 97       	sbiw	r26, 0x04	; 4
     c44:	8f 93       	push	r24
     c46:	13 96       	adiw	r26, 0x03	; 3
     c48:	8c 91       	ld	r24, X
     c4a:	13 97       	sbiw	r26, 0x03	; 3
     c4c:	8f 93       	push	r24
     c4e:	9f 92       	push	r9
     c50:	8f 92       	push	r8
     c52:	12 96       	adiw	r26, 0x02	; 2
     c54:	8c 91       	ld	r24, X
     c56:	12 97       	sbiw	r26, 0x02	; 2
     c58:	8f 93       	push	r24
     c5a:	11 96       	adiw	r26, 0x01	; 1
     c5c:	8c 91       	ld	r24, X
     c5e:	11 97       	sbiw	r26, 0x01	; 1
     c60:	8f 93       	push	r24
     c62:	bf 92       	push	r11
     c64:	af 92       	push	r10
     c66:	8c 91       	ld	r24, X
     c68:	1f 92       	push	r1
     c6a:	8f 93       	push	r24
     c6c:	df 92       	push	r13
     c6e:	cf 92       	push	r12
     c70:	16 96       	adiw	r26, 0x06	; 6
     c72:	8c 91       	ld	r24, X
     c74:	16 97       	sbiw	r26, 0x06	; 6
     c76:	8f 93       	push	r24
     c78:	15 96       	adiw	r26, 0x05	; 5
     c7a:	8c 91       	ld	r24, X
     c7c:	8f 93       	push	r24
     c7e:	ff 92       	push	r15
     c80:	ef 92       	push	r14
     c82:	1f 92       	push	r1
     c84:	1f 92       	push	r1
     c86:	5f 92       	push	r5
     c88:	4f 92       	push	r4
     c8a:	3f 92       	push	r3
     c8c:	2f 92       	push	r2
     c8e:	37 c0       	rjmp	.+110    	; 0xcfe <DatabaseP__Database__saveChannel+0x1ee>
     c90:	9b a5       	ldd	r25, Y+43	; 0x2b
     c92:	9f 30       	cpi	r25, 0x0F	; 15
     c94:	08 f0       	brcs	.+2      	; 0xc98 <DatabaseP__Database__saveChannel+0x188>
     c96:	40 c0       	rjmp	.+128    	; 0xd18 <DatabaseP__Database__saveChannel+0x208>
     c98:	d8 01       	movw	r26, r16
     c9a:	18 96       	adiw	r26, 0x08	; 8
     c9c:	8c 91       	ld	r24, X
     c9e:	18 97       	sbiw	r26, 0x08	; 8
     ca0:	8f 93       	push	r24
     ca2:	17 96       	adiw	r26, 0x07	; 7
     ca4:	8c 91       	ld	r24, X
     ca6:	17 97       	sbiw	r26, 0x07	; 7
     ca8:	8f 93       	push	r24
     caa:	7f 92       	push	r7
     cac:	6f 92       	push	r6
     cae:	14 96       	adiw	r26, 0x04	; 4
     cb0:	8c 91       	ld	r24, X
     cb2:	14 97       	sbiw	r26, 0x04	; 4
     cb4:	8f 93       	push	r24
     cb6:	13 96       	adiw	r26, 0x03	; 3
     cb8:	8c 91       	ld	r24, X
     cba:	13 97       	sbiw	r26, 0x03	; 3
     cbc:	8f 93       	push	r24
     cbe:	9f 92       	push	r9
     cc0:	8f 92       	push	r8
     cc2:	12 96       	adiw	r26, 0x02	; 2
     cc4:	8c 91       	ld	r24, X
     cc6:	12 97       	sbiw	r26, 0x02	; 2
     cc8:	8f 93       	push	r24
     cca:	11 96       	adiw	r26, 0x01	; 1
     ccc:	8c 91       	ld	r24, X
     cce:	11 97       	sbiw	r26, 0x01	; 1
     cd0:	8f 93       	push	r24
     cd2:	bf 92       	push	r11
     cd4:	af 92       	push	r10
     cd6:	8c 91       	ld	r24, X
     cd8:	1f 92       	push	r1
     cda:	8f 93       	push	r24
     cdc:	df 92       	push	r13
     cde:	cf 92       	push	r12
     ce0:	16 96       	adiw	r26, 0x06	; 6
     ce2:	8c 91       	ld	r24, X
     ce4:	16 97       	sbiw	r26, 0x06	; 6
     ce6:	8f 93       	push	r24
     ce8:	15 96       	adiw	r26, 0x05	; 5
     cea:	8c 91       	ld	r24, X
     cec:	8f 93       	push	r24
     cee:	ff 92       	push	r15
     cf0:	ef 92       	push	r14
     cf2:	1f 92       	push	r1
     cf4:	9f 93       	push	r25
     cf6:	5f 92       	push	r5
     cf8:	4f 92       	push	r4
     cfa:	3f 93       	push	r19
     cfc:	2f 93       	push	r18
     cfe:	82 e3       	ldi	r24, 0x32	; 50
     d00:	92 e0       	ldi	r25, 0x02	; 2
     d02:	9f 93       	push	r25
     d04:	8f 93       	push	r24
     d06:	ff 93       	push	r31
     d08:	ef 93       	push	r30
     d0a:	0e 94 c2 2d 	call	0x5b84	; 0x5b84 <sprintf>
     d0e:	0f b6       	in	r0, 0x3f	; 63
     d10:	f8 94       	cli
     d12:	de bf       	out	0x3e, r29	; 62
     d14:	0f be       	out	0x3f, r0	; 63
     d16:	cd bf       	out	0x3d, r28	; 61
     d18:	10 92 3f 03 	sts	0x033F, r1
     d1c:	e0 ec       	ldi	r30, 0xC0	; 192
     d1e:	f2 e0       	ldi	r31, 0x02	; 2
     d20:	01 90       	ld	r0, Z+
     d22:	00 20       	and	r0, r0
     d24:	e9 f7       	brne	.-6      	; 0xd20 <DatabaseP__Database__saveChannel+0x210>
     d26:	cf 01       	movw	r24, r30
     d28:	81 5c       	subi	r24, 0xC1	; 193
     d2a:	92 40       	sbci	r25, 0x02	; 2
     d2c:	90 93 bf 02 	sts	0x02BF, r25
     d30:	80 93 be 02 	sts	0x02BE, r24
     d34:	0e 94 44 03 	call	0x688	; 0x688 <DatabaseP__sendTask__postTask>
     d38:	ad 96       	adiw	r28, 0x2d	; 45
     d3a:	0f b6       	in	r0, 0x3f	; 63
     d3c:	f8 94       	cli
     d3e:	de bf       	out	0x3e, r29	; 62
     d40:	0f be       	out	0x3f, r0	; 63
     d42:	cd bf       	out	0x3d, r28	; 61
     d44:	df 91       	pop	r29
     d46:	cf 91       	pop	r28
     d48:	1f 91       	pop	r17
     d4a:	0f 91       	pop	r16
     d4c:	ff 90       	pop	r15
     d4e:	ef 90       	pop	r14
     d50:	df 90       	pop	r13
     d52:	cf 90       	pop	r12
     d54:	bf 90       	pop	r11
     d56:	af 90       	pop	r10
     d58:	9f 90       	pop	r9
     d5a:	8f 90       	pop	r8
     d5c:	7f 90       	pop	r7
     d5e:	6f 90       	pop	r6
     d60:	5f 90       	pop	r5
     d62:	4f 90       	pop	r4
     d64:	3f 90       	pop	r3
     d66:	2f 90       	pop	r2
     d68:	08 95       	ret

00000d6a <DatabaseP__Database__purgeChannelList>:
     d6a:	ef 92       	push	r14
     d6c:	ff 92       	push	r15
     d6e:	0f 93       	push	r16
     d70:	1f 93       	push	r17
     d72:	cf 93       	push	r28
     d74:	df 93       	push	r29
     d76:	cd b7       	in	r28, 0x3d	; 61
     d78:	de b7       	in	r29, 0x3e	; 62
     d7a:	29 97       	sbiw	r28, 0x09	; 9
     d7c:	0f b6       	in	r0, 0x3f	; 63
     d7e:	f8 94       	cli
     d80:	de bf       	out	0x3e, r29	; 62
     d82:	0f be       	out	0x3f, r0	; 63
     d84:	cd bf       	out	0x3d, r28	; 61
     d86:	9f b7       	in	r25, 0x3f	; 63
     d88:	f8 94       	cli
     d8a:	80 91 c4 03 	lds	r24, 0x03C4
     d8e:	9f bf       	out	0x3f, r25	; 63
     d90:	81 11       	cpse	r24, r1
     d92:	33 c0       	rjmp	.+102    	; 0xdfa <DatabaseP__Database__purgeChannelList+0x90>
     d94:	8f b7       	in	r24, 0x3f	; 63
     d96:	f8 94       	cli
     d98:	95 e0       	ldi	r25, 0x05	; 5
     d9a:	90 93 c4 03 	sts	0x03C4, r25
     d9e:	8f bf       	out	0x3f, r24	; 63
     da0:	49 e0       	ldi	r20, 0x09	; 9
     da2:	50 e0       	ldi	r21, 0x00	; 0
     da4:	63 e7       	ldi	r22, 0x73	; 115
     da6:	74 e0       	ldi	r23, 0x04	; 4
     da8:	ce 01       	movw	r24, r28
     daa:	01 96       	adiw	r24, 0x01	; 1
     dac:	7c 01       	movw	r14, r24
     dae:	0e 94 0b 2d 	call	0x5a16	; 0x5a16 <strncpy_P>
     db2:	00 ec       	ldi	r16, 0xC0	; 192
     db4:	12 e0       	ldi	r17, 0x02	; 2
     db6:	80 e8       	ldi	r24, 0x80	; 128
     db8:	f8 01       	movw	r30, r16
     dba:	11 92       	st	Z+, r1
     dbc:	8a 95       	dec	r24
     dbe:	e9 f7       	brne	.-6      	; 0xdba <DatabaseP__Database__purgeChannelList+0x50>
     dc0:	ff 92       	push	r15
     dc2:	ef 92       	push	r14
     dc4:	8c e5       	ldi	r24, 0x5C	; 92
     dc6:	92 e0       	ldi	r25, 0x02	; 2
     dc8:	9f 93       	push	r25
     dca:	8f 93       	push	r24
     dcc:	1f 93       	push	r17
     dce:	0f 93       	push	r16
     dd0:	0e 94 c2 2d 	call	0x5b84	; 0x5b84 <sprintf>
     dd4:	f8 01       	movw	r30, r16
     dd6:	01 90       	ld	r0, Z+
     dd8:	00 20       	and	r0, r0
     dda:	e9 f7       	brne	.-6      	; 0xdd6 <DatabaseP__Database__purgeChannelList+0x6c>
     ddc:	8f 01       	movw	r16, r30
     dde:	01 5c       	subi	r16, 0xC1	; 193
     de0:	12 40       	sbci	r17, 0x02	; 2
     de2:	10 93 bf 02 	sts	0x02BF, r17
     de6:	00 93 be 02 	sts	0x02BE, r16
     dea:	0e 94 44 03 	call	0x688	; 0x688 <DatabaseP__sendTask__postTask>
     dee:	0f 90       	pop	r0
     df0:	0f 90       	pop	r0
     df2:	0f 90       	pop	r0
     df4:	0f 90       	pop	r0
     df6:	0f 90       	pop	r0
     df8:	0f 90       	pop	r0
     dfa:	29 96       	adiw	r28, 0x09	; 9
     dfc:	0f b6       	in	r0, 0x3f	; 63
     dfe:	f8 94       	cli
     e00:	de bf       	out	0x3e, r29	; 62
     e02:	0f be       	out	0x3f, r0	; 63
     e04:	cd bf       	out	0x3d, r28	; 61
     e06:	df 91       	pop	r29
     e08:	cf 91       	pop	r28
     e0a:	1f 91       	pop	r17
     e0c:	0f 91       	pop	r16
     e0e:	ff 90       	pop	r15
     e10:	ef 90       	pop	r14
     e12:	08 95       	ret

00000e14 <RadioScannerP__DB__receivedChannelEntry>:
     e14:	ef 92       	push	r14
     e16:	ff 92       	push	r15
     e18:	0f 93       	push	r16
     e1a:	1f 93       	push	r17
     e1c:	cf 93       	push	r28
     e1e:	df 93       	push	r29
     e20:	cd b7       	in	r28, 0x3d	; 61
     e22:	de b7       	in	r29, 0x3e	; 62
     e24:	29 97       	sbiw	r28, 0x09	; 9
     e26:	0f b6       	in	r0, 0x3f	; 63
     e28:	f8 94       	cli
     e2a:	de bf       	out	0x3e, r29	; 62
     e2c:	0f be       	out	0x3f, r0	; 63
     e2e:	cd bf       	out	0x3d, r28	; 61
     e30:	e9 82       	std	Y+1, r14	; 0x01
     e32:	fa 82       	std	Y+2, r15	; 0x02
     e34:	0b 83       	std	Y+3, r16	; 0x03
     e36:	1c 83       	std	Y+4, r17	; 0x04
     e38:	2d 83       	std	Y+5, r18	; 0x05
     e3a:	3e 83       	std	Y+6, r19	; 0x06
     e3c:	4f 83       	std	Y+7, r20	; 0x07
     e3e:	58 87       	std	Y+8, r21	; 0x08
     e40:	69 87       	std	Y+9, r22	; 0x09
     e42:	2f b7       	in	r18, 0x3f	; 63
     e44:	f8 94       	cli
     e46:	90 91 d3 07 	lds	r25, 0x07D3
     e4a:	2f bf       	out	0x3f, r18	; 63
     e4c:	91 11       	cpse	r25, r1
     e4e:	9a c0       	rjmp	.+308    	; 0xf84 <RadioScannerP__DB__receivedChannelEntry+0x170>
     e50:	8f 3f       	cpi	r24, 0xFF	; 255
     e52:	09 f0       	breq	.+2      	; 0xe56 <RadioScannerP__DB__receivedChannelEntry+0x42>
     e54:	3e c0       	rjmp	.+124    	; 0xed2 <RadioScannerP__DB__receivedChannelEntry+0xbe>
     e56:	80 91 d2 03 	lds	r24, 0x03D2
     e5a:	88 23       	and	r24, r24
     e5c:	81 f0       	breq	.+32     	; 0xe7e <RadioScannerP__DB__receivedChannelEntry+0x6a>
     e5e:	0e 94 0a 05 	call	0xa14	; 0xa14 <RadioScannerP__clearRDSData>
     e62:	8f b7       	in	r24, 0x3f	; 63
     e64:	f8 94       	cli
     e66:	20 91 d4 03 	lds	r18, 0x03D4
     e6a:	30 91 d5 03 	lds	r19, 0x03D5
     e6e:	30 93 cf 07 	sts	0x07CF, r19
     e72:	20 93 ce 07 	sts	0x07CE, r18
     e76:	93 e0       	ldi	r25, 0x03	; 3
     e78:	90 93 d3 07 	sts	0x07D3, r25
     e7c:	1b c0       	rjmp	.+54     	; 0xeb4 <RadioScannerP__DB__receivedChannelEntry+0xa0>
     e7e:	0e 94 0a 05 	call	0xa14	; 0xa14 <RadioScannerP__clearRDSData>
     e82:	0e 94 b5 06 	call	0xd6a	; 0xd6a <DatabaseP__Database__purgeChannelList>
     e86:	10 92 c8 03 	sts	0x03C8, r1
     e8a:	49 e0       	ldi	r20, 0x09	; 9
     e8c:	50 e0       	ldi	r21, 0x00	; 0
     e8e:	6f ef       	ldi	r22, 0xFF	; 255
     e90:	70 e0       	ldi	r23, 0x00	; 0
     e92:	89 ec       	ldi	r24, 0xC9	; 201
     e94:	93 e0       	ldi	r25, 0x03	; 3
     e96:	0e 94 3d 2d 	call	0x5a7a	; 0x5a7a <memset>
     e9a:	8f b7       	in	r24, 0x3f	; 63
     e9c:	f8 94       	cli
     e9e:	10 92 d2 03 	sts	0x03D2, r1
     ea2:	95 e0       	ldi	r25, 0x05	; 5
     ea4:	90 93 d3 07 	sts	0x07D3, r25
     ea8:	2b e6       	ldi	r18, 0x6B	; 107
     eaa:	33 e0       	ldi	r19, 0x03	; 3
     eac:	30 93 cf 07 	sts	0x07CF, r19
     eb0:	20 93 ce 07 	sts	0x07CE, r18
     eb4:	8f bf       	out	0x3f, r24	; 63
     eb6:	29 96       	adiw	r28, 0x09	; 9
     eb8:	0f b6       	in	r0, 0x3f	; 63
     eba:	f8 94       	cli
     ebc:	de bf       	out	0x3e, r29	; 62
     ebe:	0f be       	out	0x3f, r0	; 63
     ec0:	cd bf       	out	0x3d, r28	; 61
     ec2:	df 91       	pop	r29
     ec4:	cf 91       	pop	r28
     ec6:	1f 91       	pop	r17
     ec8:	0f 91       	pop	r16
     eca:	ff 90       	pop	r15
     ecc:	ef 90       	pop	r14
     ece:	0c 94 41 03 	jmp	0x682	; 0x682 <RadioScannerP__startTune__postTask>
     ed2:	8f b7       	in	r24, 0x3f	; 63
     ed4:	f8 94       	cli
     ed6:	20 91 d2 03 	lds	r18, 0x03D2
     eda:	91 e0       	ldi	r25, 0x01	; 1
     edc:	92 0f       	add	r25, r18
     ede:	90 93 d2 03 	sts	0x03D2, r25
     ee2:	30 e0       	ldi	r19, 0x00	; 0
     ee4:	8f bf       	out	0x3f, r24	; 63
     ee6:	4b e3       	ldi	r20, 0x3B	; 59
     ee8:	42 9f       	mul	r20, r18
     eea:	c0 01       	movw	r24, r0
     eec:	43 9f       	mul	r20, r19
     eee:	90 0d       	add	r25, r0
     ef0:	11 24       	eor	r1, r1
     ef2:	dc 01       	movw	r26, r24
     ef4:	ad 52       	subi	r26, 0x2D	; 45
     ef6:	bc 4f       	sbci	r27, 0xFC	; 252
     ef8:	29 e0       	ldi	r18, 0x09	; 9
     efa:	fe 01       	movw	r30, r28
     efc:	31 96       	adiw	r30, 0x01	; 1
     efe:	01 90       	ld	r0, Z+
     f00:	0d 92       	st	X+, r0
     f02:	2a 95       	dec	r18
     f04:	e1 f7       	brne	.-8      	; 0xefe <RadioScannerP__DB__receivedChannelEntry+0xea>
     f06:	9c 01       	movw	r18, r24
     f08:	24 52       	subi	r18, 0x24	; 36
     f0a:	3c 4f       	sbci	r19, 0xFC	; 252
     f0c:	8c 01       	movw	r16, r24
     f0e:	0e 52       	subi	r16, 0x2E	; 46
     f10:	1c 4f       	sbci	r17, 0xFC	; 252
     f12:	d8 01       	movw	r26, r16
     f14:	17 96       	adiw	r26, 0x07	; 7
     f16:	3c 93       	st	X, r19
     f18:	2e 93       	st	-X, r18
     f1a:	16 97       	sbiw	r26, 0x06	; 6
     f1c:	8b 51       	subi	r24, 0x1B	; 27
     f1e:	9c 4f       	sbci	r25, 0xFC	; 252
     f20:	19 96       	adiw	r26, 0x09	; 9
     f22:	9c 93       	st	X, r25
     f24:	8e 93       	st	-X, r24
     f26:	18 97       	sbiw	r26, 0x08	; 8
     f28:	8f 81       	ldd	r24, Y+7	; 0x07
     f2a:	8f 93       	push	r24
     f2c:	8e 81       	ldd	r24, Y+6	; 0x06
     f2e:	8f 93       	push	r24
     f30:	81 e6       	ldi	r24, 0x61	; 97
     f32:	92 e0       	ldi	r25, 0x02	; 2
     f34:	9f 93       	push	r25
     f36:	8f 93       	push	r24
     f38:	1f 92       	push	r1
     f3a:	88 e0       	ldi	r24, 0x08	; 8
     f3c:	8f 93       	push	r24
     f3e:	3f 93       	push	r19
     f40:	2f 93       	push	r18
     f42:	0e 94 85 2d 	call	0x5b0a	; 0x5b0a <snprintf>
     f46:	68 85       	ldd	r22, Y+8	; 0x08
     f48:	79 85       	ldd	r23, Y+9	; 0x09
     f4a:	48 e2       	ldi	r20, 0x28	; 40
     f4c:	50 e0       	ldi	r21, 0x00	; 0
     f4e:	f8 01       	movw	r30, r16
     f50:	80 85       	ldd	r24, Z+8	; 0x08
     f52:	91 85       	ldd	r25, Z+9	; 0x09
     f54:	0e 94 4f 2d 	call	0x5a9e	; 0x5a9e <strncpy>
     f58:	d8 01       	movw	r26, r16
     f5a:	11 96       	adiw	r26, 0x01	; 1
     f5c:	ec 91       	ld	r30, X
     f5e:	0f b6       	in	r0, 0x3f	; 63
     f60:	f8 94       	cli
     f62:	de bf       	out	0x3e, r29	; 62
     f64:	0f be       	out	0x3f, r0	; 63
     f66:	cd bf       	out	0x3d, r28	; 61
     f68:	ee 23       	and	r30, r30
     f6a:	61 f0       	breq	.+24     	; 0xf84 <RadioScannerP__DB__receivedChannelEntry+0x170>
     f6c:	f0 e0       	ldi	r31, 0x00	; 0
     f6e:	e8 53       	subi	r30, 0x38	; 56
     f70:	fc 4f       	sbci	r31, 0xFC	; 252
     f72:	80 91 d2 03 	lds	r24, 0x03D2
     f76:	81 50       	subi	r24, 0x01	; 1
     f78:	80 83       	st	Z, r24
     f7a:	80 91 c8 03 	lds	r24, 0x03C8
     f7e:	8f 5f       	subi	r24, 0xFF	; 255
     f80:	80 93 c8 03 	sts	0x03C8, r24
     f84:	29 96       	adiw	r28, 0x09	; 9
     f86:	0f b6       	in	r0, 0x3f	; 63
     f88:	f8 94       	cli
     f8a:	de bf       	out	0x3e, r29	; 62
     f8c:	0f be       	out	0x3f, r0	; 63
     f8e:	cd bf       	out	0x3d, r28	; 61
     f90:	df 91       	pop	r29
     f92:	cf 91       	pop	r28
     f94:	1f 91       	pop	r17
     f96:	0f 91       	pop	r16
     f98:	ff 90       	pop	r15
     f9a:	ef 90       	pop	r14
     f9c:	08 95       	ret

00000f9e <BusyWaitMicroC__BusyWait__wait.part.0>:
     f9e:	01 97       	sbiw	r24, 0x01	; 1
     fa0:	01 96       	adiw	r24, 0x01	; 1
     fa2:	01 97       	sbiw	r24, 0x01	; 1
     fa4:	01 96       	adiw	r24, 0x01	; 1
     fa6:	01 97       	sbiw	r24, 0x01	; 1
     fa8:	01 96       	adiw	r24, 0x01	; 1
     faa:	01 97       	sbiw	r24, 0x01	; 1
     fac:	c1 f7       	brne	.-16     	; 0xf9e <BusyWaitMicroC__BusyWait__wait.part.0>
     fae:	08 95       	ret

00000fb0 <DatabaseP__prepareMessage.constprop.105>:
     fb0:	0f 93       	push	r16
     fb2:	1f 93       	push	r17
     fb4:	cf 93       	push	r28
     fb6:	df 93       	push	r29
     fb8:	00 91 40 03 	lds	r16, 0x0340
     fbc:	10 91 41 03 	lds	r17, 0x0341
     fc0:	f8 01       	movw	r30, r16
     fc2:	ef 5b       	subi	r30, 0xBF	; 191
     fc4:	fc 4f       	sbci	r31, 0xFC	; 252
     fc6:	20 81       	ld	r18, Z
     fc8:	2a 30       	cpi	r18, 0x0A	; 10
     fca:	d1 f4       	brne	.+52     	; 0x1000 <DatabaseP__prepareMessage.constprop.105+0x50>
     fcc:	ec 01       	movw	r28, r24
     fce:	10 82       	st	Z, r1
     fd0:	6d e0       	ldi	r22, 0x0D	; 13
     fd2:	70 e0       	ldi	r23, 0x00	; 0
     fd4:	82 e4       	ldi	r24, 0x42	; 66
     fd6:	93 e0       	ldi	r25, 0x03	; 3
     fd8:	0e 94 44 2d 	call	0x5a88	; 0x5a88 <strchr>
     fdc:	99 83       	std	Y+1, r25	; 0x01
     fde:	88 83       	st	Y, r24
     fe0:	00 97       	sbiw	r24, 0x00	; 0
     fe2:	41 f0       	breq	.+16     	; 0xff4 <DatabaseP__prepareMessage.constprop.105+0x44>
     fe4:	fc 01       	movw	r30, r24
     fe6:	10 82       	st	Z, r1
     fe8:	88 81       	ld	r24, Y
     fea:	99 81       	ldd	r25, Y+1	; 0x01
     fec:	01 96       	adiw	r24, 0x01	; 1
     fee:	99 83       	std	Y+1, r25	; 0x01
     ff0:	88 83       	st	Y, r24
     ff2:	04 c0       	rjmp	.+8      	; 0xffc <DatabaseP__prepareMessage.constprop.105+0x4c>
     ff4:	0e 5b       	subi	r16, 0xBE	; 190
     ff6:	1c 4f       	sbci	r17, 0xFC	; 252
     ff8:	19 83       	std	Y+1, r17	; 0x01
     ffa:	08 83       	st	Y, r16
     ffc:	81 e0       	ldi	r24, 0x01	; 1
     ffe:	01 c0       	rjmp	.+2      	; 0x1002 <DatabaseP__prepareMessage.constprop.105+0x52>
    1000:	80 e0       	ldi	r24, 0x00	; 0
    1002:	df 91       	pop	r29
    1004:	cf 91       	pop	r28
    1006:	1f 91       	pop	r17
    1008:	0f 91       	pop	r16
    100a:	08 95       	ret

0000100c <ArpP__sendRequest>:
    100c:	81 e0       	ldi	r24, 0x01	; 1
    100e:	80 93 a0 02 	sts	0x02A0, r24
    1012:	4a ec       	ldi	r20, 0xCA	; 202
    1014:	52 e1       	ldi	r21, 0x12	; 18
    1016:	66 e0       	ldi	r22, 0x06	; 6
    1018:	72 e0       	ldi	r23, 0x02	; 2
    101a:	0e 94 fb 03 	call	0x7f6	; 0x7f6 <ArpP__send_packet>
    101e:	44 e6       	ldi	r20, 0x64	; 100
    1020:	50 e0       	ldi	r21, 0x00	; 0
    1022:	60 e0       	ldi	r22, 0x00	; 0
    1024:	70 e0       	ldi	r23, 0x00	; 0
    1026:	80 e0       	ldi	r24, 0x00	; 0
    1028:	0c 94 86 03 	jmp	0x70c	; 0x70c <VirtualizeTimerC__0__Timer__startOneShot>

0000102c <ArbiterP__0__Resource__request.constprop.147>:
    102c:	1f 93       	push	r17
    102e:	cf 93       	push	r28
    1030:	df 93       	push	r29
    1032:	8f b7       	in	r24, 0x3f	; 63
    1034:	f8 94       	cli
    1036:	c0 91 92 02 	lds	r28, 0x0292
    103a:	c1 11       	cpse	r28, r1
    103c:	3d c0       	rjmp	.+122    	; 0x10b8 <ArbiterP__0__Resource__request.constprop.147+0x8c>
    103e:	11 e0       	ldi	r17, 0x01	; 1
    1040:	10 93 92 02 	sts	0x0292, r17
    1044:	10 92 5f 12 	sts	0x125F, r1
    1048:	8f bf       	out	0x3f, r24	; 63
    104a:	df b7       	in	r29, 0x3f	; 63
    104c:	f8 94       	cli
    104e:	80 91 91 02 	lds	r24, 0x0291
    1052:	81 11       	cpse	r24, r1
    1054:	17 c0       	rjmp	.+46     	; 0x1084 <ArbiterP__0__Resource__request.constprop.147+0x58>
    1056:	50 98       	cbi	0x0a, 0	; 10
    1058:	51 98       	cbi	0x0a, 1	; 10
    105a:	10 92 b9 00 	sts	0x00B9, r1
    105e:	81 e4       	ldi	r24, 0x41	; 65
    1060:	80 93 b8 00 	sts	0x00B8, r24
    1064:	10 92 ba 00 	sts	0x00BA, r1
    1068:	10 92 bc 00 	sts	0x00BC, r1
    106c:	0e 94 72 03 	call	0x6e4	; 0x6e4 <HplAtm128I2CBusP__I2C__readCurrent>
    1070:	80 91 e5 11 	lds	r24, 0x11E5
    1074:	8e 7f       	andi	r24, 0xFE	; 254
    1076:	84 60       	ori	r24, 0x04	; 4
    1078:	80 93 e5 11 	sts	0x11E5, r24
    107c:	0e 94 fe 02 	call	0x5fc	; 0x5fc <HplAtm128I2CBusP__I2C__sendCommand>
    1080:	10 93 91 02 	sts	0x0291, r17
    1084:	df bf       	out	0x3f, r29	; 63
    1086:	df b7       	in	r29, 0x3f	; 63
    1088:	f8 94       	cli
    108a:	80 91 0e 02 	lds	r24, 0x020E
    108e:	81 30       	cpi	r24, 0x01	; 1
    1090:	89 f4       	brne	.+34     	; 0x10b4 <ArbiterP__0__Resource__request.constprop.147+0x88>
    1092:	80 91 92 02 	lds	r24, 0x0292
    1096:	81 30       	cpi	r24, 0x01	; 1
    1098:	21 f4       	brne	.+8      	; 0x10a2 <ArbiterP__0__Resource__request.constprop.147+0x76>
    109a:	83 e2       	ldi	r24, 0x23	; 35
    109c:	0e 94 1f 03 	call	0x63e	; 0x63e <SchedulerBasicP__TaskBasic__postTask>
    10a0:	09 c0       	rjmp	.+18     	; 0x10b4 <ArbiterP__0__Resource__request.constprop.147+0x88>
    10a2:	82 30       	cpi	r24, 0x02	; 2
    10a4:	39 f4       	brne	.+14     	; 0x10b4 <ArbiterP__0__Resource__request.constprop.147+0x88>
    10a6:	80 91 5f 12 	lds	r24, 0x125F
    10aa:	80 93 0e 02 	sts	0x020E, r24
    10ae:	83 e0       	ldi	r24, 0x03	; 3
    10b0:	80 93 92 02 	sts	0x0292, r24
    10b4:	df bf       	out	0x3f, r29	; 63
    10b6:	1d c0       	rjmp	.+58     	; 0x10f2 <ArbiterP__0__Resource__request.constprop.147+0xc6>
    10b8:	c0 91 5f 12 	lds	r28, 0x125F
    10bc:	cc 23       	and	r28, r28
    10be:	c1 f0       	breq	.+48     	; 0x10f0 <ArbiterP__0__Resource__request.constprop.147+0xc4>
    10c0:	90 91 d4 0e 	lds	r25, 0x0ED4
    10c4:	9f 3f       	cpi	r25, 0xFF	; 255
    10c6:	99 f4       	brne	.+38     	; 0x10ee <ArbiterP__0__Resource__request.constprop.147+0xc2>
    10c8:	e0 91 0f 02 	lds	r30, 0x020F
    10cc:	ee 23       	and	r30, r30
    10ce:	79 f0       	breq	.+30     	; 0x10ee <ArbiterP__0__Resource__request.constprop.147+0xc2>
    10d0:	90 91 10 02 	lds	r25, 0x0210
    10d4:	9f 3f       	cpi	r25, 0xFF	; 255
    10d6:	19 f4       	brne	.+6      	; 0x10de <ArbiterP__0__Resource__request.constprop.147+0xb2>
    10d8:	10 92 10 02 	sts	0x0210, r1
    10dc:	04 c0       	rjmp	.+8      	; 0x10e6 <ArbiterP__0__Resource__request.constprop.147+0xba>
    10de:	f0 e0       	ldi	r31, 0x00	; 0
    10e0:	ec 52       	subi	r30, 0x2C	; 44
    10e2:	f1 4f       	sbci	r31, 0xF1	; 241
    10e4:	10 82       	st	Z, r1
    10e6:	10 92 0f 02 	sts	0x020F, r1
    10ea:	c0 e0       	ldi	r28, 0x00	; 0
    10ec:	01 c0       	rjmp	.+2      	; 0x10f0 <ArbiterP__0__Resource__request.constprop.147+0xc4>
    10ee:	c5 e0       	ldi	r28, 0x05	; 5
    10f0:	8f bf       	out	0x3f, r24	; 63
    10f2:	8c 2f       	mov	r24, r28
    10f4:	df 91       	pop	r29
    10f6:	cf 91       	pop	r28
    10f8:	1f 91       	pop	r17
    10fa:	08 95       	ret

000010fc <ArbiterP__1__Resource__request.constprop.138>:
    10fc:	cf 93       	push	r28
    10fe:	df 93       	push	r29
    1100:	9f b7       	in	r25, 0x3f	; 63
    1102:	f8 94       	cli
    1104:	c0 91 8e 02 	lds	r28, 0x028E
    1108:	c1 11       	cpse	r28, r1
    110a:	27 c0       	rjmp	.+78     	; 0x115a <ArbiterP__1__Resource__request.constprop.138+0x5e>
    110c:	81 e0       	ldi	r24, 0x01	; 1
    110e:	80 93 8e 02 	sts	0x028E, r24
    1112:	10 92 cc 0e 	sts	0x0ECC, r1
    1116:	9f bf       	out	0x3f, r25	; 63
    1118:	9f b7       	in	r25, 0x3f	; 63
    111a:	f8 94       	cli
    111c:	80 91 7a 00 	lds	r24, 0x007A
    1120:	80 68       	ori	r24, 0x80	; 128
    1122:	80 93 7a 00 	sts	0x007A, r24
    1126:	9f bf       	out	0x3f, r25	; 63
    1128:	df b7       	in	r29, 0x3f	; 63
    112a:	f8 94       	cli
    112c:	80 91 0c 02 	lds	r24, 0x020C
    1130:	81 30       	cpi	r24, 0x01	; 1
    1132:	89 f4       	brne	.+34     	; 0x1156 <ArbiterP__1__Resource__request.constprop.138+0x5a>
    1134:	80 91 8e 02 	lds	r24, 0x028E
    1138:	81 30       	cpi	r24, 0x01	; 1
    113a:	21 f4       	brne	.+8      	; 0x1144 <ArbiterP__1__Resource__request.constprop.138+0x48>
    113c:	85 e2       	ldi	r24, 0x25	; 37
    113e:	0e 94 1f 03 	call	0x63e	; 0x63e <SchedulerBasicP__TaskBasic__postTask>
    1142:	09 c0       	rjmp	.+18     	; 0x1156 <ArbiterP__1__Resource__request.constprop.138+0x5a>
    1144:	82 30       	cpi	r24, 0x02	; 2
    1146:	39 f4       	brne	.+14     	; 0x1156 <ArbiterP__1__Resource__request.constprop.138+0x5a>
    1148:	80 91 cc 0e 	lds	r24, 0x0ECC
    114c:	80 93 0c 02 	sts	0x020C, r24
    1150:	83 e0       	ldi	r24, 0x03	; 3
    1152:	80 93 8e 02 	sts	0x028E, r24
    1156:	df bf       	out	0x3f, r29	; 63
    1158:	0f c0       	rjmp	.+30     	; 0x1178 <ArbiterP__1__Resource__request.constprop.138+0x7c>
    115a:	c0 91 cc 0e 	lds	r28, 0x0ECC
    115e:	cc 23       	and	r28, r28
    1160:	51 f0       	breq	.+20     	; 0x1176 <ArbiterP__1__Resource__request.constprop.138+0x7a>
    1162:	80 91 a5 11 	lds	r24, 0x11A5
    1166:	80 fd       	sbrc	r24, 0
    1168:	05 c0       	rjmp	.+10     	; 0x1174 <ArbiterP__1__Resource__request.constprop.138+0x78>
    116a:	81 60       	ori	r24, 0x01	; 1
    116c:	80 93 a5 11 	sts	0x11A5, r24
    1170:	c0 e0       	ldi	r28, 0x00	; 0
    1172:	01 c0       	rjmp	.+2      	; 0x1176 <ArbiterP__1__Resource__request.constprop.138+0x7a>
    1174:	c5 e0       	ldi	r28, 0x05	; 5
    1176:	9f bf       	out	0x3f, r25	; 63
    1178:	8c 2f       	mov	r24, r28
    117a:	df 91       	pop	r29
    117c:	cf 91       	pop	r28
    117e:	08 95       	ret

00001180 <FMClickP__enableRDS>:
    1180:	88 23       	and	r24, r24
    1182:	71 f1       	breq	.+92     	; 0x11e0 <FMClickP__enableRDS+0x60>
    1184:	2f b7       	in	r18, 0x3f	; 63
    1186:	f8 94       	cli
    1188:	80 91 0b 0a 	lds	r24, 0x0A0B
    118c:	90 91 0c 0a 	lds	r25, 0x0A0C
    1190:	90 69       	ori	r25, 0x90	; 144
    1192:	90 93 0c 0a 	sts	0x0A0C, r25
    1196:	80 93 0b 0a 	sts	0x0A0B, r24
    119a:	10 92 73 12 	sts	0x1273, r1
    119e:	84 e0       	ldi	r24, 0x04	; 4
    11a0:	80 93 60 12 	sts	0x1260, r24
    11a4:	2f bf       	out	0x3f, r18	; 63
    11a6:	48 e0       	ldi	r20, 0x08	; 8
    11a8:	50 e0       	ldi	r21, 0x00	; 0
    11aa:	60 e2       	ldi	r22, 0x20	; 32
    11ac:	70 e0       	ldi	r23, 0x00	; 0
    11ae:	84 e7       	ldi	r24, 0x74	; 116
    11b0:	92 e1       	ldi	r25, 0x12	; 18
    11b2:	0e 94 3d 2d 	call	0x5a7a	; 0x5a7a <memset>
    11b6:	40 e4       	ldi	r20, 0x40	; 64
    11b8:	50 e0       	ldi	r21, 0x00	; 0
    11ba:	60 e2       	ldi	r22, 0x20	; 32
    11bc:	70 e0       	ldi	r23, 0x00	; 0
    11be:	8e e7       	ldi	r24, 0x7E	; 126
    11c0:	92 e1       	ldi	r25, 0x12	; 18
    11c2:	0e 94 3d 2d 	call	0x5a7a	; 0x5a7a <memset>
    11c6:	46 e0       	ldi	r20, 0x06	; 6
    11c8:	50 e0       	ldi	r21, 0x00	; 0
    11ca:	60 e2       	ldi	r22, 0x20	; 32
    11cc:	70 e0       	ldi	r23, 0x00	; 0
    11ce:	8e eb       	ldi	r24, 0xBE	; 190
    11d0:	92 e1       	ldi	r25, 0x12	; 18
    11d2:	0e 94 3d 2d 	call	0x5a7a	; 0x5a7a <memset>
    11d6:	88 e0       	ldi	r24, 0x08	; 8
    11d8:	8c bb       	out	0x1c, r24	; 28
    11da:	0e 94 03 03 	call	0x606	; 0x606 <HplAtm128InterruptPinP__3__Irq__enable>
    11de:	10 c0       	rjmp	.+32     	; 0x1200 <FMClickP__enableRDS+0x80>
    11e0:	eb 98       	cbi	0x1d, 3	; 29
    11e2:	2f b7       	in	r18, 0x3f	; 63
    11e4:	f8 94       	cli
    11e6:	80 91 0b 0a 	lds	r24, 0x0A0B
    11ea:	90 91 0c 0a 	lds	r25, 0x0A0C
    11ee:	9f 76       	andi	r25, 0x6F	; 111
    11f0:	90 93 0c 0a 	sts	0x0A0C, r25
    11f4:	80 93 0b 0a 	sts	0x0A0B, r24
    11f8:	84 e0       	ldi	r24, 0x04	; 4
    11fa:	80 93 60 12 	sts	0x1260, r24
    11fe:	2f bf       	out	0x3f, r18	; 63
    1200:	0c 94 47 03 	jmp	0x68e	; 0x68e <FMClickP__writeRegisters__postTask>

00001204 <FMClickP__seek__runTask>:
    1204:	9f b7       	in	r25, 0x3f	; 63
    1206:	f8 94       	cli
    1208:	20 91 cf 0e 	lds	r18, 0x0ECF
    120c:	80 91 6c 12 	lds	r24, 0x126C
    1210:	9f bf       	out	0x3f, r25	; 63
    1212:	81 11       	cpse	r24, r1
    1214:	3b c0       	rjmp	.+118    	; 0x128c <FMClickP__seek__runTask+0x88>
    1216:	22 30       	cpi	r18, 0x02	; 2
    1218:	69 f4       	brne	.+26     	; 0x1234 <FMClickP__seek__runTask+0x30>
    121a:	2f b7       	in	r18, 0x3f	; 63
    121c:	f8 94       	cli
    121e:	80 91 07 0a 	lds	r24, 0x0A07
    1222:	90 91 08 0a 	lds	r25, 0x0A08
    1226:	95 60       	ori	r25, 0x05	; 5
    1228:	90 93 08 0a 	sts	0x0A08, r25
    122c:	80 93 07 0a 	sts	0x0A07, r24
    1230:	2f bf       	out	0x3f, r18	; 63
    1232:	0f c0       	rjmp	.+30     	; 0x1252 <FMClickP__seek__runTask+0x4e>
    1234:	3f b7       	in	r19, 0x3f	; 63
    1236:	f8 94       	cli
    1238:	80 91 07 0a 	lds	r24, 0x0A07
    123c:	90 91 08 0a 	lds	r25, 0x0A08
    1240:	9a 7f       	andi	r25, 0xFA	; 250
    1242:	91 60       	ori	r25, 0x01	; 1
    1244:	90 93 08 0a 	sts	0x0A08, r25
    1248:	80 93 07 0a 	sts	0x0A07, r24
    124c:	3f bf       	out	0x3f, r19	; 63
    124e:	21 11       	cpse	r18, r1
    1250:	a2 c0       	rjmp	.+324    	; 0x1396 <FMClickP__seek__runTask+0x192>
    1252:	2f b7       	in	r18, 0x3f	; 63
    1254:	f8 94       	cli
    1256:	80 91 07 0a 	lds	r24, 0x0A07
    125a:	90 91 08 0a 	lds	r25, 0x0A08
    125e:	92 60       	ori	r25, 0x02	; 2
    1260:	90 93 08 0a 	sts	0x0A08, r25
    1264:	80 93 07 0a 	sts	0x0A07, r24
    1268:	2f bf       	out	0x3f, r18	; 63
    126a:	2f b7       	in	r18, 0x3f	; 63
    126c:	f8 94       	cli
    126e:	80 91 0b 0a 	lds	r24, 0x0A0B
    1272:	90 91 0c 0a 	lds	r25, 0x0A0C
    1276:	9f 76       	andi	r25, 0x6F	; 111
    1278:	90 64       	ori	r25, 0x40	; 64
    127a:	90 93 0c 0a 	sts	0x0A0C, r25
    127e:	80 93 0b 0a 	sts	0x0A0B, r24
    1282:	84 e0       	ldi	r24, 0x04	; 4
    1284:	80 93 60 12 	sts	0x1260, r24
    1288:	81 e0       	ldi	r24, 0x01	; 1
    128a:	3e c0       	rjmp	.+124    	; 0x1308 <FMClickP__seek__runTask+0x104>
    128c:	81 30       	cpi	r24, 0x01	; 1
    128e:	51 f4       	brne	.+20     	; 0x12a4 <FMClickP__seek__runTask+0xa0>
    1290:	8f b7       	in	r24, 0x3f	; 63
    1292:	f8 94       	cli
    1294:	92 e0       	ldi	r25, 0x02	; 2
    1296:	90 93 6c 12 	sts	0x126C, r25
    129a:	8f bf       	out	0x3f, r24	; 63
    129c:	88 e0       	ldi	r24, 0x08	; 8
    129e:	8c bb       	out	0x1c, r24	; 28
    12a0:	0c 94 03 03 	jmp	0x606	; 0x606 <HplAtm128InterruptPinP__3__Irq__enable>
    12a4:	82 30       	cpi	r24, 0x02	; 2
    12a6:	21 f4       	brne	.+8      	; 0x12b0 <FMClickP__seek__runTask+0xac>
    12a8:	8f b7       	in	r24, 0x3f	; 63
    12aa:	f8 94       	cli
    12ac:	93 e0       	ldi	r25, 0x03	; 3
    12ae:	36 c0       	rjmp	.+108    	; 0x131c <FMClickP__seek__runTask+0x118>
    12b0:	83 30       	cpi	r24, 0x03	; 3
    12b2:	79 f5       	brne	.+94     	; 0x1312 <FMClickP__seek__runTask+0x10e>
    12b4:	2f b7       	in	r18, 0x3f	; 63
    12b6:	f8 94       	cli
    12b8:	80 91 17 0a 	lds	r24, 0x0A17
    12bc:	90 91 18 0a 	lds	r25, 0x0A18
    12c0:	88 27       	eor	r24, r24
    12c2:	90 72       	andi	r25, 0x20	; 32
    12c4:	90 93 a7 02 	sts	0x02A7, r25
    12c8:	80 91 19 0a 	lds	r24, 0x0A19
    12cc:	90 91 1a 0a 	lds	r25, 0x0A1A
    12d0:	93 70       	andi	r25, 0x03	; 3
    12d2:	85 59       	subi	r24, 0x95	; 149
    12d4:	9c 4f       	sbci	r25, 0xFC	; 252
    12d6:	90 93 d0 12 	sts	0x12D0, r25
    12da:	80 93 cf 12 	sts	0x12CF, r24
    12de:	80 91 07 0a 	lds	r24, 0x0A07
    12e2:	90 91 08 0a 	lds	r25, 0x0A08
    12e6:	9e 7f       	andi	r25, 0xFE	; 254
    12e8:	90 93 08 0a 	sts	0x0A08, r25
    12ec:	80 93 07 0a 	sts	0x0A07, r24
    12f0:	80 91 0b 0a 	lds	r24, 0x0A0B
    12f4:	90 91 0c 0a 	lds	r25, 0x0A0C
    12f8:	9f 7b       	andi	r25, 0xBF	; 191
    12fa:	90 93 0c 0a 	sts	0x0A0C, r25
    12fe:	80 93 0b 0a 	sts	0x0A0B, r24
    1302:	84 e0       	ldi	r24, 0x04	; 4
    1304:	80 93 60 12 	sts	0x1260, r24
    1308:	80 93 6c 12 	sts	0x126C, r24
    130c:	2f bf       	out	0x3f, r18	; 63
    130e:	0c 94 47 03 	jmp	0x68e	; 0x68e <FMClickP__writeRegisters__postTask>
    1312:	84 30       	cpi	r24, 0x04	; 4
    1314:	41 f4       	brne	.+16     	; 0x1326 <FMClickP__seek__runTask+0x122>
    1316:	8f b7       	in	r24, 0x3f	; 63
    1318:	f8 94       	cli
    131a:	95 e0       	ldi	r25, 0x05	; 5
    131c:	90 93 6c 12 	sts	0x126C, r25
    1320:	8f bf       	out	0x3f, r24	; 63
    1322:	0c 94 53 03 	jmp	0x6a6	; 0x6a6 <FMClickP__readRegisters__postTask>
    1326:	85 30       	cpi	r24, 0x05	; 5
    1328:	09 f0       	breq	.+2      	; 0x132c <FMClickP__seek__runTask+0x128>
    132a:	3d c0       	rjmp	.+122    	; 0x13a6 <FMClickP__seek__runTask+0x1a2>
    132c:	2f b7       	in	r18, 0x3f	; 63
    132e:	f8 94       	cli
    1330:	80 91 17 0a 	lds	r24, 0x0A17
    1334:	90 91 18 0a 	lds	r25, 0x0A18
    1338:	88 27       	eor	r24, r24
    133a:	90 74       	andi	r25, 0x40	; 64
    133c:	89 2f       	mov	r24, r25
    133e:	99 27       	eor	r25, r25
    1340:	2f bf       	out	0x3f, r18	; 63
    1342:	89 2b       	or	r24, r25
    1344:	01 f5       	brne	.+64     	; 0x1386 <FMClickP__seek__runTask+0x182>
    1346:	80 91 a7 02 	lds	r24, 0x02A7
    134a:	81 11       	cpse	r24, r1
    134c:	05 c0       	rjmp	.+10     	; 0x1358 <FMClickP__seek__runTask+0x154>
    134e:	80 91 cf 12 	lds	r24, 0x12CF
    1352:	90 91 d0 12 	lds	r25, 0x12D0
    1356:	02 c0       	rjmp	.+4      	; 0x135c <FMClickP__seek__runTask+0x158>
    1358:	8f ef       	ldi	r24, 0xFF	; 255
    135a:	9f ef       	ldi	r25, 0xFF	; 255
    135c:	0e 94 29 05 	call	0xa52	; 0xa52 <RadioScannerP__Radio__seekComplete>
    1360:	80 91 6e 12 	lds	r24, 0x126E
    1364:	88 23       	and	r24, r24
    1366:	49 f0       	breq	.+18     	; 0x137a <FMClickP__seek__runTask+0x176>
    1368:	8f b7       	in	r24, 0x3f	; 63
    136a:	f8 94       	cli
    136c:	94 e0       	ldi	r25, 0x04	; 4
    136e:	90 93 68 12 	sts	0x1268, r25
    1372:	8f bf       	out	0x3f, r24	; 63
    1374:	81 e0       	ldi	r24, 0x01	; 1
    1376:	0c 94 c0 08 	jmp	0x1180	; 0x1180 <FMClickP__enableRDS>
    137a:	8f b7       	in	r24, 0x3f	; 63
    137c:	f8 94       	cli
    137e:	10 92 68 12 	sts	0x1268, r1
    1382:	8f bf       	out	0x3f, r24	; 63
    1384:	08 95       	ret
    1386:	8f b7       	in	r24, 0x3f	; 63
    1388:	f8 94       	cli
    138a:	94 e0       	ldi	r25, 0x04	; 4
    138c:	90 93 6c 12 	sts	0x126C, r25
    1390:	8f bf       	out	0x3f, r24	; 63
    1392:	0c 94 4a 03 	jmp	0x694	; 0x694 <FMClickP__seek__postTask>
    1396:	2f b7       	in	r18, 0x3f	; 63
    1398:	f8 94       	cli
    139a:	80 91 07 0a 	lds	r24, 0x0A07
    139e:	90 91 08 0a 	lds	r25, 0x0A08
    13a2:	9d 7f       	andi	r25, 0xFD	; 253
    13a4:	5d cf       	rjmp	.-326    	; 0x1260 <FMClickP__seek__runTask+0x5c>
    13a6:	08 95       	ret

000013a8 <RadioScannerP__DB__savedChannel.isra.71>:
    13a8:	2f b7       	in	r18, 0x3f	; 63
    13aa:	f8 94       	cli
    13ac:	90 91 d3 07 	lds	r25, 0x07D3
    13b0:	2f bf       	out	0x3f, r18	; 63
    13b2:	81 11       	cpse	r24, r1
    13b4:	13 c0       	rjmp	.+38     	; 0x13dc <RadioScannerP__DB__savedChannel.isra.71+0x34>
    13b6:	96 30       	cpi	r25, 0x06	; 6
    13b8:	49 f0       	breq	.+18     	; 0x13cc <RadioScannerP__DB__savedChannel.isra.71+0x24>
    13ba:	97 30       	cpi	r25, 0x07	; 7
    13bc:	39 f0       	breq	.+14     	; 0x13cc <RadioScannerP__DB__savedChannel.isra.71+0x24>
    13be:	95 30       	cpi	r25, 0x05	; 5
    13c0:	29 f4       	brne	.+10     	; 0x13cc <RadioScannerP__DB__savedChannel.isra.71+0x24>
    13c2:	0e 94 0a 05 	call	0xa14	; 0xa14 <RadioScannerP__clearRDSData>
    13c6:	87 e0       	ldi	r24, 0x07	; 7
    13c8:	0c 94 1f 03 	jmp	0x63e	; 0x63e <SchedulerBasicP__TaskBasic__postTask>
    13cc:	8f b7       	in	r24, 0x3f	; 63
    13ce:	f8 94       	cli
    13d0:	91 e0       	ldi	r25, 0x01	; 1
    13d2:	90 93 d3 07 	sts	0x07D3, r25
    13d6:	8f bf       	out	0x3f, r24	; 63
    13d8:	0c 94 50 03 	jmp	0x6a0	; 0x6a0 <RadioScannerP__displayChannelInfo__postTask>
    13dc:	81 30       	cpi	r24, 0x01	; 1
    13de:	21 f4       	brne	.+8      	; 0x13e8 <RadioScannerP__DB__savedChannel.isra.71+0x40>
    13e0:	8f b7       	in	r24, 0x3f	; 63
    13e2:	f8 94       	cli
    13e4:	94 e0       	ldi	r25, 0x04	; 4
    13e6:	03 c0       	rjmp	.+6      	; 0x13ee <RadioScannerP__DB__savedChannel.isra.71+0x46>
    13e8:	8f b7       	in	r24, 0x3f	; 63
    13ea:	f8 94       	cli
    13ec:	95 e0       	ldi	r25, 0x05	; 5
    13ee:	90 93 c5 03 	sts	0x03C5, r25
    13f2:	8f bf       	out	0x3f, r24	; 63
    13f4:	0c 94 3e 03 	jmp	0x67c	; 0x67c <RadioScannerP__displaySoftError__postTask>

000013f8 <Enc28j60P__writeReg16>:
    13f8:	1f 93       	push	r17
    13fa:	cf 93       	push	r28
    13fc:	df 93       	push	r29
    13fe:	1f 92       	push	r1
    1400:	cd b7       	in	r28, 0x3d	; 61
    1402:	de b7       	in	r29, 0x3e	; 62
    1404:	18 2f       	mov	r17, r24
    1406:	80 64       	ori	r24, 0x40	; 64
    1408:	79 83       	std	Y+1, r23	; 0x01
    140a:	0e 94 b8 03 	call	0x770	; 0x770 <Enc28j60P__writeSPI>
    140e:	81 e0       	ldi	r24, 0x01	; 1
    1410:	81 0f       	add	r24, r17
    1412:	79 81       	ldd	r23, Y+1	; 0x01
    1414:	67 2f       	mov	r22, r23
    1416:	80 64       	ori	r24, 0x40	; 64
    1418:	0f 90       	pop	r0
    141a:	df 91       	pop	r29
    141c:	cf 91       	pop	r28
    141e:	1f 91       	pop	r17
    1420:	0c 94 b8 03 	jmp	0x770	; 0x770 <Enc28j60P__writeSPI>

00001424 <HplLcdP__writeNibble>:
    1424:	66 0f       	add	r22, r22
    1426:	66 0f       	add	r22, r22
    1428:	68 b9       	out	0x08, r22	; 8
    142a:	43 9a       	sbi	0x08, 3	; 8
    142c:	98 b1       	in	r25, 0x08	; 8
    142e:	82 95       	swap	r24
    1430:	80 7f       	andi	r24, 0xF0	; 240
    1432:	98 2b       	or	r25, r24
    1434:	98 b9       	out	0x08, r25	; 8
    1436:	43 98       	cbi	0x08, 3	; 8
    1438:	08 95       	ret

0000143a <HplLcdP__write>:
    143a:	cf 93       	push	r28
    143c:	df 93       	push	r29
    143e:	c8 2f       	mov	r28, r24
    1440:	d6 2f       	mov	r29, r22
    1442:	82 95       	swap	r24
    1444:	8f 70       	andi	r24, 0x0F	; 15
    1446:	0e 94 12 0a 	call	0x1424	; 0x1424 <HplLcdP__writeNibble>
    144a:	6d 2f       	mov	r22, r29
    144c:	8c 2f       	mov	r24, r28
    144e:	df 91       	pop	r29
    1450:	cf 91       	pop	r28
    1452:	0c 94 12 0a 	jmp	0x1424	; 0x1424 <HplLcdP__writeNibble>

00001456 <PacketQueueP__3__PacketSender__sendDone.isra.57>:
    1456:	10 92 9a 02 	sts	0x029A, r1
    145a:	e0 91 9b 02 	lds	r30, 0x029B
    145e:	8b e0       	ldi	r24, 0x0B	; 11
    1460:	e8 9f       	mul	r30, r24
    1462:	f0 01       	movw	r30, r0
    1464:	11 24       	eor	r1, r1
    1466:	e3 51       	subi	r30, 0x13	; 19
    1468:	fe 4e       	sbci	r31, 0xEE	; 238
    146a:	10 82       	st	Z, r1
    146c:	85 e1       	ldi	r24, 0x15	; 21
    146e:	0c 94 1f 03 	jmp	0x63e	; 0x63e <SchedulerBasicP__TaskBasic__postTask>

00001472 <Atm1280SpiP__Resource__request.constprop.114>:
    1472:	cf 93       	push	r28
    1474:	df 93       	push	r29
    1476:	9f b7       	in	r25, 0x3f	; 63
    1478:	f8 94       	cli
    147a:	80 91 95 02 	lds	r24, 0x0295
    147e:	88 23       	and	r24, r24
    1480:	69 f1       	breq	.+90     	; 0x14dc <Atm1280SpiP__Resource__request.constprop.114+0x6a>
    1482:	9f bf       	out	0x3f, r25	; 63
    1484:	df b7       	in	r29, 0x3f	; 63
    1486:	f8 94       	cli
    1488:	c0 91 95 02 	lds	r28, 0x0295
    148c:	c1 11       	cpse	r28, r1
    148e:	09 c0       	rjmp	.+18     	; 0x14a2 <Atm1280SpiP__Resource__request.constprop.114+0x30>
    1490:	81 e0       	ldi	r24, 0x01	; 1
    1492:	80 93 95 02 	sts	0x0295, r24
    1496:	10 92 11 02 	sts	0x0211, r1
    149a:	88 e1       	ldi	r24, 0x18	; 24
    149c:	0e 94 1f 03 	call	0x63e	; 0x63e <SchedulerBasicP__TaskBasic__postTask>
    14a0:	18 c0       	rjmp	.+48     	; 0x14d2 <Atm1280SpiP__Resource__request.constprop.114+0x60>
    14a2:	80 91 9a 0c 	lds	r24, 0x0C9A
    14a6:	8f 3f       	cpi	r24, 0xFF	; 255
    14a8:	99 f4       	brne	.+38     	; 0x14d0 <Atm1280SpiP__Resource__request.constprop.114+0x5e>
    14aa:	e0 91 12 02 	lds	r30, 0x0212
    14ae:	ee 23       	and	r30, r30
    14b0:	79 f0       	breq	.+30     	; 0x14d0 <Atm1280SpiP__Resource__request.constprop.114+0x5e>
    14b2:	80 91 13 02 	lds	r24, 0x0213
    14b6:	8f 3f       	cpi	r24, 0xFF	; 255
    14b8:	19 f4       	brne	.+6      	; 0x14c0 <Atm1280SpiP__Resource__request.constprop.114+0x4e>
    14ba:	10 92 13 02 	sts	0x0213, r1
    14be:	04 c0       	rjmp	.+8      	; 0x14c8 <Atm1280SpiP__Resource__request.constprop.114+0x56>
    14c0:	f0 e0       	ldi	r31, 0x00	; 0
    14c2:	e6 56       	subi	r30, 0x66	; 102
    14c4:	f3 4f       	sbci	r31, 0xF3	; 243
    14c6:	10 82       	st	Z, r1
    14c8:	10 92 12 02 	sts	0x0212, r1
    14cc:	c0 e0       	ldi	r28, 0x00	; 0
    14ce:	01 c0       	rjmp	.+2      	; 0x14d2 <Atm1280SpiP__Resource__request.constprop.114+0x60>
    14d0:	c5 e0       	ldi	r28, 0x05	; 5
    14d2:	df bf       	out	0x3f, r29	; 63
    14d4:	8c 2f       	mov	r24, r28
    14d6:	df 91       	pop	r29
    14d8:	cf 91       	pop	r28
    14da:	08 95       	ret
    14dc:	8c b5       	in	r24, 0x2c	; 44
    14de:	8f 7b       	andi	r24, 0xBF	; 191
    14e0:	8c bd       	out	0x2c, r24	; 44
    14e2:	22 9a       	sbi	0x04, 2	; 4
    14e4:	23 98       	cbi	0x04, 3	; 4
    14e6:	21 9a       	sbi	0x04, 1	; 4
    14e8:	20 9a       	sbi	0x04, 0	; 4
    14ea:	8c b5       	in	r24, 0x2c	; 44
    14ec:	80 61       	ori	r24, 0x10	; 16
    14ee:	8c bd       	out	0x2c, r24	; 44
    14f0:	8c b5       	in	r24, 0x2c	; 44
    14f2:	8f 77       	andi	r24, 0x7F	; 127
    14f4:	8c bd       	out	0x2c, r24	; 44
    14f6:	8d b5       	in	r24, 0x2d	; 45
    14f8:	8e 7f       	andi	r24, 0xFE	; 254
    14fa:	8d bd       	out	0x2d, r24	; 45
    14fc:	8c b5       	in	r24, 0x2c	; 44
    14fe:	87 7f       	andi	r24, 0xF7	; 247
    1500:	8c bd       	out	0x2c, r24	; 44
    1502:	8c b5       	in	r24, 0x2c	; 44
    1504:	8b 7f       	andi	r24, 0xFB	; 251
    1506:	8c bd       	out	0x2c, r24	; 44
    1508:	8c b5       	in	r24, 0x2c	; 44
    150a:	8c 7f       	andi	r24, 0xFC	; 252
    150c:	8c bd       	out	0x2c, r24	; 44
    150e:	8c b5       	in	r24, 0x2c	; 44
    1510:	80 64       	ori	r24, 0x40	; 64
    1512:	8c bd       	out	0x2c, r24	; 44
    1514:	b6 cf       	rjmp	.-148    	; 0x1482 <Atm1280SpiP__Resource__request.constprop.114+0x10>

00001516 <AdcP__sample>:
    1516:	0f 93       	push	r16
    1518:	1f 93       	push	r17
    151a:	cf 93       	push	r28
    151c:	df 93       	push	r29
    151e:	80 91 c4 12 	lds	r24, 0x12C4
    1522:	88 23       	and	r24, r24
    1524:	09 f4       	brne	.+2      	; 0x1528 <AdcP__sample+0x12>
    1526:	3f c0       	rjmp	.+126    	; 0x15a6 <AdcP__sample+0x90>
    1528:	10 e0       	ldi	r17, 0x00	; 0
    152a:	c0 e0       	ldi	r28, 0x00	; 0
    152c:	df e1       	ldi	r29, 0x1F	; 31
    152e:	0f b7       	in	r16, 0x3f	; 63
    1530:	f8 94       	cli
    1532:	80 91 c7 12 	lds	r24, 0x12C7
    1536:	8e 7f       	andi	r24, 0xFE	; 254
    1538:	80 93 c7 12 	sts	0x12C7, r24
    153c:	0e 94 56 03 	call	0x6ac	; 0x6ac <HplAtm1280AdcP__HplAtm1280Adc__getAdmux>
    1540:	28 2f       	mov	r18, r24
    1542:	2f 73       	andi	r18, 0x3F	; 63
    1544:	88 1f       	adc	r24, r24
    1546:	88 27       	eor	r24, r24
    1548:	88 1f       	adc	r24, r24
    154a:	91 70       	andi	r25, 0x01	; 1
    154c:	99 0f       	add	r25, r25
    154e:	89 2b       	or	r24, r25
    1550:	18 13       	cpse	r17, r24
    1552:	02 c0       	rjmp	.+4      	; 0x1558 <AdcP__sample+0x42>
    1554:	91 e0       	ldi	r25, 0x01	; 1
    1556:	d2 13       	cpse	r29, r18
    1558:	90 e0       	ldi	r25, 0x00	; 0
    155a:	80 91 c7 12 	lds	r24, 0x12C7
    155e:	90 fb       	bst	r25, 0
    1560:	81 f9       	bld	r24, 1
    1562:	9d 2f       	mov	r25, r29
    1564:	9f 73       	andi	r25, 0x3F	; 63
    1566:	99 0f       	add	r25, r25
    1568:	99 0f       	add	r25, r25
    156a:	83 70       	andi	r24, 0x03	; 3
    156c:	89 2b       	or	r24, r25
    156e:	80 93 c7 12 	sts	0x12C7, r24
    1572:	11 11       	cpse	r17, r1
    1574:	d0 64       	ori	r29, 0x40	; 64
    1576:	d0 93 7c 00 	sts	0x007C, r29
    157a:	80 91 7b 00 	lds	r24, 0x007B
    157e:	87 7f       	andi	r24, 0xF7	; 247
    1580:	80 93 7b 00 	sts	0x007B, r24
    1584:	90 91 c7 12 	lds	r25, 0x12C7
    1588:	8c 2f       	mov	r24, r28
    158a:	88 60       	ori	r24, 0x08	; 8
    158c:	80 61       	ori	r24, 0x10	; 16
    158e:	90 fb       	bst	r25, 0
    1590:	85 f9       	bld	r24, 5
    1592:	80 64       	ori	r24, 0x40	; 64
    1594:	80 68       	ori	r24, 0x80	; 128
    1596:	80 93 7a 00 	sts	0x007A, r24
    159a:	0f bf       	out	0x3f, r16	; 63
    159c:	df 91       	pop	r29
    159e:	cf 91       	pop	r28
    15a0:	1f 91       	pop	r17
    15a2:	0f 91       	pop	r16
    15a4:	08 95       	ret
    15a6:	c7 e0       	ldi	r28, 0x07	; 7
    15a8:	11 e0       	ldi	r17, 0x01	; 1
    15aa:	d0 e0       	ldi	r29, 0x00	; 0
    15ac:	c0 cf       	rjmp	.-128    	; 0x152e <AdcP__sample+0x18>

000015ae <FMClickP__I2CResource__release>:
    15ae:	cf 93       	push	r28
    15b0:	df 93       	push	r29
    15b2:	cf b7       	in	r28, 0x3f	; 63
    15b4:	f8 94       	cli
    15b6:	0e 94 72 03 	call	0x6e4	; 0x6e4 <HplAtm128I2CBusP__I2C__readCurrent>
    15ba:	80 91 e5 11 	lds	r24, 0x11E5
    15be:	8e 7f       	andi	r24, 0xFE	; 254
    15c0:	80 69       	ori	r24, 0x90	; 144
    15c2:	80 93 e5 11 	sts	0x11E5, r24
    15c6:	0e 94 fe 02 	call	0x5fc	; 0x5fc <HplAtm128I2CBusP__I2C__sendCommand>
    15ca:	cf bf       	out	0x3f, r28	; 63
    15cc:	df b7       	in	r29, 0x3f	; 63
    15ce:	f8 94       	cli
    15d0:	80 91 92 02 	lds	r24, 0x0292
    15d4:	83 30       	cpi	r24, 0x03	; 3
    15d6:	c1 f5       	brne	.+112    	; 0x1648 <FMClickP__I2CResource__release+0x9a>
    15d8:	c0 91 0e 02 	lds	r28, 0x020E
    15dc:	c1 11       	cpse	r28, r1
    15de:	34 c0       	rjmp	.+104    	; 0x1648 <FMClickP__I2CResource__release+0x9a>
    15e0:	80 91 10 02 	lds	r24, 0x0210
    15e4:	8f 3f       	cpi	r24, 0xFF	; 255
    15e6:	c1 f0       	breq	.+48     	; 0x1618 <FMClickP__I2CResource__release+0x6a>
    15e8:	e8 2f       	mov	r30, r24
    15ea:	f0 e0       	ldi	r31, 0x00	; 0
    15ec:	ec 52       	subi	r30, 0x2C	; 44
    15ee:	f1 4f       	sbci	r31, 0xF1	; 241
    15f0:	90 81       	ld	r25, Z
    15f2:	90 93 10 02 	sts	0x0210, r25
    15f6:	9f 3f       	cpi	r25, 0xFF	; 255
    15f8:	11 f4       	brne	.+4      	; 0x15fe <FMClickP__I2CResource__release+0x50>
    15fa:	90 93 0f 02 	sts	0x020F, r25
    15fe:	9f ef       	ldi	r25, 0xFF	; 255
    1600:	90 83       	st	Z, r25
    1602:	80 93 5f 12 	sts	0x125F, r24
    1606:	90 93 0e 02 	sts	0x020E, r25
    160a:	81 e0       	ldi	r24, 0x01	; 1
    160c:	80 93 92 02 	sts	0x0292, r24
    1610:	83 e2       	ldi	r24, 0x23	; 35
    1612:	0e 94 1f 03 	call	0x63e	; 0x63e <SchedulerBasicP__TaskBasic__postTask>
    1616:	16 c0       	rjmp	.+44     	; 0x1644 <FMClickP__I2CResource__release+0x96>
    1618:	81 e0       	ldi	r24, 0x01	; 1
    161a:	80 93 0e 02 	sts	0x020E, r24
    161e:	10 92 92 02 	sts	0x0292, r1
    1622:	80 91 91 02 	lds	r24, 0x0291
    1626:	81 30       	cpi	r24, 0x01	; 1
    1628:	69 f4       	brne	.+26     	; 0x1644 <FMClickP__I2CResource__release+0x96>
    162a:	0e 94 72 03 	call	0x6e4	; 0x6e4 <HplAtm128I2CBusP__I2C__readCurrent>
    162e:	80 91 e5 11 	lds	r24, 0x11E5
    1632:	8a 76       	andi	r24, 0x6A	; 106
    1634:	80 93 e5 11 	sts	0x11E5, r24
    1638:	0e 94 fe 02 	call	0x5fc	; 0x5fc <HplAtm128I2CBusP__I2C__sendCommand>
    163c:	58 98       	cbi	0x0b, 0	; 11
    163e:	59 98       	cbi	0x0b, 1	; 11
    1640:	10 92 91 02 	sts	0x0291, r1
    1644:	df bf       	out	0x3f, r29	; 63
    1646:	02 c0       	rjmp	.+4      	; 0x164c <FMClickP__I2CResource__release+0x9e>
    1648:	df bf       	out	0x3f, r29	; 63
    164a:	c1 e0       	ldi	r28, 0x01	; 1
    164c:	8c 2f       	mov	r24, r28
    164e:	df 91       	pop	r29
    1650:	cf 91       	pop	r28
    1652:	08 95       	ret

00001654 <PacketQueueP__4__PacketSender__sendDone>:
    1654:	10 92 93 02 	sts	0x0293, r1
    1658:	90 91 94 02 	lds	r25, 0x0294
    165c:	2d e0       	ldi	r18, 0x0D	; 13
    165e:	92 9f       	mul	r25, r18
    1660:	f0 01       	movw	r30, r0
    1662:	11 24       	eor	r1, r1
    1664:	e0 57       	subi	r30, 0x70	; 112
    1666:	f0 4f       	sbci	r31, 0xF0	; 240
    1668:	10 82       	st	Z, r1
    166a:	91 11       	cpse	r25, r1
    166c:	03 c0       	rjmp	.+6      	; 0x1674 <PacketQueueP__4__PacketSender__sendDone+0x20>
    166e:	81 11       	cpse	r24, r1
    1670:	0e 94 44 03 	call	0x688	; 0x688 <DatabaseP__sendTask__postTask>
    1674:	89 e1       	ldi	r24, 0x19	; 25
    1676:	0c 94 1f 03 	jmp	0x63e	; 0x63e <SchedulerBasicP__TaskBasic__postTask>

0000167a <IpQueueP__IpQueue__sendDone>:
    167a:	88 23       	and	r24, r24
    167c:	19 f0       	breq	.+6      	; 0x1684 <IpQueueP__IpQueue__sendDone+0xa>
    167e:	81 30       	cpi	r24, 0x01	; 1
    1680:	19 f0       	breq	.+6      	; 0x1688 <IpQueueP__IpQueue__sendDone+0xe>
    1682:	08 95       	ret
    1684:	0c 94 2b 0a 	jmp	0x1456	; 0x1456 <PacketQueueP__3__PacketSender__sendDone.isra.57>
    1688:	86 2f       	mov	r24, r22
    168a:	0c 94 2a 0b 	jmp	0x1654	; 0x1654 <PacketQueueP__4__PacketSender__sendDone>

0000168e <PacketQueueP__2__PacketSender__sendDone>:
    168e:	10 92 9c 02 	sts	0x029C, r1
    1692:	90 91 9d 02 	lds	r25, 0x029D
    1696:	28 e0       	ldi	r18, 0x08	; 8
    1698:	92 9f       	mul	r25, r18
    169a:	f0 01       	movw	r30, r0
    169c:	11 24       	eor	r1, r1
    169e:	e9 54       	subi	r30, 0x49	; 73
    16a0:	f1 4f       	sbci	r31, 0xF1	; 241
    16a2:	10 82       	st	Z, r1
    16a4:	99 23       	and	r25, r25
    16a6:	29 f0       	breq	.+10     	; 0x16b2 <PacketQueueP__2__PacketSender__sendDone+0x24>
    16a8:	91 30       	cpi	r25, 0x01	; 1
    16aa:	29 f4       	brne	.+10     	; 0x16b6 <PacketQueueP__2__PacketSender__sendDone+0x28>
    16ac:	0e 94 2a 0b 	call	0x1654	; 0x1654 <PacketQueueP__4__PacketSender__sendDone>
    16b0:	02 c0       	rjmp	.+4      	; 0x16b6 <PacketQueueP__2__PacketSender__sendDone+0x28>
    16b2:	0e 94 2b 0a 	call	0x1456	; 0x1456 <PacketQueueP__3__PacketSender__sendDone.isra.57>
    16b6:	84 e1       	ldi	r24, 0x14	; 20
    16b8:	0c 94 1f 03 	jmp	0x63e	; 0x63e <SchedulerBasicP__TaskBasic__postTask>

000016bc <ArpP__PacketQueue__sendDone>:
    16bc:	81 11       	cpse	r24, r1
    16be:	10 c0       	rjmp	.+32     	; 0x16e0 <ArpP__PacketQueue__sendDone+0x24>
    16c0:	66 23       	and	r22, r22
    16c2:	71 f0       	breq	.+28     	; 0x16e0 <ArpP__PacketQueue__sendDone+0x24>
    16c4:	80 91 a0 02 	lds	r24, 0x02A0
    16c8:	81 30       	cpi	r24, 0x01	; 1
    16ca:	51 f4       	brne	.+20     	; 0x16e0 <ArpP__PacketQueue__sendDone+0x24>
    16cc:	10 92 a0 02 	sts	0x02A0, r1
    16d0:	80 91 ae 11 	lds	r24, 0x11AE
    16d4:	8d 7f       	andi	r24, 0xFD	; 253
    16d6:	80 93 ae 11 	sts	0x11AE, r24
    16da:	81 e0       	ldi	r24, 0x01	; 1
    16dc:	0c 94 47 0b 	jmp	0x168e	; 0x168e <PacketQueueP__2__PacketSender__sendDone>
    16e0:	08 95       	ret

000016e2 <LlcQueueP__LlcQueue__sendDone>:
    16e2:	88 23       	and	r24, r24
    16e4:	19 f0       	breq	.+6      	; 0x16ec <LlcQueueP__LlcQueue__sendDone+0xa>
    16e6:	81 30       	cpi	r24, 0x01	; 1
    16e8:	21 f0       	breq	.+8      	; 0x16f2 <LlcQueueP__LlcQueue__sendDone+0x10>
    16ea:	08 95       	ret
    16ec:	86 2f       	mov	r24, r22
    16ee:	0c 94 47 0b 	jmp	0x168e	; 0x168e <PacketQueueP__2__PacketSender__sendDone>
    16f2:	10 92 9e 02 	sts	0x029E, r1
    16f6:	80 91 9f 02 	lds	r24, 0x029F
    16fa:	9d e1       	ldi	r25, 0x1D	; 29
    16fc:	89 9f       	mul	r24, r25
    16fe:	f0 01       	movw	r30, r0
    1700:	11 24       	eor	r1, r1
    1702:	eb 5d       	subi	r30, 0xDB	; 219
    1704:	fd 4e       	sbci	r31, 0xED	; 237
    1706:	10 82       	st	Z, r1
    1708:	0e 94 5e 0b 	call	0x16bc	; 0x16bc <ArpP__PacketQueue__sendDone>
    170c:	83 e1       	ldi	r24, 0x13	; 19
    170e:	0c 94 1f 03 	jmp	0x63e	; 0x63e <SchedulerBasicP__TaskBasic__postTask>

00001712 <Enc28j60P__setBank>:
    1712:	cf 93       	push	r28
    1714:	df 93       	push	r29
    1716:	1f 92       	push	r1
    1718:	cd b7       	in	r28, 0x3d	; 61
    171a:	de b7       	in	r29, 0x3e	; 62
    171c:	89 83       	std	Y+1, r24	; 0x01
    171e:	0e 94 07 03 	call	0x60e	; 0x60e <HplAtm128GeneralIOPinP__8__IO__clr>
    1722:	8f eb       	ldi	r24, 0xBF	; 191
    1724:	0e 94 b6 03 	call	0x76c	; 0x76c <Enc28j60P__SpiByte__write>
    1728:	83 e0       	ldi	r24, 0x03	; 3
    172a:	0e 94 b6 03 	call	0x76c	; 0x76c <Enc28j60P__SpiByte__write>
    172e:	0e 94 05 03 	call	0x60a	; 0x60a <HplAtm128GeneralIOPinP__8__IO__set>
    1732:	69 81       	ldd	r22, Y+1	; 0x01
    1734:	8f e1       	ldi	r24, 0x1F	; 31
    1736:	0f 90       	pop	r0
    1738:	df 91       	pop	r29
    173a:	cf 91       	pop	r28
    173c:	0c 94 e4 03 	jmp	0x7c8	; 0x7c8 <Enc28j60P__setBit>

00001740 <IpTransceiverP__Arp__resolved>:
    1740:	fc 01       	movw	r30, r24
    1742:	00 97       	sbiw	r24, 0x00	; 0
    1744:	19 f4       	brne	.+6      	; 0x174c <IpTransceiverP__Arp__resolved+0xc>
    1746:	81 e0       	ldi	r24, 0x01	; 1
    1748:	0c 94 47 0b 	jmp	0x168e	; 0x168e <PacketQueueP__2__PacketSender__sendDone>
    174c:	30 91 9d 0c 	lds	r19, 0x0C9D
    1750:	90 91 9e 0c 	lds	r25, 0x0C9E
    1754:	80 91 4d 0c 	lds	r24, 0x0C4D
    1758:	81 11       	cpse	r24, r1
    175a:	24 c0       	rjmp	.+72     	; 0x17a4 <IpTransceiverP__Arp__resolved+0x64>
    175c:	4e e4       	ldi	r20, 0x4E	; 78
    175e:	5c e0       	ldi	r21, 0x0C	; 12
    1760:	41 15       	cp	r20, r1
    1762:	51 05       	cpc	r21, r1
    1764:	f9 f0       	breq	.+62     	; 0x17a4 <IpTransceiverP__Arp__resolved+0x64>
    1766:	26 e0       	ldi	r18, 0x06	; 6
    1768:	da 01       	movw	r26, r20
    176a:	01 90       	ld	r0, Z+
    176c:	0d 92       	st	X+, r0
    176e:	2a 95       	dec	r18
    1770:	e1 f7       	brne	.-8      	; 0x176a <IpTransceiverP__Arp__resolved+0x2a>
    1772:	40 e0       	ldi	r20, 0x00	; 0
    1774:	58 e0       	ldi	r21, 0x08	; 8
    1776:	50 93 55 0c 	sts	0x0C55, r21
    177a:	40 93 54 0c 	sts	0x0C54, r20
    177e:	4b e9       	ldi	r20, 0x9B	; 155
    1780:	5c e0       	ldi	r21, 0x0C	; 12
    1782:	50 93 57 0c 	sts	0x0C57, r21
    1786:	40 93 56 0c 	sts	0x0C56, r20
    178a:	89 2f       	mov	r24, r25
    178c:	90 e0       	ldi	r25, 0x00	; 0
    178e:	93 2b       	or	r25, r19
    1790:	90 93 59 0c 	sts	0x0C59, r25
    1794:	80 93 58 0c 	sts	0x0C58, r24
    1798:	81 e0       	ldi	r24, 0x01	; 1
    179a:	80 93 4d 0c 	sts	0x0C4D, r24
    179e:	80 e1       	ldi	r24, 0x10	; 16
    17a0:	0c 94 1f 03 	jmp	0x63e	; 0x63e <SchedulerBasicP__TaskBasic__postTask>
    17a4:	08 95       	ret

000017a6 <IpTransceiverP__PacketSender__send>:
    17a6:	8f 92       	push	r8
    17a8:	9f 92       	push	r9
    17aa:	af 92       	push	r10
    17ac:	bf 92       	push	r11
    17ae:	cf 92       	push	r12
    17b0:	df 92       	push	r13
    17b2:	ef 92       	push	r14
    17b4:	ff 92       	push	r15
    17b6:	cf 93       	push	r28
    17b8:	df 93       	push	r29
    17ba:	ec 01       	movw	r28, r24
    17bc:	85 e4       	ldi	r24, 0x45	; 69
    17be:	80 93 9b 0c 	sts	0x0C9B, r24
    17c2:	10 92 9c 0c 	sts	0x0C9C, r1
    17c6:	86 e6       	ldi	r24, 0x66	; 102
    17c8:	80 93 a0 0c 	sts	0x0CA0, r24
    17cc:	80 93 9f 0c 	sts	0x0C9F, r24
    17d0:	10 92 a2 0c 	sts	0x0CA2, r1
    17d4:	10 92 a1 0c 	sts	0x0CA1, r1
    17d8:	8f ef       	ldi	r24, 0xFF	; 255
    17da:	80 93 a3 0c 	sts	0x0CA3, r24
    17de:	8d 81       	ldd	r24, Y+5	; 0x05
    17e0:	9e 81       	ldd	r25, Y+6	; 0x06
    17e2:	44 96       	adiw	r24, 0x14	; 20
    17e4:	80 93 9e 0c 	sts	0x0C9E, r24
    17e8:	90 93 9d 0c 	sts	0x0C9D, r25
    17ec:	e8 81       	ld	r30, Y
    17ee:	f9 81       	ldd	r31, Y+1	; 0x01
    17f0:	80 81       	ld	r24, Z
    17f2:	91 81       	ldd	r25, Z+1	; 0x01
    17f4:	a2 81       	ldd	r26, Z+2	; 0x02
    17f6:	b3 81       	ldd	r27, Z+3	; 0x03
    17f8:	80 93 ab 0c 	sts	0x0CAB, r24
    17fc:	90 93 ac 0c 	sts	0x0CAC, r25
    1800:	a0 93 ad 0c 	sts	0x0CAD, r26
    1804:	b0 93 ae 0c 	sts	0x0CAE, r27
    1808:	80 91 24 02 	lds	r24, 0x0224
    180c:	90 91 25 02 	lds	r25, 0x0225
    1810:	a0 91 26 02 	lds	r26, 0x0226
    1814:	b0 91 27 02 	lds	r27, 0x0227
    1818:	80 93 a7 0c 	sts	0x0CA7, r24
    181c:	90 93 a8 0c 	sts	0x0CA8, r25
    1820:	a0 93 a9 0c 	sts	0x0CA9, r26
    1824:	b0 93 aa 0c 	sts	0x0CAA, r27
    1828:	6b 81       	ldd	r22, Y+3	; 0x03
    182a:	7c 81       	ldd	r23, Y+4	; 0x04
    182c:	4d 81       	ldd	r20, Y+5	; 0x05
    182e:	5e 81       	ldd	r21, Y+6	; 0x06
    1830:	8f ea       	ldi	r24, 0xAF	; 175
    1832:	9c e0       	ldi	r25, 0x0C	; 12
    1834:	0e 94 34 2d 	call	0x5a68	; 0x5a68 <memcpy>
    1838:	8a 81       	ldd	r24, Y+2	; 0x02
    183a:	80 93 a4 0c 	sts	0x0CA4, r24
    183e:	10 92 a6 0c 	sts	0x0CA6, r1
    1842:	10 92 a5 0c 	sts	0x0CA5, r1
    1846:	eb e9       	ldi	r30, 0x9B	; 155
    1848:	fc e0       	ldi	r31, 0x0C	; 12
    184a:	80 e0       	ldi	r24, 0x00	; 0
    184c:	90 e0       	ldi	r25, 0x00	; 0
    184e:	dc 01       	movw	r26, r24
    1850:	21 91       	ld	r18, Z+
    1852:	31 91       	ld	r19, Z+
    1854:	82 0f       	add	r24, r18
    1856:	93 1f       	adc	r25, r19
    1858:	a1 1d       	adc	r26, r1
    185a:	b1 1d       	adc	r27, r1
    185c:	2c e0       	ldi	r18, 0x0C	; 12
    185e:	ef 3a       	cpi	r30, 0xAF	; 175
    1860:	f2 07       	cpc	r31, r18
    1862:	b1 f7       	brne	.-20     	; 0x1850 <IpTransceiverP__PacketSender__send+0xaa>
    1864:	ad 01       	movw	r20, r26
    1866:	66 27       	eor	r22, r22
    1868:	77 27       	eor	r23, r23
    186a:	41 15       	cp	r20, r1
    186c:	51 05       	cpc	r21, r1
    186e:	61 05       	cpc	r22, r1
    1870:	71 05       	cpc	r23, r1
    1872:	39 f0       	breq	.+14     	; 0x1882 <IpTransceiverP__PacketSender__send+0xdc>
    1874:	aa 27       	eor	r26, r26
    1876:	bb 27       	eor	r27, r27
    1878:	84 0f       	add	r24, r20
    187a:	95 1f       	adc	r25, r21
    187c:	a6 1f       	adc	r26, r22
    187e:	b7 1f       	adc	r27, r23
    1880:	f1 cf       	rjmp	.-30     	; 0x1864 <IpTransceiverP__PacketSender__send+0xbe>
    1882:	80 95       	com	r24
    1884:	90 95       	com	r25
    1886:	a0 95       	com	r26
    1888:	b0 95       	com	r27
    188a:	90 93 a6 0c 	sts	0x0CA6, r25
    188e:	80 93 a5 0c 	sts	0x0CA5, r24
    1892:	80 91 1c 02 	lds	r24, 0x021C
    1896:	90 91 1d 02 	lds	r25, 0x021D
    189a:	a0 91 1e 02 	lds	r26, 0x021E
    189e:	b0 91 1f 02 	lds	r27, 0x021F
    18a2:	c0 90 ab 0c 	lds	r12, 0x0CAB
    18a6:	d0 90 ac 0c 	lds	r13, 0x0CAC
    18aa:	e0 90 ad 0c 	lds	r14, 0x0CAD
    18ae:	f0 90 ae 0c 	lds	r15, 0x0CAE
    18b2:	40 91 a7 0c 	lds	r20, 0x0CA7
    18b6:	50 91 a8 0c 	lds	r21, 0x0CA8
    18ba:	60 91 a9 0c 	lds	r22, 0x0CA9
    18be:	70 91 aa 0c 	lds	r23, 0x0CAA
    18c2:	4c 25       	eor	r20, r12
    18c4:	5d 25       	eor	r21, r13
    18c6:	6e 25       	eor	r22, r14
    18c8:	7f 25       	eor	r23, r15
    18ca:	48 23       	and	r20, r24
    18cc:	59 23       	and	r21, r25
    18ce:	6a 23       	and	r22, r26
    18d0:	7b 23       	and	r23, r27
    18d2:	45 2b       	or	r20, r21
    18d4:	46 2b       	or	r20, r22
    18d6:	47 2b       	or	r20, r23
    18d8:	19 f4       	brne	.+6      	; 0x18e0 <IpTransceiverP__PacketSender__send+0x13a>
    18da:	eb ea       	ldi	r30, 0xAB	; 171
    18dc:	fc e0       	ldi	r31, 0x0C	; 12
    18de:	02 c0       	rjmp	.+4      	; 0x18e4 <IpTransceiverP__PacketSender__send+0x13e>
    18e0:	e0 e2       	ldi	r30, 0x20	; 32
    18e2:	f2 e0       	ldi	r31, 0x02	; 2
    18e4:	c0 80       	ld	r12, Z
    18e6:	d1 80       	ldd	r13, Z+1	; 0x01
    18e8:	e2 80       	ldd	r14, Z+2	; 0x02
    18ea:	f3 80       	ldd	r15, Z+3	; 0x03
    18ec:	80 95       	com	r24
    18ee:	90 95       	com	r25
    18f0:	a0 95       	com	r26
    18f2:	b0 95       	com	r27
    18f4:	ac 01       	movw	r20, r24
    18f6:	bd 01       	movw	r22, r26
    18f8:	4c 21       	and	r20, r12
    18fa:	5d 21       	and	r21, r13
    18fc:	6e 21       	and	r22, r14
    18fe:	7f 21       	and	r23, r15
    1900:	48 17       	cp	r20, r24
    1902:	59 07       	cpc	r21, r25
    1904:	6a 07       	cpc	r22, r26
    1906:	7b 07       	cpc	r23, r27
    1908:	19 f4       	brne	.+6      	; 0x1910 <IpTransceiverP__PacketSender__send+0x16a>
    190a:	80 e0       	ldi	r24, 0x00	; 0
    190c:	92 e0       	ldi	r25, 0x02	; 2
    190e:	2d c0       	rjmp	.+90     	; 0x196a <IpTransceiverP__PacketSender__send+0x1c4>
    1910:	50 91 a3 02 	lds	r21, 0x02A3
    1914:	44 e0       	ldi	r20, 0x04	; 4
    1916:	6a e0       	ldi	r22, 0x0A	; 10
    1918:	25 2f       	mov	r18, r21
    191a:	30 e0       	ldi	r19, 0x00	; 0
    191c:	62 9f       	mul	r22, r18
    191e:	c0 01       	movw	r24, r0
    1920:	63 9f       	mul	r22, r19
    1922:	90 0d       	add	r25, r0
    1924:	11 24       	eor	r1, r1
    1926:	dc 01       	movw	r26, r24
    1928:	af 52       	subi	r26, 0x2F	; 47
    192a:	bd 4e       	sbci	r27, 0xED	; 237
    192c:	8d 90       	ld	r8, X+
    192e:	9d 90       	ld	r9, X+
    1930:	ad 90       	ld	r10, X+
    1932:	bc 90       	ld	r11, X
    1934:	8c 14       	cp	r8, r12
    1936:	9d 04       	cpc	r9, r13
    1938:	ae 04       	cpc	r10, r14
    193a:	bf 04       	cpc	r11, r15
    193c:	29 f4       	brne	.+10     	; 0x1948 <IpTransceiverP__PacketSender__send+0x1a2>
    193e:	50 93 a3 02 	sts	0x02A3, r21
    1942:	8b 52       	subi	r24, 0x2B	; 43
    1944:	9d 4e       	sbci	r25, 0xED	; 237
    1946:	0b c0       	rjmp	.+22     	; 0x195e <IpTransceiverP__PacketSender__send+0x1b8>
    1948:	c9 01       	movw	r24, r18
    194a:	01 96       	adiw	r24, 0x01	; 1
    194c:	83 70       	andi	r24, 0x03	; 3
    194e:	99 27       	eor	r25, r25
    1950:	58 2f       	mov	r21, r24
    1952:	41 50       	subi	r20, 0x01	; 1
    1954:	09 f7       	brne	.-62     	; 0x1918 <IpTransceiverP__PacketSender__send+0x172>
    1956:	80 93 a3 02 	sts	0x02A3, r24
    195a:	80 e0       	ldi	r24, 0x00	; 0
    195c:	90 e0       	ldi	r25, 0x00	; 0
    195e:	90 93 a9 02 	sts	0x02A9, r25
    1962:	80 93 a8 02 	sts	0x02A8, r24
    1966:	00 97       	sbiw	r24, 0x00	; 0
    1968:	19 f0       	breq	.+6      	; 0x1970 <IpTransceiverP__PacketSender__send+0x1ca>
    196a:	0e 94 a0 0b 	call	0x1740	; 0x1740 <IpTransceiverP__Arp__resolved>
    196e:	14 c0       	rjmp	.+40     	; 0x1998 <IpTransceiverP__PacketSender__send+0x1f2>
    1970:	80 91 a0 02 	lds	r24, 0x02A0
    1974:	81 11       	cpse	r24, r1
    1976:	12 c0       	rjmp	.+36     	; 0x199c <IpTransceiverP__PacketSender__send+0x1f6>
    1978:	80 81       	ld	r24, Z
    197a:	91 81       	ldd	r25, Z+1	; 0x01
    197c:	a2 81       	ldd	r26, Z+2	; 0x02
    197e:	b3 81       	ldd	r27, Z+3	; 0x03
    1980:	80 93 ca 12 	sts	0x12CA, r24
    1984:	90 93 cb 12 	sts	0x12CB, r25
    1988:	a0 93 cc 12 	sts	0x12CC, r26
    198c:	b0 93 cd 12 	sts	0x12CD, r27
    1990:	10 92 a1 02 	sts	0x02A1, r1
    1994:	0e 94 06 08 	call	0x100c	; 0x100c <ArpP__sendRequest>
    1998:	80 e0       	ldi	r24, 0x00	; 0
    199a:	01 c0       	rjmp	.+2      	; 0x199e <IpTransceiverP__PacketSender__send+0x1f8>
    199c:	85 e0       	ldi	r24, 0x05	; 5
    199e:	df 91       	pop	r29
    19a0:	cf 91       	pop	r28
    19a2:	ff 90       	pop	r15
    19a4:	ef 90       	pop	r14
    19a6:	df 90       	pop	r13
    19a8:	cf 90       	pop	r12
    19aa:	bf 90       	pop	r11
    19ac:	af 90       	pop	r10
    19ae:	9f 90       	pop	r9
    19b0:	8f 90       	pop	r8
    19b2:	08 95       	ret

000019b4 <PacketQueueP__3__sendNext__runTask>:
    19b4:	0f 93       	push	r16
    19b6:	1f 93       	push	r17
    19b8:	cf 93       	push	r28
    19ba:	df 93       	push	r29
    19bc:	80 91 9a 02 	lds	r24, 0x029A
    19c0:	81 11       	cpse	r24, r1
    19c2:	99 c0       	rjmp	.+306    	; 0x1af6 <PacketQueueP__3__sendNext__runTask+0x142>
    19c4:	80 91 9b 02 	lds	r24, 0x029B
    19c8:	8f 5f       	subi	r24, 0xFF	; 255
    19ca:	81 70       	andi	r24, 0x01	; 1
    19cc:	80 93 9b 02 	sts	0x029B, r24
    19d0:	eb e0       	ldi	r30, 0x0B	; 11
    19d2:	e8 9f       	mul	r30, r24
    19d4:	d0 01       	movw	r26, r0
    19d6:	11 24       	eor	r1, r1
    19d8:	a3 51       	subi	r26, 0x13	; 19
    19da:	be 4e       	sbci	r27, 0xEE	; 238
    19dc:	9c 91       	ld	r25, X
    19de:	91 30       	cpi	r25, 0x01	; 1
    19e0:	69 f0       	breq	.+26     	; 0x19fc <PacketQueueP__3__sendNext__runTask+0x48>
    19e2:	8f 5f       	subi	r24, 0xFF	; 255
    19e4:	81 70       	andi	r24, 0x01	; 1
    19e6:	80 93 9b 02 	sts	0x029B, r24
    19ea:	e8 9f       	mul	r30, r24
    19ec:	f0 01       	movw	r30, r0
    19ee:	11 24       	eor	r1, r1
    19f0:	e3 51       	subi	r30, 0x13	; 19
    19f2:	fe 4e       	sbci	r31, 0xEE	; 238
    19f4:	80 81       	ld	r24, Z
    19f6:	81 30       	cpi	r24, 0x01	; 1
    19f8:	09 f0       	breq	.+2      	; 0x19fc <PacketQueueP__3__sendNext__runTask+0x48>
    19fa:	7d c0       	rjmp	.+250    	; 0x1af6 <PacketQueueP__3__sendNext__runTask+0x142>
    19fc:	e0 91 9b 02 	lds	r30, 0x029B
    1a00:	0e 2f       	mov	r16, r30
    1a02:	10 e0       	ldi	r17, 0x00	; 0
    1a04:	8b e0       	ldi	r24, 0x0B	; 11
    1a06:	e8 9f       	mul	r30, r24
    1a08:	f0 01       	movw	r30, r0
    1a0a:	11 24       	eor	r1, r1
    1a0c:	e3 51       	subi	r30, 0x13	; 19
    1a0e:	fe 4e       	sbci	r31, 0xEE	; 238
    1a10:	41 85       	ldd	r20, Z+9	; 0x09
    1a12:	52 85       	ldd	r21, Z+10	; 0x0a
    1a14:	ea 01       	movw	r28, r20
    1a16:	24 96       	adiw	r28, 0x04	; 4
    1a18:	85 81       	ldd	r24, Z+5	; 0x05
    1a1a:	80 93 d5 0e 	sts	0x0ED5, r24
    1a1e:	86 81       	ldd	r24, Z+6	; 0x06
    1a20:	80 93 d6 0e 	sts	0x0ED6, r24
    1a24:	67 81       	ldd	r22, Z+7	; 0x07
    1a26:	70 85       	ldd	r23, Z+8	; 0x08
    1a28:	89 ed       	ldi	r24, 0xD9	; 217
    1a2a:	9e e0       	ldi	r25, 0x0E	; 14
    1a2c:	0e 94 34 2d 	call	0x5a68	; 0x5a68 <memcpy>
    1a30:	10 92 d8 0e 	sts	0x0ED8, r1
    1a34:	10 92 d7 0e 	sts	0x0ED7, r1
    1a38:	ae 01       	movw	r20, r28
    1a3a:	56 95       	lsr	r21
    1a3c:	47 95       	ror	r20
    1a3e:	e5 ed       	ldi	r30, 0xD5	; 213
    1a40:	fe e0       	ldi	r31, 0x0E	; 14
    1a42:	20 e0       	ldi	r18, 0x00	; 0
    1a44:	30 e0       	ldi	r19, 0x00	; 0
    1a46:	80 e0       	ldi	r24, 0x00	; 0
    1a48:	90 e0       	ldi	r25, 0x00	; 0
    1a4a:	dc 01       	movw	r26, r24
    1a4c:	24 17       	cp	r18, r20
    1a4e:	35 07       	cpc	r19, r21
    1a50:	49 f0       	breq	.+18     	; 0x1a64 <PacketQueueP__3__sendNext__runTask+0xb0>
    1a52:	61 91       	ld	r22, Z+
    1a54:	71 91       	ld	r23, Z+
    1a56:	86 0f       	add	r24, r22
    1a58:	97 1f       	adc	r25, r23
    1a5a:	a1 1d       	adc	r26, r1
    1a5c:	b1 1d       	adc	r27, r1
    1a5e:	2f 5f       	subi	r18, 0xFF	; 255
    1a60:	3f 4f       	sbci	r19, 0xFF	; 255
    1a62:	f4 cf       	rjmp	.-24     	; 0x1a4c <PacketQueueP__3__sendNext__runTask+0x98>
    1a64:	ad 01       	movw	r20, r26
    1a66:	66 27       	eor	r22, r22
    1a68:	77 27       	eor	r23, r23
    1a6a:	41 15       	cp	r20, r1
    1a6c:	51 05       	cpc	r21, r1
    1a6e:	61 05       	cpc	r22, r1
    1a70:	71 05       	cpc	r23, r1
    1a72:	39 f0       	breq	.+14     	; 0x1a82 <PacketQueueP__3__sendNext__runTask+0xce>
    1a74:	aa 27       	eor	r26, r26
    1a76:	bb 27       	eor	r27, r27
    1a78:	84 0f       	add	r24, r20
    1a7a:	95 1f       	adc	r25, r21
    1a7c:	a6 1f       	adc	r26, r22
    1a7e:	b7 1f       	adc	r27, r23
    1a80:	f1 cf       	rjmp	.-30     	; 0x1a64 <PacketQueueP__3__sendNext__runTask+0xb0>
    1a82:	80 95       	com	r24
    1a84:	90 95       	com	r25
    1a86:	a0 95       	com	r26
    1a88:	b0 95       	com	r27
    1a8a:	90 93 d8 0e 	sts	0x0ED8, r25
    1a8e:	80 93 d7 0e 	sts	0x0ED7, r24
    1a92:	80 91 b7 0e 	lds	r24, 0x0EB7
    1a96:	81 11       	cpse	r24, r1
    1a98:	25 c0       	rjmp	.+74     	; 0x1ae4 <PacketQueueP__3__sendNext__runTask+0x130>
    1a9a:	88 eb       	ldi	r24, 0xB8	; 184
    1a9c:	9e e0       	ldi	r25, 0x0E	; 14
    1a9e:	89 2b       	or	r24, r25
    1aa0:	09 f1       	breq	.+66     	; 0x1ae4 <PacketQueueP__3__sendNext__runTask+0x130>
    1aa2:	2b e0       	ldi	r18, 0x0B	; 11
    1aa4:	20 9f       	mul	r18, r16
    1aa6:	c0 01       	movw	r24, r0
    1aa8:	21 9f       	mul	r18, r17
    1aaa:	90 0d       	add	r25, r0
    1aac:	11 24       	eor	r1, r1
    1aae:	82 51       	subi	r24, 0x12	; 18
    1ab0:	9e 4e       	sbci	r25, 0xEE	; 238
    1ab2:	90 93 b9 0e 	sts	0x0EB9, r25
    1ab6:	80 93 b8 0e 	sts	0x0EB8, r24
    1aba:	11 e0       	ldi	r17, 0x01	; 1
    1abc:	10 93 ba 0e 	sts	0x0EBA, r17
    1ac0:	85 ed       	ldi	r24, 0xD5	; 213
    1ac2:	9e e0       	ldi	r25, 0x0E	; 14
    1ac4:	90 93 bc 0e 	sts	0x0EBC, r25
    1ac8:	80 93 bb 0e 	sts	0x0EBB, r24
    1acc:	d0 93 be 0e 	sts	0x0EBE, r29
    1ad0:	c0 93 bd 0e 	sts	0x0EBD, r28
    1ad4:	10 93 b7 0e 	sts	0x0EB7, r17
    1ad8:	84 e1       	ldi	r24, 0x14	; 20
    1ada:	0e 94 1f 03 	call	0x63e	; 0x63e <SchedulerBasicP__TaskBasic__postTask>
    1ade:	10 93 9a 02 	sts	0x029A, r17
    1ae2:	09 c0       	rjmp	.+18     	; 0x1af6 <PacketQueueP__3__sendNext__runTask+0x142>
    1ae4:	8b e0       	ldi	r24, 0x0B	; 11
    1ae6:	80 9f       	mul	r24, r16
    1ae8:	f0 01       	movw	r30, r0
    1aea:	81 9f       	mul	r24, r17
    1aec:	f0 0d       	add	r31, r0
    1aee:	11 24       	eor	r1, r1
    1af0:	e3 51       	subi	r30, 0x13	; 19
    1af2:	fe 4e       	sbci	r31, 0xEE	; 238
    1af4:	10 82       	st	Z, r1
    1af6:	df 91       	pop	r29
    1af8:	cf 91       	pop	r28
    1afa:	1f 91       	pop	r17
    1afc:	0f 91       	pop	r16
    1afe:	08 95       	ret

00001b00 <FMClickP__readI2C__runTask>:
    1b00:	cf 93       	push	r28
    1b02:	8f b7       	in	r24, 0x3f	; 63
    1b04:	f8 94       	cli
    1b06:	90 91 0d 02 	lds	r25, 0x020D
    1b0a:	91 11       	cpse	r25, r1
    1b0c:	36 c0       	rjmp	.+108    	; 0x1b7a <FMClickP__readI2C__runTask+0x7a>
    1b0e:	8f bf       	out	0x3f, r24	; 63
    1b10:	8f b7       	in	r24, 0x3f	; 63
    1b12:	f8 94       	cli
    1b14:	90 91 91 02 	lds	r25, 0x0291
    1b18:	91 30       	cpi	r25, 0x01	; 1
    1b1a:	79 f5       	brne	.+94     	; 0x1b7a <FMClickP__readI2C__runTask+0x7a>
    1b1c:	22 e0       	ldi	r18, 0x02	; 2
    1b1e:	20 93 91 02 	sts	0x0291, r18
    1b22:	8f bf       	out	0x3f, r24	; 63
    1b24:	8f b7       	in	r24, 0x3f	; 63
    1b26:	f8 94       	cli
    1b28:	20 e1       	ldi	r18, 0x10	; 16
    1b2a:	30 e0       	ldi	r19, 0x00	; 0
    1b2c:	30 93 ce 0e 	sts	0x0ECE, r19
    1b30:	20 93 cd 0e 	sts	0x0ECD, r18
    1b34:	25 e0       	ldi	r18, 0x05	; 5
    1b36:	32 e1       	ldi	r19, 0x12	; 18
    1b38:	30 93 97 0c 	sts	0x0C97, r19
    1b3c:	20 93 96 0c 	sts	0x0C96, r18
    1b40:	20 e2       	ldi	r18, 0x20	; 32
    1b42:	20 93 d4 07 	sts	0x07D4, r18
    1b46:	23 e0       	ldi	r18, 0x03	; 3
    1b48:	20 93 f9 12 	sts	0x12F9, r18
    1b4c:	10 92 61 12 	sts	0x1261, r1
    1b50:	90 93 90 02 	sts	0x0290, r25
    1b54:	8f bf       	out	0x3f, r24	; 63
    1b56:	0e 94 72 03 	call	0x6e4	; 0x6e4 <HplAtm128I2CBusP__I2C__readCurrent>
    1b5a:	cf b7       	in	r28, 0x3f	; 63
    1b5c:	f8 94       	cli
    1b5e:	80 91 e5 11 	lds	r24, 0x11E5
    1b62:	8f 7a       	andi	r24, 0xAF	; 175
    1b64:	81 6a       	ori	r24, 0xA1	; 161
    1b66:	80 93 e5 11 	sts	0x11E5, r24
    1b6a:	84 e0       	ldi	r24, 0x04	; 4
    1b6c:	80 93 91 02 	sts	0x0291, r24
    1b70:	0e 94 fe 02 	call	0x5fc	; 0x5fc <HplAtm128I2CBusP__I2C__sendCommand>
    1b74:	cf bf       	out	0x3f, r28	; 63
    1b76:	cf 91       	pop	r28
    1b78:	08 95       	ret
    1b7a:	8f bf       	out	0x3f, r24	; 63
    1b7c:	8f e1       	ldi	r24, 0x1F	; 31
    1b7e:	cf 91       	pop	r28
    1b80:	0c 94 1f 03 	jmp	0x63e	; 0x63e <SchedulerBasicP__TaskBasic__postTask>

00001b84 <HplKS0108P__busy_wait_controller>:
    1b84:	88 23       	and	r24, r24
    1b86:	29 f0       	breq	.+10     	; 0x1b92 <HplKS0108P__busy_wait_controller+0xe>
    1b88:	81 30       	cpi	r24, 0x01	; 1
    1b8a:	29 f4       	brne	.+10     	; 0x1b96 <HplKS0108P__busy_wait_controller+0x12>
    1b8c:	72 98       	cbi	0x0e, 2	; 14
    1b8e:	73 9a       	sbi	0x0e, 3	; 14
    1b90:	02 c0       	rjmp	.+4      	; 0x1b96 <HplKS0108P__busy_wait_controller+0x12>
    1b92:	73 98       	cbi	0x0e, 3	; 14
    1b94:	72 9a       	sbi	0x0e, 2	; 14
    1b96:	82 b1       	in	r24, 0x02	; 2
    1b98:	82 b9       	out	0x02, r24	; 2
    1b9a:	81 b1       	in	r24, 0x01	; 1
    1b9c:	11 b8       	out	0x01, r1	; 1
    1b9e:	74 98       	cbi	0x0e, 4	; 14
    1ba0:	75 9a       	sbi	0x0e, 5	; 14
    1ba2:	0e 94 0b 03 	call	0x616	; 0x616 <HplAtm128GeneralIOPinP__38__IO__set>
    1ba6:	82 e0       	ldi	r24, 0x02	; 2
    1ba8:	90 e0       	ldi	r25, 0x00	; 0
    1baa:	0e 94 cf 07 	call	0xf9e	; 0xf9e <BusyWaitMicroC__BusyWait__wait.part.0>
    1bae:	80 b1       	in	r24, 0x00	; 0
    1bb0:	07 9b       	sbis	0x00, 7	; 0
    1bb2:	0d c0       	rjmp	.+26     	; 0x1bce <HplKS0108P__busy_wait_controller+0x4a>
    1bb4:	0e 94 09 03 	call	0x612	; 0x612 <HplAtm128GeneralIOPinP__38__IO__clr>
    1bb8:	82 e0       	ldi	r24, 0x02	; 2
    1bba:	90 e0       	ldi	r25, 0x00	; 0
    1bbc:	0e 94 cf 07 	call	0xf9e	; 0xf9e <BusyWaitMicroC__BusyWait__wait.part.0>
    1bc0:	0e 94 0b 03 	call	0x616	; 0x616 <HplAtm128GeneralIOPinP__38__IO__set>
    1bc4:	82 e0       	ldi	r24, 0x02	; 2
    1bc6:	90 e0       	ldi	r25, 0x00	; 0
    1bc8:	0e 94 cf 07 	call	0xf9e	; 0xf9e <BusyWaitMicroC__BusyWait__wait.part.0>
    1bcc:	f1 cf       	rjmp	.-30     	; 0x1bb0 <HplKS0108P__busy_wait_controller+0x2c>
    1bce:	0e 94 09 03 	call	0x612	; 0x612 <HplAtm128GeneralIOPinP__38__IO__clr>
    1bd2:	75 98       	cbi	0x0e, 5	; 14
    1bd4:	81 b1       	in	r24, 0x01	; 1
    1bd6:	8f ef       	ldi	r24, 0xFF	; 255
    1bd8:	81 b9       	out	0x01, r24	; 1
    1bda:	08 95       	ret

00001bdc <HplKS0108P__HplKS0108__dataRead>:
    1bdc:	cf 93       	push	r28
    1bde:	df 93       	push	r29
    1be0:	1f 92       	push	r1
    1be2:	cd b7       	in	r28, 0x3d	; 61
    1be4:	de b7       	in	r29, 0x3e	; 62
    1be6:	0e 94 c2 0d 	call	0x1b84	; 0x1b84 <HplKS0108P__busy_wait_controller>
    1bea:	81 b1       	in	r24, 0x01	; 1
    1bec:	11 b8       	out	0x01, r1	; 1
    1bee:	74 9a       	sbi	0x0e, 4	; 14
    1bf0:	75 9a       	sbi	0x0e, 5	; 14
    1bf2:	0e 94 0b 03 	call	0x616	; 0x616 <HplAtm128GeneralIOPinP__38__IO__set>
    1bf6:	82 e0       	ldi	r24, 0x02	; 2
    1bf8:	90 e0       	ldi	r25, 0x00	; 0
    1bfa:	0e 94 cf 07 	call	0xf9e	; 0xf9e <BusyWaitMicroC__BusyWait__wait.part.0>
    1bfe:	80 b1       	in	r24, 0x00	; 0
    1c00:	0e 94 09 03 	call	0x612	; 0x612 <HplAtm128GeneralIOPinP__38__IO__clr>
    1c04:	82 e0       	ldi	r24, 0x02	; 2
    1c06:	90 e0       	ldi	r25, 0x00	; 0
    1c08:	0e 94 cf 07 	call	0xf9e	; 0xf9e <BusyWaitMicroC__BusyWait__wait.part.0>
    1c0c:	0e 94 0b 03 	call	0x616	; 0x616 <HplAtm128GeneralIOPinP__38__IO__set>
    1c10:	82 e0       	ldi	r24, 0x02	; 2
    1c12:	90 e0       	ldi	r25, 0x00	; 0
    1c14:	0e 94 cf 07 	call	0xf9e	; 0xf9e <BusyWaitMicroC__BusyWait__wait.part.0>
    1c18:	80 b1       	in	r24, 0x00	; 0
    1c1a:	89 83       	std	Y+1, r24	; 0x01
    1c1c:	0e 94 09 03 	call	0x612	; 0x612 <HplAtm128GeneralIOPinP__38__IO__clr>
    1c20:	89 81       	ldd	r24, Y+1	; 0x01
    1c22:	0f 90       	pop	r0
    1c24:	df 91       	pop	r29
    1c26:	cf 91       	pop	r28
    1c28:	08 95       	ret

00001c2a <HplKS0108P__HplKS0108__dataWrite>:
    1c2a:	cf 93       	push	r28
    1c2c:	df 93       	push	r29
    1c2e:	1f 92       	push	r1
    1c30:	cd b7       	in	r28, 0x3d	; 61
    1c32:	de b7       	in	r29, 0x3e	; 62
    1c34:	69 83       	std	Y+1, r22	; 0x01
    1c36:	0e 94 c2 0d 	call	0x1b84	; 0x1b84 <HplKS0108P__busy_wait_controller>
    1c3a:	69 81       	ldd	r22, Y+1	; 0x01
    1c3c:	62 b9       	out	0x02, r22	; 2
    1c3e:	81 b1       	in	r24, 0x01	; 1
    1c40:	8f ef       	ldi	r24, 0xFF	; 255
    1c42:	81 b9       	out	0x01, r24	; 1
    1c44:	74 9a       	sbi	0x0e, 4	; 14
    1c46:	75 98       	cbi	0x0e, 5	; 14
    1c48:	0e 94 0b 03 	call	0x616	; 0x616 <HplAtm128GeneralIOPinP__38__IO__set>
    1c4c:	82 e0       	ldi	r24, 0x02	; 2
    1c4e:	90 e0       	ldi	r25, 0x00	; 0
    1c50:	0e 94 cf 07 	call	0xf9e	; 0xf9e <BusyWaitMicroC__BusyWait__wait.part.0>
    1c54:	0e 94 09 03 	call	0x612	; 0x612 <HplAtm128GeneralIOPinP__38__IO__clr>
    1c58:	80 e0       	ldi	r24, 0x00	; 0
    1c5a:	0f 90       	pop	r0
    1c5c:	df 91       	pop	r29
    1c5e:	cf 91       	pop	r28
    1c60:	08 95       	ret

00001c62 <HplKS0108P__HplKS0108__controlWrite>:
    1c62:	cf 93       	push	r28
    1c64:	df 93       	push	r29
    1c66:	1f 92       	push	r1
    1c68:	cd b7       	in	r28, 0x3d	; 61
    1c6a:	de b7       	in	r29, 0x3e	; 62
    1c6c:	69 83       	std	Y+1, r22	; 0x01
    1c6e:	0e 94 c2 0d 	call	0x1b84	; 0x1b84 <HplKS0108P__busy_wait_controller>
    1c72:	74 98       	cbi	0x0e, 4	; 14
    1c74:	75 98       	cbi	0x0e, 5	; 14
    1c76:	0e 94 0b 03 	call	0x616	; 0x616 <HplAtm128GeneralIOPinP__38__IO__set>
    1c7a:	81 b1       	in	r24, 0x01	; 1
    1c7c:	8f ef       	ldi	r24, 0xFF	; 255
    1c7e:	81 b9       	out	0x01, r24	; 1
    1c80:	69 81       	ldd	r22, Y+1	; 0x01
    1c82:	62 b9       	out	0x02, r22	; 2
    1c84:	82 e0       	ldi	r24, 0x02	; 2
    1c86:	90 e0       	ldi	r25, 0x00	; 0
    1c88:	0e 94 cf 07 	call	0xf9e	; 0xf9e <BusyWaitMicroC__BusyWait__wait.part.0>
    1c8c:	0e 94 09 03 	call	0x612	; 0x612 <HplAtm128GeneralIOPinP__38__IO__clr>
    1c90:	80 e0       	ldi	r24, 0x00	; 0
    1c92:	0f 90       	pop	r0
    1c94:	df 91       	pop	r29
    1c96:	cf 91       	pop	r28
    1c98:	08 95       	ret

00001c9a <GlcdP__setAddress>:
    1c9a:	cf 93       	push	r28
    1c9c:	df 93       	push	r29
    1c9e:	98 2f       	mov	r25, r24
    1ca0:	c6 2f       	mov	r28, r22
    1ca2:	d8 2f       	mov	r29, r24
    1ca4:	d2 95       	swap	r29
    1ca6:	d6 95       	lsr	r29
    1ca8:	d6 95       	lsr	r29
    1caa:	d3 70       	andi	r29, 0x03	; 3
    1cac:	81 e0       	ldi	r24, 0x01	; 1
    1cae:	d8 27       	eor	r29, r24
    1cb0:	9f 73       	andi	r25, 0x3F	; 63
    1cb2:	69 2f       	mov	r22, r25
    1cb4:	60 64       	ori	r22, 0x40	; 64
    1cb6:	8d 2f       	mov	r24, r29
    1cb8:	0e 94 31 0e 	call	0x1c62	; 0x1c62 <HplKS0108P__HplKS0108__controlWrite>
    1cbc:	6c 2f       	mov	r22, r28
    1cbe:	67 70       	andi	r22, 0x07	; 7
    1cc0:	68 6b       	ori	r22, 0xB8	; 184
    1cc2:	8d 2f       	mov	r24, r29
    1cc4:	df 91       	pop	r29
    1cc6:	cf 91       	pop	r28
    1cc8:	0c 94 31 0e 	jmp	0x1c62	; 0x1c62 <HplKS0108P__HplKS0108__controlWrite>

00001ccc <GlcdP__drawChar.constprop.92>:
    1ccc:	5f 92       	push	r5
    1cce:	6f 92       	push	r6
    1cd0:	7f 92       	push	r7
    1cd2:	8f 92       	push	r8
    1cd4:	9f 92       	push	r9
    1cd6:	af 92       	push	r10
    1cd8:	bf 92       	push	r11
    1cda:	cf 92       	push	r12
    1cdc:	df 92       	push	r13
    1cde:	ef 92       	push	r14
    1ce0:	ff 92       	push	r15
    1ce2:	0f 93       	push	r16
    1ce4:	1f 93       	push	r17
    1ce6:	cf 93       	push	r28
    1ce8:	df 93       	push	r29
    1cea:	90 ee       	ldi	r25, 0xE0	; 224
    1cec:	98 0f       	add	r25, r24
    1cee:	90 36       	cpi	r25, 0x60	; 96
    1cf0:	08 f0       	brcs	.+2      	; 0x1cf4 <GlcdP__drawChar.constprop.92+0x28>
    1cf2:	54 c0       	rjmp	.+168    	; 0x1d9c <GlcdP__drawChar.constprop.92+0xd0>
    1cf4:	6b 01       	movw	r12, r22
    1cf6:	90 e0       	ldi	r25, 0x00	; 0
    1cf8:	80 97       	sbiw	r24, 0x20	; 32
    1cfa:	25 e0       	ldi	r18, 0x05	; 5
    1cfc:	28 9f       	mul	r18, r24
    1cfe:	80 01       	movw	r16, r0
    1d00:	29 9f       	mul	r18, r25
    1d02:	10 0d       	add	r17, r0
    1d04:	11 24       	eor	r1, r1
    1d06:	04 5a       	subi	r16, 0xA4	; 164
    1d08:	1d 4f       	sbci	r17, 0xFD	; 253
    1d0a:	91 2c       	mov	r9, r1
    1d0c:	89 ef       	ldi	r24, 0xF9	; 249
    1d0e:	68 2e       	mov	r6, r24
    1d10:	6d 0c       	add	r6, r13
    1d12:	55 24       	eor	r5, r5
    1d14:	53 94       	inc	r5
    1d16:	aa 24       	eor	r10, r10
    1d18:	a3 94       	inc	r10
    1d1a:	b1 2c       	mov	r11, r1
    1d1c:	f9 2c       	mov	r15, r9
    1d1e:	fc 0c       	add	r15, r12
    1d20:	d6 2d       	mov	r29, r6
    1d22:	f8 01       	movw	r30, r16
    1d24:	74 90       	lpm	r7, Z
    1d26:	f6 fa       	bst	r15, 6
    1d28:	cc 27       	eor	r28, r28
    1d2a:	c0 f9       	bld	r28, 0
    1d2c:	c5 25       	eor	r28, r5
    1d2e:	8d 2e       	mov	r8, r29
    1d30:	86 94       	lsr	r8
    1d32:	86 94       	lsr	r8
    1d34:	86 94       	lsr	r8
    1d36:	fd 2f       	mov	r31, r29
    1d38:	f7 70       	andi	r31, 0x07	; 7
    1d3a:	ef 2e       	mov	r14, r31
    1d3c:	68 2d       	mov	r22, r8
    1d3e:	8f 2d       	mov	r24, r15
    1d40:	70 fe       	sbrs	r7, 0
    1d42:	0d c0       	rjmp	.+26     	; 0x1d5e <GlcdP__drawChar.constprop.92+0x92>
    1d44:	0e 94 4d 0e 	call	0x1c9a	; 0x1c9a <GlcdP__setAddress>
    1d48:	8c 2f       	mov	r24, r28
    1d4a:	0e 94 ee 0d 	call	0x1bdc	; 0x1bdc <HplKS0108P__HplKS0108__dataRead>
    1d4e:	b5 01       	movw	r22, r10
    1d50:	01 c0       	rjmp	.+2      	; 0x1d54 <GlcdP__drawChar.constprop.92+0x88>
    1d52:	66 0f       	add	r22, r22
    1d54:	ea 94       	dec	r14
    1d56:	ea f7       	brpl	.-6      	; 0x1d52 <GlcdP__drawChar.constprop.92+0x86>
    1d58:	e8 2e       	mov	r14, r24
    1d5a:	e6 2a       	or	r14, r22
    1d5c:	0d c0       	rjmp	.+26     	; 0x1d78 <GlcdP__drawChar.constprop.92+0xac>
    1d5e:	0e 94 4d 0e 	call	0x1c9a	; 0x1c9a <GlcdP__setAddress>
    1d62:	8c 2f       	mov	r24, r28
    1d64:	0e 94 ee 0d 	call	0x1bdc	; 0x1bdc <HplKS0108P__HplKS0108__dataRead>
    1d68:	95 01       	movw	r18, r10
    1d6a:	01 c0       	rjmp	.+2      	; 0x1d6e <GlcdP__drawChar.constprop.92+0xa2>
    1d6c:	22 0f       	add	r18, r18
    1d6e:	ea 94       	dec	r14
    1d70:	ea f7       	brpl	.-6      	; 0x1d6c <GlcdP__drawChar.constprop.92+0xa0>
    1d72:	20 95       	com	r18
    1d74:	e8 2e       	mov	r14, r24
    1d76:	e2 22       	and	r14, r18
    1d78:	68 2d       	mov	r22, r8
    1d7a:	8f 2d       	mov	r24, r15
    1d7c:	0e 94 4d 0e 	call	0x1c9a	; 0x1c9a <GlcdP__setAddress>
    1d80:	6e 2d       	mov	r22, r14
    1d82:	8c 2f       	mov	r24, r28
    1d84:	0e 94 15 0e 	call	0x1c2a	; 0x1c2a <HplKS0108P__HplKS0108__dataWrite>
    1d88:	76 94       	lsr	r7
    1d8a:	df 5f       	subi	r29, 0xFF	; 255
    1d8c:	dd 11       	cpse	r29, r13
    1d8e:	cf cf       	rjmp	.-98     	; 0x1d2e <GlcdP__drawChar.constprop.92+0x62>
    1d90:	0f 5f       	subi	r16, 0xFF	; 255
    1d92:	1f 4f       	sbci	r17, 0xFF	; 255
    1d94:	93 94       	inc	r9
    1d96:	85 e0       	ldi	r24, 0x05	; 5
    1d98:	98 12       	cpse	r9, r24
    1d9a:	c0 cf       	rjmp	.-128    	; 0x1d1c <GlcdP__drawChar.constprop.92+0x50>
    1d9c:	df 91       	pop	r29
    1d9e:	cf 91       	pop	r28
    1da0:	1f 91       	pop	r17
    1da2:	0f 91       	pop	r16
    1da4:	ff 90       	pop	r15
    1da6:	ef 90       	pop	r14
    1da8:	df 90       	pop	r13
    1daa:	cf 90       	pop	r12
    1dac:	bf 90       	pop	r11
    1dae:	af 90       	pop	r10
    1db0:	9f 90       	pop	r9
    1db2:	8f 90       	pop	r8
    1db4:	7f 90       	pop	r7
    1db6:	6f 90       	pop	r6
    1db8:	5f 90       	pop	r5
    1dba:	08 95       	ret

00001dbc <GlcdP__Glcd__drawText>:
    1dbc:	ff 92       	push	r15
    1dbe:	0f 93       	push	r16
    1dc0:	1f 93       	push	r17
    1dc2:	cf 93       	push	r28
    1dc4:	df 93       	push	r29
    1dc6:	f6 2e       	mov	r15, r22
    1dc8:	8c 01       	movw	r16, r24
    1dca:	d4 2f       	mov	r29, r20
    1dcc:	cf 2d       	mov	r28, r15
    1dce:	f8 01       	movw	r30, r16
    1dd0:	81 91       	ld	r24, Z+
    1dd2:	8f 01       	movw	r16, r30
    1dd4:	88 23       	and	r24, r24
    1dd6:	79 f0       	breq	.+30     	; 0x1df6 <GlcdP__Glcd__drawText+0x3a>
    1dd8:	8a 30       	cpi	r24, 0x0A	; 10
    1dda:	11 f0       	breq	.+4      	; 0x1de0 <GlcdP__Glcd__drawText+0x24>
    1ddc:	8d 30       	cpi	r24, 0x0D	; 13
    1dde:	11 f4       	brne	.+4      	; 0x1de4 <GlcdP__Glcd__drawText+0x28>
    1de0:	d8 5f       	subi	r29, 0xF8	; 248
    1de2:	f4 cf       	rjmp	.-24     	; 0x1dcc <GlcdP__Glcd__drawText+0x10>
    1de4:	89 30       	cpi	r24, 0x09	; 9
    1de6:	11 f4       	brne	.+4      	; 0x1dec <GlcdP__Glcd__drawText+0x30>
    1de8:	c6 5f       	subi	r28, 0xF6	; 246
    1dea:	f1 cf       	rjmp	.-30     	; 0x1dce <GlcdP__Glcd__drawText+0x12>
    1dec:	ca 5f       	subi	r28, 0xFA	; 250
    1dee:	be 01       	movw	r22, r28
    1df0:	0e 94 66 0e 	call	0x1ccc	; 0x1ccc <GlcdP__drawChar.constprop.92>
    1df4:	ec cf       	rjmp	.-40     	; 0x1dce <GlcdP__Glcd__drawText+0x12>
    1df6:	df 91       	pop	r29
    1df8:	cf 91       	pop	r28
    1dfa:	1f 91       	pop	r17
    1dfc:	0f 91       	pop	r16
    1dfe:	ff 90       	pop	r15
    1e00:	08 95       	ret

00001e02 <GlcdP__Glcd__drawTextPgm>:
    1e02:	ef 92       	push	r14
    1e04:	ff 92       	push	r15
    1e06:	0f 93       	push	r16
    1e08:	1f 93       	push	r17
    1e0a:	cf 93       	push	r28
    1e0c:	df 93       	push	r29
    1e0e:	00 d0       	rcall	.+0      	; 0x1e10 <GlcdP__Glcd__drawTextPgm+0xe>
    1e10:	cd b7       	in	r28, 0x3d	; 61
    1e12:	de b7       	in	r29, 0x3e	; 62
    1e14:	7c 01       	movw	r14, r24
    1e16:	16 2f       	mov	r17, r22
    1e18:	96 2f       	mov	r25, r22
    1e1a:	00 e0       	ldi	r16, 0x00	; 0
    1e1c:	f7 01       	movw	r30, r14
    1e1e:	e0 0f       	add	r30, r16
    1e20:	f1 1d       	adc	r31, r1
    1e22:	84 91       	lpm	r24, Z
    1e24:	88 23       	and	r24, r24
    1e26:	b1 f0       	breq	.+44     	; 0x1e54 <GlcdP__Glcd__drawTextPgm+0x52>
    1e28:	8a 30       	cpi	r24, 0x0A	; 10
    1e2a:	11 f0       	breq	.+4      	; 0x1e30 <GlcdP__Glcd__drawTextPgm+0x2e>
    1e2c:	8d 30       	cpi	r24, 0x0D	; 13
    1e2e:	19 f4       	brne	.+6      	; 0x1e36 <GlcdP__Glcd__drawTextPgm+0x34>
    1e30:	48 5f       	subi	r20, 0xF8	; 248
    1e32:	91 2f       	mov	r25, r17
    1e34:	0d c0       	rjmp	.+26     	; 0x1e50 <GlcdP__Glcd__drawTextPgm+0x4e>
    1e36:	89 30       	cpi	r24, 0x09	; 9
    1e38:	11 f4       	brne	.+4      	; 0x1e3e <GlcdP__Glcd__drawTextPgm+0x3c>
    1e3a:	96 5f       	subi	r25, 0xF6	; 246
    1e3c:	09 c0       	rjmp	.+18     	; 0x1e50 <GlcdP__Glcd__drawTextPgm+0x4e>
    1e3e:	9a 5f       	subi	r25, 0xFA	; 250
    1e40:	69 2f       	mov	r22, r25
    1e42:	74 2f       	mov	r23, r20
    1e44:	49 83       	std	Y+1, r20	; 0x01
    1e46:	9a 83       	std	Y+2, r25	; 0x02
    1e48:	0e 94 66 0e 	call	0x1ccc	; 0x1ccc <GlcdP__drawChar.constprop.92>
    1e4c:	9a 81       	ldd	r25, Y+2	; 0x02
    1e4e:	49 81       	ldd	r20, Y+1	; 0x01
    1e50:	0f 5f       	subi	r16, 0xFF	; 255
    1e52:	e4 cf       	rjmp	.-56     	; 0x1e1c <GlcdP__Glcd__drawTextPgm+0x1a>
    1e54:	0f 90       	pop	r0
    1e56:	0f 90       	pop	r0
    1e58:	df 91       	pop	r29
    1e5a:	cf 91       	pop	r28
    1e5c:	1f 91       	pop	r17
    1e5e:	0f 91       	pop	r16
    1e60:	ff 90       	pop	r15
    1e62:	ef 90       	pop	r14
    1e64:	08 95       	ret

00001e66 <RadioScannerP__inputTuneChannel__runTask>:
    1e66:	cf 93       	push	r28
    1e68:	8f b7       	in	r24, 0x3f	; 63
    1e6a:	f8 94       	cli
    1e6c:	c0 91 d2 07 	lds	r28, 0x07D2
    1e70:	8f bf       	out	0x3f, r24	; 63
    1e72:	8c 2f       	mov	r24, r28
    1e74:	90 e0       	ldi	r25, 0x00	; 0
    1e76:	c0 97       	sbiw	r24, 0x30	; 48
    1e78:	0a 97       	sbiw	r24, 0x0a	; 10
    1e7a:	60 f4       	brcc	.+24     	; 0x1e94 <RadioScannerP__inputTuneChannel__runTask+0x2e>
    1e7c:	e0 91 c8 07 	lds	r30, 0x07C8
    1e80:	e4 30       	cpi	r30, 0x04	; 4
    1e82:	40 f4       	brcc	.+16     	; 0x1e94 <RadioScannerP__inputTuneChannel__runTask+0x2e>
    1e84:	81 e0       	ldi	r24, 0x01	; 1
    1e86:	8e 0f       	add	r24, r30
    1e88:	80 93 c8 07 	sts	0x07C8, r24
    1e8c:	f0 e0       	ldi	r31, 0x00	; 0
    1e8e:	e8 53       	subi	r30, 0x38	; 56
    1e90:	f8 4f       	sbci	r31, 0xF8	; 248
    1e92:	c1 83       	std	Z+1, r28	; 0x01
    1e94:	c8 30       	cpi	r28, 0x08	; 8
    1e96:	59 f4       	brne	.+22     	; 0x1eae <RadioScannerP__inputTuneChannel__runTask+0x48>
    1e98:	e0 91 c8 07 	lds	r30, 0x07C8
    1e9c:	ee 23       	and	r30, r30
    1e9e:	39 f0       	breq	.+14     	; 0x1eae <RadioScannerP__inputTuneChannel__runTask+0x48>
    1ea0:	e1 50       	subi	r30, 0x01	; 1
    1ea2:	e0 93 c8 07 	sts	0x07C8, r30
    1ea6:	f0 e0       	ldi	r31, 0x00	; 0
    1ea8:	e8 53       	subi	r30, 0x38	; 56
    1eaa:	f8 4f       	sbci	r31, 0xF8	; 248
    1eac:	11 82       	std	Z+1, r1	; 0x01
    1eae:	44 e1       	ldi	r20, 0x14	; 20
    1eb0:	60 e0       	ldi	r22, 0x00	; 0
    1eb2:	84 e8       	ldi	r24, 0x84	; 132
    1eb4:	95 e0       	ldi	r25, 0x05	; 5
    1eb6:	0e 94 01 0f 	call	0x1e02	; 0x1e02 <GlcdP__Glcd__drawTextPgm>
    1eba:	44 e1       	ldi	r20, 0x14	; 20
    1ebc:	60 e0       	ldi	r22, 0x00	; 0
    1ebe:	89 ec       	ldi	r24, 0xC9	; 201
    1ec0:	97 e0       	ldi	r25, 0x07	; 7
    1ec2:	0e 94 de 0e 	call	0x1dbc	; 0x1dbc <GlcdP__Glcd__drawText>
    1ec6:	ca 30       	cpi	r28, 0x0A	; 10
    1ec8:	39 f5       	brne	.+78     	; 0x1f18 <RadioScannerP__inputTuneChannel__runTask+0xb2>
    1eca:	4a e0       	ldi	r20, 0x0A	; 10
    1ecc:	50 e0       	ldi	r21, 0x00	; 0
    1ece:	60 e0       	ldi	r22, 0x00	; 0
    1ed0:	70 e0       	ldi	r23, 0x00	; 0
    1ed2:	89 ec       	ldi	r24, 0xC9	; 201
    1ed4:	97 e0       	ldi	r25, 0x07	; 7
    1ed6:	0e 94 b6 2b 	call	0x576c	; 0x576c <strtoul>
    1eda:	2f b7       	in	r18, 0x3f	; 63
    1edc:	f8 94       	cli
    1ede:	33 e0       	ldi	r19, 0x03	; 3
    1ee0:	30 93 d3 07 	sts	0x07D3, r19
    1ee4:	2f bf       	out	0x3f, r18	; 63
    1ee6:	9b 01       	movw	r18, r22
    1ee8:	2b 56       	subi	r18, 0x6B	; 107
    1eea:	33 40       	sbci	r19, 0x03	; 3
    1eec:	2e 3c       	cpi	r18, 0xCE	; 206
    1eee:	31 05       	cpc	r19, r1
    1ef0:	48 f0       	brcs	.+18     	; 0x1f04 <RadioScannerP__inputTuneChannel__runTask+0x9e>
    1ef2:	8f b7       	in	r24, 0x3f	; 63
    1ef4:	f8 94       	cli
    1ef6:	91 e0       	ldi	r25, 0x01	; 1
    1ef8:	90 93 c5 03 	sts	0x03C5, r25
    1efc:	8f bf       	out	0x3f, r24	; 63
    1efe:	cf 91       	pop	r28
    1f00:	0c 94 3e 03 	jmp	0x67c	; 0x67c <RadioScannerP__displaySoftError__postTask>
    1f04:	2f b7       	in	r18, 0x3f	; 63
    1f06:	f8 94       	cli
    1f08:	70 93 cf 07 	sts	0x07CF, r23
    1f0c:	60 93 ce 07 	sts	0x07CE, r22
    1f10:	2f bf       	out	0x3f, r18	; 63
    1f12:	cf 91       	pop	r28
    1f14:	0c 94 41 03 	jmp	0x682	; 0x682 <RadioScannerP__startTune__postTask>
    1f18:	cf 91       	pop	r28
    1f1a:	08 95       	ret

00001f1c <GlcdP__Glcd__fill.constprop.94>:
    1f1c:	cf 93       	push	r28
    1f1e:	df 93       	push	r29
    1f20:	c0 e0       	ldi	r28, 0x00	; 0
    1f22:	6c 2f       	mov	r22, r28
    1f24:	80 e0       	ldi	r24, 0x00	; 0
    1f26:	0e 94 4d 0e 	call	0x1c9a	; 0x1c9a <GlcdP__setAddress>
    1f2a:	6c 2f       	mov	r22, r28
    1f2c:	80 e4       	ldi	r24, 0x40	; 64
    1f2e:	0e 94 4d 0e 	call	0x1c9a	; 0x1c9a <GlcdP__setAddress>
    1f32:	d0 e0       	ldi	r29, 0x00	; 0
    1f34:	60 e0       	ldi	r22, 0x00	; 0
    1f36:	80 e0       	ldi	r24, 0x00	; 0
    1f38:	0e 94 15 0e 	call	0x1c2a	; 0x1c2a <HplKS0108P__HplKS0108__dataWrite>
    1f3c:	60 e0       	ldi	r22, 0x00	; 0
    1f3e:	81 e0       	ldi	r24, 0x01	; 1
    1f40:	0e 94 15 0e 	call	0x1c2a	; 0x1c2a <HplKS0108P__HplKS0108__dataWrite>
    1f44:	df 5f       	subi	r29, 0xFF	; 255
    1f46:	d0 38       	cpi	r29, 0x80	; 128
    1f48:	a9 f7       	brne	.-22     	; 0x1f34 <GlcdP__Glcd__fill.constprop.94+0x18>
    1f4a:	cf 5f       	subi	r28, 0xFF	; 255
    1f4c:	c8 30       	cpi	r28, 0x08	; 8
    1f4e:	49 f7       	brne	.-46     	; 0x1f22 <GlcdP__Glcd__fill.constprop.94+0x6>
    1f50:	80 e0       	ldi	r24, 0x00	; 0
    1f52:	df 91       	pop	r29
    1f54:	cf 91       	pop	r28
    1f56:	08 95       	ret

00001f58 <RadioScannerP__displayHardError__runTask>:
    1f58:	cf 93       	push	r28
    1f5a:	8f b7       	in	r24, 0x3f	; 63
    1f5c:	f8 94       	cli
    1f5e:	c0 91 c5 03 	lds	r28, 0x03C5
    1f62:	8f bf       	out	0x3f, r24	; 63
    1f64:	10 92 cb 0e 	sts	0x0ECB, r1
    1f68:	0e 94 8e 0f 	call	0x1f1c	; 0x1f1c <GlcdP__Glcd__fill.constprop.94>
    1f6c:	4a e0       	ldi	r20, 0x0A	; 10
    1f6e:	60 e0       	ldi	r22, 0x00	; 0
    1f70:	8a e4       	ldi	r24, 0x4A	; 74
    1f72:	95 e0       	ldi	r25, 0x05	; 5
    1f74:	0e 94 01 0f 	call	0x1e02	; 0x1e02 <GlcdP__Glcd__drawTextPgm>
    1f78:	44 e1       	ldi	r20, 0x14	; 20
    1f7a:	60 e0       	ldi	r22, 0x00	; 0
    1f7c:	c1 11       	cpse	r28, r1
    1f7e:	03 c0       	rjmp	.+6      	; 0x1f86 <RadioScannerP__displayHardError__runTask+0x2e>
    1f80:	86 e2       	ldi	r24, 0x26	; 38
    1f82:	95 e0       	ldi	r25, 0x05	; 5
    1f84:	02 c0       	rjmp	.+4      	; 0x1f8a <RadioScannerP__displayHardError__runTask+0x32>
    1f86:	8b e3       	ldi	r24, 0x3B	; 59
    1f88:	95 e0       	ldi	r25, 0x05	; 5
    1f8a:	cf 91       	pop	r28
    1f8c:	0c 94 01 0f 	jmp	0x1e02	; 0x1e02 <GlcdP__Glcd__drawTextPgm>

00001f90 <VirtualizeTimerC__0__fireTimers>:
    1f90:	4f 92       	push	r4
    1f92:	5f 92       	push	r5
    1f94:	6f 92       	push	r6
    1f96:	7f 92       	push	r7
    1f98:	8f 92       	push	r8
    1f9a:	9f 92       	push	r9
    1f9c:	af 92       	push	r10
    1f9e:	bf 92       	push	r11
    1fa0:	cf 92       	push	r12
    1fa2:	df 92       	push	r13
    1fa4:	ff 92       	push	r15
    1fa6:	0f 93       	push	r16
    1fa8:	1f 93       	push	r17
    1faa:	cf 93       	push	r28
    1fac:	df 93       	push	r29
    1fae:	a6 ea       	ldi	r26, 0xA6	; 166
    1fb0:	b1 e1       	ldi	r27, 0x11	; 17
    1fb2:	c1 2c       	mov	r12, r1
    1fb4:	d1 2c       	mov	r13, r1
    1fb6:	49 e0       	ldi	r20, 0x09	; 9
    1fb8:	4c 9d       	mul	r20, r12
    1fba:	f0 01       	movw	r30, r0
    1fbc:	4d 9d       	mul	r20, r13
    1fbe:	f0 0d       	add	r31, r0
    1fc0:	11 24       	eor	r1, r1
    1fc2:	ef 01       	movw	r28, r30
    1fc4:	ca 55       	subi	r28, 0x5A	; 90
    1fc6:	de 4e       	sbci	r29, 0xEE	; 238
    1fc8:	f8 84       	ldd	r15, Y+8	; 0x08
    1fca:	f1 fe       	sbrs	r15, 1
    1fcc:	8e c0       	rjmp	.+284    	; 0x20ea <VirtualizeTimerC__0__fireTimers+0x15a>
    1fce:	0d 91       	ld	r16, X+
    1fd0:	1d 91       	ld	r17, X+
    1fd2:	2d 91       	ld	r18, X+
    1fd4:	3c 91       	ld	r19, X
    1fd6:	13 97       	sbiw	r26, 0x03	; 3
    1fd8:	14 96       	adiw	r26, 0x04	; 4
    1fda:	8d 90       	ld	r8, X+
    1fdc:	9d 90       	ld	r9, X+
    1fde:	ad 90       	ld	r10, X+
    1fe0:	bc 90       	ld	r11, X
    1fe2:	17 97       	sbiw	r26, 0x07	; 7
    1fe4:	2b 01       	movw	r4, r22
    1fe6:	3c 01       	movw	r6, r24
    1fe8:	40 1a       	sub	r4, r16
    1fea:	51 0a       	sbc	r5, r17
    1fec:	62 0a       	sbc	r6, r18
    1fee:	73 0a       	sbc	r7, r19
    1ff0:	48 14       	cp	r4, r8
    1ff2:	59 04       	cpc	r5, r9
    1ff4:	6a 04       	cpc	r6, r10
    1ff6:	7b 04       	cpc	r7, r11
    1ff8:	08 f4       	brcc	.+2      	; 0x1ffc <VirtualizeTimerC__0__fireTimers+0x6c>
    1ffa:	77 c0       	rjmp	.+238    	; 0x20ea <VirtualizeTimerC__0__fireTimers+0x15a>
    1ffc:	f0 fe       	sbrs	r15, 0
    1ffe:	06 c0       	rjmp	.+12     	; 0x200c <VirtualizeTimerC__0__fireTimers+0x7c>
    2000:	e2 55       	subi	r30, 0x52	; 82
    2002:	fe 4e       	sbci	r31, 0xEE	; 238
    2004:	20 81       	ld	r18, Z
    2006:	2d 7f       	andi	r18, 0xFD	; 253
    2008:	20 83       	st	Z, r18
    200a:	0a c0       	rjmp	.+20     	; 0x2020 <VirtualizeTimerC__0__fireTimers+0x90>
    200c:	b9 01       	movw	r22, r18
    200e:	a8 01       	movw	r20, r16
    2010:	48 0d       	add	r20, r8
    2012:	59 1d       	adc	r21, r9
    2014:	6a 1d       	adc	r22, r10
    2016:	7b 1d       	adc	r23, r11
    2018:	48 83       	st	Y, r20
    201a:	59 83       	std	Y+1, r21	; 0x01
    201c:	6a 83       	std	Y+2, r22	; 0x02
    201e:	7b 83       	std	Y+3, r23	; 0x03
    2020:	23 e0       	ldi	r18, 0x03	; 3
    2022:	c2 16       	cp	r12, r18
    2024:	09 f4       	brne	.+2      	; 0x2028 <VirtualizeTimerC__0__fireTimers+0x98>
    2026:	4f c0       	rjmp	.+158    	; 0x20c6 <VirtualizeTimerC__0__fireTimers+0x136>
    2028:	2c 15       	cp	r18, r12
    202a:	38 f0       	brcs	.+14     	; 0x203a <VirtualizeTimerC__0__fireTimers+0xaa>
    202c:	81 e0       	ldi	r24, 0x01	; 1
    202e:	c8 16       	cp	r12, r24
    2030:	81 f0       	breq	.+32     	; 0x2052 <VirtualizeTimerC__0__fireTimers+0xc2>
    2032:	22 e0       	ldi	r18, 0x02	; 2
    2034:	c2 16       	cp	r12, r18
    2036:	f1 f1       	breq	.+124    	; 0x20b4 <VirtualizeTimerC__0__fireTimers+0x124>
    2038:	2d c0       	rjmp	.+90     	; 0x2094 <VirtualizeTimerC__0__fireTimers+0x104>
    203a:	85 e0       	ldi	r24, 0x05	; 5
    203c:	c8 16       	cp	r12, r24
    203e:	09 f4       	brne	.+2      	; 0x2042 <VirtualizeTimerC__0__fireTimers+0xb2>
    2040:	47 c0       	rjmp	.+142    	; 0x20d0 <VirtualizeTimerC__0__fireTimers+0x140>
    2042:	c8 16       	cp	r12, r24
    2044:	08 f4       	brcc	.+2      	; 0x2048 <VirtualizeTimerC__0__fireTimers+0xb8>
    2046:	41 c0       	rjmp	.+130    	; 0x20ca <VirtualizeTimerC__0__fireTimers+0x13a>
    2048:	26 e0       	ldi	r18, 0x06	; 6
    204a:	c2 16       	cp	r12, r18
    204c:	09 f4       	brne	.+2      	; 0x2050 <VirtualizeTimerC__0__fireTimers+0xc0>
    204e:	49 c0       	rjmp	.+146    	; 0x20e2 <VirtualizeTimerC__0__fireTimers+0x152>
    2050:	21 c0       	rjmp	.+66     	; 0x2094 <VirtualizeTimerC__0__fireTimers+0x104>
    2052:	10 92 d1 12 	sts	0x12D1, r1
    2056:	10 92 d2 12 	sts	0x12D2, r1
    205a:	10 92 d3 12 	sts	0x12D3, r1
    205e:	10 92 d4 12 	sts	0x12D4, r1
    2062:	10 92 db 12 	sts	0x12DB, r1
    2066:	10 92 dc 12 	sts	0x12DC, r1
    206a:	10 92 dd 12 	sts	0x12DD, r1
    206e:	10 92 de 12 	sts	0x12DE, r1
    2072:	10 92 e5 12 	sts	0x12E5, r1
    2076:	10 92 e6 12 	sts	0x12E6, r1
    207a:	10 92 e7 12 	sts	0x12E7, r1
    207e:	10 92 e8 12 	sts	0x12E8, r1
    2082:	10 92 ef 12 	sts	0x12EF, r1
    2086:	10 92 f0 12 	sts	0x12F0, r1
    208a:	10 92 f1 12 	sts	0x12F1, r1
    208e:	10 92 f2 12 	sts	0x12F2, r1
    2092:	34 c0       	rjmp	.+104    	; 0x20fc <VirtualizeTimerC__0__fireTimers+0x16c>
    2094:	10 92 a0 02 	sts	0x02A0, r1
    2098:	80 91 a1 02 	lds	r24, 0x02A1
    209c:	8f 5f       	subi	r24, 0xFF	; 255
    209e:	80 93 a1 02 	sts	0x02A1, r24
    20a2:	83 30       	cpi	r24, 0x03	; 3
    20a4:	18 f4       	brcc	.+6      	; 0x20ac <VirtualizeTimerC__0__fireTimers+0x11c>
    20a6:	0e 94 06 08 	call	0x100c	; 0x100c <ArpP__sendRequest>
    20aa:	28 c0       	rjmp	.+80     	; 0x20fc <VirtualizeTimerC__0__fireTimers+0x16c>
    20ac:	81 e0       	ldi	r24, 0x01	; 1
    20ae:	0e 94 47 0b 	call	0x168e	; 0x168e <PacketQueueP__2__PacketSender__sendDone>
    20b2:	24 c0       	rjmp	.+72     	; 0x20fc <VirtualizeTimerC__0__fireTimers+0x16c>
    20b4:	9f b7       	in	r25, 0x3f	; 63
    20b6:	f8 94       	cli
    20b8:	80 91 68 12 	lds	r24, 0x1268
    20bc:	9f bf       	out	0x3f, r25	; 63
    20be:	81 30       	cpi	r24, 0x01	; 1
    20c0:	e9 f4       	brne	.+58     	; 0x20fc <VirtualizeTimerC__0__fireTimers+0x16c>
    20c2:	8a e1       	ldi	r24, 0x1A	; 26
    20c4:	0f c0       	rjmp	.+30     	; 0x20e4 <VirtualizeTimerC__0__fireTimers+0x154>
    20c6:	87 e2       	ldi	r24, 0x27	; 39
    20c8:	0d c0       	rjmp	.+26     	; 0x20e4 <VirtualizeTimerC__0__fireTimers+0x154>
    20ca:	0e 94 7e 08 	call	0x10fc	; 0x10fc <ArbiterP__1__Resource__request.constprop.138>
    20ce:	16 c0       	rjmp	.+44     	; 0x20fc <VirtualizeTimerC__0__fireTimers+0x16c>
    20d0:	8f b7       	in	r24, 0x3f	; 63
    20d2:	f8 94       	cli
    20d4:	91 e0       	ldi	r25, 0x01	; 1
    20d6:	90 93 d3 07 	sts	0x07D3, r25
    20da:	8f bf       	out	0x3f, r24	; 63
    20dc:	0e 94 50 03 	call	0x6a0	; 0x6a0 <RadioScannerP__displayChannelInfo__postTask>
    20e0:	0d c0       	rjmp	.+26     	; 0x20fc <VirtualizeTimerC__0__fireTimers+0x16c>
    20e2:	89 e0       	ldi	r24, 0x09	; 9
    20e4:	0e 94 1f 03 	call	0x63e	; 0x63e <SchedulerBasicP__TaskBasic__postTask>
    20e8:	09 c0       	rjmp	.+18     	; 0x20fc <VirtualizeTimerC__0__fireTimers+0x16c>
    20ea:	2f ef       	ldi	r18, 0xFF	; 255
    20ec:	c2 1a       	sub	r12, r18
    20ee:	d2 0a       	sbc	r13, r18
    20f0:	19 96       	adiw	r26, 0x09	; 9
    20f2:	27 e0       	ldi	r18, 0x07	; 7
    20f4:	c2 16       	cp	r12, r18
    20f6:	d1 04       	cpc	r13, r1
    20f8:	09 f0       	breq	.+2      	; 0x20fc <VirtualizeTimerC__0__fireTimers+0x16c>
    20fa:	5e cf       	rjmp	.-324    	; 0x1fb8 <VirtualizeTimerC__0__fireTimers+0x28>
    20fc:	82 e1       	ldi	r24, 0x12	; 18
    20fe:	df 91       	pop	r29
    2100:	cf 91       	pop	r28
    2102:	1f 91       	pop	r17
    2104:	0f 91       	pop	r16
    2106:	ff 90       	pop	r15
    2108:	df 90       	pop	r13
    210a:	cf 90       	pop	r12
    210c:	bf 90       	pop	r11
    210e:	af 90       	pop	r10
    2110:	9f 90       	pop	r9
    2112:	8f 90       	pop	r8
    2114:	7f 90       	pop	r7
    2116:	6f 90       	pop	r6
    2118:	5f 90       	pop	r5
    211a:	4f 90       	pop	r4
    211c:	0c 94 1f 03 	jmp	0x63e	; 0x63e <SchedulerBasicP__TaskBasic__postTask>

00002120 <FMClickP__I2C__readDone.isra.78>:
    2120:	cf 93       	push	r28
    2122:	c0 91 68 12 	lds	r28, 0x1268
    2126:	81 30       	cpi	r24, 0x01	; 1
    2128:	11 f4       	brne	.+4      	; 0x212e <FMClickP__I2C__readDone.isra.78+0xe>
    212a:	8f e1       	ldi	r24, 0x1F	; 31
    212c:	1a c0       	rjmp	.+52     	; 0x2162 <FMClickP__I2C__readDone.isra.78+0x42>
    212e:	0e 94 d7 0a 	call	0x15ae	; 0x15ae <FMClickP__I2CResource__release>
    2132:	10 92 69 12 	sts	0x1269, r1
    2136:	82 e2       	ldi	r24, 0x22	; 34
    2138:	0e 94 1f 03 	call	0x63e	; 0x63e <SchedulerBasicP__TaskBasic__postTask>
    213c:	c2 30       	cpi	r28, 0x02	; 2
    213e:	59 f0       	breq	.+22     	; 0x2156 <FMClickP__I2C__readDone.isra.78+0x36>
    2140:	20 f4       	brcc	.+8      	; 0x214a <FMClickP__I2C__readDone.isra.78+0x2a>
    2142:	c1 30       	cpi	r28, 0x01	; 1
    2144:	89 f4       	brne	.+34     	; 0x2168 <FMClickP__I2C__readDone.isra.78+0x48>
    2146:	8a e1       	ldi	r24, 0x1A	; 26
    2148:	0c c0       	rjmp	.+24     	; 0x2162 <FMClickP__I2C__readDone.isra.78+0x42>
    214a:	c3 30       	cpi	r28, 0x03	; 3
    214c:	39 f0       	breq	.+14     	; 0x215c <FMClickP__I2C__readDone.isra.78+0x3c>
    214e:	c6 30       	cpi	r28, 0x06	; 6
    2150:	59 f4       	brne	.+22     	; 0x2168 <FMClickP__I2C__readDone.isra.78+0x48>
    2152:	8d e1       	ldi	r24, 0x1D	; 29
    2154:	06 c0       	rjmp	.+12     	; 0x2162 <FMClickP__I2C__readDone.isra.78+0x42>
    2156:	cf 91       	pop	r28
    2158:	0c 94 4d 03 	jmp	0x69a	; 0x69a <FMClickP__tune__postTask>
    215c:	cf 91       	pop	r28
    215e:	0c 94 4a 03 	jmp	0x694	; 0x694 <FMClickP__seek__postTask>
    2162:	cf 91       	pop	r28
    2164:	0c 94 1f 03 	jmp	0x63e	; 0x63e <SchedulerBasicP__TaskBasic__postTask>
    2168:	cf 91       	pop	r28
    216a:	08 95       	ret

0000216c <Atm128I2CMasterPacketP__0__readNextByte>:
    216c:	81 11       	cpse	r24, r1
    216e:	10 c0       	rjmp	.+32     	; 0x2190 <Atm128I2CMasterPacketP__0__readNextByte+0x24>
    2170:	80 91 bb 00 	lds	r24, 0x00BB
    2174:	90 91 61 12 	lds	r25, 0x1261
    2178:	e0 91 96 0c 	lds	r30, 0x0C96
    217c:	f0 91 97 0c 	lds	r31, 0x0C97
    2180:	e9 0f       	add	r30, r25
    2182:	f1 1d       	adc	r31, r1
    2184:	80 83       	st	Z, r24
    2186:	80 91 61 12 	lds	r24, 0x1261
    218a:	8f 5f       	subi	r24, 0xFF	; 255
    218c:	80 93 61 12 	sts	0x1261, r24
    2190:	20 91 61 12 	lds	r18, 0x1261
    2194:	80 91 d4 07 	lds	r24, 0x07D4
    2198:	28 17       	cp	r18, r24
    219a:	88 f4       	brcc	.+34     	; 0x21be <Atm128I2CMasterPacketP__0__readNextByte+0x52>
    219c:	30 e0       	ldi	r19, 0x00	; 0
    219e:	90 e0       	ldi	r25, 0x00	; 0
    21a0:	01 97       	sbiw	r24, 0x01	; 1
    21a2:	28 17       	cp	r18, r24
    21a4:	39 07       	cpc	r19, r25
    21a6:	49 f4       	brne	.+18     	; 0x21ba <Atm128I2CMasterPacketP__0__readNextByte+0x4e>
    21a8:	80 91 f9 12 	lds	r24, 0x12F9
    21ac:	82 fd       	sbrc	r24, 2
    21ae:	05 c0       	rjmp	.+10     	; 0x21ba <Atm128I2CMasterPacketP__0__readNextByte+0x4e>
    21b0:	80 91 e5 11 	lds	r24, 0x11E5
    21b4:	8f 7b       	andi	r24, 0xBF	; 191
    21b6:	80 93 e5 11 	sts	0x11E5, r24
    21ba:	0c 94 fe 02 	jmp	0x5fc	; 0x5fc <HplAtm128I2CBusP__I2C__sendCommand>
    21be:	80 91 e5 11 	lds	r24, 0x11E5
    21c2:	28 2f       	mov	r18, r24
    21c4:	2e 7f       	andi	r18, 0xFE	; 254
    21c6:	90 91 f9 12 	lds	r25, 0x12F9
    21ca:	91 ff       	sbrs	r25, 1
    21cc:	0a c0       	rjmp	.+20     	; 0x21e2 <Atm128I2CMasterPacketP__0__readNextByte+0x76>
    21ce:	9d 7f       	andi	r25, 0xFD	; 253
    21d0:	90 93 f9 12 	sts	0x12F9, r25
    21d4:	82 2f       	mov	r24, r18
    21d6:	80 61       	ori	r24, 0x10	; 16
    21d8:	80 93 e5 11 	sts	0x11E5, r24
    21dc:	80 91 b9 00 	lds	r24, 0x00B9
    21e0:	03 c0       	rjmp	.+6      	; 0x21e8 <Atm128I2CMasterPacketP__0__readNextByte+0x7c>
    21e2:	8e 77       	andi	r24, 0x7E	; 126
    21e4:	80 93 e5 11 	sts	0x11E5, r24
    21e8:	0e 94 fe 02 	call	0x5fc	; 0x5fc <HplAtm128I2CBusP__I2C__sendCommand>
    21ec:	81 e0       	ldi	r24, 0x01	; 1
    21ee:	80 93 91 02 	sts	0x0291, r24
    21f2:	80 91 0d 02 	lds	r24, 0x020D
    21f6:	81 11       	cpse	r24, r1
    21f8:	02 c0       	rjmp	.+4      	; 0x21fe <Atm128I2CMasterPacketP__0__readNextByte+0x92>
    21fa:	0c 94 90 10 	jmp	0x2120	; 0x2120 <FMClickP__I2C__readDone.isra.78>
    21fe:	08 95       	ret

00002200 <FMClickP__I2C__writeDone.isra.73>:
    2200:	cf 93       	push	r28
    2202:	c0 91 68 12 	lds	r28, 0x1268
    2206:	81 30       	cpi	r24, 0x01	; 1
    2208:	11 f4       	brne	.+4      	; 0x220e <FMClickP__I2C__writeDone.isra.73+0xe>
    220a:	81 e2       	ldi	r24, 0x21	; 33
    220c:	14 c0       	rjmp	.+40     	; 0x2236 <FMClickP__I2C__writeDone.isra.73+0x36>
    220e:	0e 94 d7 0a 	call	0x15ae	; 0x15ae <FMClickP__I2CResource__release>
    2212:	10 92 69 12 	sts	0x1269, r1
    2216:	c3 30       	cpi	r28, 0x03	; 3
    2218:	89 f0       	breq	.+34     	; 0x223c <FMClickP__I2C__writeDone.isra.73+0x3c>
    221a:	38 f4       	brcc	.+14     	; 0x222a <FMClickP__I2C__writeDone.isra.73+0x2a>
    221c:	c1 30       	cpi	r28, 0x01	; 1
    221e:	51 f0       	breq	.+20     	; 0x2234 <FMClickP__I2C__writeDone.isra.73+0x34>
    2220:	c2 30       	cpi	r28, 0x02	; 2
    2222:	79 f4       	brne	.+30     	; 0x2242 <FMClickP__I2C__writeDone.isra.73+0x42>
    2224:	cf 91       	pop	r28
    2226:	0c 94 4d 03 	jmp	0x69a	; 0x69a <FMClickP__tune__postTask>
    222a:	c6 30       	cpi	r28, 0x06	; 6
    222c:	50 f4       	brcc	.+20     	; 0x2242 <FMClickP__I2C__writeDone.isra.73+0x42>
    222e:	10 92 68 12 	sts	0x1268, r1
    2232:	07 c0       	rjmp	.+14     	; 0x2242 <FMClickP__I2C__writeDone.isra.73+0x42>
    2234:	8a e1       	ldi	r24, 0x1A	; 26
    2236:	cf 91       	pop	r28
    2238:	0c 94 1f 03 	jmp	0x63e	; 0x63e <SchedulerBasicP__TaskBasic__postTask>
    223c:	cf 91       	pop	r28
    223e:	0c 94 4a 03 	jmp	0x694	; 0x694 <FMClickP__seek__postTask>
    2242:	cf 91       	pop	r28
    2244:	08 95       	ret

00002246 <Atm128I2CMasterPacketP__0__writeNextByte>:
    2246:	80 91 61 12 	lds	r24, 0x1261
    224a:	90 91 d4 07 	lds	r25, 0x07D4
    224e:	89 17       	cp	r24, r25
    2250:	80 f4       	brcc	.+32     	; 0x2272 <Atm128I2CMasterPacketP__0__writeNextByte+0x2c>
    2252:	e0 91 96 0c 	lds	r30, 0x0C96
    2256:	f0 91 97 0c 	lds	r31, 0x0C97
    225a:	e8 0f       	add	r30, r24
    225c:	f1 1d       	adc	r31, r1
    225e:	80 81       	ld	r24, Z
    2260:	80 93 bb 00 	sts	0x00BB, r24
    2264:	80 91 61 12 	lds	r24, 0x1261
    2268:	8f 5f       	subi	r24, 0xFF	; 255
    226a:	80 93 61 12 	sts	0x1261, r24
    226e:	0c 94 fe 02 	jmp	0x5fc	; 0x5fc <HplAtm128I2CBusP__I2C__sendCommand>
    2272:	80 91 e5 11 	lds	r24, 0x11E5
    2276:	28 2f       	mov	r18, r24
    2278:	2e 7f       	andi	r18, 0xFE	; 254
    227a:	90 91 f9 12 	lds	r25, 0x12F9
    227e:	91 ff       	sbrs	r25, 1
    2280:	06 c0       	rjmp	.+12     	; 0x228e <Atm128I2CMasterPacketP__0__writeNextByte+0x48>
    2282:	9d 7f       	andi	r25, 0xFD	; 253
    2284:	90 93 f9 12 	sts	0x12F9, r25
    2288:	82 2f       	mov	r24, r18
    228a:	80 61       	ori	r24, 0x10	; 16
    228c:	01 c0       	rjmp	.+2      	; 0x2290 <Atm128I2CMasterPacketP__0__writeNextByte+0x4a>
    228e:	8e 77       	andi	r24, 0x7E	; 126
    2290:	80 93 e5 11 	sts	0x11E5, r24
    2294:	0e 94 fe 02 	call	0x5fc	; 0x5fc <HplAtm128I2CBusP__I2C__sendCommand>
    2298:	81 e0       	ldi	r24, 0x01	; 1
    229a:	80 93 91 02 	sts	0x0291, r24
    229e:	80 91 0d 02 	lds	r24, 0x020D
    22a2:	81 11       	cpse	r24, r1
    22a4:	02 c0       	rjmp	.+4      	; 0x22aa <Atm128I2CMasterPacketP__0__writeNextByte+0x64>
    22a6:	0c 94 00 11 	jmp	0x2200	; 0x2200 <FMClickP__I2C__writeDone.isra.73>
    22aa:	08 95       	ret

000022ac <Atm128I2CMasterPacketP__0__stopTask__runTask>:
    22ac:	cf 93       	push	r28
    22ae:	cf b7       	in	r28, 0x3f	; 63
    22b0:	f8 94       	cli
    22b2:	80 91 90 02 	lds	r24, 0x0290
    22b6:	88 23       	and	r24, r24
    22b8:	21 f0       	breq	.+8      	; 0x22c2 <Atm128I2CMasterPacketP__0__stopTask__runTask+0x16>
    22ba:	81 e0       	ldi	r24, 0x01	; 1
    22bc:	0e 94 b6 10 	call	0x216c	; 0x216c <Atm128I2CMasterPacketP__0__readNextByte>
    22c0:	02 c0       	rjmp	.+4      	; 0x22c6 <Atm128I2CMasterPacketP__0__stopTask__runTask+0x1a>
    22c2:	0e 94 23 11 	call	0x2246	; 0x2246 <Atm128I2CMasterPacketP__0__writeNextByte>
    22c6:	cf bf       	out	0x3f, r28	; 63
    22c8:	cf 91       	pop	r28
    22ca:	08 95       	ret

000022cc <SchedulerBasicP__TaskBasic__runTask>:
    22cc:	2f 92       	push	r2
    22ce:	3f 92       	push	r3
    22d0:	4f 92       	push	r4
    22d2:	5f 92       	push	r5
    22d4:	6f 92       	push	r6
    22d6:	7f 92       	push	r7
    22d8:	8f 92       	push	r8
    22da:	9f 92       	push	r9
    22dc:	af 92       	push	r10
    22de:	bf 92       	push	r11
    22e0:	cf 92       	push	r12
    22e2:	df 92       	push	r13
    22e4:	ef 92       	push	r14
    22e6:	ff 92       	push	r15
    22e8:	0f 93       	push	r16
    22ea:	1f 93       	push	r17
    22ec:	cf 93       	push	r28
    22ee:	df 93       	push	r29
    22f0:	cd b7       	in	r28, 0x3d	; 61
    22f2:	de b7       	in	r29, 0x3e	; 62
    22f4:	cb 58       	subi	r28, 0x8B	; 139
    22f6:	d1 09       	sbc	r29, r1
    22f8:	0f b6       	in	r0, 0x3f	; 63
    22fa:	f8 94       	cli
    22fc:	de bf       	out	0x3e, r29	; 62
    22fe:	0f be       	out	0x3f, r0	; 63
    2300:	cd bf       	out	0x3d, r28	; 61
    2302:	90 e0       	ldi	r25, 0x00	; 0
    2304:	88 32       	cpi	r24, 0x28	; 40
    2306:	91 05       	cpc	r25, r1
    2308:	10 f0       	brcs	.+4      	; 0x230e <SchedulerBasicP__TaskBasic__runTask+0x42>
    230a:	0c 94 65 24 	jmp	0x48ca	; 0x48ca <SchedulerBasicP__TaskBasic__runTask+0x25fe>
    230e:	fc 01       	movw	r30, r24
    2310:	ee 58       	subi	r30, 0x8E	; 142
    2312:	ff 4f       	sbci	r31, 0xFF	; 255
    2314:	0c 94 85 2a 	jmp	0x550a	; 0x550a <__tablejump2__>
    2318:	0e 94 33 0f 	call	0x1e66	; 0x1e66 <RadioScannerP__inputTuneChannel__runTask>
    231c:	0c 94 65 24 	jmp	0x48ca	; 0x48ca <SchedulerBasicP__TaskBasic__runTask+0x25fe>
    2320:	8f b7       	in	r24, 0x3f	; 63
    2322:	f8 94       	cli
    2324:	10 91 d2 07 	lds	r17, 0x07D2
    2328:	8f bf       	out	0x3f, r24	; 63
    232a:	18 30       	cpi	r17, 0x08	; 8
    232c:	61 f4       	brne	.+24     	; 0x2346 <SchedulerBasicP__TaskBasic__runTask+0x7a>
    232e:	e0 91 48 07 	lds	r30, 0x0748
    2332:	ee 23       	and	r30, r30
    2334:	d1 f0       	breq	.+52     	; 0x236a <SchedulerBasicP__TaskBasic__runTask+0x9e>
    2336:	e1 50       	subi	r30, 0x01	; 1
    2338:	e0 93 48 07 	sts	0x0748, r30
    233c:	f0 e0       	ldi	r31, 0x00	; 0
    233e:	e8 5b       	subi	r30, 0xB8	; 184
    2340:	f8 4f       	sbci	r31, 0xF8	; 248
    2342:	11 82       	std	Z+1, r1	; 0x01
    2344:	12 c0       	rjmp	.+36     	; 0x236a <SchedulerBasicP__TaskBasic__runTask+0x9e>
    2346:	1a 30       	cpi	r17, 0x0A	; 10
    2348:	81 f0       	breq	.+32     	; 0x236a <SchedulerBasicP__TaskBasic__runTask+0x9e>
    234a:	1d 30       	cpi	r17, 0x0D	; 13
    234c:	71 f0       	breq	.+28     	; 0x236a <SchedulerBasicP__TaskBasic__runTask+0x9e>
    234e:	11 23       	and	r17, r17
    2350:	61 f0       	breq	.+24     	; 0x236a <SchedulerBasicP__TaskBasic__runTask+0x9e>
    2352:	e0 91 48 07 	lds	r30, 0x0748
    2356:	e8 32       	cpi	r30, 0x28	; 40
    2358:	40 f4       	brcc	.+16     	; 0x236a <SchedulerBasicP__TaskBasic__runTask+0x9e>
    235a:	81 e0       	ldi	r24, 0x01	; 1
    235c:	8e 0f       	add	r24, r30
    235e:	80 93 48 07 	sts	0x0748, r24
    2362:	f0 e0       	ldi	r31, 0x00	; 0
    2364:	e8 5b       	subi	r30, 0xB8	; 184
    2366:	f8 4f       	sbci	r31, 0xF8	; 248
    2368:	11 83       	std	Z+1, r17	; 0x01
    236a:	85 e1       	ldi	r24, 0x15	; 21
    236c:	e9 e4       	ldi	r30, 0x49	; 73
    236e:	f7 e0       	ldi	r31, 0x07	; 7
    2370:	de 01       	movw	r26, r28
    2372:	11 96       	adiw	r26, 0x01	; 1
    2374:	01 90       	ld	r0, Z+
    2376:	0d 92       	st	X+, r0
    2378:	8a 95       	dec	r24
    237a:	e1 f7       	brne	.-8      	; 0x2374 <SchedulerBasicP__TaskBasic__runTask+0xa8>
    237c:	1e 8a       	std	Y+22, r1	; 0x16
    237e:	44 e1       	ldi	r20, 0x14	; 20
    2380:	6a e7       	ldi	r22, 0x7A	; 122
    2382:	8e e6       	ldi	r24, 0x6E	; 110
    2384:	95 e0       	ldi	r25, 0x05	; 5
    2386:	0e 94 01 0f 	call	0x1e02	; 0x1e02 <GlcdP__Glcd__drawTextPgm>
    238a:	44 e1       	ldi	r20, 0x14	; 20
    238c:	6a e7       	ldi	r22, 0x7A	; 122
    238e:	ce 01       	movw	r24, r28
    2390:	01 96       	adiw	r24, 0x01	; 1
    2392:	0e 94 de 0e 	call	0x1dbc	; 0x1dbc <GlcdP__Glcd__drawText>
    2396:	83 e1       	ldi	r24, 0x13	; 19
    2398:	ee e5       	ldi	r30, 0x5E	; 94
    239a:	f7 e0       	ldi	r31, 0x07	; 7
    239c:	de 01       	movw	r26, r28
    239e:	11 96       	adiw	r26, 0x01	; 1
    23a0:	01 90       	ld	r0, Z+
    23a2:	0d 92       	st	X+, r0
    23a4:	8a 95       	dec	r24
    23a6:	e1 f7       	brne	.-8      	; 0x23a0 <SchedulerBasicP__TaskBasic__runTask+0xd4>
    23a8:	1c 8a       	std	Y+20, r1	; 0x14
    23aa:	4e e1       	ldi	r20, 0x1E	; 30
    23ac:	6a e7       	ldi	r22, 0x7A	; 122
    23ae:	8e e6       	ldi	r24, 0x6E	; 110
    23b0:	95 e0       	ldi	r25, 0x05	; 5
    23b2:	0e 94 01 0f 	call	0x1e02	; 0x1e02 <GlcdP__Glcd__drawTextPgm>
    23b6:	4e e1       	ldi	r20, 0x1E	; 30
    23b8:	6a e7       	ldi	r22, 0x7A	; 122
    23ba:	ce 01       	movw	r24, r28
    23bc:	01 96       	adiw	r24, 0x01	; 1
    23be:	0e 94 de 0e 	call	0x1dbc	; 0x1dbc <GlcdP__Glcd__drawText>
    23c2:	1a 30       	cpi	r17, 0x0A	; 10
    23c4:	11 f0       	breq	.+4      	; 0x23ca <SchedulerBasicP__TaskBasic__runTask+0xfe>
    23c6:	0c 94 65 24 	jmp	0x48ca	; 0x48ca <SchedulerBasicP__TaskBasic__runTask+0x25fe>
    23ca:	2f b7       	in	r18, 0x3f	; 63
    23cc:	f8 94       	cli
    23ce:	86 e0       	ldi	r24, 0x06	; 6
    23d0:	80 93 d3 07 	sts	0x07D3, r24
    23d4:	80 91 d0 07 	lds	r24, 0x07D0
    23d8:	90 91 d1 07 	lds	r25, 0x07D1
    23dc:	2f bf       	out	0x3f, r18	; 63
    23de:	0e 94 91 04 	call	0x922	; 0x922 <RadioScannerP__getListId>
    23e2:	f8 2e       	mov	r15, r24
    23e4:	2f b7       	in	r18, 0x3f	; 63
    23e6:	f8 94       	cli
    23e8:	90 e0       	ldi	r25, 0x00	; 0
    23ea:	2f bf       	out	0x3f, r18	; 63
    23ec:	e0 91 48 07 	lds	r30, 0x0748
    23f0:	f0 e0       	ldi	r31, 0x00	; 0
    23f2:	e8 5b       	subi	r30, 0xB8	; 184
    23f4:	f8 4f       	sbci	r31, 0xF8	; 248
    23f6:	11 82       	std	Z+1, r1	; 0x01
    23f8:	2b e3       	ldi	r18, 0x3B	; 59
    23fa:	28 9f       	mul	r18, r24
    23fc:	80 01       	movw	r16, r0
    23fe:	29 9f       	mul	r18, r25
    2400:	10 0d       	add	r17, r0
    2402:	11 24       	eor	r1, r1
    2404:	f8 01       	movw	r30, r16
    2406:	ee 52       	subi	r30, 0x2E	; 46
    2408:	fc 4f       	sbci	r31, 0xFC	; 252
    240a:	20 85       	ldd	r18, Z+8	; 0x08
    240c:	31 85       	ldd	r19, Z+9	; 0x09
    240e:	89 e2       	ldi	r24, 0x29	; 41
    2410:	d9 01       	movw	r26, r18
    2412:	1d 92       	st	X+, r1
    2414:	8a 95       	dec	r24
    2416:	e9 f7       	brne	.-6      	; 0x2412 <SchedulerBasicP__TaskBasic__runTask+0x146>
    2418:	48 e2       	ldi	r20, 0x28	; 40
    241a:	50 e0       	ldi	r21, 0x00	; 0
    241c:	69 e4       	ldi	r22, 0x49	; 73
    241e:	77 e0       	ldi	r23, 0x07	; 7
    2420:	80 85       	ldd	r24, Z+8	; 0x08
    2422:	91 85       	ldd	r25, Z+9	; 0x09
    2424:	0e 94 4f 2d 	call	0x5a9e	; 0x5a9e <strncpy>
    2428:	b8 01       	movw	r22, r16
    242a:	6d 52       	subi	r22, 0x2D	; 45
    242c:	7c 4f       	sbci	r23, 0xFC	; 252
    242e:	8f 2d       	mov	r24, r15
    2430:	0e 94 88 05 	call	0xb10	; 0xb10 <DatabaseP__Database__saveChannel>
    2434:	0c 94 65 24 	jmp	0x48ca	; 0x48ca <SchedulerBasicP__TaskBasic__runTask+0x25fe>
    2438:	8f b7       	in	r24, 0x3f	; 63
    243a:	f8 94       	cli
    243c:	d0 90 d3 07 	lds	r13, 0x07D3
    2440:	e0 90 d0 07 	lds	r14, 0x07D0
    2444:	f0 90 d1 07 	lds	r15, 0x07D1
    2448:	8f bf       	out	0x3f, r24	; 63
    244a:	c7 01       	movw	r24, r14
    244c:	0e 94 91 04 	call	0x922	; 0x922 <RadioScannerP__getListId>
    2450:	18 2f       	mov	r17, r24
    2452:	c7 01       	movw	r24, r14
    2454:	6a e0       	ldi	r22, 0x0A	; 10
    2456:	70 e0       	ldi	r23, 0x00	; 0
    2458:	0e 94 71 2a 	call	0x54e2	; 0x54e2 <__udivmodhi4>
    245c:	9f 93       	push	r25
    245e:	8f 93       	push	r24
    2460:	7f 93       	push	r23
    2462:	6f 93       	push	r22
    2464:	86 e6       	ldi	r24, 0x66	; 102
    2466:	92 e0       	ldi	r25, 0x02	; 2
    2468:	9f 93       	push	r25
    246a:	8f 93       	push	r24
    246c:	7e 01       	movw	r14, r28
    246e:	b5 e6       	ldi	r27, 0x65	; 101
    2470:	eb 0e       	add	r14, r27
    2472:	f1 1c       	adc	r15, r1
    2474:	ff 92       	push	r15
    2476:	ef 92       	push	r14
    2478:	0e 94 c2 2d 	call	0x5b84	; 0x5b84 <sprintf>
    247c:	0e 94 8e 0f 	call	0x1f1c	; 0x1f1c <GlcdP__Glcd__fill.constprop.94>
    2480:	47 e0       	ldi	r20, 0x07	; 7
    2482:	60 e0       	ldi	r22, 0x00	; 0
    2484:	c7 01       	movw	r24, r14
    2486:	0e 94 de 0e 	call	0x1dbc	; 0x1dbc <GlcdP__Glcd__drawText>
    248a:	47 e0       	ldi	r20, 0x07	; 7
    248c:	64 e2       	ldi	r22, 0x24	; 36
    248e:	8b e9       	ldi	r24, 0x9B	; 155
    2490:	95 e0       	ldi	r25, 0x05	; 5
    2492:	0e 94 01 0f 	call	0x1e02	; 0x1e02 <GlcdP__Glcd__drawTextPgm>
    2496:	0f b6       	in	r0, 0x3f	; 63
    2498:	f8 94       	cli
    249a:	de bf       	out	0x3e, r29	; 62
    249c:	0f be       	out	0x3f, r0	; 63
    249e:	cd bf       	out	0x3d, r28	; 61
    24a0:	1f 30       	cpi	r17, 0x0F	; 15
    24a2:	08 f0       	brcs	.+2      	; 0x24a6 <SchedulerBasicP__TaskBasic__runTask+0x1da>
    24a4:	73 c0       	rjmp	.+230    	; 0x258c <SchedulerBasicP__TaskBasic__runTask+0x2c0>
    24a6:	e1 2e       	mov	r14, r17
    24a8:	f1 2c       	mov	r15, r1
    24aa:	1f 92       	push	r1
    24ac:	1f 93       	push	r17
    24ae:	8c e6       	ldi	r24, 0x6C	; 108
    24b0:	92 e0       	ldi	r25, 0x02	; 2
    24b2:	9f 93       	push	r25
    24b4:	8f 93       	push	r24
    24b6:	8e 01       	movw	r16, r28
    24b8:	02 59       	subi	r16, 0x92	; 146
    24ba:	1f 4f       	sbci	r17, 0xFF	; 255
    24bc:	1f 93       	push	r17
    24be:	0f 93       	push	r16
    24c0:	0e 94 c2 2d 	call	0x5b84	; 0x5b84 <sprintf>
    24c4:	d8 01       	movw	r26, r16
    24c6:	13 96       	adiw	r26, 0x03	; 3
    24c8:	1c 92       	st	X, r1
    24ca:	47 e0       	ldi	r20, 0x07	; 7
    24cc:	6c e3       	ldi	r22, 0x3C	; 60
    24ce:	c8 01       	movw	r24, r16
    24d0:	0e 94 de 0e 	call	0x1dbc	; 0x1dbc <GlcdP__Glcd__drawText>
    24d4:	8b e3       	ldi	r24, 0x3B	; 59
    24d6:	8e 9d       	mul	r24, r14
    24d8:	f0 01       	movw	r30, r0
    24da:	8f 9d       	mul	r24, r15
    24dc:	f0 0d       	add	r31, r0
    24de:	11 24       	eor	r1, r1
    24e0:	ee 52       	subi	r30, 0x2E	; 46
    24e2:	fc 4f       	sbci	r31, 0xFC	; 252
    24e4:	81 81       	ldd	r24, Z+1	; 0x01
    24e6:	0f 90       	pop	r0
    24e8:	0f 90       	pop	r0
    24ea:	0f 90       	pop	r0
    24ec:	0f 90       	pop	r0
    24ee:	0f 90       	pop	r0
    24f0:	0f 90       	pop	r0
    24f2:	88 23       	and	r24, r24
    24f4:	b9 f0       	breq	.+46     	; 0x2524 <SchedulerBasicP__TaskBasic__runTask+0x258>
    24f6:	1f 92       	push	r1
    24f8:	8f 93       	push	r24
    24fa:	82 e7       	ldi	r24, 0x72	; 114
    24fc:	92 e0       	ldi	r25, 0x02	; 2
    24fe:	9f 93       	push	r25
    2500:	8f 93       	push	r24
    2502:	1f 93       	push	r17
    2504:	0f 93       	push	r16
    2506:	0e 94 c2 2d 	call	0x5b84	; 0x5b84 <sprintf>
    250a:	f8 01       	movw	r30, r16
    250c:	12 82       	std	Z+2, r1	; 0x02
    250e:	47 e0       	ldi	r20, 0x07	; 7
    2510:	64 e5       	ldi	r22, 0x54	; 84
    2512:	c8 01       	movw	r24, r16
    2514:	0e 94 de 0e 	call	0x1dbc	; 0x1dbc <GlcdP__Glcd__drawText>
    2518:	0f 90       	pop	r0
    251a:	0f 90       	pop	r0
    251c:	0f 90       	pop	r0
    251e:	0f 90       	pop	r0
    2520:	0f 90       	pop	r0
    2522:	0f 90       	pop	r0
    2524:	8b e3       	ldi	r24, 0x3B	; 59
    2526:	8e 9d       	mul	r24, r14
    2528:	80 01       	movw	r16, r0
    252a:	8f 9d       	mul	r24, r15
    252c:	10 0d       	add	r17, r0
    252e:	11 24       	eor	r1, r1
    2530:	f8 01       	movw	r30, r16
    2532:	eb 51       	subi	r30, 0x1B	; 27
    2534:	fc 4f       	sbci	r31, 0xFC	; 252
    2536:	85 e1       	ldi	r24, 0x15	; 21
    2538:	de 01       	movw	r26, r28
    253a:	11 96       	adiw	r26, 0x01	; 1
    253c:	01 90       	ld	r0, Z+
    253e:	0d 92       	st	X+, r0
    2540:	8a 95       	dec	r24
    2542:	e1 f7       	brne	.-8      	; 0x253c <SchedulerBasicP__TaskBasic__runTask+0x270>
    2544:	1e 8a       	std	Y+22, r1	; 0x16
    2546:	4f e2       	ldi	r20, 0x2F	; 47
    2548:	6a e7       	ldi	r22, 0x7A	; 122
    254a:	8e e6       	ldi	r24, 0x6E	; 110
    254c:	95 e0       	ldi	r25, 0x05	; 5
    254e:	0e 94 01 0f 	call	0x1e02	; 0x1e02 <GlcdP__Glcd__drawTextPgm>
    2552:	4f e2       	ldi	r20, 0x2F	; 47
    2554:	6a e7       	ldi	r22, 0x7A	; 122
    2556:	ce 01       	movw	r24, r28
    2558:	01 96       	adiw	r24, 0x01	; 1
    255a:	0e 94 de 0e 	call	0x1dbc	; 0x1dbc <GlcdP__Glcd__drawText>
    255e:	f8 01       	movw	r30, r16
    2560:	e6 50       	subi	r30, 0x06	; 6
    2562:	fc 4f       	sbci	r31, 0xFC	; 252
    2564:	83 e1       	ldi	r24, 0x13	; 19
    2566:	de 01       	movw	r26, r28
    2568:	11 96       	adiw	r26, 0x01	; 1
    256a:	01 90       	ld	r0, Z+
    256c:	0d 92       	st	X+, r0
    256e:	8a 95       	dec	r24
    2570:	e1 f7       	brne	.-8      	; 0x256a <SchedulerBasicP__TaskBasic__runTask+0x29e>
    2572:	1c 8a       	std	Y+20, r1	; 0x14
    2574:	47 e3       	ldi	r20, 0x37	; 55
    2576:	6a e7       	ldi	r22, 0x7A	; 122
    2578:	8e e6       	ldi	r24, 0x6E	; 110
    257a:	95 e0       	ldi	r25, 0x05	; 5
    257c:	0e 94 01 0f 	call	0x1e02	; 0x1e02 <GlcdP__Glcd__drawTextPgm>
    2580:	47 e3       	ldi	r20, 0x37	; 55
    2582:	6a e7       	ldi	r22, 0x7A	; 122
    2584:	ce 01       	movw	r24, r28
    2586:	01 96       	adiw	r24, 0x01	; 1
    2588:	0e 94 de 0e 	call	0x1dbc	; 0x1dbc <GlcdP__Glcd__drawText>
    258c:	4f e0       	ldi	r20, 0x0F	; 15
    258e:	60 e0       	ldi	r22, 0x00	; 0
    2590:	8a e8       	ldi	r24, 0x8A	; 138
    2592:	95 e0       	ldi	r25, 0x05	; 5
    2594:	0e 94 01 0f 	call	0x1e02	; 0x1e02 <GlcdP__Glcd__drawTextPgm>
    2598:	4f e0       	ldi	r20, 0x0F	; 15
    259a:	60 e0       	ldi	r22, 0x00	; 0
    259c:	88 e7       	ldi	r24, 0x78	; 120
    259e:	97 e0       	ldi	r25, 0x07	; 7
    25a0:	0e 94 de 0e 	call	0x1dbc	; 0x1dbc <GlcdP__Glcd__drawText>
    25a4:	4f e0       	ldi	r20, 0x0F	; 15
    25a6:	60 e0       	ldi	r22, 0x00	; 0
    25a8:	84 e8       	ldi	r24, 0x84	; 132
    25aa:	95 e0       	ldi	r25, 0x05	; 5
    25ac:	0e 94 01 0f 	call	0x1e02	; 0x1e02 <GlcdP__Glcd__drawTextPgm>
    25b0:	4f e0       	ldi	r20, 0x0F	; 15
    25b2:	66 e3       	ldi	r22, 0x36	; 54
    25b4:	82 ec       	ldi	r24, 0xC2	; 194
    25b6:	97 e0       	ldi	r25, 0x07	; 7
    25b8:	0e 94 de 0e 	call	0x1dbc	; 0x1dbc <GlcdP__Glcd__drawText>
    25bc:	85 e1       	ldi	r24, 0x15	; 21
    25be:	e1 e8       	ldi	r30, 0x81	; 129
    25c0:	f7 e0       	ldi	r31, 0x07	; 7
    25c2:	de 01       	movw	r26, r28
    25c4:	11 96       	adiw	r26, 0x01	; 1
    25c6:	01 90       	ld	r0, Z+
    25c8:	0d 92       	st	X+, r0
    25ca:	8a 95       	dec	r24
    25cc:	e1 f7       	brne	.-8      	; 0x25c6 <SchedulerBasicP__TaskBasic__runTask+0x2fa>
    25ce:	1e 8a       	std	Y+22, r1	; 0x16
    25d0:	47 e1       	ldi	r20, 0x17	; 23
    25d2:	6a e7       	ldi	r22, 0x7A	; 122
    25d4:	8e e6       	ldi	r24, 0x6E	; 110
    25d6:	95 e0       	ldi	r25, 0x05	; 5
    25d8:	0e 94 01 0f 	call	0x1e02	; 0x1e02 <GlcdP__Glcd__drawTextPgm>
    25dc:	47 e1       	ldi	r20, 0x17	; 23
    25de:	6a e7       	ldi	r22, 0x7A	; 122
    25e0:	ce 01       	movw	r24, r28
    25e2:	01 96       	adiw	r24, 0x01	; 1
    25e4:	0e 94 de 0e 	call	0x1dbc	; 0x1dbc <GlcdP__Glcd__drawText>
    25e8:	85 e1       	ldi	r24, 0x15	; 21
    25ea:	e6 e9       	ldi	r30, 0x96	; 150
    25ec:	f7 e0       	ldi	r31, 0x07	; 7
    25ee:	de 01       	movw	r26, r28
    25f0:	11 96       	adiw	r26, 0x01	; 1
    25f2:	01 90       	ld	r0, Z+
    25f4:	0d 92       	st	X+, r0
    25f6:	8a 95       	dec	r24
    25f8:	e1 f7       	brne	.-8      	; 0x25f2 <SchedulerBasicP__TaskBasic__runTask+0x326>
    25fa:	1e 8a       	std	Y+22, r1	; 0x16
    25fc:	4f e1       	ldi	r20, 0x1F	; 31
    25fe:	6a e7       	ldi	r22, 0x7A	; 122
    2600:	8e e6       	ldi	r24, 0x6E	; 110
    2602:	95 e0       	ldi	r25, 0x05	; 5
    2604:	0e 94 01 0f 	call	0x1e02	; 0x1e02 <GlcdP__Glcd__drawTextPgm>
    2608:	4f e1       	ldi	r20, 0x1F	; 31
    260a:	6a e7       	ldi	r22, 0x7A	; 122
    260c:	ce 01       	movw	r24, r28
    260e:	01 96       	adiw	r24, 0x01	; 1
    2610:	0e 94 de 0e 	call	0x1dbc	; 0x1dbc <GlcdP__Glcd__drawText>
    2614:	85 e1       	ldi	r24, 0x15	; 21
    2616:	eb ea       	ldi	r30, 0xAB	; 171
    2618:	f7 e0       	ldi	r31, 0x07	; 7
    261a:	de 01       	movw	r26, r28
    261c:	11 96       	adiw	r26, 0x01	; 1
    261e:	01 90       	ld	r0, Z+
    2620:	0d 92       	st	X+, r0
    2622:	8a 95       	dec	r24
    2624:	e1 f7       	brne	.-8      	; 0x261e <SchedulerBasicP__TaskBasic__runTask+0x352>
    2626:	1e 8a       	std	Y+22, r1	; 0x16
    2628:	47 e2       	ldi	r20, 0x27	; 39
    262a:	6a e7       	ldi	r22, 0x7A	; 122
    262c:	8e e6       	ldi	r24, 0x6E	; 110
    262e:	95 e0       	ldi	r25, 0x05	; 5
    2630:	0e 94 01 0f 	call	0x1e02	; 0x1e02 <GlcdP__Glcd__drawTextPgm>
    2634:	47 e2       	ldi	r20, 0x27	; 39
    2636:	6a e7       	ldi	r22, 0x7A	; 122
    2638:	ce 01       	movw	r24, r28
    263a:	01 96       	adiw	r24, 0x01	; 1
    263c:	0e 94 de 0e 	call	0x1dbc	; 0x1dbc <GlcdP__Glcd__drawText>
    2640:	81 e0       	ldi	r24, 0x01	; 1
    2642:	80 93 cb 0e 	sts	0x0ECB, r24
    2646:	f5 e0       	ldi	r31, 0x05	; 5
    2648:	df 12       	cpse	r13, r31
    264a:	0c 94 65 24 	jmp	0x48ca	; 0x48ca <SchedulerBasicP__TaskBasic__runTask+0x25fe>
    264e:	48 e8       	ldi	r20, 0x88	; 136
    2650:	53 e1       	ldi	r21, 0x13	; 19
    2652:	60 e0       	ldi	r22, 0x00	; 0
    2654:	70 e0       	ldi	r23, 0x00	; 0
    2656:	86 e0       	ldi	r24, 0x06	; 6
    2658:	0e 94 86 03 	call	0x70c	; 0x70c <VirtualizeTimerC__0__Timer__startOneShot>
    265c:	0c 94 65 24 	jmp	0x48ca	; 0x48ca <SchedulerBasicP__TaskBasic__runTask+0x25fe>
    2660:	80 91 cb 0e 	lds	r24, 0x0ECB
    2664:	88 23       	and	r24, r24
    2666:	11 f4       	brne	.+4      	; 0x266c <SchedulerBasicP__TaskBasic__runTask+0x3a0>
    2668:	0c 94 65 24 	jmp	0x48ca	; 0x48ca <SchedulerBasicP__TaskBasic__runTask+0x25fe>
    266c:	9f b7       	in	r25, 0x3f	; 63
    266e:	f8 94       	cli
    2670:	80 91 73 07 	lds	r24, 0x0773
    2674:	10 91 74 07 	lds	r17, 0x0774
    2678:	00 91 75 07 	lds	r16, 0x0775
    267c:	9f bf       	out	0x3f, r25	; 63
    267e:	88 23       	and	r24, r24
    2680:	b1 f0       	breq	.+44     	; 0x26ae <SchedulerBasicP__TaskBasic__runTask+0x3e2>
    2682:	68 e0       	ldi	r22, 0x08	; 8
    2684:	88 e7       	ldi	r24, 0x78	; 120
    2686:	97 e0       	ldi	r25, 0x07	; 7
    2688:	0e 94 a9 04 	call	0x952	; 0x952 <RadioScannerP__removeIllegalChars>
    268c:	4f e0       	ldi	r20, 0x0F	; 15
    268e:	60 e0       	ldi	r22, 0x00	; 0
    2690:	8a e8       	ldi	r24, 0x8A	; 138
    2692:	95 e0       	ldi	r25, 0x05	; 5
    2694:	0e 94 01 0f 	call	0x1e02	; 0x1e02 <GlcdP__Glcd__drawTextPgm>
    2698:	4f e0       	ldi	r20, 0x0F	; 15
    269a:	60 e0       	ldi	r22, 0x00	; 0
    269c:	88 e7       	ldi	r24, 0x78	; 120
    269e:	97 e0       	ldi	r25, 0x07	; 7
    26a0:	0e 94 de 0e 	call	0x1dbc	; 0x1dbc <GlcdP__Glcd__drawText>
    26a4:	8f b7       	in	r24, 0x3f	; 63
    26a6:	f8 94       	cli
    26a8:	10 92 73 07 	sts	0x0773, r1
    26ac:	8f bf       	out	0x3f, r24	; 63
    26ae:	00 23       	and	r16, r16
    26b0:	89 f0       	breq	.+34     	; 0x26d4 <SchedulerBasicP__TaskBasic__runTask+0x408>
    26b2:	4f e0       	ldi	r20, 0x0F	; 15
    26b4:	60 e0       	ldi	r22, 0x00	; 0
    26b6:	84 e8       	ldi	r24, 0x84	; 132
    26b8:	95 e0       	ldi	r25, 0x05	; 5
    26ba:	0e 94 01 0f 	call	0x1e02	; 0x1e02 <GlcdP__Glcd__drawTextPgm>
    26be:	4f e0       	ldi	r20, 0x0F	; 15
    26c0:	66 e3       	ldi	r22, 0x36	; 54
    26c2:	82 ec       	ldi	r24, 0xC2	; 194
    26c4:	97 e0       	ldi	r25, 0x07	; 7
    26c6:	0e 94 de 0e 	call	0x1dbc	; 0x1dbc <GlcdP__Glcd__drawText>
    26ca:	8f b7       	in	r24, 0x3f	; 63
    26cc:	f8 94       	cli
    26ce:	10 92 75 07 	sts	0x0775, r1
    26d2:	8f bf       	out	0x3f, r24	; 63
    26d4:	11 23       	and	r17, r17
    26d6:	11 f4       	brne	.+4      	; 0x26dc <SchedulerBasicP__TaskBasic__runTask+0x410>
    26d8:	0c 94 65 24 	jmp	0x48ca	; 0x48ca <SchedulerBasicP__TaskBasic__runTask+0x25fe>
    26dc:	60 e4       	ldi	r22, 0x40	; 64
    26de:	81 e8       	ldi	r24, 0x81	; 129
    26e0:	97 e0       	ldi	r25, 0x07	; 7
    26e2:	0e 94 a9 04 	call	0x952	; 0x952 <RadioScannerP__removeIllegalChars>
    26e6:	85 e1       	ldi	r24, 0x15	; 21
    26e8:	e1 e8       	ldi	r30, 0x81	; 129
    26ea:	f7 e0       	ldi	r31, 0x07	; 7
    26ec:	de 01       	movw	r26, r28
    26ee:	11 96       	adiw	r26, 0x01	; 1
    26f0:	01 90       	ld	r0, Z+
    26f2:	0d 92       	st	X+, r0
    26f4:	8a 95       	dec	r24
    26f6:	e1 f7       	brne	.-8      	; 0x26f0 <SchedulerBasicP__TaskBasic__runTask+0x424>
    26f8:	1e 8a       	std	Y+22, r1	; 0x16
    26fa:	47 e1       	ldi	r20, 0x17	; 23
    26fc:	6a e7       	ldi	r22, 0x7A	; 122
    26fe:	8e e6       	ldi	r24, 0x6E	; 110
    2700:	95 e0       	ldi	r25, 0x05	; 5
    2702:	0e 94 01 0f 	call	0x1e02	; 0x1e02 <GlcdP__Glcd__drawTextPgm>
    2706:	47 e1       	ldi	r20, 0x17	; 23
    2708:	6a e7       	ldi	r22, 0x7A	; 122
    270a:	ce 01       	movw	r24, r28
    270c:	01 96       	adiw	r24, 0x01	; 1
    270e:	0e 94 de 0e 	call	0x1dbc	; 0x1dbc <GlcdP__Glcd__drawText>
    2712:	85 e1       	ldi	r24, 0x15	; 21
    2714:	e6 e9       	ldi	r30, 0x96	; 150
    2716:	f7 e0       	ldi	r31, 0x07	; 7
    2718:	de 01       	movw	r26, r28
    271a:	11 96       	adiw	r26, 0x01	; 1
    271c:	01 90       	ld	r0, Z+
    271e:	0d 92       	st	X+, r0
    2720:	8a 95       	dec	r24
    2722:	e1 f7       	brne	.-8      	; 0x271c <SchedulerBasicP__TaskBasic__runTask+0x450>
    2724:	1e 8a       	std	Y+22, r1	; 0x16
    2726:	4f e1       	ldi	r20, 0x1F	; 31
    2728:	6a e7       	ldi	r22, 0x7A	; 122
    272a:	8e e6       	ldi	r24, 0x6E	; 110
    272c:	95 e0       	ldi	r25, 0x05	; 5
    272e:	0e 94 01 0f 	call	0x1e02	; 0x1e02 <GlcdP__Glcd__drawTextPgm>
    2732:	4f e1       	ldi	r20, 0x1F	; 31
    2734:	6a e7       	ldi	r22, 0x7A	; 122
    2736:	ce 01       	movw	r24, r28
    2738:	01 96       	adiw	r24, 0x01	; 1
    273a:	0e 94 de 0e 	call	0x1dbc	; 0x1dbc <GlcdP__Glcd__drawText>
    273e:	85 e1       	ldi	r24, 0x15	; 21
    2740:	eb ea       	ldi	r30, 0xAB	; 171
    2742:	f7 e0       	ldi	r31, 0x07	; 7
    2744:	de 01       	movw	r26, r28
    2746:	11 96       	adiw	r26, 0x01	; 1
    2748:	01 90       	ld	r0, Z+
    274a:	0d 92       	st	X+, r0
    274c:	8a 95       	dec	r24
    274e:	e1 f7       	brne	.-8      	; 0x2748 <SchedulerBasicP__TaskBasic__runTask+0x47c>
    2750:	1e 8a       	std	Y+22, r1	; 0x16
    2752:	47 e2       	ldi	r20, 0x27	; 39
    2754:	6a e7       	ldi	r22, 0x7A	; 122
    2756:	8e e6       	ldi	r24, 0x6E	; 110
    2758:	95 e0       	ldi	r25, 0x05	; 5
    275a:	0e 94 01 0f 	call	0x1e02	; 0x1e02 <GlcdP__Glcd__drawTextPgm>
    275e:	47 e2       	ldi	r20, 0x27	; 39
    2760:	6a e7       	ldi	r22, 0x7A	; 122
    2762:	ce 01       	movw	r24, r28
    2764:	01 96       	adiw	r24, 0x01	; 1
    2766:	0e 94 de 0e 	call	0x1dbc	; 0x1dbc <GlcdP__Glcd__drawText>
    276a:	8f b7       	in	r24, 0x3f	; 63
    276c:	f8 94       	cli
    276e:	10 92 74 07 	sts	0x0774, r1
    2772:	8f bf       	out	0x3f, r24	; 63
    2774:	0c 94 65 24 	jmp	0x48ca	; 0x48ca <SchedulerBasicP__TaskBasic__runTask+0x25fe>
    2778:	80 91 c6 03 	lds	r24, 0x03C6
    277c:	90 91 c7 03 	lds	r25, 0x03C7
    2780:	89 17       	cp	r24, r25
    2782:	11 f4       	brne	.+4      	; 0x2788 <SchedulerBasicP__TaskBasic__runTask+0x4bc>
    2784:	0c 94 65 24 	jmp	0x48ca	; 0x48ca <SchedulerBasicP__TaskBasic__runTask+0x25fe>
    2788:	2f b7       	in	r18, 0x3f	; 63
    278a:	f8 94       	cli
    278c:	90 91 68 12 	lds	r25, 0x1268
    2790:	2f bf       	out	0x3f, r18	; 63
    2792:	91 11       	cpse	r25, r1
    2794:	16 c0       	rjmp	.+44     	; 0x27c2 <SchedulerBasicP__TaskBasic__runTask+0x4f6>
    2796:	4f b7       	in	r20, 0x3f	; 63
    2798:	f8 94       	cli
    279a:	35 e0       	ldi	r19, 0x05	; 5
    279c:	30 93 68 12 	sts	0x1268, r19
    27a0:	28 2f       	mov	r18, r24
    27a2:	2f 70       	andi	r18, 0x0F	; 15
    27a4:	80 91 0d 0a 	lds	r24, 0x0A0D
    27a8:	90 91 0e 0a 	lds	r25, 0x0A0E
    27ac:	80 7f       	andi	r24, 0xF0	; 240
    27ae:	82 2b       	or	r24, r18
    27b0:	90 93 0e 0a 	sts	0x0A0E, r25
    27b4:	80 93 0d 0a 	sts	0x0A0D, r24
    27b8:	30 93 60 12 	sts	0x1260, r19
    27bc:	4f bf       	out	0x3f, r20	; 63
    27be:	0e 94 47 03 	call	0x68e	; 0x68e <FMClickP__writeRegisters__postTask>
    27c2:	80 91 c6 03 	lds	r24, 0x03C6
    27c6:	80 93 c7 03 	sts	0x03C7, r24
    27ca:	0e 94 57 05 	call	0xaae	; 0xaae <RadioScannerP__printVolume>
    27ce:	0c 94 65 24 	jmp	0x48ca	; 0x48ca <SchedulerBasicP__TaskBasic__runTask+0x25fe>
    27d2:	80 e0       	ldi	r24, 0x00	; 0
    27d4:	0e 94 b9 04 	call	0x972	; 0x972 <FMClickP__FMClick__seek>
    27d8:	88 23       	and	r24, r24
    27da:	11 f4       	brne	.+4      	; 0x27e0 <SchedulerBasicP__TaskBasic__runTask+0x514>
    27dc:	0c 94 65 24 	jmp	0x48ca	; 0x48ca <SchedulerBasicP__TaskBasic__runTask+0x25fe>
    27e0:	85 e0       	ldi	r24, 0x05	; 5
    27e2:	0e 94 1f 03 	call	0x63e	; 0x63e <SchedulerBasicP__TaskBasic__postTask>
    27e6:	0c 94 65 24 	jmp	0x48ca	; 0x48ca <SchedulerBasicP__TaskBasic__runTask+0x25fe>
    27ea:	81 e0       	ldi	r24, 0x01	; 1
    27ec:	0e 94 b9 04 	call	0x972	; 0x972 <FMClickP__FMClick__seek>
    27f0:	88 23       	and	r24, r24
    27f2:	11 f4       	brne	.+4      	; 0x27f8 <SchedulerBasicP__TaskBasic__runTask+0x52c>
    27f4:	0c 94 65 24 	jmp	0x48ca	; 0x48ca <SchedulerBasicP__TaskBasic__runTask+0x25fe>
    27f8:	86 e0       	ldi	r24, 0x06	; 6
    27fa:	0e 94 1f 03 	call	0x63e	; 0x63e <SchedulerBasicP__TaskBasic__postTask>
    27fe:	0c 94 65 24 	jmp	0x48ca	; 0x48ca <SchedulerBasicP__TaskBasic__runTask+0x25fe>
    2802:	82 e0       	ldi	r24, 0x02	; 2
    2804:	0e 94 b9 04 	call	0x972	; 0x972 <FMClickP__FMClick__seek>
    2808:	88 23       	and	r24, r24
    280a:	11 f4       	brne	.+4      	; 0x2810 <SchedulerBasicP__TaskBasic__runTask+0x544>
    280c:	0c 94 65 24 	jmp	0x48ca	; 0x48ca <SchedulerBasicP__TaskBasic__runTask+0x25fe>
    2810:	87 e0       	ldi	r24, 0x07	; 7
    2812:	0e 94 1f 03 	call	0x63e	; 0x63e <SchedulerBasicP__TaskBasic__postTask>
    2816:	0c 94 65 24 	jmp	0x48ca	; 0x48ca <SchedulerBasicP__TaskBasic__runTask+0x25fe>
    281a:	2f b7       	in	r18, 0x3f	; 63
    281c:	f8 94       	cli
    281e:	80 91 ce 07 	lds	r24, 0x07CE
    2822:	90 91 cf 07 	lds	r25, 0x07CF
    2826:	2f bf       	out	0x3f, r18	; 63
    2828:	3f b7       	in	r19, 0x3f	; 63
    282a:	f8 94       	cli
    282c:	20 91 68 12 	lds	r18, 0x1268
    2830:	3f bf       	out	0x3f, r19	; 63
    2832:	21 11       	cpse	r18, r1
    2834:	0c 94 51 23 	jmp	0x46a2	; 0x46a2 <SchedulerBasicP__TaskBasic__runTask+0x23d6>
    2838:	9c 01       	movw	r18, r24
    283a:	2b 56       	subi	r18, 0x6B	; 107
    283c:	33 40       	sbci	r19, 0x03	; 3
    283e:	2e 3c       	cpi	r18, 0xCE	; 206
    2840:	31 05       	cpc	r19, r1
    2842:	10 f0       	brcs	.+4      	; 0x2848 <SchedulerBasicP__TaskBasic__runTask+0x57c>
    2844:	0c 94 51 23 	jmp	0x46a2	; 0x46a2 <SchedulerBasicP__TaskBasic__runTask+0x23d6>
    2848:	2f b7       	in	r18, 0x3f	; 63
    284a:	f8 94       	cli
    284c:	32 e0       	ldi	r19, 0x02	; 2
    284e:	30 93 68 12 	sts	0x1268, r19
    2852:	10 92 6b 12 	sts	0x126B, r1
    2856:	90 93 c9 12 	sts	0x12C9, r25
    285a:	80 93 c8 12 	sts	0x12C8, r24
    285e:	2f bf       	out	0x3f, r18	; 63
    2860:	0e 94 4d 03 	call	0x69a	; 0x69a <FMClickP__tune__postTask>
    2864:	0c 94 65 24 	jmp	0x48ca	; 0x48ca <SchedulerBasicP__TaskBasic__runTask+0x25fe>
    2868:	8f b7       	in	r24, 0x3f	; 63
    286a:	f8 94       	cli
    286c:	c0 90 d0 07 	lds	r12, 0x07D0
    2870:	d0 90 d1 07 	lds	r13, 0x07D1
    2874:	8f bf       	out	0x3f, r24	; 63
    2876:	10 92 cb 0e 	sts	0x0ECB, r1
    287a:	c6 01       	movw	r24, r12
    287c:	0e 94 91 04 	call	0x922	; 0x922 <RadioScannerP__getListId>
    2880:	f8 2e       	mov	r15, r24
    2882:	2e e0       	ldi	r18, 0x0E	; 14
    2884:	28 17       	cp	r18, r24
    2886:	08 f4       	brcc	.+2      	; 0x288a <SchedulerBasicP__TaskBasic__runTask+0x5be>
    2888:	5e c0       	rjmp	.+188    	; 0x2946 <SchedulerBasicP__TaskBasic__runTask+0x67a>
    288a:	9f b7       	in	r25, 0x3f	; 63
    288c:	f8 94       	cli
    288e:	80 91 72 07 	lds	r24, 0x0772
    2892:	00 91 d2 03 	lds	r16, 0x03D2
    2896:	21 e0       	ldi	r18, 0x01	; 1
    2898:	20 0f       	add	r18, r16
    289a:	20 93 d2 03 	sts	0x03D2, r18
    289e:	9f bf       	out	0x3f, r25	; 63
    28a0:	88 23       	and	r24, r24
    28a2:	09 f4       	brne	.+2      	; 0x28a6 <SchedulerBasicP__TaskBasic__runTask+0x5da>
    28a4:	46 c0       	rjmp	.+140    	; 0x2932 <SchedulerBasicP__TaskBasic__runTask+0x666>
    28a6:	3b e3       	ldi	r19, 0x3B	; 59
    28a8:	03 9f       	mul	r16, r19
    28aa:	80 01       	movw	r16, r0
    28ac:	11 24       	eor	r1, r1
    28ae:	c8 01       	movw	r24, r16
    28b0:	8e 52       	subi	r24, 0x2E	; 46
    28b2:	9c 4f       	sbci	r25, 0xFC	; 252
    28b4:	6c 01       	movw	r12, r24
    28b6:	5c 01       	movw	r10, r24
    28b8:	96 e0       	ldi	r25, 0x06	; 6
    28ba:	a9 0e       	add	r10, r25
    28bc:	b1 1c       	adc	r11, r1
    28be:	d6 01       	movw	r26, r12
    28c0:	16 96       	adiw	r26, 0x06	; 6
    28c2:	ed 91       	ld	r30, X+
    28c4:	fc 91       	ld	r31, X
    28c6:	17 97       	sbiw	r26, 0x07	; 7
    28c8:	89 e0       	ldi	r24, 0x09	; 9
    28ca:	df 01       	movw	r26, r30
    28cc:	1d 92       	st	X+, r1
    28ce:	8a 95       	dec	r24
    28d0:	e9 f7       	brne	.-6      	; 0x28cc <SchedulerBasicP__TaskBasic__runTask+0x600>
    28d2:	68 e0       	ldi	r22, 0x08	; 8
    28d4:	88 e7       	ldi	r24, 0x78	; 120
    28d6:	97 e0       	ldi	r25, 0x07	; 7
    28d8:	0e 94 a9 04 	call	0x952	; 0x952 <RadioScannerP__removeIllegalChars>
    28dc:	88 e7       	ldi	r24, 0x78	; 120
    28de:	97 e0       	ldi	r25, 0x07	; 7
    28e0:	9f 93       	push	r25
    28e2:	8f 93       	push	r24
    28e4:	81 e6       	ldi	r24, 0x61	; 97
    28e6:	92 e0       	ldi	r25, 0x02	; 2
    28e8:	9f 93       	push	r25
    28ea:	8f 93       	push	r24
    28ec:	1f 92       	push	r1
    28ee:	88 e0       	ldi	r24, 0x08	; 8
    28f0:	8f 93       	push	r24
    28f2:	f5 01       	movw	r30, r10
    28f4:	81 81       	ldd	r24, Z+1	; 0x01
    28f6:	8f 93       	push	r24
    28f8:	d6 01       	movw	r26, r12
    28fa:	16 96       	adiw	r26, 0x06	; 6
    28fc:	8c 91       	ld	r24, X
    28fe:	8f 93       	push	r24
    2900:	0e 94 85 2d 	call	0x5b0a	; 0x5b0a <snprintf>
    2904:	8f b7       	in	r24, 0x3f	; 63
    2906:	f8 94       	cli
    2908:	20 91 76 07 	lds	r18, 0x0776
    290c:	30 91 77 07 	lds	r19, 0x0777
    2910:	f6 01       	movw	r30, r12
    2912:	35 83       	std	Z+5, r19	; 0x05
    2914:	24 83       	std	Z+4, r18	; 0x04
    2916:	8f bf       	out	0x3f, r24	; 63
    2918:	b8 01       	movw	r22, r16
    291a:	6d 52       	subi	r22, 0x2D	; 45
    291c:	7c 4f       	sbci	r23, 0xFC	; 252
    291e:	8f 2d       	mov	r24, r15
    2920:	0e 94 88 05 	call	0xb10	; 0xb10 <DatabaseP__Database__saveChannel>
    2924:	0f b6       	in	r0, 0x3f	; 63
    2926:	f8 94       	cli
    2928:	de bf       	out	0x3e, r29	; 62
    292a:	0f be       	out	0x3f, r0	; 63
    292c:	cd bf       	out	0x3d, r28	; 61
    292e:	0c 94 65 24 	jmp	0x48ca	; 0x48ca <SchedulerBasicP__TaskBasic__runTask+0x25fe>
    2932:	8f b7       	in	r24, 0x3f	; 63
    2934:	f8 94       	cli
    2936:	91 e0       	ldi	r25, 0x01	; 1
    2938:	90 93 d3 07 	sts	0x07D3, r25
    293c:	8f bf       	out	0x3f, r24	; 63
    293e:	0e 94 50 03 	call	0x6a0	; 0x6a0 <RadioScannerP__displayChannelInfo__postTask>
    2942:	0c 94 65 24 	jmp	0x48ca	; 0x48ca <SchedulerBasicP__TaskBasic__runTask+0x25fe>
    2946:	80 91 d2 03 	lds	r24, 0x03D2
    294a:	8f 30       	cpi	r24, 0x0F	; 15
    294c:	50 f0       	brcs	.+20     	; 0x2962 <SchedulerBasicP__TaskBasic__runTask+0x696>
    294e:	8f b7       	in	r24, 0x3f	; 63
    2950:	f8 94       	cli
    2952:	92 e0       	ldi	r25, 0x02	; 2
    2954:	90 93 c5 03 	sts	0x03C5, r25
    2958:	8f bf       	out	0x3f, r24	; 63
    295a:	0e 94 3e 03 	call	0x67c	; 0x67c <RadioScannerP__displaySoftError__postTask>
    295e:	0c 94 65 24 	jmp	0x48ca	; 0x48ca <SchedulerBasicP__TaskBasic__runTask+0x25fe>
    2962:	9f b7       	in	r25, 0x3f	; 63
    2964:	f8 94       	cli
    2966:	80 91 72 07 	lds	r24, 0x0772
    296a:	00 91 d2 03 	lds	r16, 0x03D2
    296e:	21 e0       	ldi	r18, 0x01	; 1
    2970:	20 0f       	add	r18, r16
    2972:	20 93 d2 03 	sts	0x03D2, r18
    2976:	10 e0       	ldi	r17, 0x00	; 0
    2978:	9f bf       	out	0x3f, r25	; 63
    297a:	9b e3       	ldi	r25, 0x3B	; 59
    297c:	90 9f       	mul	r25, r16
    297e:	90 01       	movw	r18, r0
    2980:	91 9f       	mul	r25, r17
    2982:	30 0d       	add	r19, r0
    2984:	11 24       	eor	r1, r1
    2986:	f9 01       	movw	r30, r18
    2988:	ee 52       	subi	r30, 0x2E	; 46
    298a:	fc 4f       	sbci	r31, 0xFC	; 252
    298c:	11 82       	std	Z+1, r1	; 0x01
    298e:	d3 82       	std	Z+3, r13	; 0x03
    2990:	c2 82       	std	Z+2, r12	; 0x02
    2992:	41 e0       	ldi	r20, 0x01	; 1
    2994:	50 e0       	ldi	r21, 0x00	; 0
    2996:	55 83       	std	Z+5, r21	; 0x05
    2998:	44 83       	std	Z+4, r20	; 0x04
    299a:	b9 01       	movw	r22, r18
    299c:	64 52       	subi	r22, 0x24	; 36
    299e:	7c 4f       	sbci	r23, 0xFC	; 252
    29a0:	af 01       	movw	r20, r30
    29a2:	4a 5f       	subi	r20, 0xFA	; 250
    29a4:	5f 4f       	sbci	r21, 0xFF	; 255
    29a6:	77 83       	std	Z+7, r23	; 0x07
    29a8:	66 83       	std	Z+6, r22	; 0x06
    29aa:	2b 51       	subi	r18, 0x1B	; 27
    29ac:	3c 4f       	sbci	r19, 0xFC	; 252
    29ae:	31 87       	std	Z+9, r19	; 0x09
    29b0:	20 87       	std	Z+8, r18	; 0x08
    29b2:	99 e0       	ldi	r25, 0x09	; 9
    29b4:	db 01       	movw	r26, r22
    29b6:	1d 92       	st	X+, r1
    29b8:	9a 95       	dec	r25
    29ba:	e9 f7       	brne	.-6      	; 0x29b6 <SchedulerBasicP__TaskBasic__runTask+0x6ea>
    29bc:	20 85       	ldd	r18, Z+8	; 0x08
    29be:	31 85       	ldd	r19, Z+9	; 0x09
    29c0:	99 e2       	ldi	r25, 0x29	; 41
    29c2:	d9 01       	movw	r26, r18
    29c4:	1d 92       	st	X+, r1
    29c6:	9a 95       	dec	r25
    29c8:	e9 f7       	brne	.-6      	; 0x29c4 <SchedulerBasicP__TaskBasic__runTask+0x6f8>
    29ca:	88 23       	and	r24, r24
    29cc:	11 f1       	breq	.+68     	; 0x2a12 <SchedulerBasicP__TaskBasic__runTask+0x746>
    29ce:	8f b7       	in	r24, 0x3f	; 63
    29d0:	f8 94       	cli
    29d2:	20 91 76 07 	lds	r18, 0x0776
    29d6:	30 91 77 07 	lds	r19, 0x0777
    29da:	35 83       	std	Z+5, r19	; 0x05
    29dc:	24 83       	std	Z+4, r18	; 0x04
    29de:	8f bf       	out	0x3f, r24	; 63
    29e0:	88 e7       	ldi	r24, 0x78	; 120
    29e2:	97 e0       	ldi	r25, 0x07	; 7
    29e4:	9f 93       	push	r25
    29e6:	8f 93       	push	r24
    29e8:	81 e6       	ldi	r24, 0x61	; 97
    29ea:	92 e0       	ldi	r25, 0x02	; 2
    29ec:	9f 93       	push	r25
    29ee:	8f 93       	push	r24
    29f0:	1f 92       	push	r1
    29f2:	88 e0       	ldi	r24, 0x08	; 8
    29f4:	8f 93       	push	r24
    29f6:	da 01       	movw	r26, r20
    29f8:	11 96       	adiw	r26, 0x01	; 1
    29fa:	8c 91       	ld	r24, X
    29fc:	8f 93       	push	r24
    29fe:	86 81       	ldd	r24, Z+6	; 0x06
    2a00:	8f 93       	push	r24
    2a02:	0e 94 85 2d 	call	0x5b0a	; 0x5b0a <snprintf>
    2a06:	0f b6       	in	r0, 0x3f	; 63
    2a08:	f8 94       	cli
    2a0a:	de bf       	out	0x3e, r29	; 62
    2a0c:	0f be       	out	0x3f, r0	; 63
    2a0e:	cd bf       	out	0x3d, r28	; 61
    2a10:	06 c0       	rjmp	.+12     	; 0x2a1e <SchedulerBasicP__TaskBasic__runTask+0x752>
    2a12:	61 e6       	ldi	r22, 0x61	; 97
    2a14:	75 e0       	ldi	r23, 0x05	; 5
    2a16:	80 85       	ldd	r24, Z+8	; 0x08
    2a18:	91 85       	ldd	r25, Z+9	; 0x09
    2a1a:	0e 94 f6 2c 	call	0x59ec	; 0x59ec <strcpy_P>
    2a1e:	8b e3       	ldi	r24, 0x3B	; 59
    2a20:	80 9f       	mul	r24, r16
    2a22:	b0 01       	movw	r22, r0
    2a24:	81 9f       	mul	r24, r17
    2a26:	70 0d       	add	r23, r0
    2a28:	11 24       	eor	r1, r1
    2a2a:	6d 52       	subi	r22, 0x2D	; 45
    2a2c:	7c 4f       	sbci	r23, 0xFC	; 252
    2a2e:	8f ef       	ldi	r24, 0xFF	; 255
    2a30:	0e 94 88 05 	call	0xb10	; 0xb10 <DatabaseP__Database__saveChannel>
    2a34:	0c 94 65 24 	jmp	0x48ca	; 0x48ca <SchedulerBasicP__TaskBasic__runTask+0x25fe>
    2a38:	0e 94 ac 0f 	call	0x1f58	; 0x1f58 <RadioScannerP__displayHardError__runTask>
    2a3c:	0c 94 65 24 	jmp	0x48ca	; 0x48ca <SchedulerBasicP__TaskBasic__runTask+0x25fe>
    2a40:	8f b7       	in	r24, 0x3f	; 63
    2a42:	f8 94       	cli
    2a44:	10 91 c5 03 	lds	r17, 0x03C5
    2a48:	8f bf       	out	0x3f, r24	; 63
    2a4a:	10 92 cb 0e 	sts	0x0ECB, r1
    2a4e:	0e 94 8e 0f 	call	0x1f1c	; 0x1f1c <GlcdP__Glcd__fill.constprop.94>
    2a52:	4a e0       	ldi	r20, 0x0A	; 10
    2a54:	60 e0       	ldi	r22, 0x00	; 0
    2a56:	8a e4       	ldi	r24, 0x4A	; 74
    2a58:	95 e0       	ldi	r25, 0x05	; 5
    2a5a:	0e 94 01 0f 	call	0x1e02	; 0x1e02 <GlcdP__Glcd__drawTextPgm>
    2a5e:	81 2f       	mov	r24, r17
    2a60:	90 e0       	ldi	r25, 0x00	; 0
    2a62:	fc 01       	movw	r30, r24
    2a64:	31 97       	sbiw	r30, 0x01	; 1
    2a66:	e9 30       	cpi	r30, 0x09	; 9
    2a68:	f1 05       	cpc	r31, r1
    2a6a:	08 f5       	brcc	.+66     	; 0x2aae <SchedulerBasicP__TaskBasic__runTask+0x7e2>
    2a6c:	e6 56       	subi	r30, 0x66	; 102
    2a6e:	ff 4f       	sbci	r31, 0xFF	; 255
    2a70:	44 e1       	ldi	r20, 0x14	; 20
    2a72:	60 e0       	ldi	r22, 0x00	; 0
    2a74:	0c 94 85 2a 	jmp	0x550a	; 0x550a <__tablejump2__>
    2a78:	85 e1       	ldi	r24, 0x15	; 21
    2a7a:	95 e0       	ldi	r25, 0x05	; 5
    2a7c:	1c c0       	rjmp	.+56     	; 0x2ab6 <SchedulerBasicP__TaskBasic__runTask+0x7ea>
    2a7e:	82 e0       	ldi	r24, 0x02	; 2
    2a80:	95 e0       	ldi	r25, 0x05	; 5
    2a82:	19 c0       	rjmp	.+50     	; 0x2ab6 <SchedulerBasicP__TaskBasic__runTask+0x7ea>
    2a84:	81 ef       	ldi	r24, 0xF1	; 241
    2a86:	94 e0       	ldi	r25, 0x04	; 4
    2a88:	16 c0       	rjmp	.+44     	; 0x2ab6 <SchedulerBasicP__TaskBasic__runTask+0x7ea>
    2a8a:	88 ee       	ldi	r24, 0xE8	; 232
    2a8c:	94 e0       	ldi	r25, 0x04	; 4
    2a8e:	13 c0       	rjmp	.+38     	; 0x2ab6 <SchedulerBasicP__TaskBasic__runTask+0x7ea>
    2a90:	8e ed       	ldi	r24, 0xDE	; 222
    2a92:	94 e0       	ldi	r25, 0x04	; 4
    2a94:	10 c0       	rjmp	.+32     	; 0x2ab6 <SchedulerBasicP__TaskBasic__runTask+0x7ea>
    2a96:	8a ec       	ldi	r24, 0xCA	; 202
    2a98:	94 e0       	ldi	r25, 0x04	; 4
    2a9a:	0d c0       	rjmp	.+26     	; 0x2ab6 <SchedulerBasicP__TaskBasic__runTask+0x7ea>
    2a9c:	87 eb       	ldi	r24, 0xB7	; 183
    2a9e:	94 e0       	ldi	r25, 0x04	; 4
    2aa0:	0a c0       	rjmp	.+20     	; 0x2ab6 <SchedulerBasicP__TaskBasic__runTask+0x7ea>
    2aa2:	82 ea       	ldi	r24, 0xA2	; 162
    2aa4:	94 e0       	ldi	r25, 0x04	; 4
    2aa6:	07 c0       	rjmp	.+14     	; 0x2ab6 <SchedulerBasicP__TaskBasic__runTask+0x7ea>
    2aa8:	8f e8       	ldi	r24, 0x8F	; 143
    2aaa:	94 e0       	ldi	r25, 0x04	; 4
    2aac:	04 c0       	rjmp	.+8      	; 0x2ab6 <SchedulerBasicP__TaskBasic__runTask+0x7ea>
    2aae:	44 e1       	ldi	r20, 0x14	; 20
    2ab0:	60 e0       	ldi	r22, 0x00	; 0
    2ab2:	8b e3       	ldi	r24, 0x3B	; 59
    2ab4:	95 e0       	ldi	r25, 0x05	; 5
    2ab6:	0e 94 01 0f 	call	0x1e02	; 0x1e02 <GlcdP__Glcd__drawTextPgm>
    2aba:	4c eb       	ldi	r20, 0xBC	; 188
    2abc:	52 e0       	ldi	r21, 0x02	; 2
    2abe:	60 e0       	ldi	r22, 0x00	; 0
    2ac0:	70 e0       	ldi	r23, 0x00	; 0
    2ac2:	85 e0       	ldi	r24, 0x05	; 5
    2ac4:	0e 94 86 03 	call	0x70c	; 0x70c <VirtualizeTimerC__0__Timer__startOneShot>
    2ac8:	0c 94 65 24 	jmp	0x48ca	; 0x48ca <SchedulerBasicP__TaskBasic__runTask+0x25fe>
    2acc:	8f b7       	in	r24, 0x3f	; 63
    2ace:	f8 94       	cli
    2ad0:	e0 91 d2 07 	lds	r30, 0x07D2
    2ad4:	8f bf       	out	0x3f, r24	; 63
    2ad6:	e6 36       	cpi	r30, 0x66	; 102
    2ad8:	09 f4       	brne	.+2      	; 0x2adc <SchedulerBasicP__TaskBasic__runTask+0x810>
    2ada:	52 c0       	rjmp	.+164    	; 0x2b80 <SchedulerBasicP__TaskBasic__runTask+0x8b4>
    2adc:	c0 f4       	brcc	.+48     	; 0x2b0e <SchedulerBasicP__TaskBasic__runTask+0x842>
    2ade:	ee 32       	cpi	r30, 0x2E	; 46
    2ae0:	09 f4       	brne	.+2      	; 0x2ae4 <SchedulerBasicP__TaskBasic__runTask+0x818>
    2ae2:	4f c1       	rjmp	.+670    	; 0x2d82 <SchedulerBasicP__TaskBasic__runTask+0xab6>
    2ae4:	e1 36       	cpi	r30, 0x61	; 97
    2ae6:	09 f4       	brne	.+2      	; 0x2aea <SchedulerBasicP__TaskBasic__runTask+0x81e>
    2ae8:	40 c0       	rjmp	.+128    	; 0x2b6a <SchedulerBasicP__TaskBasic__runTask+0x89e>
    2aea:	ec 32       	cpi	r30, 0x2C	; 44
    2aec:	09 f0       	breq	.+2      	; 0x2af0 <SchedulerBasicP__TaskBasic__runTask+0x824>
    2aee:	58 c1       	rjmp	.+688    	; 0x2da0 <SchedulerBasicP__TaskBasic__runTask+0xad4>
    2af0:	10 92 cb 0e 	sts	0x0ECB, r1
    2af4:	0e 94 0a 05 	call	0xa14	; 0xa14 <RadioScannerP__clearRDSData>
    2af8:	8f b7       	in	r24, 0x3f	; 63
    2afa:	f8 94       	cli
    2afc:	94 e0       	ldi	r25, 0x04	; 4
    2afe:	90 93 d3 07 	sts	0x07D3, r25
    2b02:	8f bf       	out	0x3f, r24	; 63
    2b04:	86 e0       	ldi	r24, 0x06	; 6
    2b06:	0e 94 1f 03 	call	0x63e	; 0x63e <SchedulerBasicP__TaskBasic__postTask>
    2b0a:	0c 94 65 24 	jmp	0x48ca	; 0x48ca <SchedulerBasicP__TaskBasic__runTask+0x25fe>
    2b0e:	ee 36       	cpi	r30, 0x6E	; 110
    2b10:	09 f4       	brne	.+2      	; 0x2b14 <SchedulerBasicP__TaskBasic__runTask+0x848>
    2b12:	de c0       	rjmp	.+444    	; 0x2cd0 <SchedulerBasicP__TaskBasic__runTask+0xa04>
    2b14:	20 f4       	brcc	.+8      	; 0x2b1e <SchedulerBasicP__TaskBasic__runTask+0x852>
    2b16:	ec 36       	cpi	r30, 0x6C	; 108
    2b18:	09 f4       	brne	.+2      	; 0x2b1c <SchedulerBasicP__TaskBasic__runTask+0x850>
    2b1a:	98 c0       	rjmp	.+304    	; 0x2c4c <SchedulerBasicP__TaskBasic__runTask+0x980>
    2b1c:	41 c1       	rjmp	.+642    	; 0x2da0 <SchedulerBasicP__TaskBasic__runTask+0xad4>
    2b1e:	e3 37       	cpi	r30, 0x73	; 115
    2b20:	09 f4       	brne	.+2      	; 0x2b24 <SchedulerBasicP__TaskBasic__runTask+0x858>
    2b22:	0d c1       	rjmp	.+538    	; 0x2d3e <SchedulerBasicP__TaskBasic__runTask+0xa72>
    2b24:	e4 37       	cpi	r30, 0x74	; 116
    2b26:	09 f0       	breq	.+2      	; 0x2b2a <SchedulerBasicP__TaskBasic__runTask+0x85e>
    2b28:	3b c1       	rjmp	.+630    	; 0x2da0 <SchedulerBasicP__TaskBasic__runTask+0xad4>
    2b2a:	10 92 cb 0e 	sts	0x0ECB, r1
    2b2e:	0e 94 0a 05 	call	0xa14	; 0xa14 <RadioScannerP__clearRDSData>
    2b32:	8f b7       	in	r24, 0x3f	; 63
    2b34:	f8 94       	cli
    2b36:	10 92 c8 07 	sts	0x07C8, r1
    2b3a:	95 e0       	ldi	r25, 0x05	; 5
    2b3c:	e9 ec       	ldi	r30, 0xC9	; 201
    2b3e:	f7 e0       	ldi	r31, 0x07	; 7
    2b40:	df 01       	movw	r26, r30
    2b42:	1d 92       	st	X+, r1
    2b44:	9a 95       	dec	r25
    2b46:	e9 f7       	brne	.-6      	; 0x2b42 <SchedulerBasicP__TaskBasic__runTask+0x876>
    2b48:	92 e0       	ldi	r25, 0x02	; 2
    2b4a:	90 93 d3 07 	sts	0x07D3, r25
    2b4e:	8f bf       	out	0x3f, r24	; 63
    2b50:	0e 94 8e 0f 	call	0x1f1c	; 0x1f1c <GlcdP__Glcd__fill.constprop.94>
    2b54:	4a e0       	ldi	r20, 0x0A	; 10
    2b56:	60 e0       	ldi	r22, 0x00	; 0
    2b58:	8b ea       	ldi	r24, 0xAB	; 171
    2b5a:	95 e0       	ldi	r25, 0x05	; 5
    2b5c:	0e 94 01 0f 	call	0x1e02	; 0x1e02 <GlcdP__Glcd__drawTextPgm>
    2b60:	80 e0       	ldi	r24, 0x00	; 0
    2b62:	0e 94 1f 03 	call	0x63e	; 0x63e <SchedulerBasicP__TaskBasic__postTask>
    2b66:	0c 94 65 24 	jmp	0x48ca	; 0x48ca <SchedulerBasicP__TaskBasic__runTask+0x25fe>
    2b6a:	8f b7       	in	r24, 0x3f	; 63
    2b6c:	f8 94       	cli
    2b6e:	96 e0       	ldi	r25, 0x06	; 6
    2b70:	90 93 d3 07 	sts	0x07D3, r25
    2b74:	8f bf       	out	0x3f, r24	; 63
    2b76:	89 e0       	ldi	r24, 0x09	; 9
    2b78:	0e 94 1f 03 	call	0x63e	; 0x63e <SchedulerBasicP__TaskBasic__postTask>
    2b7c:	0c 94 65 24 	jmp	0x48ca	; 0x48ca <SchedulerBasicP__TaskBasic__runTask+0x25fe>
    2b80:	8f b7       	in	r24, 0x3f	; 63
    2b82:	f8 94       	cli
    2b84:	97 e0       	ldi	r25, 0x07	; 7
    2b86:	90 93 d3 07 	sts	0x07D3, r25
    2b8a:	8f bf       	out	0x3f, r24	; 63
    2b8c:	80 91 c8 03 	lds	r24, 0x03C8
    2b90:	89 30       	cpi	r24, 0x09	; 9
    2b92:	08 f0       	brcs	.+2      	; 0x2b96 <SchedulerBasicP__TaskBasic__runTask+0x8ca>
    2b94:	51 c0       	rjmp	.+162    	; 0x2c38 <SchedulerBasicP__TaskBasic__runTask+0x96c>
    2b96:	2f b7       	in	r18, 0x3f	; 63
    2b98:	f8 94       	cli
    2b9a:	80 91 d0 07 	lds	r24, 0x07D0
    2b9e:	90 91 d1 07 	lds	r25, 0x07D1
    2ba2:	2f bf       	out	0x3f, r18	; 63
    2ba4:	0e 94 91 04 	call	0x922	; 0x922 <RadioScannerP__getListId>
    2ba8:	8f 30       	cpi	r24, 0x0F	; 15
    2baa:	e0 f5       	brcc	.+120    	; 0x2c24 <SchedulerBasicP__TaskBasic__runTask+0x958>
    2bac:	48 2f       	mov	r20, r24
    2bae:	50 e0       	ldi	r21, 0x00	; 0
    2bb0:	2b e3       	ldi	r18, 0x3B	; 59
    2bb2:	82 9f       	mul	r24, r18
    2bb4:	f0 01       	movw	r30, r0
    2bb6:	11 24       	eor	r1, r1
    2bb8:	ee 52       	subi	r30, 0x2E	; 46
    2bba:	fc 4f       	sbci	r31, 0xFC	; 252
    2bbc:	91 81       	ldd	r25, Z+1	; 0x01
    2bbe:	99 23       	and	r25, r25
    2bc0:	51 f0       	breq	.+20     	; 0x2bd6 <SchedulerBasicP__TaskBasic__runTask+0x90a>
    2bc2:	8f b7       	in	r24, 0x3f	; 63
    2bc4:	f8 94       	cli
    2bc6:	99 e0       	ldi	r25, 0x09	; 9
    2bc8:	90 93 c5 03 	sts	0x03C5, r25
    2bcc:	8f bf       	out	0x3f, r24	; 63
    2bce:	0e 94 3e 03 	call	0x67c	; 0x67c <RadioScannerP__displaySoftError__postTask>
    2bd2:	0c 94 65 24 	jmp	0x48ca	; 0x48ca <SchedulerBasicP__TaskBasic__runTask+0x25fe>
    2bd6:	e9 ec       	ldi	r30, 0xC9	; 201
    2bd8:	f3 e0       	ldi	r31, 0x03	; 3
    2bda:	90 e0       	ldi	r25, 0x00	; 0
    2bdc:	21 91       	ld	r18, Z+
    2bde:	2f 3f       	cpi	r18, 0xFF	; 255
    2be0:	19 f0       	breq	.+6      	; 0x2be8 <SchedulerBasicP__TaskBasic__runTask+0x91c>
    2be2:	9f 5f       	subi	r25, 0xFF	; 255
    2be4:	99 30       	cpi	r25, 0x09	; 9
    2be6:	d1 f7       	brne	.-12     	; 0x2bdc <SchedulerBasicP__TaskBasic__runTask+0x910>
    2be8:	e9 2f       	mov	r30, r25
    2bea:	f0 e0       	ldi	r31, 0x00	; 0
    2bec:	e8 53       	subi	r30, 0x38	; 56
    2bee:	fc 4f       	sbci	r31, 0xFC	; 252
    2bf0:	81 83       	std	Z+1, r24	; 0x01
    2bf2:	20 91 c8 03 	lds	r18, 0x03C8
    2bf6:	2f 5f       	subi	r18, 0xFF	; 255
    2bf8:	20 93 c8 03 	sts	0x03C8, r18
    2bfc:	2f b7       	in	r18, 0x3f	; 63
    2bfe:	f8 94       	cli
    2c00:	3b e3       	ldi	r19, 0x3B	; 59
    2c02:	34 9f       	mul	r19, r20
    2c04:	b0 01       	movw	r22, r0
    2c06:	35 9f       	mul	r19, r21
    2c08:	70 0d       	add	r23, r0
    2c0a:	11 24       	eor	r1, r1
    2c0c:	fb 01       	movw	r30, r22
    2c0e:	ee 52       	subi	r30, 0x2E	; 46
    2c10:	fc 4f       	sbci	r31, 0xFC	; 252
    2c12:	9f 5f       	subi	r25, 0xFF	; 255
    2c14:	91 83       	std	Z+1, r25	; 0x01
    2c16:	2f bf       	out	0x3f, r18	; 63
    2c18:	6d 52       	subi	r22, 0x2D	; 45
    2c1a:	7c 4f       	sbci	r23, 0xFC	; 252
    2c1c:	0e 94 88 05 	call	0xb10	; 0xb10 <DatabaseP__Database__saveChannel>
    2c20:	0c 94 65 24 	jmp	0x48ca	; 0x48ca <SchedulerBasicP__TaskBasic__runTask+0x25fe>
    2c24:	8f b7       	in	r24, 0x3f	; 63
    2c26:	f8 94       	cli
    2c28:	98 e0       	ldi	r25, 0x08	; 8
    2c2a:	90 93 c5 03 	sts	0x03C5, r25
    2c2e:	8f bf       	out	0x3f, r24	; 63
    2c30:	0e 94 3e 03 	call	0x67c	; 0x67c <RadioScannerP__displaySoftError__postTask>
    2c34:	0c 94 65 24 	jmp	0x48ca	; 0x48ca <SchedulerBasicP__TaskBasic__runTask+0x25fe>
    2c38:	8f b7       	in	r24, 0x3f	; 63
    2c3a:	f8 94       	cli
    2c3c:	93 e0       	ldi	r25, 0x03	; 3
    2c3e:	90 93 c5 03 	sts	0x03C5, r25
    2c42:	8f bf       	out	0x3f, r24	; 63
    2c44:	0e 94 3e 03 	call	0x67c	; 0x67c <RadioScannerP__displaySoftError__postTask>
    2c48:	0c 94 65 24 	jmp	0x48ca	; 0x48ca <SchedulerBasicP__TaskBasic__runTask+0x25fe>
    2c4c:	80 91 d2 03 	lds	r24, 0x03D2
    2c50:	88 23       	and	r24, r24
    2c52:	11 f4       	brne	.+4      	; 0x2c58 <SchedulerBasicP__TaskBasic__runTask+0x98c>
    2c54:	0c 94 65 24 	jmp	0x48ca	; 0x48ca <SchedulerBasicP__TaskBasic__runTask+0x25fe>
    2c58:	8f b7       	in	r24, 0x3f	; 63
    2c5a:	f8 94       	cli
    2c5c:	60 91 d0 07 	lds	r22, 0x07D0
    2c60:	70 91 d1 07 	lds	r23, 0x07D1
    2c64:	8f bf       	out	0x3f, r24	; 63
    2c66:	30 91 d2 03 	lds	r19, 0x03D2
    2c6a:	e2 ed       	ldi	r30, 0xD2	; 210
    2c6c:	f3 e0       	ldi	r31, 0x03	; 3
    2c6e:	4f ef       	ldi	r20, 0xFF	; 255
    2c70:	5f ef       	ldi	r21, 0xFF	; 255
    2c72:	1f ef       	ldi	r17, 0xFF	; 255
    2c74:	20 e0       	ldi	r18, 0x00	; 0
    2c76:	23 17       	cp	r18, r19
    2c78:	69 f0       	breq	.+26     	; 0x2c94 <SchedulerBasicP__TaskBasic__runTask+0x9c8>
    2c7a:	82 81       	ldd	r24, Z+2	; 0x02
    2c7c:	93 81       	ldd	r25, Z+3	; 0x03
    2c7e:	86 1b       	sub	r24, r22
    2c80:	97 0b       	sbc	r25, r23
    2c82:	29 f0       	breq	.+10     	; 0x2c8e <SchedulerBasicP__TaskBasic__runTask+0x9c2>
    2c84:	84 17       	cp	r24, r20
    2c86:	95 07       	cpc	r25, r21
    2c88:	10 f4       	brcc	.+4      	; 0x2c8e <SchedulerBasicP__TaskBasic__runTask+0x9c2>
    2c8a:	ac 01       	movw	r20, r24
    2c8c:	12 2f       	mov	r17, r18
    2c8e:	2f 5f       	subi	r18, 0xFF	; 255
    2c90:	fb 96       	adiw	r30, 0x3b	; 59
    2c92:	f1 cf       	rjmp	.-30     	; 0x2c76 <SchedulerBasicP__TaskBasic__runTask+0x9aa>
    2c94:	1f 30       	cpi	r17, 0x0F	; 15
    2c96:	10 f0       	brcs	.+4      	; 0x2c9c <SchedulerBasicP__TaskBasic__runTask+0x9d0>
    2c98:	0c 94 65 24 	jmp	0x48ca	; 0x48ca <SchedulerBasicP__TaskBasic__runTask+0x25fe>
    2c9c:	10 92 cb 0e 	sts	0x0ECB, r1
    2ca0:	0e 94 0a 05 	call	0xa14	; 0xa14 <RadioScannerP__clearRDSData>
    2ca4:	8f b7       	in	r24, 0x3f	; 63
    2ca6:	f8 94       	cli
    2ca8:	93 e0       	ldi	r25, 0x03	; 3
    2caa:	90 93 d3 07 	sts	0x07D3, r25
    2cae:	3b e3       	ldi	r19, 0x3B	; 59
    2cb0:	13 9f       	mul	r17, r19
    2cb2:	f0 01       	movw	r30, r0
    2cb4:	11 24       	eor	r1, r1
    2cb6:	ee 52       	subi	r30, 0x2E	; 46
    2cb8:	fc 4f       	sbci	r31, 0xFC	; 252
    2cba:	22 81       	ldd	r18, Z+2	; 0x02
    2cbc:	33 81       	ldd	r19, Z+3	; 0x03
    2cbe:	30 93 cf 07 	sts	0x07CF, r19
    2cc2:	20 93 ce 07 	sts	0x07CE, r18
    2cc6:	8f bf       	out	0x3f, r24	; 63
    2cc8:	0e 94 41 03 	call	0x682	; 0x682 <RadioScannerP__startTune__postTask>
    2ccc:	0c 94 65 24 	jmp	0x48ca	; 0x48ca <SchedulerBasicP__TaskBasic__runTask+0x25fe>
    2cd0:	8f b7       	in	r24, 0x3f	; 63
    2cd2:	f8 94       	cli
    2cd4:	18 e0       	ldi	r17, 0x08	; 8
    2cd6:	10 93 d3 07 	sts	0x07D3, r17
    2cda:	8f bf       	out	0x3f, r24	; 63
    2cdc:	2f b7       	in	r18, 0x3f	; 63
    2cde:	f8 94       	cli
    2ce0:	80 91 d0 07 	lds	r24, 0x07D0
    2ce4:	90 91 d1 07 	lds	r25, 0x07D1
    2ce8:	2f bf       	out	0x3f, r18	; 63
    2cea:	0e 94 91 04 	call	0x922	; 0x922 <RadioScannerP__getListId>
    2cee:	8f 30       	cpi	r24, 0x0F	; 15
    2cf0:	e8 f4       	brcc	.+58     	; 0x2d2c <SchedulerBasicP__TaskBasic__runTask+0xa60>
    2cf2:	10 92 cb 0e 	sts	0x0ECB, r1
    2cf6:	8f b7       	in	r24, 0x3f	; 63
    2cf8:	f8 94       	cli
    2cfa:	10 92 d2 07 	sts	0x07D2, r1
    2cfe:	8f bf       	out	0x3f, r24	; 63
    2d00:	10 92 48 07 	sts	0x0748, r1
    2d04:	89 e2       	ldi	r24, 0x29	; 41
    2d06:	e9 e4       	ldi	r30, 0x49	; 73
    2d08:	f7 e0       	ldi	r31, 0x07	; 7
    2d0a:	df 01       	movw	r26, r30
    2d0c:	1d 92       	st	X+, r1
    2d0e:	8a 95       	dec	r24
    2d10:	e9 f7       	brne	.-6      	; 0x2d0c <SchedulerBasicP__TaskBasic__runTask+0xa40>
    2d12:	0e 94 8e 0f 	call	0x1f1c	; 0x1f1c <GlcdP__Glcd__fill.constprop.94>
    2d16:	4a e0       	ldi	r20, 0x0A	; 10
    2d18:	60 e0       	ldi	r22, 0x00	; 0
    2d1a:	8f e9       	ldi	r24, 0x9F	; 159
    2d1c:	95 e0       	ldi	r25, 0x05	; 5
    2d1e:	0e 94 01 0f 	call	0x1e02	; 0x1e02 <GlcdP__Glcd__drawTextPgm>
    2d22:	81 e0       	ldi	r24, 0x01	; 1
    2d24:	0e 94 1f 03 	call	0x63e	; 0x63e <SchedulerBasicP__TaskBasic__postTask>
    2d28:	0c 94 65 24 	jmp	0x48ca	; 0x48ca <SchedulerBasicP__TaskBasic__runTask+0x25fe>
    2d2c:	8f b7       	in	r24, 0x3f	; 63
    2d2e:	f8 94       	cli
    2d30:	10 93 c5 03 	sts	0x03C5, r17
    2d34:	8f bf       	out	0x3f, r24	; 63
    2d36:	0e 94 3e 03 	call	0x67c	; 0x67c <RadioScannerP__displaySoftError__postTask>
    2d3a:	0c 94 65 24 	jmp	0x48ca	; 0x48ca <SchedulerBasicP__TaskBasic__runTask+0x25fe>
    2d3e:	10 92 cb 0e 	sts	0x0ECB, r1
    2d42:	0e 94 0a 05 	call	0xa14	; 0xa14 <RadioScannerP__clearRDSData>
    2d46:	0e 94 b5 06 	call	0xd6a	; 0xd6a <DatabaseP__Database__purgeChannelList>
    2d4a:	10 92 c8 03 	sts	0x03C8, r1
    2d4e:	49 e0       	ldi	r20, 0x09	; 9
    2d50:	50 e0       	ldi	r21, 0x00	; 0
    2d52:	6f ef       	ldi	r22, 0xFF	; 255
    2d54:	70 e0       	ldi	r23, 0x00	; 0
    2d56:	89 ec       	ldi	r24, 0xC9	; 201
    2d58:	93 e0       	ldi	r25, 0x03	; 3
    2d5a:	0e 94 3d 2d 	call	0x5a7a	; 0x5a7a <memset>
    2d5e:	8f b7       	in	r24, 0x3f	; 63
    2d60:	f8 94       	cli
    2d62:	10 92 d2 03 	sts	0x03D2, r1
    2d66:	95 e0       	ldi	r25, 0x05	; 5
    2d68:	90 93 d3 07 	sts	0x07D3, r25
    2d6c:	2b e6       	ldi	r18, 0x6B	; 107
    2d6e:	33 e0       	ldi	r19, 0x03	; 3
    2d70:	30 93 cf 07 	sts	0x07CF, r19
    2d74:	20 93 ce 07 	sts	0x07CE, r18
    2d78:	8f bf       	out	0x3f, r24	; 63
    2d7a:	0e 94 41 03 	call	0x682	; 0x682 <RadioScannerP__startTune__postTask>
    2d7e:	0c 94 65 24 	jmp	0x48ca	; 0x48ca <SchedulerBasicP__TaskBasic__runTask+0x25fe>
    2d82:	10 92 cb 0e 	sts	0x0ECB, r1
    2d86:	0e 94 0a 05 	call	0xa14	; 0xa14 <RadioScannerP__clearRDSData>
    2d8a:	8f b7       	in	r24, 0x3f	; 63
    2d8c:	f8 94       	cli
    2d8e:	94 e0       	ldi	r25, 0x04	; 4
    2d90:	90 93 d3 07 	sts	0x07D3, r25
    2d94:	8f bf       	out	0x3f, r24	; 63
    2d96:	85 e0       	ldi	r24, 0x05	; 5
    2d98:	0e 94 1f 03 	call	0x63e	; 0x63e <SchedulerBasicP__TaskBasic__postTask>
    2d9c:	0c 94 65 24 	jmp	0x48ca	; 0x48ca <SchedulerBasicP__TaskBasic__runTask+0x25fe>
    2da0:	8f ec       	ldi	r24, 0xCF	; 207
    2da2:	8e 0f       	add	r24, r30
    2da4:	89 30       	cpi	r24, 0x09	; 9
    2da6:	10 f0       	brcs	.+4      	; 0x2dac <SchedulerBasicP__TaskBasic__runTask+0xae0>
    2da8:	0c 94 65 24 	jmp	0x48ca	; 0x48ca <SchedulerBasicP__TaskBasic__runTask+0x25fe>
    2dac:	e0 53       	subi	r30, 0x30	; 48
    2dae:	f0 e0       	ldi	r31, 0x00	; 0
    2db0:	e8 53       	subi	r30, 0x38	; 56
    2db2:	fc 4f       	sbci	r31, 0xFC	; 252
    2db4:	10 81       	ld	r17, Z
    2db6:	1f 30       	cpi	r17, 0x0F	; 15
    2db8:	d0 f4       	brcc	.+52     	; 0x2dee <SchedulerBasicP__TaskBasic__runTask+0xb22>
    2dba:	10 92 cb 0e 	sts	0x0ECB, r1
    2dbe:	0e 94 0a 05 	call	0xa14	; 0xa14 <RadioScannerP__clearRDSData>
    2dc2:	8f b7       	in	r24, 0x3f	; 63
    2dc4:	f8 94       	cli
    2dc6:	93 e0       	ldi	r25, 0x03	; 3
    2dc8:	90 93 d3 07 	sts	0x07D3, r25
    2dcc:	bb e3       	ldi	r27, 0x3B	; 59
    2dce:	1b 9f       	mul	r17, r27
    2dd0:	f0 01       	movw	r30, r0
    2dd2:	11 24       	eor	r1, r1
    2dd4:	ee 52       	subi	r30, 0x2E	; 46
    2dd6:	fc 4f       	sbci	r31, 0xFC	; 252
    2dd8:	22 81       	ldd	r18, Z+2	; 0x02
    2dda:	33 81       	ldd	r19, Z+3	; 0x03
    2ddc:	30 93 cf 07 	sts	0x07CF, r19
    2de0:	20 93 ce 07 	sts	0x07CE, r18
    2de4:	8f bf       	out	0x3f, r24	; 63
    2de6:	0e 94 41 03 	call	0x682	; 0x682 <RadioScannerP__startTune__postTask>
    2dea:	0c 94 65 24 	jmp	0x48ca	; 0x48ca <SchedulerBasicP__TaskBasic__runTask+0x25fe>
    2dee:	8f b7       	in	r24, 0x3f	; 63
    2df0:	f8 94       	cli
    2df2:	97 e0       	ldi	r25, 0x07	; 7
    2df4:	90 93 c5 03 	sts	0x03C5, r25
    2df8:	8f bf       	out	0x3f, r24	; 63
    2dfa:	0e 94 3e 03 	call	0x67c	; 0x67c <RadioScannerP__displaySoftError__postTask>
    2dfe:	0c 94 65 24 	jmp	0x48ca	; 0x48ca <SchedulerBasicP__TaskBasic__runTask+0x25fe>
    2e02:	40 91 be 02 	lds	r20, 0x02BE
    2e06:	50 91 bf 02 	lds	r21, 0x02BF
    2e0a:	80 91 90 0f 	lds	r24, 0x0F90
    2e0e:	81 11       	cpse	r24, r1
    2e10:	2b c0       	rjmp	.+86     	; 0x2e68 <SchedulerBasicP__TaskBasic__runTask+0xb9c>
    2e12:	81 e9       	ldi	r24, 0x91	; 145
    2e14:	9f e0       	ldi	r25, 0x0F	; 15
    2e16:	89 2b       	or	r24, r25
    2e18:	39 f1       	breq	.+78     	; 0x2e68 <SchedulerBasicP__TaskBasic__runTask+0xb9c>
    2e1a:	80 ec       	ldi	r24, 0xC0	; 192
    2e1c:	92 e0       	ldi	r25, 0x02	; 2
    2e1e:	90 93 9a 0f 	sts	0x0F9A, r25
    2e22:	80 93 99 0f 	sts	0x0F99, r24
    2e26:	80 ec       	ldi	r24, 0xC0	; 192
    2e28:	80 93 91 0f 	sts	0x0F91, r24
    2e2c:	88 ea       	ldi	r24, 0xA8	; 168
    2e2e:	80 93 92 0f 	sts	0x0F92, r24
    2e32:	8a e2       	ldi	r24, 0x2A	; 42
    2e34:	80 93 93 0f 	sts	0x0F93, r24
    2e38:	81 e0       	ldi	r24, 0x01	; 1
    2e3a:	80 93 94 0f 	sts	0x0F94, r24
    2e3e:	20 e5       	ldi	r18, 0x50	; 80
    2e40:	33 ec       	ldi	r19, 0xC3	; 195
    2e42:	30 93 96 0f 	sts	0x0F96, r19
    2e46:	20 93 95 0f 	sts	0x0F95, r18
    2e4a:	30 93 98 0f 	sts	0x0F98, r19
    2e4e:	20 93 97 0f 	sts	0x0F97, r18
    2e52:	50 93 9c 0f 	sts	0x0F9C, r21
    2e56:	40 93 9b 0f 	sts	0x0F9B, r20
    2e5a:	80 93 90 0f 	sts	0x0F90, r24
    2e5e:	89 e1       	ldi	r24, 0x19	; 25
    2e60:	0e 94 1f 03 	call	0x63e	; 0x63e <SchedulerBasicP__TaskBasic__postTask>
    2e64:	0c 94 65 24 	jmp	0x48ca	; 0x48ca <SchedulerBasicP__TaskBasic__runTask+0x25fe>
    2e68:	0e 94 44 03 	call	0x688	; 0x688 <DatabaseP__sendTask__postTask>
    2e6c:	0c 94 65 24 	jmp	0x48ca	; 0x48ca <SchedulerBasicP__TaskBasic__runTask+0x25fe>
    2e70:	9f b7       	in	r25, 0x3f	; 63
    2e72:	f8 94       	cli
    2e74:	80 91 c4 03 	lds	r24, 0x03C4
    2e78:	9f bf       	out	0x3f, r25	; 63
    2e7a:	83 30       	cpi	r24, 0x03	; 3
    2e7c:	09 f4       	brne	.+2      	; 0x2e80 <SchedulerBasicP__TaskBasic__runTask+0xbb4>
    2e7e:	46 c0       	rjmp	.+140    	; 0x2f0c <SchedulerBasicP__TaskBasic__runTask+0xc40>
    2e80:	84 30       	cpi	r24, 0x04	; 4
    2e82:	09 f4       	brne	.+2      	; 0x2e86 <SchedulerBasicP__TaskBasic__runTask+0xbba>
    2e84:	be c0       	rjmp	.+380    	; 0x3002 <SchedulerBasicP__TaskBasic__runTask+0xd36>
    2e86:	82 30       	cpi	r24, 0x02	; 2
    2e88:	09 f0       	breq	.+2      	; 0x2e8c <SchedulerBasicP__TaskBasic__runTask+0xbc0>
    2e8a:	3c c2       	rjmp	.+1144   	; 0x3304 <SchedulerBasicP__TaskBasic__runTask+0x1038>
    2e8c:	ce 01       	movw	r24, r28
    2e8e:	8b 59       	subi	r24, 0x9B	; 155
    2e90:	9f 4f       	sbci	r25, 0xFF	; 255
    2e92:	0e 94 d8 07 	call	0xfb0	; 0xfb0 <DatabaseP__prepareMessage.constprop.105>
    2e96:	88 23       	and	r24, r24
    2e98:	09 f4       	brne	.+2      	; 0x2e9c <SchedulerBasicP__TaskBasic__runTask+0xbd0>
    2e9a:	34 c2       	rjmp	.+1128   	; 0x3304 <SchedulerBasicP__TaskBasic__runTask+0x1038>
    2e9c:	42 e0       	ldi	r20, 0x02	; 2
    2e9e:	50 e0       	ldi	r21, 0x00	; 0
    2ea0:	6c e8       	ldi	r22, 0x8C	; 140
    2ea2:	74 e0       	ldi	r23, 0x04	; 4
    2ea4:	82 e4       	ldi	r24, 0x42	; 66
    2ea6:	93 e0       	ldi	r25, 0x03	; 3
    2ea8:	0e 94 fd 2c 	call	0x59fa	; 0x59fa <strncmp_P>
    2eac:	a7 96       	adiw	r28, 0x27	; 39
    2eae:	2e ad       	ldd	r18, Y+62	; 0x3e
    2eb0:	3f ad       	ldd	r19, Y+63	; 0x3f
    2eb2:	a7 97       	sbiw	r28, 0x27	; 39
    2eb4:	89 2b       	or	r24, r25
    2eb6:	a1 f4       	brne	.+40     	; 0x2ee0 <SchedulerBasicP__TaskBasic__runTask+0xc14>
    2eb8:	ae 01       	movw	r20, r28
    2eba:	4f 5f       	subi	r20, 0xFF	; 255
    2ebc:	5f 4f       	sbci	r21, 0xFF	; 255
    2ebe:	66 e7       	ldi	r22, 0x76	; 118
    2ec0:	72 e0       	ldi	r23, 0x02	; 2
    2ec2:	c9 01       	movw	r24, r18
    2ec4:	0e 94 5e 2d 	call	0x5abc	; 0x5abc <strtok_r>
    2ec8:	4a e0       	ldi	r20, 0x0A	; 10
    2eca:	50 e0       	ldi	r21, 0x00	; 0
    2ecc:	60 e0       	ldi	r22, 0x00	; 0
    2ece:	70 e0       	ldi	r23, 0x00	; 0
    2ed0:	89 81       	ldd	r24, Y+1	; 0x01
    2ed2:	9a 81       	ldd	r25, Y+2	; 0x02
    2ed4:	0e 94 b6 2b 	call	0x576c	; 0x576c <strtoul>
    2ed8:	6f 30       	cpi	r22, 0x0F	; 15
    2eda:	48 f4       	brcc	.+18     	; 0x2eee <SchedulerBasicP__TaskBasic__runTask+0xc22>
    2edc:	80 e0       	ldi	r24, 0x00	; 0
    2ede:	08 c0       	rjmp	.+16     	; 0x2ef0 <SchedulerBasicP__TaskBasic__runTask+0xc24>
    2ee0:	6f e6       	ldi	r22, 0x6F	; 111
    2ee2:	74 e0       	ldi	r23, 0x04	; 4
    2ee4:	c9 01       	movw	r24, r18
    2ee6:	0e 94 1a 2d 	call	0x5a34	; 0x5a34 <strstr_P>
    2eea:	00 97       	sbiw	r24, 0x00	; 0
    2eec:	21 f4       	brne	.+8      	; 0x2ef6 <SchedulerBasicP__TaskBasic__runTask+0xc2a>
    2eee:	82 e0       	ldi	r24, 0x02	; 2
    2ef0:	0e 94 d4 09 	call	0x13a8	; 0x13a8 <RadioScannerP__DB__savedChannel.isra.71>
    2ef4:	07 c2       	rjmp	.+1038   	; 0x3304 <SchedulerBasicP__TaskBasic__runTask+0x1038>
    2ef6:	4f e0       	ldi	r20, 0x0F	; 15
    2ef8:	50 e0       	ldi	r21, 0x00	; 0
    2efa:	6b e5       	ldi	r22, 0x5B	; 91
    2efc:	74 e0       	ldi	r23, 0x04	; 4
    2efe:	04 96       	adiw	r24, 0x04	; 4
    2f00:	0e 94 fd 2c 	call	0x59fa	; 0x59fa <strncmp_P>
    2f04:	89 2b       	or	r24, r25
    2f06:	99 f7       	brne	.-26     	; 0x2eee <SchedulerBasicP__TaskBasic__runTask+0xc22>
    2f08:	81 e0       	ldi	r24, 0x01	; 1
    2f0a:	f2 cf       	rjmp	.-28     	; 0x2ef0 <SchedulerBasicP__TaskBasic__runTask+0xc24>
    2f0c:	80 91 44 03 	lds	r24, 0x0344
    2f10:	8a 30       	cpi	r24, 0x0A	; 10
    2f12:	d9 f5       	brne	.+118    	; 0x2f8a <SchedulerBasicP__TaskBasic__runTask+0xcbe>
    2f14:	89 e0       	ldi	r24, 0x09	; 9
    2f16:	fe 01       	movw	r30, r28
    2f18:	31 96       	adiw	r30, 0x01	; 1
    2f1a:	de 01       	movw	r26, r28
    2f1c:	a0 58       	subi	r26, 0x80	; 128
    2f1e:	bf 4f       	sbci	r27, 0xFF	; 255
    2f20:	01 90       	ld	r0, Z+
    2f22:	0d 92       	st	X+, r0
    2f24:	8a 95       	dec	r24
    2f26:	e1 f7       	brne	.-8      	; 0x2f20 <SchedulerBasicP__TaskBasic__runTask+0xc54>
    2f28:	c0 58       	subi	r28, 0x80	; 128
    2f2a:	df 4f       	sbci	r29, 0xFF	; 255
    2f2c:	e8 80       	ld	r14, Y
    2f2e:	c0 58       	subi	r28, 0x80	; 128
    2f30:	d0 40       	sbci	r29, 0x00	; 0
    2f32:	cf 57       	subi	r28, 0x7F	; 127
    2f34:	df 4f       	sbci	r29, 0xFF	; 255
    2f36:	f8 80       	ld	r15, Y
    2f38:	c1 58       	subi	r28, 0x81	; 129
    2f3a:	d0 40       	sbci	r29, 0x00	; 0
    2f3c:	ce 57       	subi	r28, 0x7E	; 126
    2f3e:	df 4f       	sbci	r29, 0xFF	; 255
    2f40:	08 81       	ld	r16, Y
    2f42:	c2 58       	subi	r28, 0x82	; 130
    2f44:	d0 40       	sbci	r29, 0x00	; 0
    2f46:	cd 57       	subi	r28, 0x7D	; 125
    2f48:	df 4f       	sbci	r29, 0xFF	; 255
    2f4a:	18 81       	ld	r17, Y
    2f4c:	c3 58       	subi	r28, 0x83	; 131
    2f4e:	d0 40       	sbci	r29, 0x00	; 0
    2f50:	cc 57       	subi	r28, 0x7C	; 124
    2f52:	df 4f       	sbci	r29, 0xFF	; 255
    2f54:	28 81       	ld	r18, Y
    2f56:	c4 58       	subi	r28, 0x84	; 132
    2f58:	d0 40       	sbci	r29, 0x00	; 0
    2f5a:	cb 57       	subi	r28, 0x7B	; 123
    2f5c:	df 4f       	sbci	r29, 0xFF	; 255
    2f5e:	38 81       	ld	r19, Y
    2f60:	c5 58       	subi	r28, 0x85	; 133
    2f62:	d0 40       	sbci	r29, 0x00	; 0
    2f64:	ca 57       	subi	r28, 0x7A	; 122
    2f66:	df 4f       	sbci	r29, 0xFF	; 255
    2f68:	48 81       	ld	r20, Y
    2f6a:	c6 58       	subi	r28, 0x86	; 134
    2f6c:	d0 40       	sbci	r29, 0x00	; 0
    2f6e:	c9 57       	subi	r28, 0x79	; 121
    2f70:	df 4f       	sbci	r29, 0xFF	; 255
    2f72:	58 81       	ld	r21, Y
    2f74:	c7 58       	subi	r28, 0x87	; 135
    2f76:	d0 40       	sbci	r29, 0x00	; 0
    2f78:	c8 57       	subi	r28, 0x78	; 120
    2f7a:	df 4f       	sbci	r29, 0xFF	; 255
    2f7c:	68 81       	ld	r22, Y
    2f7e:	c8 58       	subi	r28, 0x88	; 136
    2f80:	d0 40       	sbci	r29, 0x00	; 0
    2f82:	8f ef       	ldi	r24, 0xFF	; 255
    2f84:	0e 94 0a 07 	call	0xe14	; 0xe14 <RadioScannerP__DB__receivedChannelEntry>
    2f88:	bd c1       	rjmp	.+890    	; 0x3304 <SchedulerBasicP__TaskBasic__runTask+0x1038>
    2f8a:	ce 01       	movw	r24, r28
    2f8c:	8b 59       	subi	r24, 0x9B	; 155
    2f8e:	9f 4f       	sbci	r25, 0xFF	; 255
    2f90:	0e 94 d8 07 	call	0xfb0	; 0xfb0 <DatabaseP__prepareMessage.constprop.105>
    2f94:	88 23       	and	r24, r24
    2f96:	09 f4       	brne	.+2      	; 0x2f9a <SchedulerBasicP__TaskBasic__runTask+0xcce>
    2f98:	b5 c1       	rjmp	.+874    	; 0x3304 <SchedulerBasicP__TaskBasic__runTask+0x1038>
    2f9a:	10 92 ad 02 	sts	0x02AD, r1
    2f9e:	10 92 ae 02 	sts	0x02AE, r1
    2fa2:	ae 01       	movw	r20, r28
    2fa4:	4f 5f       	subi	r20, 0xFF	; 255
    2fa6:	5f 4f       	sbci	r21, 0xFF	; 255
    2fa8:	68 e7       	ldi	r22, 0x78	; 120
    2faa:	72 e0       	ldi	r23, 0x02	; 2
    2fac:	a7 96       	adiw	r28, 0x27	; 39
    2fae:	8e ad       	ldd	r24, Y+62	; 0x3e
    2fb0:	9f ad       	ldd	r25, Y+63	; 0x3f
    2fb2:	a7 97       	sbiw	r28, 0x27	; 39
    2fb4:	0e 94 5e 2d 	call	0x5abc	; 0x5abc <strtok_r>
    2fb8:	00 97       	sbiw	r24, 0x00	; 0
    2fba:	d1 f0       	breq	.+52     	; 0x2ff0 <SchedulerBasicP__TaskBasic__runTask+0xd24>
    2fbc:	4a e0       	ldi	r20, 0x0A	; 10
    2fbe:	50 e0       	ldi	r21, 0x00	; 0
    2fc0:	60 e0       	ldi	r22, 0x00	; 0
    2fc2:	70 e0       	ldi	r23, 0x00	; 0
    2fc4:	0e 94 8b 2a 	call	0x5516	; 0x5516 <strtol>
    2fc8:	6f 30       	cpi	r22, 0x0F	; 15
    2fca:	50 f4       	brcc	.+20     	; 0x2fe0 <SchedulerBasicP__TaskBasic__runTask+0xd14>
    2fcc:	e0 91 ad 02 	lds	r30, 0x02AD
    2fd0:	81 e0       	ldi	r24, 0x01	; 1
    2fd2:	8e 0f       	add	r24, r30
    2fd4:	80 93 ad 02 	sts	0x02AD, r24
    2fd8:	f0 e0       	ldi	r31, 0x00	; 0
    2fda:	e3 55       	subi	r30, 0x53	; 83
    2fdc:	fd 4f       	sbci	r31, 0xFD	; 253
    2fde:	62 83       	std	Z+2, r22	; 0x02
    2fe0:	ae 01       	movw	r20, r28
    2fe2:	4f 5f       	subi	r20, 0xFF	; 255
    2fe4:	5f 4f       	sbci	r21, 0xFF	; 255
    2fe6:	68 e7       	ldi	r22, 0x78	; 120
    2fe8:	72 e0       	ldi	r23, 0x02	; 2
    2fea:	80 e0       	ldi	r24, 0x00	; 0
    2fec:	90 e0       	ldi	r25, 0x00	; 0
    2fee:	e2 cf       	rjmp	.-60     	; 0x2fb4 <SchedulerBasicP__TaskBasic__runTask+0xce8>
    2ff0:	80 91 ad 02 	lds	r24, 0x02AD
    2ff4:	88 23       	and	r24, r24
    2ff6:	09 f4       	brne	.+2      	; 0x2ffa <SchedulerBasicP__TaskBasic__runTask+0xd2e>
    2ff8:	85 c1       	rjmp	.+778    	; 0x3304 <SchedulerBasicP__TaskBasic__runTask+0x1038>
    2ffa:	81 e0       	ldi	r24, 0x01	; 1
    2ffc:	80 93 c3 03 	sts	0x03C3, r24
    3000:	7e c1       	rjmp	.+764    	; 0x32fe <SchedulerBasicP__TaskBasic__runTask+0x1032>
    3002:	ce 01       	movw	r24, r28
    3004:	87 57       	subi	r24, 0x77	; 119
    3006:	9f 4f       	sbci	r25, 0xFF	; 255
    3008:	0e 94 d8 07 	call	0xfb0	; 0xfb0 <DatabaseP__prepareMessage.constprop.105>
    300c:	88 23       	and	r24, r24
    300e:	09 f4       	brne	.+2      	; 0x3012 <SchedulerBasicP__TaskBasic__runTask+0xd46>
    3010:	72 c1       	rjmp	.+740    	; 0x32f6 <SchedulerBasicP__TaskBasic__runTask+0x102a>
    3012:	8e 01       	movw	r16, r28
    3014:	00 58       	subi	r16, 0x80	; 128
    3016:	1f 4f       	sbci	r17, 0xFF	; 255
    3018:	89 e0       	ldi	r24, 0x09	; 9
    301a:	f8 01       	movw	r30, r16
    301c:	11 92       	st	Z+, r1
    301e:	8a 95       	dec	r24
    3020:	e9 f7       	brne	.-6      	; 0x301c <SchedulerBasicP__TaskBasic__runTask+0xd50>
    3022:	9e 01       	movw	r18, r28
    3024:	2f 5f       	subi	r18, 0xFF	; 255
    3026:	3f 4f       	sbci	r19, 0xFF	; 255
    3028:	49 01       	movw	r8, r18
    302a:	89 e2       	ldi	r24, 0x29	; 41
    302c:	d9 01       	movw	r26, r18
    302e:	1d 92       	st	X+, r1
    3030:	8a 95       	dec	r24
    3032:	e9 f7       	brne	.-6      	; 0x302e <SchedulerBasicP__TaskBasic__runTask+0xd62>
    3034:	ae 01       	movw	r20, r28
    3036:	4b 59       	subi	r20, 0x9B	; 155
    3038:	5f 4f       	sbci	r21, 0xFF	; 255
    303a:	66 e7       	ldi	r22, 0x76	; 118
    303c:	72 e0       	ldi	r23, 0x02	; 2
    303e:	c7 57       	subi	r28, 0x77	; 119
    3040:	df 4f       	sbci	r29, 0xFF	; 255
    3042:	88 81       	ld	r24, Y
    3044:	99 81       	ldd	r25, Y+1	; 0x01
    3046:	c9 58       	subi	r28, 0x89	; 137
    3048:	d0 40       	sbci	r29, 0x00	; 0
    304a:	0e 94 5e 2d 	call	0x5abc	; 0x5abc <strtok_r>
    304e:	6c 01       	movw	r12, r24
    3050:	00 97       	sbiw	r24, 0x00	; 0
    3052:	09 f4       	brne	.+2      	; 0x3056 <SchedulerBasicP__TaskBasic__runTask+0xd8a>
    3054:	27 c1       	rjmp	.+590    	; 0x32a4 <SchedulerBasicP__TaskBasic__runTask+0xfd8>
    3056:	f1 e6       	ldi	r31, 0x61	; 97
    3058:	6f 2e       	mov	r6, r31
    305a:	f2 e0       	ldi	r31, 0x02	; 2
    305c:	7f 2e       	mov	r7, r31
    305e:	a8 e0       	ldi	r26, 0x08	; 8
    3060:	fa 2e       	mov	r15, r26
    3062:	a7 96       	adiw	r28, 0x27	; 39
    3064:	ae ac       	ldd	r10, Y+62	; 0x3e
    3066:	bf ac       	ldd	r11, Y+63	; 0x3f
    3068:	a7 97       	sbiw	r28, 0x27	; 39
    306a:	42 e0       	ldi	r20, 0x02	; 2
    306c:	50 e0       	ldi	r21, 0x00	; 0
    306e:	68 e5       	ldi	r22, 0x58	; 88
    3070:	74 e0       	ldi	r23, 0x04	; 4
    3072:	c6 01       	movw	r24, r12
    3074:	0e 94 fd 2c 	call	0x59fa	; 0x59fa <strncmp_P>
    3078:	89 2b       	or	r24, r25
    307a:	61 f4       	brne	.+24     	; 0x3094 <SchedulerBasicP__TaskBasic__runTask+0xdc8>
    307c:	4a e0       	ldi	r20, 0x0A	; 10
    307e:	50 e0       	ldi	r21, 0x00	; 0
    3080:	60 e0       	ldi	r22, 0x00	; 0
    3082:	70 e0       	ldi	r23, 0x00	; 0
    3084:	c5 01       	movw	r24, r10
    3086:	0e 94 b6 2b 	call	0x576c	; 0x576c <strtoul>
    308a:	6f 30       	cpi	r22, 0x0F	; 15
    308c:	08 f0       	brcs	.+2      	; 0x3090 <SchedulerBasicP__TaskBasic__runTask+0xdc4>
    308e:	0a c1       	rjmp	.+532    	; 0x32a4 <SchedulerBasicP__TaskBasic__runTask+0xfd8>
    3090:	56 2e       	mov	r5, r22
    3092:	8e c0       	rjmp	.+284    	; 0x31b0 <SchedulerBasicP__TaskBasic__runTask+0xee4>
    3094:	44 e0       	ldi	r20, 0x04	; 4
    3096:	50 e0       	ldi	r21, 0x00	; 0
    3098:	63 e5       	ldi	r22, 0x53	; 83
    309a:	74 e0       	ldi	r23, 0x04	; 4
    309c:	c6 01       	movw	r24, r12
    309e:	0e 94 fd 2c 	call	0x59fa	; 0x59fa <strncmp_P>
    30a2:	89 2b       	or	r24, r25
    30a4:	a9 f4       	brne	.+42     	; 0x30d0 <SchedulerBasicP__TaskBasic__runTask+0xe04>
    30a6:	4a e0       	ldi	r20, 0x0A	; 10
    30a8:	50 e0       	ldi	r21, 0x00	; 0
    30aa:	60 e0       	ldi	r22, 0x00	; 0
    30ac:	70 e0       	ldi	r23, 0x00	; 0
    30ae:	c5 01       	movw	r24, r10
    30b0:	0e 94 b6 2b 	call	0x576c	; 0x576c <strtoul>
    30b4:	9b 01       	movw	r18, r22
    30b6:	2b 56       	subi	r18, 0x6B	; 107
    30b8:	33 40       	sbci	r19, 0x03	; 3
    30ba:	2e 3c       	cpi	r18, 0xCE	; 206
    30bc:	31 05       	cpc	r19, r1
    30be:	08 f0       	brcs	.+2      	; 0x30c2 <SchedulerBasicP__TaskBasic__runTask+0xdf6>
    30c0:	f1 c0       	rjmp	.+482    	; 0x32a4 <SchedulerBasicP__TaskBasic__runTask+0xfd8>
    30c2:	36 2e       	mov	r3, r22
    30c4:	c5 57       	subi	r28, 0x75	; 117
    30c6:	df 4f       	sbci	r29, 0xFF	; 255
    30c8:	78 83       	st	Y, r23
    30ca:	cb 58       	subi	r28, 0x8B	; 139
    30cc:	d0 40       	sbci	r29, 0x00	; 0
    30ce:	70 c0       	rjmp	.+224    	; 0x31b0 <SchedulerBasicP__TaskBasic__runTask+0xee4>
    30d0:	46 e0       	ldi	r20, 0x06	; 6
    30d2:	50 e0       	ldi	r21, 0x00	; 0
    30d4:	6c e4       	ldi	r22, 0x4C	; 76
    30d6:	74 e0       	ldi	r23, 0x04	; 4
    30d8:	c6 01       	movw	r24, r12
    30da:	0e 94 fd 2c 	call	0x59fa	; 0x59fa <strncmp_P>
    30de:	89 2b       	or	r24, r25
    30e0:	51 f4       	brne	.+20     	; 0x30f6 <SchedulerBasicP__TaskBasic__runTask+0xe2a>
    30e2:	4a e0       	ldi	r20, 0x0A	; 10
    30e4:	50 e0       	ldi	r21, 0x00	; 0
    30e6:	60 e0       	ldi	r22, 0x00	; 0
    30e8:	70 e0       	ldi	r23, 0x00	; 0
    30ea:	c5 01       	movw	r24, r10
    30ec:	0e 94 b6 2b 	call	0x576c	; 0x576c <strtoul>
    30f0:	46 2e       	mov	r4, r22
    30f2:	27 2e       	mov	r2, r23
    30f4:	5d c0       	rjmp	.+186    	; 0x31b0 <SchedulerBasicP__TaskBasic__runTask+0xee4>
    30f6:	45 e0       	ldi	r20, 0x05	; 5
    30f8:	50 e0       	ldi	r21, 0x00	; 0
    30fa:	66 e4       	ldi	r22, 0x46	; 70
    30fc:	74 e0       	ldi	r23, 0x04	; 4
    30fe:	c6 01       	movw	r24, r12
    3100:	0e 94 fd 2c 	call	0x59fa	; 0x59fa <strncmp_P>
    3104:	89 2b       	or	r24, r25
    3106:	61 f4       	brne	.+24     	; 0x3120 <SchedulerBasicP__TaskBasic__runTask+0xe54>
    3108:	4a e0       	ldi	r20, 0x0A	; 10
    310a:	50 e0       	ldi	r21, 0x00	; 0
    310c:	60 e0       	ldi	r22, 0x00	; 0
    310e:	70 e0       	ldi	r23, 0x00	; 0
    3110:	c5 01       	movw	r24, r10
    3112:	0e 94 b6 2b 	call	0x576c	; 0x576c <strtoul>
    3116:	6a 30       	cpi	r22, 0x0A	; 10
    3118:	08 f0       	brcs	.+2      	; 0x311c <SchedulerBasicP__TaskBasic__runTask+0xe50>
    311a:	c4 c0       	rjmp	.+392    	; 0x32a4 <SchedulerBasicP__TaskBasic__runTask+0xfd8>
    311c:	e6 2e       	mov	r14, r22
    311e:	48 c0       	rjmp	.+144    	; 0x31b0 <SchedulerBasicP__TaskBasic__runTask+0xee4>
    3120:	44 e0       	ldi	r20, 0x04	; 4
    3122:	50 e0       	ldi	r21, 0x00	; 0
    3124:	61 e4       	ldi	r22, 0x41	; 65
    3126:	74 e0       	ldi	r23, 0x04	; 4
    3128:	c6 01       	movw	r24, r12
    312a:	0e 94 fd 2c 	call	0x59fa	; 0x59fa <strncmp_P>
    312e:	89 2b       	or	r24, r25
    3130:	29 f5       	brne	.+74     	; 0x317c <SchedulerBasicP__TaskBasic__runTask+0xeb0>
    3132:	bf 92       	push	r11
    3134:	af 92       	push	r10
    3136:	7f 92       	push	r7
    3138:	6f 92       	push	r6
    313a:	1f 92       	push	r1
    313c:	ff 92       	push	r15
    313e:	1f 93       	push	r17
    3140:	0f 93       	push	r16
    3142:	0e 94 85 2d 	call	0x5b0a	; 0x5b0a <snprintf>
    3146:	f8 01       	movw	r30, r16
    3148:	10 86       	std	Z+8, r1	; 0x08
    314a:	a7 96       	adiw	r28, 0x27	; 39
    314c:	ee ad       	ldd	r30, Y+62	; 0x3e
    314e:	ff ad       	ldd	r31, Y+63	; 0x3f
    3150:	a7 97       	sbiw	r28, 0x27	; 39
    3152:	cf 01       	movw	r24, r30
    3154:	08 96       	adiw	r24, 0x08	; 8
    3156:	a7 96       	adiw	r28, 0x27	; 39
    3158:	9f af       	std	Y+63, r25	; 0x3f
    315a:	8e af       	std	Y+62, r24	; 0x3e
    315c:	a7 97       	sbiw	r28, 0x27	; 39
    315e:	0f b6       	in	r0, 0x3f	; 63
    3160:	f8 94       	cli
    3162:	de bf       	out	0x3e, r29	; 62
    3164:	0f be       	out	0x3f, r0	; 63
    3166:	cd bf       	out	0x3d, r28	; 61
    3168:	80 85       	ldd	r24, Z+8	; 0x08
    316a:	8c 32       	cpi	r24, 0x2C	; 44
    316c:	09 f0       	breq	.+2      	; 0x3170 <SchedulerBasicP__TaskBasic__runTask+0xea4>
    316e:	9a c0       	rjmp	.+308    	; 0x32a4 <SchedulerBasicP__TaskBasic__runTask+0xfd8>
    3170:	39 96       	adiw	r30, 0x09	; 9
    3172:	a7 96       	adiw	r28, 0x27	; 39
    3174:	ff af       	std	Y+63, r31	; 0x3f
    3176:	ee af       	std	Y+62, r30	; 0x3e
    3178:	a7 97       	sbiw	r28, 0x27	; 39
    317a:	2a c0       	rjmp	.+84     	; 0x31d0 <SchedulerBasicP__TaskBasic__runTask+0xf04>
    317c:	44 e0       	ldi	r20, 0x04	; 4
    317e:	50 e0       	ldi	r21, 0x00	; 0
    3180:	6c e3       	ldi	r22, 0x3C	; 60
    3182:	74 e0       	ldi	r23, 0x04	; 4
    3184:	c6 01       	movw	r24, r12
    3186:	0e 94 fd 2c 	call	0x59fa	; 0x59fa <strncmp_P>
    318a:	89 2b       	or	r24, r25
    318c:	89 f4       	brne	.+34     	; 0x31b0 <SchedulerBasicP__TaskBasic__runTask+0xee4>
    318e:	d5 01       	movw	r26, r10
    3190:	8c 91       	ld	r24, X
    3192:	88 23       	and	r24, r24
    3194:	31 f0       	breq	.+12     	; 0x31a2 <SchedulerBasicP__TaskBasic__runTask+0xed6>
    3196:	48 e2       	ldi	r20, 0x28	; 40
    3198:	50 e0       	ldi	r21, 0x00	; 0
    319a:	b5 01       	movw	r22, r10
    319c:	c4 01       	movw	r24, r8
    319e:	0e 94 4f 2d 	call	0x5a9e	; 0x5a9e <strncpy>
    31a2:	f8 01       	movw	r30, r16
    31a4:	10 a6       	std	Z+40, r1	; 0x28
    31a6:	80 91 c2 03 	lds	r24, 0x03C2
    31aa:	81 11       	cpse	r24, r1
    31ac:	1f c0       	rjmp	.+62     	; 0x31ec <SchedulerBasicP__TaskBasic__runTask+0xf20>
    31ae:	4a c0       	rjmp	.+148    	; 0x3244 <SchedulerBasicP__TaskBasic__runTask+0xf78>
    31b0:	6c e2       	ldi	r22, 0x2C	; 44
    31b2:	70 e0       	ldi	r23, 0x00	; 0
    31b4:	a7 96       	adiw	r28, 0x27	; 39
    31b6:	8e ad       	ldd	r24, Y+62	; 0x3e
    31b8:	9f ad       	ldd	r25, Y+63	; 0x3f
    31ba:	a7 97       	sbiw	r28, 0x27	; 39
    31bc:	0e 94 44 2d 	call	0x5a88	; 0x5a88 <strchr>
    31c0:	00 97       	sbiw	r24, 0x00	; 0
    31c2:	09 f4       	brne	.+2      	; 0x31c6 <SchedulerBasicP__TaskBasic__runTask+0xefa>
    31c4:	6f c0       	rjmp	.+222    	; 0x32a4 <SchedulerBasicP__TaskBasic__runTask+0xfd8>
    31c6:	01 96       	adiw	r24, 0x01	; 1
    31c8:	a7 96       	adiw	r28, 0x27	; 39
    31ca:	9f af       	std	Y+63, r25	; 0x3f
    31cc:	8e af       	std	Y+62, r24	; 0x3e
    31ce:	a7 97       	sbiw	r28, 0x27	; 39
    31d0:	ae 01       	movw	r20, r28
    31d2:	4b 59       	subi	r20, 0x9B	; 155
    31d4:	5f 4f       	sbci	r21, 0xFF	; 255
    31d6:	66 e7       	ldi	r22, 0x76	; 118
    31d8:	72 e0       	ldi	r23, 0x02	; 2
    31da:	80 e0       	ldi	r24, 0x00	; 0
    31dc:	90 e0       	ldi	r25, 0x00	; 0
    31de:	0e 94 5e 2d 	call	0x5abc	; 0x5abc <strtok_r>
    31e2:	6c 01       	movw	r12, r24
    31e4:	00 97       	sbiw	r24, 0x00	; 0
    31e6:	09 f0       	breq	.+2      	; 0x31ea <SchedulerBasicP__TaskBasic__runTask+0xf1e>
    31e8:	3c cf       	rjmp	.-392    	; 0x3062 <SchedulerBasicP__TaskBasic__runTask+0xd96>
    31ea:	5c c0       	rjmp	.+184    	; 0x32a4 <SchedulerBasicP__TaskBasic__runTask+0xfd8>
    31ec:	ee 20       	and	r14, r14
    31ee:	09 f4       	brne	.+2      	; 0x31f2 <SchedulerBasicP__TaskBasic__runTask+0xf26>
    31f0:	82 c0       	rjmp	.+260    	; 0x32f6 <SchedulerBasicP__TaskBasic__runTask+0x102a>
    31f2:	af 96       	adiw	r28, 0x2f	; 47
    31f4:	ef ae       	std	Y+63, r14	; 0x3f
    31f6:	af 97       	sbiw	r28, 0x2f	; 47
    31f8:	f3 2c       	mov	r15, r3
    31fa:	e0 96       	adiw	r28, 0x30	; 48
    31fc:	3f ae       	std	Y+63, r3	; 0x3f
    31fe:	e0 97       	sbiw	r28, 0x30	; 48
    3200:	c5 57       	subi	r28, 0x75	; 117
    3202:	df 4f       	sbci	r29, 0xFF	; 255
    3204:	28 81       	ld	r18, Y
    3206:	cb 58       	subi	r28, 0x8B	; 139
    3208:	d0 40       	sbci	r29, 0x00	; 0
    320a:	e1 96       	adiw	r28, 0x31	; 49
    320c:	2f af       	std	Y+63, r18	; 0x3f
    320e:	e1 97       	sbiw	r28, 0x31	; 49
    3210:	e2 96       	adiw	r28, 0x32	; 50
    3212:	4f ae       	std	Y+63, r4	; 0x3f
    3214:	e2 97       	sbiw	r28, 0x32	; 50
    3216:	e3 96       	adiw	r28, 0x33	; 51
    3218:	2f ae       	std	Y+63, r2	; 0x3f
    321a:	e3 97       	sbiw	r28, 0x33	; 51
    321c:	30 2f       	mov	r19, r16
    321e:	e5 96       	adiw	r28, 0x35	; 53
    3220:	1f af       	std	Y+63, r17	; 0x3f
    3222:	0e af       	std	Y+62, r16	; 0x3e
    3224:	e5 97       	sbiw	r28, 0x35	; 53
    3226:	58 2d       	mov	r21, r8
    3228:	e7 96       	adiw	r28, 0x37	; 55
    322a:	9f ae       	std	Y+63, r9	; 0x3f
    322c:	8e ae       	std	Y+62, r8	; 0x3e
    322e:	e7 97       	sbiw	r28, 0x37	; 55
    3230:	02 2f       	mov	r16, r18
    3232:	14 2d       	mov	r17, r4
    3234:	22 2d       	mov	r18, r2
    3236:	e5 96       	adiw	r28, 0x35	; 53
    3238:	4f ad       	ldd	r20, Y+63	; 0x3f
    323a:	e5 97       	sbiw	r28, 0x35	; 53
    323c:	e7 96       	adiw	r28, 0x37	; 55
    323e:	6f ad       	ldd	r22, Y+63	; 0x3f
    3240:	e7 97       	sbiw	r28, 0x37	; 55
    3242:	2e c0       	rjmp	.+92     	; 0x32a0 <SchedulerBasicP__TaskBasic__runTask+0xfd4>
    3244:	e8 96       	adiw	r28, 0x38	; 56
    3246:	ef ae       	std	Y+63, r14	; 0x3f
    3248:	e8 97       	sbiw	r28, 0x38	; 56
    324a:	f3 2c       	mov	r15, r3
    324c:	e9 96       	adiw	r28, 0x39	; 57
    324e:	3f ae       	std	Y+63, r3	; 0x3f
    3250:	e9 97       	sbiw	r28, 0x39	; 57
    3252:	c5 57       	subi	r28, 0x75	; 117
    3254:	df 4f       	sbci	r29, 0xFF	; 255
    3256:	38 81       	ld	r19, Y
    3258:	cb 58       	subi	r28, 0x8B	; 139
    325a:	d0 40       	sbci	r29, 0x00	; 0
    325c:	ea 96       	adiw	r28, 0x3a	; 58
    325e:	3f af       	std	Y+63, r19	; 0x3f
    3260:	ea 97       	sbiw	r28, 0x3a	; 58
    3262:	eb 96       	adiw	r28, 0x3b	; 59
    3264:	4f ae       	std	Y+63, r4	; 0x3f
    3266:	eb 97       	sbiw	r28, 0x3b	; 59
    3268:	ec 96       	adiw	r28, 0x3c	; 60
    326a:	2f ae       	std	Y+63, r2	; 0x3f
    326c:	ec 97       	sbiw	r28, 0x3c	; 60
    326e:	30 2f       	mov	r19, r16
    3270:	ee 96       	adiw	r28, 0x3e	; 62
    3272:	1f af       	std	Y+63, r17	; 0x3f
    3274:	0e af       	std	Y+62, r16	; 0x3e
    3276:	ee 97       	sbiw	r28, 0x3e	; 62
    3278:	58 2d       	mov	r21, r8
    327a:	c2 58       	subi	r28, 0x82	; 130
    327c:	df 4f       	sbci	r29, 0xFF	; 255
    327e:	99 82       	std	Y+1, r9	; 0x01
    3280:	88 82       	st	Y, r8
    3282:	ce 57       	subi	r28, 0x7E	; 126
    3284:	d0 40       	sbci	r29, 0x00	; 0
    3286:	ea 96       	adiw	r28, 0x3a	; 58
    3288:	0f ad       	ldd	r16, Y+63	; 0x3f
    328a:	ea 97       	sbiw	r28, 0x3a	; 58
    328c:	14 2d       	mov	r17, r4
    328e:	22 2d       	mov	r18, r2
    3290:	ee 96       	adiw	r28, 0x3e	; 62
    3292:	4f ad       	ldd	r20, Y+63	; 0x3f
    3294:	ee 97       	sbiw	r28, 0x3e	; 62
    3296:	c1 58       	subi	r28, 0x81	; 129
    3298:	df 4f       	sbci	r29, 0xFF	; 255
    329a:	68 81       	ld	r22, Y
    329c:	cf 57       	subi	r28, 0x7F	; 127
    329e:	d0 40       	sbci	r29, 0x00	; 0
    32a0:	85 2d       	mov	r24, r5
    32a2:	27 c0       	rjmp	.+78     	; 0x32f2 <SchedulerBasicP__TaskBasic__runTask+0x1026>
    32a4:	89 e0       	ldi	r24, 0x09	; 9
    32a6:	fe 01       	movw	r30, r28
    32a8:	e2 59       	subi	r30, 0x92	; 146
    32aa:	ff 4f       	sbci	r31, 0xFF	; 255
    32ac:	de 01       	movw	r26, r28
    32ae:	ab 59       	subi	r26, 0x9B	; 155
    32b0:	bf 4f       	sbci	r27, 0xFF	; 255
    32b2:	01 90       	ld	r0, Z+
    32b4:	0d 92       	st	X+, r0
    32b6:	8a 95       	dec	r24
    32b8:	e1 f7       	brne	.-8      	; 0x32b2 <SchedulerBasicP__TaskBasic__runTask+0xfe6>
    32ba:	a6 96       	adiw	r28, 0x26	; 38
    32bc:	ef ac       	ldd	r14, Y+63	; 0x3f
    32be:	a6 97       	sbiw	r28, 0x26	; 38
    32c0:	a7 96       	adiw	r28, 0x27	; 39
    32c2:	ff ac       	ldd	r15, Y+63	; 0x3f
    32c4:	a7 97       	sbiw	r28, 0x27	; 39
    32c6:	a8 96       	adiw	r28, 0x28	; 40
    32c8:	0f ad       	ldd	r16, Y+63	; 0x3f
    32ca:	a8 97       	sbiw	r28, 0x28	; 40
    32cc:	a9 96       	adiw	r28, 0x29	; 41
    32ce:	1f ad       	ldd	r17, Y+63	; 0x3f
    32d0:	a9 97       	sbiw	r28, 0x29	; 41
    32d2:	aa 96       	adiw	r28, 0x2a	; 42
    32d4:	2f ad       	ldd	r18, Y+63	; 0x3f
    32d6:	aa 97       	sbiw	r28, 0x2a	; 42
    32d8:	ab 96       	adiw	r28, 0x2b	; 43
    32da:	3f ad       	ldd	r19, Y+63	; 0x3f
    32dc:	ab 97       	sbiw	r28, 0x2b	; 43
    32de:	ac 96       	adiw	r28, 0x2c	; 44
    32e0:	4f ad       	ldd	r20, Y+63	; 0x3f
    32e2:	ac 97       	sbiw	r28, 0x2c	; 44
    32e4:	ad 96       	adiw	r28, 0x2d	; 45
    32e6:	5f ad       	ldd	r21, Y+63	; 0x3f
    32e8:	ad 97       	sbiw	r28, 0x2d	; 45
    32ea:	ae 96       	adiw	r28, 0x2e	; 46
    32ec:	6f ad       	ldd	r22, Y+63	; 0x3f
    32ee:	ae 97       	sbiw	r28, 0x2e	; 46
    32f0:	8e ef       	ldi	r24, 0xFE	; 254
    32f2:	0e 94 0a 07 	call	0xe14	; 0xe14 <RadioScannerP__DB__receivedChannelEntry>
    32f6:	80 91 c3 03 	lds	r24, 0x03C3
    32fa:	88 23       	and	r24, r24
    32fc:	19 f0       	breq	.+6      	; 0x3304 <SchedulerBasicP__TaskBasic__runTask+0x1038>
    32fe:	8f e0       	ldi	r24, 0x0F	; 15
    3300:	0e 94 1f 03 	call	0x63e	; 0x63e <SchedulerBasicP__TaskBasic__postTask>
    3304:	8f b7       	in	r24, 0x3f	; 63
    3306:	f8 94       	cli
    3308:	10 92 c4 03 	sts	0x03C4, r1
    330c:	8f bf       	out	0x3f, r24	; 63
    330e:	0c 94 65 24 	jmp	0x48ca	; 0x48ca <SchedulerBasicP__TaskBasic__runTask+0x25fe>
    3312:	40 91 ae 02 	lds	r20, 0x02AE
    3316:	24 2f       	mov	r18, r20
    3318:	30 e0       	ldi	r19, 0x00	; 0
    331a:	80 91 ad 02 	lds	r24, 0x02AD
    331e:	90 e0       	ldi	r25, 0x00	; 0
    3320:	82 1b       	sub	r24, r18
    3322:	93 0b       	sbc	r25, r19
    3324:	18 16       	cp	r1, r24
    3326:	19 06       	cpc	r1, r25
    3328:	0c f0       	brlt	.+2      	; 0x332c <SchedulerBasicP__TaskBasic__runTask+0x1060>
    332a:	52 c0       	rjmp	.+164    	; 0x33d0 <SchedulerBasicP__TaskBasic__runTask+0x1104>
    332c:	4f 5f       	subi	r20, 0xFF	; 255
    332e:	40 93 ae 02 	sts	0x02AE, r20
    3332:	f9 01       	movw	r30, r18
    3334:	e3 55       	subi	r30, 0x53	; 83
    3336:	fd 4f       	sbci	r31, 0xFD	; 253
    3338:	b2 80       	ldd	r11, Z+2	; 0x02
    333a:	9f b7       	in	r25, 0x3f	; 63
    333c:	f8 94       	cli
    333e:	80 91 c4 03 	lds	r24, 0x03C4
    3342:	9f bf       	out	0x3f, r25	; 63
    3344:	81 11       	cpse	r24, r1
    3346:	0c 94 65 24 	jmp	0x48ca	; 0x48ca <SchedulerBasicP__TaskBasic__runTask+0x25fe>
    334a:	8f b7       	in	r24, 0x3f	; 63
    334c:	f8 94       	cli
    334e:	94 e0       	ldi	r25, 0x04	; 4
    3350:	90 93 c4 03 	sts	0x03C4, r25
    3354:	8f bf       	out	0x3f, r24	; 63
    3356:	44 e0       	ldi	r20, 0x04	; 4
    3358:	50 e0       	ldi	r21, 0x00	; 0
    335a:	6b e6       	ldi	r22, 0x6B	; 107
    335c:	74 e0       	ldi	r23, 0x04	; 4
    335e:	ce 01       	movw	r24, r28
    3360:	01 96       	adiw	r24, 0x01	; 1
    3362:	7c 01       	movw	r14, r24
    3364:	0e 94 0b 2d 	call	0x5a16	; 0x5a16 <strncpy_P>
    3368:	6e 01       	movw	r12, r28
    336a:	95 e6       	ldi	r25, 0x65	; 101
    336c:	c9 0e       	add	r12, r25
    336e:	d1 1c       	adc	r13, r1
    3370:	43 e0       	ldi	r20, 0x03	; 3
    3372:	50 e0       	ldi	r21, 0x00	; 0
    3374:	68 e5       	ldi	r22, 0x58	; 88
    3376:	74 e0       	ldi	r23, 0x04	; 4
    3378:	c6 01       	movw	r24, r12
    337a:	0e 94 0b 2d 	call	0x5a16	; 0x5a16 <strncpy_P>
    337e:	00 ec       	ldi	r16, 0xC0	; 192
    3380:	12 e0       	ldi	r17, 0x02	; 2
    3382:	80 e8       	ldi	r24, 0x80	; 128
    3384:	d8 01       	movw	r26, r16
    3386:	1d 92       	st	X+, r1
    3388:	8a 95       	dec	r24
    338a:	e9 f7       	brne	.-6      	; 0x3386 <SchedulerBasicP__TaskBasic__runTask+0x10ba>
    338c:	1f 92       	push	r1
    338e:	bf 92       	push	r11
    3390:	df 92       	push	r13
    3392:	cf 92       	push	r12
    3394:	ff 92       	push	r15
    3396:	ef 92       	push	r14
    3398:	8a e7       	ldi	r24, 0x7A	; 122
    339a:	92 e0       	ldi	r25, 0x02	; 2
    339c:	9f 93       	push	r25
    339e:	8f 93       	push	r24
    33a0:	1f 93       	push	r17
    33a2:	0f 93       	push	r16
    33a4:	0e 94 c2 2d 	call	0x5b84	; 0x5b84 <sprintf>
    33a8:	f8 01       	movw	r30, r16
    33aa:	01 90       	ld	r0, Z+
    33ac:	00 20       	and	r0, r0
    33ae:	e9 f7       	brne	.-6      	; 0x33aa <SchedulerBasicP__TaskBasic__runTask+0x10de>
    33b0:	8f 01       	movw	r16, r30
    33b2:	01 5c       	subi	r16, 0xC1	; 193
    33b4:	12 40       	sbci	r17, 0x02	; 2
    33b6:	10 93 bf 02 	sts	0x02BF, r17
    33ba:	00 93 be 02 	sts	0x02BE, r16
    33be:	0e 94 44 03 	call	0x688	; 0x688 <DatabaseP__sendTask__postTask>
    33c2:	0f b6       	in	r0, 0x3f	; 63
    33c4:	f8 94       	cli
    33c6:	de bf       	out	0x3e, r29	; 62
    33c8:	0f be       	out	0x3f, r0	; 63
    33ca:	cd bf       	out	0x3d, r28	; 61
    33cc:	0c 94 65 24 	jmp	0x48ca	; 0x48ca <SchedulerBasicP__TaskBasic__runTask+0x25fe>
    33d0:	10 92 c3 03 	sts	0x03C3, r1
    33d4:	10 92 ad 02 	sts	0x02AD, r1
    33d8:	10 92 ae 02 	sts	0x02AE, r1
    33dc:	8f b7       	in	r24, 0x3f	; 63
    33de:	f8 94       	cli
    33e0:	10 92 c4 03 	sts	0x03C4, r1
    33e4:	8f bf       	out	0x3f, r24	; 63
    33e6:	89 e0       	ldi	r24, 0x09	; 9
    33e8:	fe 01       	movw	r30, r28
    33ea:	eb 59       	subi	r30, 0x9B	; 155
    33ec:	ff 4f       	sbci	r31, 0xFF	; 255
    33ee:	de 01       	movw	r26, r28
    33f0:	11 96       	adiw	r26, 0x01	; 1
    33f2:	01 90       	ld	r0, Z+
    33f4:	0d 92       	st	X+, r0
    33f6:	8a 95       	dec	r24
    33f8:	e1 f7       	brne	.-8      	; 0x33f2 <SchedulerBasicP__TaskBasic__runTask+0x1126>
    33fa:	e9 80       	ldd	r14, Y+1	; 0x01
    33fc:	fa 80       	ldd	r15, Y+2	; 0x02
    33fe:	0b 81       	ldd	r16, Y+3	; 0x03
    3400:	1c 81       	ldd	r17, Y+4	; 0x04
    3402:	2d 81       	ldd	r18, Y+5	; 0x05
    3404:	3e 81       	ldd	r19, Y+6	; 0x06
    3406:	4f 81       	ldd	r20, Y+7	; 0x07
    3408:	58 85       	ldd	r21, Y+8	; 0x08
    340a:	69 85       	ldd	r22, Y+9	; 0x09
    340c:	8f ef       	ldi	r24, 0xFF	; 255
    340e:	0e 94 0a 07 	call	0xe14	; 0xe14 <RadioScannerP__DB__receivedChannelEntry>
    3412:	0c 94 65 24 	jmp	0x48ca	; 0x48ca <SchedulerBasicP__TaskBasic__runTask+0x25fe>
    3416:	80 91 a4 02 	lds	r24, 0x02A4
    341a:	81 11       	cpse	r24, r1
    341c:	0c 94 65 24 	jmp	0x48ca	; 0x48ca <SchedulerBasicP__TaskBasic__runTask+0x25fe>
    3420:	80 91 a5 02 	lds	r24, 0x02A5
    3424:	8f 5f       	subi	r24, 0xFF	; 255
    3426:	81 70       	andi	r24, 0x01	; 1
    3428:	80 93 a5 02 	sts	0x02A5, r24
    342c:	ed e0       	ldi	r30, 0x0D	; 13
    342e:	e8 9f       	mul	r30, r24
    3430:	d0 01       	movw	r26, r0
    3432:	11 24       	eor	r1, r1
    3434:	a3 5b       	subi	r26, 0xB3	; 179
    3436:	b3 4f       	sbci	r27, 0xF3	; 243
    3438:	9c 91       	ld	r25, X
    343a:	91 30       	cpi	r25, 0x01	; 1
    343c:	11 f4       	brne	.+4      	; 0x3442 <SchedulerBasicP__TaskBasic__runTask+0x1176>
    343e:	0c 94 54 23 	jmp	0x46a8	; 0x46a8 <SchedulerBasicP__TaskBasic__runTask+0x23dc>
    3442:	8f 5f       	subi	r24, 0xFF	; 255
    3444:	81 70       	andi	r24, 0x01	; 1
    3446:	80 93 a5 02 	sts	0x02A5, r24
    344a:	e8 9f       	mul	r30, r24
    344c:	f0 01       	movw	r30, r0
    344e:	11 24       	eor	r1, r1
    3450:	e3 5b       	subi	r30, 0xB3	; 179
    3452:	f3 4f       	sbci	r31, 0xF3	; 243
    3454:	80 81       	ld	r24, Z
    3456:	81 30       	cpi	r24, 0x01	; 1
    3458:	11 f0       	breq	.+4      	; 0x345e <SchedulerBasicP__TaskBasic__runTask+0x1192>
    345a:	0c 94 65 24 	jmp	0x48ca	; 0x48ca <SchedulerBasicP__TaskBasic__runTask+0x25fe>
    345e:	0c 94 54 23 	jmp	0x46a8	; 0x46a8 <SchedulerBasicP__TaskBasic__runTask+0x23dc>
    3462:	80 91 95 0c 	lds	r24, 0x0C95
    3466:	81 11       	cpse	r24, r1
    3468:	41 c0       	rjmp	.+130    	; 0x34ec <SchedulerBasicP__TaskBasic__runTask+0x1220>
    346a:	40 91 62 12 	lds	r20, 0x1262
    346e:	50 91 63 12 	lds	r21, 0x1263
    3472:	60 91 64 12 	lds	r22, 0x1264
    3476:	70 91 65 12 	lds	r23, 0x1265
    347a:	2f b7       	in	r18, 0x3f	; 63
    347c:	f8 94       	cli
    347e:	c0 90 e9 11 	lds	r12, 0x11E9
    3482:	d0 90 ea 11 	lds	r13, 0x11EA
    3486:	e0 90 eb 11 	lds	r14, 0x11EB
    348a:	f0 90 ec 11 	lds	r15, 0x11EC
    348e:	80 91 8f 0c 	lds	r24, 0x0C8F
    3492:	90 91 90 0c 	lds	r25, 0x0C90
    3496:	a0 91 91 0c 	lds	r26, 0x0C91
    349a:	b0 91 92 0c 	lds	r27, 0x0C92
    349e:	8c 0d       	add	r24, r12
    34a0:	9d 1d       	adc	r25, r13
    34a2:	ae 1d       	adc	r26, r14
    34a4:	bf 1d       	adc	r27, r15
    34a6:	2f bf       	out	0x3f, r18	; 63
    34a8:	40 93 62 12 	sts	0x1262, r20
    34ac:	50 93 63 12 	sts	0x1263, r21
    34b0:	60 93 64 12 	sts	0x1264, r22
    34b4:	70 93 65 12 	sts	0x1265, r23
    34b8:	10 92 95 0c 	sts	0x0C95, r1
    34bc:	2f b7       	in	r18, 0x3f	; 63
    34be:	f8 94       	cli
    34c0:	31 e0       	ldi	r19, 0x01	; 1
    34c2:	30 93 d5 07 	sts	0x07D5, r19
    34c6:	80 93 8f 0c 	sts	0x0C8F, r24
    34ca:	90 93 90 0c 	sts	0x0C90, r25
    34ce:	a0 93 91 0c 	sts	0x0C91, r26
    34d2:	b0 93 92 0c 	sts	0x0C92, r27
    34d6:	40 93 e9 11 	sts	0x11E9, r20
    34da:	50 93 ea 11 	sts	0x11EA, r21
    34de:	60 93 eb 11 	sts	0x11EB, r22
    34e2:	70 93 ec 11 	sts	0x11EC, r23
    34e6:	2f bf       	out	0x3f, r18	; 63
    34e8:	0e 94 62 04 	call	0x8c4	; 0x8c4 <Atm1280AlarmSyncP__0__checkAlarm>
    34ec:	0e 94 7a 03 	call	0x6f4	; 0x6f4 <Atm1280AlarmSyncP__0__Counter__get>
    34f0:	0e 94 c8 0f 	call	0x1f90	; 0x1f90 <VirtualizeTimerC__0__fireTimers>
    34f4:	0c 94 65 24 	jmp	0x48ca	; 0x48ca <SchedulerBasicP__TaskBasic__runTask+0x25fe>
    34f8:	0e 94 7a 03 	call	0x6f4	; 0x6f4 <Atm1280AlarmSyncP__0__Counter__get>
    34fc:	2f b7       	in	r18, 0x3f	; 63
    34fe:	f8 94       	cli
    3500:	10 92 d5 07 	sts	0x07D5, r1
    3504:	2f bf       	out	0x3f, r18	; 63
    3506:	46 ea       	ldi	r20, 0xA6	; 166
    3508:	51 e1       	ldi	r21, 0x11	; 17
    350a:	a0 e0       	ldi	r26, 0x00	; 0
    350c:	cc 24       	eor	r12, r12
    350e:	ca 94       	dec	r12
    3510:	dc 2c       	mov	r13, r12
    3512:	ec 2c       	mov	r14, r12
    3514:	ef e7       	ldi	r30, 0x7F	; 127
    3516:	fe 2e       	mov	r15, r30
    3518:	20 e0       	ldi	r18, 0x00	; 0
    351a:	30 e0       	ldi	r19, 0x00	; 0
    351c:	b9 e0       	ldi	r27, 0x09	; 9
    351e:	b2 9f       	mul	r27, r18
    3520:	f0 01       	movw	r30, r0
    3522:	b3 9f       	mul	r27, r19
    3524:	f0 0d       	add	r31, r0
    3526:	11 24       	eor	r1, r1
    3528:	ea 55       	subi	r30, 0x5A	; 90
    352a:	fe 4e       	sbci	r31, 0xEE	; 238
    352c:	e0 85       	ldd	r30, Z+8	; 0x08
    352e:	e1 ff       	sbrs	r30, 1
    3530:	1b c0       	rjmp	.+54     	; 0x3568 <SchedulerBasicP__TaskBasic__runTask+0x129c>
    3532:	fa 01       	movw	r30, r20
    3534:	80 80       	ld	r8, Z
    3536:	91 80       	ldd	r9, Z+1	; 0x01
    3538:	a2 80       	ldd	r10, Z+2	; 0x02
    353a:	b3 80       	ldd	r11, Z+3	; 0x03
    353c:	2b 01       	movw	r4, r22
    353e:	3c 01       	movw	r6, r24
    3540:	48 18       	sub	r4, r8
    3542:	59 08       	sbc	r5, r9
    3544:	6a 08       	sbc	r6, r10
    3546:	7b 08       	sbc	r7, r11
    3548:	84 80       	ldd	r8, Z+4	; 0x04
    354a:	95 80       	ldd	r9, Z+5	; 0x05
    354c:	a6 80       	ldd	r10, Z+6	; 0x06
    354e:	b7 80       	ldd	r11, Z+7	; 0x07
    3550:	84 18       	sub	r8, r4
    3552:	95 08       	sbc	r9, r5
    3554:	a6 08       	sbc	r10, r6
    3556:	b7 08       	sbc	r11, r7
    3558:	8c 14       	cp	r8, r12
    355a:	9d 04       	cpc	r9, r13
    355c:	ae 04       	cpc	r10, r14
    355e:	bf 04       	cpc	r11, r15
    3560:	1c f4       	brge	.+6      	; 0x3568 <SchedulerBasicP__TaskBasic__runTask+0x129c>
    3562:	75 01       	movw	r14, r10
    3564:	64 01       	movw	r12, r8
    3566:	a1 e0       	ldi	r26, 0x01	; 1
    3568:	2f 5f       	subi	r18, 0xFF	; 255
    356a:	3f 4f       	sbci	r19, 0xFF	; 255
    356c:	47 5f       	subi	r20, 0xF7	; 247
    356e:	5f 4f       	sbci	r21, 0xFF	; 255
    3570:	27 30       	cpi	r18, 0x07	; 7
    3572:	31 05       	cpc	r19, r1
    3574:	a1 f6       	brne	.-88     	; 0x351e <SchedulerBasicP__TaskBasic__runTask+0x1252>
    3576:	aa 23       	and	r26, r26
    3578:	11 f4       	brne	.+4      	; 0x357e <SchedulerBasicP__TaskBasic__runTask+0x12b2>
    357a:	0c 94 65 24 	jmp	0x48ca	; 0x48ca <SchedulerBasicP__TaskBasic__runTask+0x25fe>
    357e:	1c 14       	cp	r1, r12
    3580:	1d 04       	cpc	r1, r13
    3582:	1e 04       	cpc	r1, r14
    3584:	1f 04       	cpc	r1, r15
    3586:	24 f0       	brlt	.+8      	; 0x3590 <SchedulerBasicP__TaskBasic__runTask+0x12c4>
    3588:	0e 94 c8 0f 	call	0x1f90	; 0x1f90 <VirtualizeTimerC__0__fireTimers>
    358c:	0c 94 65 24 	jmp	0x48ca	; 0x48ca <SchedulerBasicP__TaskBasic__runTask+0x25fe>
    3590:	c0 92 62 12 	sts	0x1262, r12
    3594:	d0 92 63 12 	sts	0x1263, r13
    3598:	e0 92 64 12 	sts	0x1264, r14
    359c:	f0 92 65 12 	sts	0x1265, r15
    35a0:	21 e0       	ldi	r18, 0x01	; 1
    35a2:	20 93 95 0c 	sts	0x0C95, r18
    35a6:	3f b7       	in	r19, 0x3f	; 63
    35a8:	f8 94       	cli
    35aa:	20 93 d5 07 	sts	0x07D5, r18
    35ae:	60 93 8f 0c 	sts	0x0C8F, r22
    35b2:	70 93 90 0c 	sts	0x0C90, r23
    35b6:	80 93 91 0c 	sts	0x0C91, r24
    35ba:	90 93 92 0c 	sts	0x0C92, r25
    35be:	c0 92 e9 11 	sts	0x11E9, r12
    35c2:	d0 92 ea 11 	sts	0x11EA, r13
    35c6:	e0 92 eb 11 	sts	0x11EB, r14
    35ca:	f0 92 ec 11 	sts	0x11EC, r15
    35ce:	3f bf       	out	0x3f, r19	; 63
    35d0:	0e 94 62 04 	call	0x8c4	; 0x8c4 <Atm1280AlarmSyncP__0__checkAlarm>
    35d4:	0c 94 65 24 	jmp	0x48ca	; 0x48ca <SchedulerBasicP__TaskBasic__runTask+0x25fe>
    35d8:	80 91 9e 02 	lds	r24, 0x029E
    35dc:	81 11       	cpse	r24, r1
    35de:	0c 94 65 24 	jmp	0x48ca	; 0x48ca <SchedulerBasicP__TaskBasic__runTask+0x25fe>
    35e2:	80 91 9f 02 	lds	r24, 0x029F
    35e6:	90 e0       	ldi	r25, 0x00	; 0
    35e8:	01 96       	adiw	r24, 0x01	; 1
    35ea:	81 70       	andi	r24, 0x01	; 1
    35ec:	99 27       	eor	r25, r25
    35ee:	80 93 9f 02 	sts	0x029F, r24
    35f2:	2d e1       	ldi	r18, 0x1D	; 29
    35f4:	28 9f       	mul	r18, r24
    35f6:	f0 01       	movw	r30, r0
    35f8:	29 9f       	mul	r18, r25
    35fa:	f0 0d       	add	r31, r0
    35fc:	11 24       	eor	r1, r1
    35fe:	eb 5d       	subi	r30, 0xDB	; 219
    3600:	fd 4e       	sbci	r31, 0xED	; 237
    3602:	30 81       	ld	r19, Z
    3604:	31 30       	cpi	r19, 0x01	; 1
    3606:	11 f4       	brne	.+4      	; 0x360c <SchedulerBasicP__TaskBasic__runTask+0x1340>
    3608:	0c 94 ac 23 	jmp	0x4758	; 0x4758 <SchedulerBasicP__TaskBasic__runTask+0x248c>
    360c:	01 96       	adiw	r24, 0x01	; 1
    360e:	81 70       	andi	r24, 0x01	; 1
    3610:	99 27       	eor	r25, r25
    3612:	80 93 9f 02 	sts	0x029F, r24
    3616:	28 9f       	mul	r18, r24
    3618:	f0 01       	movw	r30, r0
    361a:	29 9f       	mul	r18, r25
    361c:	f0 0d       	add	r31, r0
    361e:	11 24       	eor	r1, r1
    3620:	eb 5d       	subi	r30, 0xDB	; 219
    3622:	fd 4e       	sbci	r31, 0xED	; 237
    3624:	80 81       	ld	r24, Z
    3626:	81 30       	cpi	r24, 0x01	; 1
    3628:	11 f0       	breq	.+4      	; 0x362e <SchedulerBasicP__TaskBasic__runTask+0x1362>
    362a:	0c 94 65 24 	jmp	0x48ca	; 0x48ca <SchedulerBasicP__TaskBasic__runTask+0x25fe>
    362e:	0c 94 ac 23 	jmp	0x4758	; 0x4758 <SchedulerBasicP__TaskBasic__runTask+0x248c>
    3632:	80 91 9c 02 	lds	r24, 0x029C
    3636:	81 11       	cpse	r24, r1
    3638:	0c 94 65 24 	jmp	0x48ca	; 0x48ca <SchedulerBasicP__TaskBasic__runTask+0x25fe>
    363c:	e0 91 9d 02 	lds	r30, 0x029D
    3640:	ef 5f       	subi	r30, 0xFF	; 255
    3642:	e1 70       	andi	r30, 0x01	; 1
    3644:	e0 93 9d 02 	sts	0x029D, r30
    3648:	ae 2f       	mov	r26, r30
    364a:	b0 e0       	ldi	r27, 0x00	; 0
    364c:	63 e0       	ldi	r22, 0x03	; 3
    364e:	aa 0f       	add	r26, r26
    3650:	bb 1f       	adc	r27, r27
    3652:	6a 95       	dec	r22
    3654:	e1 f7       	brne	.-8      	; 0x364e <SchedulerBasicP__TaskBasic__runTask+0x1382>
    3656:	a9 54       	subi	r26, 0x49	; 73
    3658:	b1 4f       	sbci	r27, 0xF1	; 241
    365a:	8c 91       	ld	r24, X
    365c:	81 30       	cpi	r24, 0x01	; 1
    365e:	11 f4       	brne	.+4      	; 0x3664 <SchedulerBasicP__TaskBasic__runTask+0x1398>
    3660:	0c 94 ee 23 	jmp	0x47dc	; 0x47dc <SchedulerBasicP__TaskBasic__runTask+0x2510>
    3664:	ef 5f       	subi	r30, 0xFF	; 255
    3666:	e1 70       	andi	r30, 0x01	; 1
    3668:	e0 93 9d 02 	sts	0x029D, r30
    366c:	f0 e0       	ldi	r31, 0x00	; 0
    366e:	53 e0       	ldi	r21, 0x03	; 3
    3670:	ee 0f       	add	r30, r30
    3672:	ff 1f       	adc	r31, r31
    3674:	5a 95       	dec	r21
    3676:	e1 f7       	brne	.-8      	; 0x3670 <SchedulerBasicP__TaskBasic__runTask+0x13a4>
    3678:	e9 54       	subi	r30, 0x49	; 73
    367a:	f1 4f       	sbci	r31, 0xF1	; 241
    367c:	80 81       	ld	r24, Z
    367e:	81 30       	cpi	r24, 0x01	; 1
    3680:	11 f0       	breq	.+4      	; 0x3686 <SchedulerBasicP__TaskBasic__runTask+0x13ba>
    3682:	0c 94 65 24 	jmp	0x48ca	; 0x48ca <SchedulerBasicP__TaskBasic__runTask+0x25fe>
    3686:	0c 94 ee 23 	jmp	0x47dc	; 0x47dc <SchedulerBasicP__TaskBasic__runTask+0x2510>
    368a:	0e 94 da 0c 	call	0x19b4	; 0x19b4 <PacketQueueP__3__sendNext__runTask>
    368e:	0c 94 65 24 	jmp	0x48ca	; 0x48ca <SchedulerBasicP__TaskBasic__runTask+0x25fe>
    3692:	81 e0       	ldi	r24, 0x01	; 1
    3694:	80 93 96 02 	sts	0x0296, r24
    3698:	0e 94 39 0a 	call	0x1472	; 0x1472 <Atm1280SpiP__Resource__request.constprop.114>
    369c:	0c 94 65 24 	jmp	0x48ca	; 0x48ca <SchedulerBasicP__TaskBasic__runTask+0x25fe>
    36a0:	8f b7       	in	r24, 0x3f	; 63
    36a2:	f8 94       	cli
    36a4:	10 92 d7 07 	sts	0x07D7, r1
    36a8:	10 92 d6 07 	sts	0x07D6, r1
    36ac:	10 92 94 0c 	sts	0x0C94, r1
    36b0:	10 92 93 0c 	sts	0x0C93, r1
    36b4:	10 92 c6 12 	sts	0x12C6, r1
    36b8:	10 92 c5 12 	sts	0x12C5, r1
    36bc:	10 92 d1 0e 	sts	0x0ED1, r1
    36c0:	10 92 d0 0e 	sts	0x0ED0, r1
    36c4:	8f bf       	out	0x3f, r24	; 63
    36c6:	0c 94 65 24 	jmp	0x48ca	; 0x48ca <SchedulerBasicP__TaskBasic__runTask+0x25fe>
    36ca:	8f b7       	in	r24, 0x3f	; 63
    36cc:	f8 94       	cli
    36ce:	92 e0       	ldi	r25, 0x02	; 2
    36d0:	90 93 95 02 	sts	0x0295, r25
    36d4:	8f bf       	out	0x3f, r24	; 63
    36d6:	80 91 11 02 	lds	r24, 0x0211
    36da:	81 11       	cpse	r24, r1
    36dc:	0c 94 65 24 	jmp	0x48ca	; 0x48ca <SchedulerBasicP__TaskBasic__runTask+0x25fe>
    36e0:	0e 94 05 03 	call	0x60a	; 0x60a <HplAtm128GeneralIOPinP__8__IO__set>
    36e4:	80 91 99 02 	lds	r24, 0x0299
    36e8:	81 30       	cpi	r24, 0x01	; 1
    36ea:	21 f0       	breq	.+8      	; 0x36f4 <SchedulerBasicP__TaskBasic__runTask+0x1428>
    36ec:	82 30       	cpi	r24, 0x02	; 2
    36ee:	09 f4       	brne	.+2      	; 0x36f2 <SchedulerBasicP__TaskBasic__runTask+0x1426>
    36f0:	98 c0       	rjmp	.+304    	; 0x3822 <SchedulerBasicP__TaskBasic__runTask+0x1556>
    36f2:	dc c2       	rjmp	.+1464   	; 0x3cac <SchedulerBasicP__TaskBasic__runTask+0x19e0>
    36f4:	6f ef       	ldi	r22, 0xFF	; 255
    36f6:	8f ef       	ldi	r24, 0xFF	; 255
    36f8:	0e 94 b8 03 	call	0x770	; 0x770 <Enc28j60P__writeSPI>
    36fc:	8d e1       	ldi	r24, 0x1D	; 29
    36fe:	0e 94 ce 03 	call	0x79c	; 0x79c <Enc28j60P__readSPI>
    3702:	80 ff       	sbrs	r24, 0
    3704:	fb cf       	rjmp	.-10     	; 0x36fc <SchedulerBasicP__TaskBasic__runTask+0x1430>
    3706:	80 e0       	ldi	r24, 0x00	; 0
    3708:	0e 94 89 0b 	call	0x1712	; 0x1712 <Enc28j60P__setBank>
    370c:	60 e0       	ldi	r22, 0x00	; 0
    370e:	76 e0       	ldi	r23, 0x06	; 6
    3710:	88 e0       	ldi	r24, 0x08	; 8
    3712:	0e 94 fc 09 	call	0x13f8	; 0x13f8 <Enc28j60P__writeReg16>
    3716:	80 e0       	ldi	r24, 0x00	; 0
    3718:	96 e0       	ldi	r25, 0x06	; 6
    371a:	90 93 15 02 	sts	0x0215, r25
    371e:	80 93 14 02 	sts	0x0214, r24
    3722:	60 e0       	ldi	r22, 0x00	; 0
    3724:	76 e0       	ldi	r23, 0x06	; 6
    3726:	8c e0       	ldi	r24, 0x0C	; 12
    3728:	0e 94 fc 09 	call	0x13f8	; 0x13f8 <Enc28j60P__writeReg16>
    372c:	6f ef       	ldi	r22, 0xFF	; 255
    372e:	7f e1       	ldi	r23, 0x1F	; 31
    3730:	8a e0       	ldi	r24, 0x0A	; 10
    3732:	0e 94 fc 09 	call	0x13f8	; 0x13f8 <Enc28j60P__writeReg16>
    3736:	60 e0       	ldi	r22, 0x00	; 0
    3738:	70 e0       	ldi	r23, 0x00	; 0
    373a:	84 e0       	ldi	r24, 0x04	; 4
    373c:	0e 94 fc 09 	call	0x13f8	; 0x13f8 <Enc28j60P__writeReg16>
    3740:	60 e8       	ldi	r22, 0x80	; 128
    3742:	8e e5       	ldi	r24, 0x5E	; 94
    3744:	0e 94 b8 03 	call	0x770	; 0x770 <Enc28j60P__writeSPI>
    3748:	81 e0       	ldi	r24, 0x01	; 1
    374a:	0e 94 89 0b 	call	0x1712	; 0x1712 <Enc28j60P__setBank>
    374e:	61 ea       	ldi	r22, 0xA1	; 161
    3750:	88 e5       	ldi	r24, 0x58	; 88
    3752:	0e 94 b8 03 	call	0x770	; 0x770 <Enc28j60P__writeSPI>
    3756:	82 e0       	ldi	r24, 0x02	; 2
    3758:	0e 94 89 0b 	call	0x1712	; 0x1712 <Enc28j60P__setBank>
    375c:	60 e0       	ldi	r22, 0x00	; 0
    375e:	81 e4       	ldi	r24, 0x41	; 65
    3760:	0e 94 b8 03 	call	0x770	; 0x770 <Enc28j60P__writeSPI>
    3764:	61 e0       	ldi	r22, 0x01	; 1
    3766:	80 e4       	ldi	r24, 0x40	; 64
    3768:	0e 94 b8 03 	call	0x770	; 0x770 <Enc28j60P__writeSPI>
    376c:	63 e3       	ldi	r22, 0x33	; 51
    376e:	82 e4       	ldi	r24, 0x42	; 66
    3770:	0e 94 b8 03 	call	0x770	; 0x770 <Enc28j60P__writeSPI>
    3774:	60 e0       	ldi	r22, 0x00	; 0
    3776:	83 e4       	ldi	r24, 0x43	; 67
    3778:	0e 94 b8 03 	call	0x770	; 0x770 <Enc28j60P__writeSPI>
    377c:	6a e2       	ldi	r22, 0x2A	; 42
    377e:	72 e0       	ldi	r23, 0x02	; 2
    3780:	8a e0       	ldi	r24, 0x0A	; 10
    3782:	0e 94 fc 09 	call	0x13f8	; 0x13f8 <Enc28j60P__writeReg16>
    3786:	65 e1       	ldi	r22, 0x15	; 21
    3788:	84 e4       	ldi	r24, 0x44	; 68
    378a:	0e 94 b8 03 	call	0x770	; 0x770 <Enc28j60P__writeSPI>
    378e:	90 91 28 02 	lds	r25, 0x0228
    3792:	80 91 29 02 	lds	r24, 0x0229
    3796:	90 93 1b 02 	sts	0x021B, r25
    379a:	80 93 1a 02 	sts	0x021A, r24
    379e:	83 e0       	ldi	r24, 0x03	; 3
    37a0:	0e 94 89 0b 	call	0x1712	; 0x1712 <Enc28j60P__setBank>
    37a4:	60 91 1b 02 	lds	r22, 0x021B
    37a8:	81 e4       	ldi	r24, 0x41	; 65
    37aa:	0e 94 b8 03 	call	0x770	; 0x770 <Enc28j60P__writeSPI>
    37ae:	60 91 1a 02 	lds	r22, 0x021A
    37b2:	80 e4       	ldi	r24, 0x40	; 64
    37b4:	0e 94 b8 03 	call	0x770	; 0x770 <Enc28j60P__writeSPI>
    37b8:	60 91 19 02 	lds	r22, 0x0219
    37bc:	83 e4       	ldi	r24, 0x43	; 67
    37be:	0e 94 b8 03 	call	0x770	; 0x770 <Enc28j60P__writeSPI>
    37c2:	60 91 18 02 	lds	r22, 0x0218
    37c6:	82 e4       	ldi	r24, 0x42	; 66
    37c8:	0e 94 b8 03 	call	0x770	; 0x770 <Enc28j60P__writeSPI>
    37cc:	60 91 17 02 	lds	r22, 0x0217
    37d0:	85 e4       	ldi	r24, 0x45	; 69
    37d2:	0e 94 b8 03 	call	0x770	; 0x770 <Enc28j60P__writeSPI>
    37d6:	60 91 16 02 	lds	r22, 0x0216
    37da:	84 e4       	ldi	r24, 0x44	; 68
    37dc:	0e 94 b8 03 	call	0x770	; 0x770 <Enc28j60P__writeSPI>
    37e0:	82 e0       	ldi	r24, 0x02	; 2
    37e2:	0e 94 89 0b 	call	0x1712	; 0x1712 <Enc28j60P__setBank>
    37e6:	64 e1       	ldi	r22, 0x14	; 20
    37e8:	84 e5       	ldi	r24, 0x54	; 84
    37ea:	0e 94 b8 03 	call	0x770	; 0x770 <Enc28j60P__writeSPI>
    37ee:	60 e4       	ldi	r22, 0x40	; 64
    37f0:	71 e0       	ldi	r23, 0x01	; 1
    37f2:	86 e1       	ldi	r24, 0x16	; 22
    37f4:	0e 94 fc 09 	call	0x13f8	; 0x13f8 <Enc28j60P__writeReg16>
    37f8:	62 e1       	ldi	r22, 0x12	; 18
    37fa:	84 e5       	ldi	r24, 0x54	; 84
    37fc:	0e 94 b8 03 	call	0x770	; 0x770 <Enc28j60P__writeSPI>
    3800:	62 e1       	ldi	r22, 0x12	; 18
    3802:	70 e0       	ldi	r23, 0x00	; 0
    3804:	86 e1       	ldi	r24, 0x16	; 22
    3806:	0e 94 fc 09 	call	0x13f8	; 0x13f8 <Enc28j60P__writeReg16>
    380a:	60 ed       	ldi	r22, 0xD0	; 208
    380c:	8b e5       	ldi	r24, 0x5B	; 91
    380e:	0e 94 b8 03 	call	0x770	; 0x770 <Enc28j60P__writeSPI>
    3812:	64 e0       	ldi	r22, 0x04	; 4
    3814:	8f e1       	ldi	r24, 0x1F	; 31
    3816:	0e 94 e4 03 	call	0x7c8	; 0x7c8 <Enc28j60P__setBit>
    381a:	82 e0       	ldi	r24, 0x02	; 2
    381c:	80 93 99 02 	sts	0x0299, r24
    3820:	45 c2       	rjmp	.+1162   	; 0x3cac <SchedulerBasicP__TaskBasic__runTask+0x19e0>
    3822:	80 91 96 02 	lds	r24, 0x0296
    3826:	88 23       	and	r24, r24
    3828:	09 f4       	brne	.+2      	; 0x382c <SchedulerBasicP__TaskBasic__runTask+0x1560>
    382a:	3f c0       	rjmp	.+126    	; 0x38aa <SchedulerBasicP__TaskBasic__runTask+0x15de>
    382c:	10 92 96 02 	sts	0x0296, r1
    3830:	8c e1       	ldi	r24, 0x1C	; 28
    3832:	0e 94 ce 03 	call	0x79c	; 0x79c <Enc28j60P__readSPI>
    3836:	18 2f       	mov	r17, r24
    3838:	84 ff       	sbrs	r24, 4
    383a:	20 c0       	rjmp	.+64     	; 0x387c <SchedulerBasicP__TaskBasic__runTask+0x15b0>
    383c:	82 e0       	ldi	r24, 0x02	; 2
    383e:	0e 94 89 0b 	call	0x1712	; 0x1712 <Enc28j60P__setBank>
    3842:	63 e1       	ldi	r22, 0x13	; 19
    3844:	84 e5       	ldi	r24, 0x54	; 84
    3846:	0e 94 b8 03 	call	0x770	; 0x770 <Enc28j60P__writeSPI>
    384a:	61 e0       	ldi	r22, 0x01	; 1
    384c:	82 e5       	ldi	r24, 0x52	; 82
    384e:	0e 94 b8 03 	call	0x770	; 0x770 <Enc28j60P__writeSPI>
    3852:	83 e0       	ldi	r24, 0x03	; 3
    3854:	0e 94 89 0b 	call	0x1712	; 0x1712 <Enc28j60P__setBank>
    3858:	8a e0       	ldi	r24, 0x0A	; 10
    385a:	0e 94 f5 27 	call	0x4fea	; 0x4fea <Enc28j60P__readRegM>
    385e:	80 fd       	sbrc	r24, 0
    3860:	fb cf       	rjmp	.-10     	; 0x3858 <SchedulerBasicP__TaskBasic__runTask+0x158c>
    3862:	82 e0       	ldi	r24, 0x02	; 2
    3864:	0e 94 89 0b 	call	0x1712	; 0x1712 <Enc28j60P__setBank>
    3868:	60 e0       	ldi	r22, 0x00	; 0
    386a:	82 e5       	ldi	r24, 0x52	; 82
    386c:	0e 94 b8 03 	call	0x770	; 0x770 <Enc28j60P__writeSPI>
    3870:	88 e1       	ldi	r24, 0x18	; 24
    3872:	0e 94 f5 27 	call	0x4fea	; 0x4fea <Enc28j60P__readRegM>
    3876:	89 e1       	ldi	r24, 0x19	; 25
    3878:	0e 94 f5 27 	call	0x4fea	; 0x4fea <Enc28j60P__readRegM>
    387c:	81 e0       	ldi	r24, 0x01	; 1
    387e:	0e 94 89 0b 	call	0x1712	; 0x1712 <Enc28j60P__setBank>
    3882:	89 e1       	ldi	r24, 0x19	; 25
    3884:	0e 94 ce 03 	call	0x79c	; 0x79c <Enc28j60P__readSPI>
    3888:	88 23       	and	r24, r24
    388a:	19 f0       	breq	.+6      	; 0x3892 <SchedulerBasicP__TaskBasic__runTask+0x15c6>
    388c:	81 e0       	ldi	r24, 0x01	; 1
    388e:	80 93 97 02 	sts	0x0297, r24
    3892:	10 ff       	sbrs	r17, 0
    3894:	0a c0       	rjmp	.+20     	; 0x38aa <SchedulerBasicP__TaskBasic__runTask+0x15de>
    3896:	0e 94 07 03 	call	0x60e	; 0x60e <HplAtm128GeneralIOPinP__8__IO__clr>
    389a:	8c eb       	ldi	r24, 0xBC	; 188
    389c:	0e 94 b6 03 	call	0x76c	; 0x76c <Enc28j60P__SpiByte__write>
    38a0:	81 e0       	ldi	r24, 0x01	; 1
    38a2:	0e 94 b6 03 	call	0x76c	; 0x76c <Enc28j60P__SpiByte__write>
    38a6:	0e 94 05 03 	call	0x60a	; 0x60a <HplAtm128GeneralIOPinP__8__IO__set>
    38aa:	80 91 98 02 	lds	r24, 0x0298
    38ae:	81 30       	cpi	r24, 0x01	; 1
    38b0:	e1 f5       	brne	.+120    	; 0x392a <SchedulerBasicP__TaskBasic__runTask+0x165e>
    38b2:	80 e0       	ldi	r24, 0x00	; 0
    38b4:	0e 94 89 0b 	call	0x1712	; 0x1712 <Enc28j60P__setBank>
    38b8:	60 e0       	ldi	r22, 0x00	; 0
    38ba:	70 e0       	ldi	r23, 0x00	; 0
    38bc:	82 e0       	ldi	r24, 0x02	; 2
    38be:	0e 94 fc 09 	call	0x13f8	; 0x13f8 <Enc28j60P__writeReg16>
    38c2:	60 e0       	ldi	r22, 0x00	; 0
    38c4:	8a e7       	ldi	r24, 0x7A	; 122
    38c6:	0e 94 b8 03 	call	0x770	; 0x770 <Enc28j60P__writeSPI>
    38ca:	00 e0       	ldi	r16, 0x00	; 0
    38cc:	10 e0       	ldi	r17, 0x00	; 0
    38ce:	60 91 98 0c 	lds	r22, 0x0C98
    38d2:	70 91 99 0c 	lds	r23, 0x0C99
    38d6:	06 17       	cp	r16, r22
    38d8:	17 07       	cpc	r17, r23
    38da:	68 f4       	brcc	.+26     	; 0x38f6 <SchedulerBasicP__TaskBasic__runTask+0x162a>
    38dc:	e0 91 03 12 	lds	r30, 0x1203
    38e0:	f0 91 04 12 	lds	r31, 0x1204
    38e4:	e0 0f       	add	r30, r16
    38e6:	f1 1f       	adc	r31, r17
    38e8:	60 81       	ld	r22, Z
    38ea:	8a e7       	ldi	r24, 0x7A	; 122
    38ec:	0e 94 b8 03 	call	0x770	; 0x770 <Enc28j60P__writeSPI>
    38f0:	0f 5f       	subi	r16, 0xFF	; 255
    38f2:	1f 4f       	sbci	r17, 0xFF	; 255
    38f4:	ec cf       	rjmp	.-40     	; 0x38ce <SchedulerBasicP__TaskBasic__runTask+0x1602>
    38f6:	86 e0       	ldi	r24, 0x06	; 6
    38f8:	0e 94 fc 09 	call	0x13f8	; 0x13f8 <Enc28j60P__writeReg16>
    38fc:	68 e0       	ldi	r22, 0x08	; 8
    38fe:	8f e1       	ldi	r24, 0x1F	; 31
    3900:	0e 94 e4 03 	call	0x7c8	; 0x7c8 <Enc28j60P__setBit>
    3904:	10 92 98 02 	sts	0x0298, r1
    3908:	10 92 a4 02 	sts	0x02A4, r1
    390c:	80 91 a5 02 	lds	r24, 0x02A5
    3910:	3d e0       	ldi	r19, 0x0D	; 13
    3912:	83 9f       	mul	r24, r19
    3914:	f0 01       	movw	r30, r0
    3916:	11 24       	eor	r1, r1
    3918:	e3 5b       	subi	r30, 0xB3	; 179
    391a:	f3 4f       	sbci	r31, 0xF3	; 243
    391c:	10 82       	st	Z, r1
    391e:	60 e0       	ldi	r22, 0x00	; 0
    3920:	0e 94 71 0b 	call	0x16e2	; 0x16e2 <LlcQueueP__LlcQueue__sendDone>
    3924:	80 e1       	ldi	r24, 0x10	; 16
    3926:	0e 94 1f 03 	call	0x63e	; 0x63e <SchedulerBasicP__TaskBasic__postTask>
    392a:	80 91 97 02 	lds	r24, 0x0297
    392e:	81 30       	cpi	r24, 0x01	; 1
    3930:	09 f0       	breq	.+2      	; 0x3934 <SchedulerBasicP__TaskBasic__runTask+0x1668>
    3932:	bc c1       	rjmp	.+888    	; 0x3cac <SchedulerBasicP__TaskBasic__runTask+0x19e0>
    3934:	80 e0       	ldi	r24, 0x00	; 0
    3936:	0e 94 89 0b 	call	0x1712	; 0x1712 <Enc28j60P__setBank>
    393a:	60 91 14 02 	lds	r22, 0x0214
    393e:	70 91 15 02 	lds	r23, 0x0215
    3942:	80 e0       	ldi	r24, 0x00	; 0
    3944:	0e 94 fc 09 	call	0x13f8	; 0x13f8 <Enc28j60P__writeReg16>
    3948:	8a e3       	ldi	r24, 0x3A	; 58
    394a:	0e 94 ce 03 	call	0x79c	; 0x79c <Enc28j60P__readSPI>
    394e:	90 e0       	ldi	r25, 0x00	; 0
    3950:	90 93 15 02 	sts	0x0215, r25
    3954:	80 93 14 02 	sts	0x0214, r24
    3958:	8a e3       	ldi	r24, 0x3A	; 58
    395a:	0e 94 ce 03 	call	0x79c	; 0x79c <Enc28j60P__readSPI>
    395e:	20 91 14 02 	lds	r18, 0x0214
    3962:	30 91 15 02 	lds	r19, 0x0215
    3966:	38 2b       	or	r19, r24
    3968:	30 93 15 02 	sts	0x0215, r19
    396c:	20 93 14 02 	sts	0x0214, r18
    3970:	8a e3       	ldi	r24, 0x3A	; 58
    3972:	0e 94 ce 03 	call	0x79c	; 0x79c <Enc28j60P__readSPI>
    3976:	08 2f       	mov	r16, r24
    3978:	10 e0       	ldi	r17, 0x00	; 0
    397a:	8a e3       	ldi	r24, 0x3A	; 58
    397c:	0e 94 ce 03 	call	0x79c	; 0x79c <Enc28j60P__readSPI>
    3980:	18 2b       	or	r17, r24
    3982:	8a e3       	ldi	r24, 0x3A	; 58
    3984:	0e 94 ce 03 	call	0x79c	; 0x79c <Enc28j60P__readSPI>
    3988:	8a e3       	ldi	r24, 0x3A	; 58
    398a:	0e 94 ce 03 	call	0x79c	; 0x79c <Enc28j60P__readSPI>
    398e:	c8 01       	movw	r24, r16
    3990:	0f 97       	sbiw	r24, 0x0f	; 15
    3992:	8b 31       	cpi	r24, 0x1B	; 27
    3994:	92 40       	sbci	r25, 0x02	; 2
    3996:	90 f4       	brcc	.+36     	; 0x39bc <SchedulerBasicP__TaskBasic__runTask+0x16f0>
    3998:	48 ed       	ldi	r20, 0xD8	; 216
    399a:	e4 2e       	mov	r14, r20
    399c:	47 e0       	ldi	r20, 0x07	; 7
    399e:	f4 2e       	mov	r15, r20
    39a0:	8a e3       	ldi	r24, 0x3A	; 58
    39a2:	0e 94 ce 03 	call	0x79c	; 0x79c <Enc28j60P__readSPI>
    39a6:	d7 01       	movw	r26, r14
    39a8:	8d 93       	st	X+, r24
    39aa:	7d 01       	movw	r14, r26
    39ac:	cd 01       	movw	r24, r26
    39ae:	88 5d       	subi	r24, 0xD8	; 216
    39b0:	97 40       	sbci	r25, 0x07	; 7
    39b2:	80 17       	cp	r24, r16
    39b4:	91 07       	cpc	r25, r17
    39b6:	a0 f3       	brcs	.-24     	; 0x39a0 <SchedulerBasicP__TaskBasic__runTask+0x16d4>
    39b8:	10 e0       	ldi	r17, 0x00	; 0
    39ba:	01 c0       	rjmp	.+2      	; 0x39be <SchedulerBasicP__TaskBasic__runTask+0x16f2>
    39bc:	11 e0       	ldi	r17, 0x01	; 1
    39be:	60 91 14 02 	lds	r22, 0x0214
    39c2:	70 91 15 02 	lds	r23, 0x0215
    39c6:	8c e0       	ldi	r24, 0x0C	; 12
    39c8:	0e 94 fc 09 	call	0x13f8	; 0x13f8 <Enc28j60P__writeReg16>
    39cc:	60 e4       	ldi	r22, 0x40	; 64
    39ce:	8e e1       	ldi	r24, 0x1E	; 30
    39d0:	0e 94 e4 03 	call	0x7c8	; 0x7c8 <Enc28j60P__setBit>
    39d4:	10 92 97 02 	sts	0x0297, r1
    39d8:	11 11       	cpse	r17, r1
    39da:	68 c1       	rjmp	.+720    	; 0x3cac <SchedulerBasicP__TaskBasic__runTask+0x19e0>
    39dc:	80 91 e4 07 	lds	r24, 0x07E4
    39e0:	90 e0       	ldi	r25, 0x00	; 0
    39e2:	98 2f       	mov	r25, r24
    39e4:	88 27       	eor	r24, r24
    39e6:	20 91 e5 07 	lds	r18, 0x07E5
    39ea:	82 2b       	or	r24, r18
    39ec:	81 15       	cp	r24, r1
    39ee:	b8 e0       	ldi	r27, 0x08	; 8
    39f0:	9b 07       	cpc	r25, r27
    39f2:	29 f0       	breq	.+10     	; 0x39fe <SchedulerBasicP__TaskBasic__runTask+0x1732>
    39f4:	86 30       	cpi	r24, 0x06	; 6
    39f6:	98 40       	sbci	r25, 0x08	; 8
    39f8:	09 f4       	brne	.+2      	; 0x39fc <SchedulerBasicP__TaskBasic__runTask+0x1730>
    39fa:	f7 c0       	rjmp	.+494    	; 0x3bea <SchedulerBasicP__TaskBasic__runTask+0x191e>
    39fc:	57 c1       	rjmp	.+686    	; 0x3cac <SchedulerBasicP__TaskBasic__runTask+0x19e0>
    39fe:	86 ee       	ldi	r24, 0xE6	; 230
    3a00:	97 e0       	ldi	r25, 0x07	; 7
    3a02:	90 93 67 12 	sts	0x1267, r25
    3a06:	80 93 66 12 	sts	0x1266, r24
    3a0a:	80 91 f6 07 	lds	r24, 0x07F6
    3a0e:	90 91 f7 07 	lds	r25, 0x07F7
    3a12:	a0 91 f8 07 	lds	r26, 0x07F8
    3a16:	b0 91 f9 07 	lds	r27, 0x07F9
    3a1a:	00 91 24 02 	lds	r16, 0x0224
    3a1e:	10 91 25 02 	lds	r17, 0x0225
    3a22:	20 91 26 02 	lds	r18, 0x0226
    3a26:	30 91 27 02 	lds	r19, 0x0227
    3a2a:	80 17       	cp	r24, r16
    3a2c:	91 07       	cpc	r25, r17
    3a2e:	a2 07       	cpc	r26, r18
    3a30:	b3 07       	cpc	r27, r19
    3a32:	39 f1       	breq	.+78     	; 0x3a82 <SchedulerBasicP__TaskBasic__runTask+0x17b6>
    3a34:	40 91 1c 02 	lds	r20, 0x021C
    3a38:	50 91 1d 02 	lds	r21, 0x021D
    3a3c:	60 91 1e 02 	lds	r22, 0x021E
    3a40:	70 91 1f 02 	lds	r23, 0x021F
    3a44:	6a 01       	movw	r12, r20
    3a46:	7b 01       	movw	r14, r22
    3a48:	c0 94       	com	r12
    3a4a:	d0 94       	com	r13
    3a4c:	e0 94       	com	r14
    3a4e:	f0 94       	com	r15
    3a50:	46 01       	movw	r8, r12
    3a52:	57 01       	movw	r10, r14
    3a54:	88 22       	and	r8, r24
    3a56:	99 22       	and	r9, r25
    3a58:	aa 22       	and	r10, r26
    3a5a:	bb 22       	and	r11, r27
    3a5c:	8c 14       	cp	r8, r12
    3a5e:	9d 04       	cpc	r9, r13
    3a60:	ae 04       	cpc	r10, r14
    3a62:	bf 04       	cpc	r11, r15
    3a64:	09 f0       	breq	.+2      	; 0x3a68 <SchedulerBasicP__TaskBasic__runTask+0x179c>
    3a66:	22 c1       	rjmp	.+580    	; 0x3cac <SchedulerBasicP__TaskBasic__runTask+0x19e0>
    3a68:	80 27       	eor	r24, r16
    3a6a:	91 27       	eor	r25, r17
    3a6c:	a2 27       	eor	r26, r18
    3a6e:	b3 27       	eor	r27, r19
    3a70:	84 23       	and	r24, r20
    3a72:	95 23       	and	r25, r21
    3a74:	a6 23       	and	r26, r22
    3a76:	b7 23       	and	r27, r23
    3a78:	89 2b       	or	r24, r25
    3a7a:	8a 2b       	or	r24, r26
    3a7c:	8b 2b       	or	r24, r27
    3a7e:	09 f0       	breq	.+2      	; 0x3a82 <SchedulerBasicP__TaskBasic__runTask+0x17b6>
    3a80:	15 c1       	rjmp	.+554    	; 0x3cac <SchedulerBasicP__TaskBasic__runTask+0x19e0>
    3a82:	80 91 e8 07 	lds	r24, 0x07E8
    3a86:	90 e0       	ldi	r25, 0x00	; 0
    3a88:	98 2f       	mov	r25, r24
    3a8a:	88 27       	eor	r24, r24
    3a8c:	20 91 e9 07 	lds	r18, 0x07E9
    3a90:	82 2b       	or	r24, r18
    3a92:	20 91 ef 07 	lds	r18, 0x07EF
    3a96:	21 30       	cpi	r18, 0x01	; 1
    3a98:	21 f0       	breq	.+8      	; 0x3aa2 <SchedulerBasicP__TaskBasic__runTask+0x17d6>
    3a9a:	21 31       	cpi	r18, 0x11	; 17
    3a9c:	09 f4       	brne	.+2      	; 0x3aa0 <SchedulerBasicP__TaskBasic__runTask+0x17d4>
    3a9e:	41 c0       	rjmp	.+130    	; 0x3b22 <SchedulerBasicP__TaskBasic__runTask+0x1856>
    3aa0:	05 c1       	rjmp	.+522    	; 0x3cac <SchedulerBasicP__TaskBasic__runTask+0x19e0>
    3aa2:	48 97       	sbiw	r24, 0x18	; 24
    3aa4:	60 91 fb 07 	lds	r22, 0x07FB
    3aa8:	30 91 fa 07 	lds	r19, 0x07FA
    3aac:	38 30       	cpi	r19, 0x08	; 8
    3aae:	09 f0       	breq	.+2      	; 0x3ab2 <SchedulerBasicP__TaskBasic__runTask+0x17e6>
    3ab0:	fd c0       	rjmp	.+506    	; 0x3cac <SchedulerBasicP__TaskBasic__runTask+0x19e0>
    3ab2:	c0 90 f2 07 	lds	r12, 0x07F2
    3ab6:	d0 90 f3 07 	lds	r13, 0x07F3
    3aba:	e0 90 f4 07 	lds	r14, 0x07F4
    3abe:	f0 90 f5 07 	lds	r15, 0x07F5
    3ac2:	34 e6       	ldi	r19, 0x64	; 100
    3ac4:	ae 01       	movw	r20, r28
    3ac6:	4f 5f       	subi	r20, 0xFF	; 255
    3ac8:	5f 4f       	sbci	r21, 0xFF	; 255
    3aca:	da 01       	movw	r26, r20
    3acc:	e3 2f       	mov	r30, r19
    3ace:	1d 92       	st	X+, r1
    3ad0:	ea 95       	dec	r30
    3ad2:	e9 f7       	brne	.-6      	; 0x3ace <SchedulerBasicP__TaskBasic__runTask+0x1802>
    3ad4:	ee ef       	ldi	r30, 0xFE	; 254
    3ad6:	f7 e0       	ldi	r31, 0x07	; 7
    3ad8:	da 01       	movw	r26, r20
    3ada:	01 90       	ld	r0, Z+
    3adc:	0d 92       	st	X+, r0
    3ade:	3a 95       	dec	r19
    3ae0:	e1 f7       	brne	.-8      	; 0x3ada <SchedulerBasicP__TaskBasic__runTask+0x180e>
    3ae2:	30 91 ed 11 	lds	r19, 0x11ED
    3ae6:	31 11       	cpse	r19, r1
    3ae8:	e1 c0       	rjmp	.+450    	; 0x3cac <SchedulerBasicP__TaskBasic__runTask+0x19e0>
    3aea:	ee ee       	ldi	r30, 0xEE	; 238
    3aec:	f1 e1       	ldi	r31, 0x11	; 17
    3aee:	ef 2b       	or	r30, r31
    3af0:	09 f4       	brne	.+2      	; 0x3af4 <SchedulerBasicP__TaskBasic__runTask+0x1828>
    3af2:	dc c0       	rjmp	.+440    	; 0x3cac <SchedulerBasicP__TaskBasic__runTask+0x19e0>
    3af4:	50 93 f5 11 	sts	0x11F5, r21
    3af8:	40 93 f4 11 	sts	0x11F4, r20
    3afc:	c0 92 ee 11 	sts	0x11EE, r12
    3b00:	d0 92 ef 11 	sts	0x11EF, r13
    3b04:	e0 92 f0 11 	sts	0x11F0, r14
    3b08:	f0 92 f1 11 	sts	0x11F1, r15
    3b0c:	10 92 f2 11 	sts	0x11F2, r1
    3b10:	60 93 f3 11 	sts	0x11F3, r22
    3b14:	90 93 f7 11 	sts	0x11F7, r25
    3b18:	80 93 f6 11 	sts	0x11F6, r24
    3b1c:	20 93 ed 11 	sts	0x11ED, r18
    3b20:	60 c0       	rjmp	.+192    	; 0x3be2 <SchedulerBasicP__TaskBasic__runTask+0x1916>
    3b22:	40 91 fe 07 	lds	r20, 0x07FE
    3b26:	50 e0       	ldi	r21, 0x00	; 0
    3b28:	54 2f       	mov	r21, r20
    3b2a:	44 27       	eor	r20, r20
    3b2c:	80 91 ff 07 	lds	r24, 0x07FF
    3b30:	48 2b       	or	r20, r24
    3b32:	48 50       	subi	r20, 0x08	; 8
    3b34:	51 09       	sbc	r21, r1
    3b36:	80 91 fc 07 	lds	r24, 0x07FC
    3b3a:	90 e0       	ldi	r25, 0x00	; 0
    3b3c:	98 2f       	mov	r25, r24
    3b3e:	88 27       	eor	r24, r24
    3b40:	20 91 fd 07 	lds	r18, 0x07FD
    3b44:	82 2b       	or	r24, r18
    3b46:	80 35       	cpi	r24, 0x50	; 80
    3b48:	93 4c       	sbci	r25, 0xC3	; 195
    3b4a:	99 f4       	brne	.+38     	; 0x3b72 <SchedulerBasicP__TaskBasic__runTask+0x18a6>
    3b4c:	8a 01       	movw	r16, r20
    3b4e:	41 38       	cpi	r20, 0x81	; 129
    3b50:	51 05       	cpc	r21, r1
    3b52:	10 f0       	brcs	.+4      	; 0x3b58 <SchedulerBasicP__TaskBasic__runTask+0x188c>
    3b54:	00 e8       	ldi	r16, 0x80	; 128
    3b56:	10 e0       	ldi	r17, 0x00	; 0
    3b58:	a8 01       	movw	r20, r16
    3b5a:	62 e0       	ldi	r22, 0x02	; 2
    3b5c:	78 e0       	ldi	r23, 0x08	; 8
    3b5e:	82 e4       	ldi	r24, 0x42	; 66
    3b60:	93 e0       	ldi	r25, 0x03	; 3
    3b62:	0e 94 34 2d 	call	0x5a68	; 0x5a68 <memcpy>
    3b66:	10 93 41 03 	sts	0x0341, r17
    3b6a:	00 93 40 03 	sts	0x0340, r16
    3b6e:	8e e0       	ldi	r24, 0x0E	; 14
    3b70:	39 c0       	rjmp	.+114    	; 0x3be4 <SchedulerBasicP__TaskBasic__runTask+0x1918>
    3b72:	c0 90 f2 07 	lds	r12, 0x07F2
    3b76:	d0 90 f3 07 	lds	r13, 0x07F3
    3b7a:	e0 90 f4 07 	lds	r14, 0x07F4
    3b7e:	f0 90 f5 07 	lds	r15, 0x07F5
    3b82:	24 e6       	ldi	r18, 0x64	; 100
    3b84:	ce 01       	movw	r24, r28
    3b86:	01 96       	adiw	r24, 0x01	; 1
    3b88:	dc 01       	movw	r26, r24
    3b8a:	e2 2f       	mov	r30, r18
    3b8c:	1d 92       	st	X+, r1
    3b8e:	ea 95       	dec	r30
    3b90:	e9 f7       	brne	.-6      	; 0x3b8c <SchedulerBasicP__TaskBasic__runTask+0x18c0>
    3b92:	e2 e0       	ldi	r30, 0x02	; 2
    3b94:	f8 e0       	ldi	r31, 0x08	; 8
    3b96:	dc 01       	movw	r26, r24
    3b98:	01 90       	ld	r0, Z+
    3b9a:	0d 92       	st	X+, r0
    3b9c:	2a 95       	dec	r18
    3b9e:	e1 f7       	brne	.-8      	; 0x3b98 <SchedulerBasicP__TaskBasic__runTask+0x18cc>
    3ba0:	20 91 f8 11 	lds	r18, 0x11F8
    3ba4:	21 11       	cpse	r18, r1
    3ba6:	82 c0       	rjmp	.+260    	; 0x3cac <SchedulerBasicP__TaskBasic__runTask+0x19e0>
    3ba8:	29 ef       	ldi	r18, 0xF9	; 249
    3baa:	31 e1       	ldi	r19, 0x11	; 17
    3bac:	23 2b       	or	r18, r19
    3bae:	09 f4       	brne	.+2      	; 0x3bb2 <SchedulerBasicP__TaskBasic__runTask+0x18e6>
    3bb0:	7d c0       	rjmp	.+250    	; 0x3cac <SchedulerBasicP__TaskBasic__runTask+0x19e0>
    3bb2:	90 93 00 12 	sts	0x1200, r25
    3bb6:	80 93 ff 11 	sts	0x11FF, r24
    3bba:	c0 92 f9 11 	sts	0x11F9, r12
    3bbe:	d0 92 fa 11 	sts	0x11FA, r13
    3bc2:	e0 92 fb 11 	sts	0x11FB, r14
    3bc6:	f0 92 fc 11 	sts	0x11FC, r15
    3bca:	83 e0       	ldi	r24, 0x03	; 3
    3bcc:	80 93 fd 11 	sts	0x11FD, r24
    3bd0:	80 93 fe 11 	sts	0x11FE, r24
    3bd4:	50 93 02 12 	sts	0x1202, r21
    3bd8:	40 93 01 12 	sts	0x1201, r20
    3bdc:	81 e0       	ldi	r24, 0x01	; 1
    3bde:	80 93 f8 11 	sts	0x11F8, r24
    3be2:	85 e1       	ldi	r24, 0x15	; 21
    3be4:	0e 94 1f 03 	call	0x63e	; 0x63e <SchedulerBasicP__TaskBasic__postTask>
    3be8:	61 c0       	rjmp	.+194    	; 0x3cac <SchedulerBasicP__TaskBasic__runTask+0x19e0>
    3bea:	80 91 ec 07 	lds	r24, 0x07EC
    3bee:	90 e0       	ldi	r25, 0x00	; 0
    3bf0:	98 2f       	mov	r25, r24
    3bf2:	88 27       	eor	r24, r24
    3bf4:	20 91 ed 07 	lds	r18, 0x07ED
    3bf8:	82 2b       	or	r24, r18
    3bfa:	81 30       	cpi	r24, 0x01	; 1
    3bfc:	91 05       	cpc	r25, r1
    3bfe:	19 f0       	breq	.+6      	; 0x3c06 <SchedulerBasicP__TaskBasic__runTask+0x193a>
    3c00:	02 97       	sbiw	r24, 0x02	; 2
    3c02:	f1 f0       	breq	.+60     	; 0x3c40 <SchedulerBasicP__TaskBasic__runTask+0x1974>
    3c04:	53 c0       	rjmp	.+166    	; 0x3cac <SchedulerBasicP__TaskBasic__runTask+0x19e0>
    3c06:	40 91 24 02 	lds	r20, 0x0224
    3c0a:	50 91 25 02 	lds	r21, 0x0225
    3c0e:	60 91 26 02 	lds	r22, 0x0226
    3c12:	70 91 27 02 	lds	r23, 0x0227
    3c16:	80 91 fe 07 	lds	r24, 0x07FE
    3c1a:	90 91 ff 07 	lds	r25, 0x07FF
    3c1e:	a0 91 00 08 	lds	r26, 0x0800
    3c22:	b0 91 01 08 	lds	r27, 0x0801
    3c26:	48 17       	cp	r20, r24
    3c28:	59 07       	cpc	r21, r25
    3c2a:	6a 07       	cpc	r22, r26
    3c2c:	7b 07       	cpc	r23, r27
    3c2e:	f1 f5       	brne	.+124    	; 0x3cac <SchedulerBasicP__TaskBasic__runTask+0x19e0>
    3c30:	44 ef       	ldi	r20, 0xF4	; 244
    3c32:	57 e0       	ldi	r21, 0x07	; 7
    3c34:	6e ee       	ldi	r22, 0xEE	; 238
    3c36:	77 e0       	ldi	r23, 0x07	; 7
    3c38:	82 e0       	ldi	r24, 0x02	; 2
    3c3a:	0e 94 fb 03 	call	0x7f6	; 0x7f6 <ArpP__send_packet>
    3c3e:	36 c0       	rjmp	.+108    	; 0x3cac <SchedulerBasicP__TaskBasic__runTask+0x19e0>
    3c40:	80 91 a0 02 	lds	r24, 0x02A0
    3c44:	81 30       	cpi	r24, 0x01	; 1
    3c46:	91 f5       	brne	.+100    	; 0x3cac <SchedulerBasicP__TaskBasic__runTask+0x19e0>
    3c48:	80 91 a2 02 	lds	r24, 0x02A2
    3c4c:	fa e0       	ldi	r31, 0x0A	; 10
    3c4e:	8f 9f       	mul	r24, r31
    3c50:	c0 01       	movw	r24, r0
    3c52:	11 24       	eor	r1, r1
    3c54:	fc 01       	movw	r30, r24
    3c56:	ef 52       	subi	r30, 0x2F	; 47
    3c58:	fd 4e       	sbci	r31, 0xED	; 237
    3c5a:	40 91 f4 07 	lds	r20, 0x07F4
    3c5e:	50 91 f5 07 	lds	r21, 0x07F5
    3c62:	60 91 f6 07 	lds	r22, 0x07F6
    3c66:	70 91 f7 07 	lds	r23, 0x07F7
    3c6a:	40 83       	st	Z, r20
    3c6c:	51 83       	std	Z+1, r21	; 0x01
    3c6e:	62 83       	std	Z+2, r22	; 0x02
    3c70:	73 83       	std	Z+3, r23	; 0x03
    3c72:	dc 01       	movw	r26, r24
    3c74:	ab 52       	subi	r26, 0x2B	; 43
    3c76:	bd 4e       	sbci	r27, 0xED	; 237
    3c78:	26 e0       	ldi	r18, 0x06	; 6
    3c7a:	ee ee       	ldi	r30, 0xEE	; 238
    3c7c:	f7 e0       	ldi	r31, 0x07	; 7
    3c7e:	01 90       	ld	r0, Z+
    3c80:	0d 92       	st	X+, r0
    3c82:	2a 95       	dec	r18
    3c84:	e1 f7       	brne	.-8      	; 0x3c7e <SchedulerBasicP__TaskBasic__runTask+0x19b2>
    3c86:	20 91 ae 11 	lds	r18, 0x11AE
    3c8a:	2d 7f       	andi	r18, 0xFD	; 253
    3c8c:	20 93 ae 11 	sts	0x11AE, r18
    3c90:	10 92 a0 02 	sts	0x02A0, r1
    3c94:	8b 52       	subi	r24, 0x2B	; 43
    3c96:	9d 4e       	sbci	r25, 0xED	; 237
    3c98:	0e 94 a0 0b 	call	0x1740	; 0x1740 <IpTransceiverP__Arp__resolved>
    3c9c:	80 91 a2 02 	lds	r24, 0x02A2
    3ca0:	90 e0       	ldi	r25, 0x00	; 0
    3ca2:	01 96       	adiw	r24, 0x01	; 1
    3ca4:	83 70       	andi	r24, 0x03	; 3
    3ca6:	99 27       	eor	r25, r25
    3ca8:	80 93 a2 02 	sts	0x02A2, r24
    3cac:	1f b7       	in	r17, 0x3f	; 63
    3cae:	f8 94       	cli
    3cb0:	80 91 95 02 	lds	r24, 0x0295
    3cb4:	82 30       	cpi	r24, 0x02	; 2
    3cb6:	11 f5       	brne	.+68     	; 0x3cfc <SchedulerBasicP__TaskBasic__runTask+0x1a30>
    3cb8:	80 91 11 02 	lds	r24, 0x0211
    3cbc:	81 11       	cpse	r24, r1
    3cbe:	1e c0       	rjmp	.+60     	; 0x3cfc <SchedulerBasicP__TaskBasic__runTask+0x1a30>
    3cc0:	80 91 13 02 	lds	r24, 0x0213
    3cc4:	8f 3f       	cpi	r24, 0xFF	; 255
    3cc6:	b1 f0       	breq	.+44     	; 0x3cf4 <SchedulerBasicP__TaskBasic__runTask+0x1a28>
    3cc8:	e8 2f       	mov	r30, r24
    3cca:	f0 e0       	ldi	r31, 0x00	; 0
    3ccc:	e6 56       	subi	r30, 0x66	; 102
    3cce:	f3 4f       	sbci	r31, 0xF3	; 243
    3cd0:	90 81       	ld	r25, Z
    3cd2:	90 93 13 02 	sts	0x0213, r25
    3cd6:	9f 3f       	cpi	r25, 0xFF	; 255
    3cd8:	11 f4       	brne	.+4      	; 0x3cde <SchedulerBasicP__TaskBasic__runTask+0x1a12>
    3cda:	90 93 12 02 	sts	0x0212, r25
    3cde:	9f ef       	ldi	r25, 0xFF	; 255
    3ce0:	90 83       	st	Z, r25
    3ce2:	80 93 11 02 	sts	0x0211, r24
    3ce6:	81 e0       	ldi	r24, 0x01	; 1
    3ce8:	80 93 95 02 	sts	0x0295, r24
    3cec:	88 e1       	ldi	r24, 0x18	; 24
    3cee:	0e 94 1f 03 	call	0x63e	; 0x63e <SchedulerBasicP__TaskBasic__postTask>
    3cf2:	04 c0       	rjmp	.+8      	; 0x3cfc <SchedulerBasicP__TaskBasic__runTask+0x1a30>
    3cf4:	80 93 11 02 	sts	0x0211, r24
    3cf8:	10 92 95 02 	sts	0x0295, r1
    3cfc:	1f bf       	out	0x3f, r17	; 63
    3cfe:	9f b7       	in	r25, 0x3f	; 63
    3d00:	f8 94       	cli
    3d02:	80 91 95 02 	lds	r24, 0x0295
    3d06:	88 23       	and	r24, r24
    3d08:	09 f4       	brne	.+2      	; 0x3d0c <SchedulerBasicP__TaskBasic__runTask+0x1a40>
    3d0a:	85 c5       	rjmp	.+2826   	; 0x4816 <SchedulerBasicP__TaskBasic__runTask+0x254a>
    3d0c:	9f bf       	out	0x3f, r25	; 63
    3d0e:	1f b7       	in	r17, 0x3f	; 63
    3d10:	f8 94       	cli
    3d12:	4a 99       	sbic	0x09, 2	; 9
    3d14:	03 c0       	rjmp	.+6      	; 0x3d1c <SchedulerBasicP__TaskBasic__runTask+0x1a50>
    3d16:	86 e1       	ldi	r24, 0x16	; 22
    3d18:	0e 94 1f 03 	call	0x63e	; 0x63e <SchedulerBasicP__TaskBasic__postTask>
    3d1c:	1f bf       	out	0x3f, r17	; 63
    3d1e:	d5 c5       	rjmp	.+2986   	; 0x48ca <SchedulerBasicP__TaskBasic__runTask+0x25fe>
    3d20:	80 91 93 02 	lds	r24, 0x0293
    3d24:	81 11       	cpse	r24, r1
    3d26:	d1 c5       	rjmp	.+2978   	; 0x48ca <SchedulerBasicP__TaskBasic__runTask+0x25fe>
    3d28:	10 92 94 02 	sts	0x0294, r1
    3d2c:	f0 90 90 0f 	lds	r15, 0x0F90
    3d30:	21 e0       	ldi	r18, 0x01	; 1
    3d32:	f2 12       	cpse	r15, r18
    3d34:	ca c5       	rjmp	.+2964   	; 0x48ca <SchedulerBasicP__TaskBasic__runTask+0x25fe>
    3d36:	73 c5       	rjmp	.+2790   	; 0x481e <SchedulerBasicP__TaskBasic__runTask+0x2552>
    3d38:	9f b7       	in	r25, 0x3f	; 63
    3d3a:	f8 94       	cli
    3d3c:	80 91 6a 12 	lds	r24, 0x126A
    3d40:	9f bf       	out	0x3f, r25	; 63
    3d42:	81 11       	cpse	r24, r1
    3d44:	0f c0       	rjmp	.+30     	; 0x3d64 <SchedulerBasicP__TaskBasic__runTask+0x1a98>
    3d46:	5a 9a       	sbi	0x0b, 2	; 11
    3d48:	48 ee       	ldi	r20, 0xE8	; 232
    3d4a:	53 e0       	ldi	r21, 0x03	; 3
    3d4c:	60 e0       	ldi	r22, 0x00	; 0
    3d4e:	70 e0       	ldi	r23, 0x00	; 0
    3d50:	82 e0       	ldi	r24, 0x02	; 2
    3d52:	0e 94 86 03 	call	0x70c	; 0x70c <VirtualizeTimerC__0__Timer__startOneShot>
    3d56:	8f b7       	in	r24, 0x3f	; 63
    3d58:	f8 94       	cli
    3d5a:	91 e0       	ldi	r25, 0x01	; 1
    3d5c:	90 93 6a 12 	sts	0x126A, r25
    3d60:	8f bf       	out	0x3f, r24	; 63
    3d62:	b3 c5       	rjmp	.+2918   	; 0x48ca <SchedulerBasicP__TaskBasic__runTask+0x25fe>
    3d64:	81 30       	cpi	r24, 0x01	; 1
    3d66:	49 f4       	brne	.+18     	; 0x3d7a <SchedulerBasicP__TaskBasic__runTask+0x1aae>
    3d68:	8f b7       	in	r24, 0x3f	; 63
    3d6a:	f8 94       	cli
    3d6c:	92 e0       	ldi	r25, 0x02	; 2
    3d6e:	90 93 6a 12 	sts	0x126A, r25
    3d72:	8f bf       	out	0x3f, r24	; 63
    3d74:	0e 94 53 03 	call	0x6a6	; 0x6a6 <FMClickP__readRegisters__postTask>
    3d78:	a8 c5       	rjmp	.+2896   	; 0x48ca <SchedulerBasicP__TaskBasic__runTask+0x25fe>
    3d7a:	82 30       	cpi	r24, 0x02	; 2
    3d7c:	c9 f4       	brne	.+50     	; 0x3db0 <SchedulerBasicP__TaskBasic__runTask+0x1ae4>
    3d7e:	2f b7       	in	r18, 0x3f	; 63
    3d80:	f8 94       	cli
    3d82:	80 91 11 0a 	lds	r24, 0x0A11
    3d86:	90 91 12 0a 	lds	r25, 0x0A12
    3d8a:	90 68       	ori	r25, 0x80	; 128
    3d8c:	90 93 12 0a 	sts	0x0A12, r25
    3d90:	80 93 11 0a 	sts	0x0A11, r24
    3d94:	10 92 22 0a 	sts	0x0A22, r1
    3d98:	10 92 21 0a 	sts	0x0A21, r1
    3d9c:	8f e0       	ldi	r24, 0x0F	; 15
    3d9e:	80 93 60 12 	sts	0x1260, r24
    3da2:	83 e0       	ldi	r24, 0x03	; 3
    3da4:	80 93 6a 12 	sts	0x126A, r24
    3da8:	2f bf       	out	0x3f, r18	; 63
    3daa:	0e 94 47 03 	call	0x68e	; 0x68e <FMClickP__writeRegisters__postTask>
    3dae:	8d c5       	rjmp	.+2842   	; 0x48ca <SchedulerBasicP__TaskBasic__runTask+0x25fe>
    3db0:	83 30       	cpi	r24, 0x03	; 3
    3db2:	71 f4       	brne	.+28     	; 0x3dd0 <SchedulerBasicP__TaskBasic__runTask+0x1b04>
    3db4:	8f b7       	in	r24, 0x3f	; 63
    3db6:	f8 94       	cli
    3db8:	94 e0       	ldi	r25, 0x04	; 4
    3dba:	90 93 6a 12 	sts	0x126A, r25
    3dbe:	8f bf       	out	0x3f, r24	; 63
    3dc0:	4e ee       	ldi	r20, 0xEE	; 238
    3dc2:	52 e0       	ldi	r21, 0x02	; 2
    3dc4:	60 e0       	ldi	r22, 0x00	; 0
    3dc6:	70 e0       	ldi	r23, 0x00	; 0
    3dc8:	82 e0       	ldi	r24, 0x02	; 2
    3dca:	0e 94 86 03 	call	0x70c	; 0x70c <VirtualizeTimerC__0__Timer__startOneShot>
    3dce:	7d c5       	rjmp	.+2810   	; 0x48ca <SchedulerBasicP__TaskBasic__runTask+0x25fe>
    3dd0:	84 30       	cpi	r24, 0x04	; 4
    3dd2:	91 f4       	brne	.+36     	; 0x3df8 <SchedulerBasicP__TaskBasic__runTask+0x1b2c>
    3dd4:	8f b7       	in	r24, 0x3f	; 63
    3dd6:	f8 94       	cli
    3dd8:	21 e0       	ldi	r18, 0x01	; 1
    3dda:	30 e4       	ldi	r19, 0x40	; 64
    3ddc:	30 93 08 0a 	sts	0x0A08, r19
    3de0:	20 93 07 0a 	sts	0x0A07, r18
    3de4:	92 e0       	ldi	r25, 0x02	; 2
    3de6:	90 93 60 12 	sts	0x1260, r25
    3dea:	95 e0       	ldi	r25, 0x05	; 5
    3dec:	90 93 6a 12 	sts	0x126A, r25
    3df0:	8f bf       	out	0x3f, r24	; 63
    3df2:	0e 94 47 03 	call	0x68e	; 0x68e <FMClickP__writeRegisters__postTask>
    3df6:	69 c5       	rjmp	.+2770   	; 0x48ca <SchedulerBasicP__TaskBasic__runTask+0x25fe>
    3df8:	85 30       	cpi	r24, 0x05	; 5
    3dfa:	71 f4       	brne	.+28     	; 0x3e18 <SchedulerBasicP__TaskBasic__runTask+0x1b4c>
    3dfc:	8f b7       	in	r24, 0x3f	; 63
    3dfe:	f8 94       	cli
    3e00:	96 e0       	ldi	r25, 0x06	; 6
    3e02:	90 93 6a 12 	sts	0x126A, r25
    3e06:	8f bf       	out	0x3f, r24	; 63
    3e08:	46 e9       	ldi	r20, 0x96	; 150
    3e0a:	50 e0       	ldi	r21, 0x00	; 0
    3e0c:	60 e0       	ldi	r22, 0x00	; 0
    3e0e:	70 e0       	ldi	r23, 0x00	; 0
    3e10:	82 e0       	ldi	r24, 0x02	; 2
    3e12:	0e 94 86 03 	call	0x70c	; 0x70c <VirtualizeTimerC__0__Timer__startOneShot>
    3e16:	59 c5       	rjmp	.+2738   	; 0x48ca <SchedulerBasicP__TaskBasic__runTask+0x25fe>
    3e18:	86 30       	cpi	r24, 0x06	; 6
    3e1a:	49 f4       	brne	.+18     	; 0x3e2e <SchedulerBasicP__TaskBasic__runTask+0x1b62>
    3e1c:	8f b7       	in	r24, 0x3f	; 63
    3e1e:	f8 94       	cli
    3e20:	97 e0       	ldi	r25, 0x07	; 7
    3e22:	90 93 6a 12 	sts	0x126A, r25
    3e26:	8f bf       	out	0x3f, r24	; 63
    3e28:	0e 94 53 03 	call	0x6a6	; 0x6a6 <FMClickP__readRegisters__postTask>
    3e2c:	4e c5       	rjmp	.+2716   	; 0x48ca <SchedulerBasicP__TaskBasic__runTask+0x25fe>
    3e2e:	87 30       	cpi	r24, 0x07	; 7
    3e30:	09 f0       	breq	.+2      	; 0x3e34 <SchedulerBasicP__TaskBasic__runTask+0x1b68>
    3e32:	41 c0       	rjmp	.+130    	; 0x3eb6 <SchedulerBasicP__TaskBasic__runTask+0x1bea>
    3e34:	2f b7       	in	r18, 0x3f	; 63
    3e36:	f8 94       	cli
    3e38:	80 91 05 0a 	lds	r24, 0x0A05
    3e3c:	90 91 06 0a 	lds	r25, 0x0A06
    3e40:	2f bf       	out	0x3f, r18	; 63
    3e42:	83 35       	cpi	r24, 0x53	; 83
    3e44:	92 41       	sbci	r25, 0x12	; 18
    3e46:	71 f0       	breq	.+28     	; 0x3e64 <SchedulerBasicP__TaskBasic__runTask+0x1b98>
    3e48:	8f b7       	in	r24, 0x3f	; 63
    3e4a:	f8 94       	cli
    3e4c:	10 92 68 12 	sts	0x1268, r1
    3e50:	8f bf       	out	0x3f, r24	; 63
    3e52:	8f b7       	in	r24, 0x3f	; 63
    3e54:	f8 94       	cli
    3e56:	10 92 c5 03 	sts	0x03C5, r1
    3e5a:	8f bf       	out	0x3f, r24	; 63
    3e5c:	8a e0       	ldi	r24, 0x0A	; 10
    3e5e:	0e 94 1f 03 	call	0x63e	; 0x63e <SchedulerBasicP__TaskBasic__postTask>
    3e62:	33 c5       	rjmp	.+2662   	; 0x48ca <SchedulerBasicP__TaskBasic__runTask+0x25fe>
    3e64:	2f b7       	in	r18, 0x3f	; 63
    3e66:	f8 94       	cli
    3e68:	80 91 0b 0a 	lds	r24, 0x0A0B
    3e6c:	90 91 0c 0a 	lds	r25, 0x0A0C
    3e70:	83 73       	andi	r24, 0x33	; 51
    3e72:	97 72       	andi	r25, 0x27	; 39
    3e74:	84 60       	ori	r24, 0x04	; 4
    3e76:	98 64       	ori	r25, 0x48	; 72
    3e78:	90 93 0c 0a 	sts	0x0A0C, r25
    3e7c:	80 93 0b 0a 	sts	0x0A0B, r24
    3e80:	80 e1       	ldi	r24, 0x10	; 16
    3e82:	99 e1       	ldi	r25, 0x19	; 25
    3e84:	90 93 0e 0a 	sts	0x0A0E, r25
    3e88:	80 93 0d 0a 	sts	0x0A0D, r24
    3e8c:	80 91 0f 0a 	lds	r24, 0x0A0F
    3e90:	90 91 10 0a 	lds	r25, 0x0A10
    3e94:	88 27       	eor	r24, r24
    3e96:	9e 7f       	andi	r25, 0xFE	; 254
    3e98:	8f 64       	ori	r24, 0x4F	; 79
    3e9a:	90 93 10 0a 	sts	0x0A10, r25
    3e9e:	80 93 0f 0a 	sts	0x0A0F, r24
    3ea2:	86 e0       	ldi	r24, 0x06	; 6
    3ea4:	80 93 60 12 	sts	0x1260, r24
    3ea8:	88 e0       	ldi	r24, 0x08	; 8
    3eaa:	80 93 6a 12 	sts	0x126A, r24
    3eae:	2f bf       	out	0x3f, r18	; 63
    3eb0:	0e 94 47 03 	call	0x68e	; 0x68e <FMClickP__writeRegisters__postTask>
    3eb4:	0a c5       	rjmp	.+2580   	; 0x48ca <SchedulerBasicP__TaskBasic__runTask+0x25fe>
    3eb6:	88 30       	cpi	r24, 0x08	; 8
    3eb8:	09 f0       	breq	.+2      	; 0x3ebc <SchedulerBasicP__TaskBasic__runTask+0x1bf0>
    3eba:	07 c5       	rjmp	.+2574   	; 0x48ca <SchedulerBasicP__TaskBasic__runTask+0x25fe>
    3ebc:	8f b7       	in	r24, 0x3f	; 63
    3ebe:	f8 94       	cli
    3ec0:	10 92 68 12 	sts	0x1268, r1
    3ec4:	8f bf       	out	0x3f, r24	; 63
    3ec6:	0e 94 7e 08 	call	0x10fc	; 0x10fc <ArbiterP__1__Resource__request.constprop.138>
    3eca:	0e 94 7a 03 	call	0x6f4	; 0x6f4 <Atm1280AlarmSyncP__0__Counter__get>
    3ece:	60 93 ca 11 	sts	0x11CA, r22
    3ed2:	70 93 cb 11 	sts	0x11CB, r23
    3ed6:	80 93 cc 11 	sts	0x11CC, r24
    3eda:	90 93 cd 11 	sts	0x11CD, r25
    3ede:	84 e6       	ldi	r24, 0x64	; 100
    3ee0:	90 e0       	ldi	r25, 0x00	; 0
    3ee2:	a0 e0       	ldi	r26, 0x00	; 0
    3ee4:	b0 e0       	ldi	r27, 0x00	; 0
    3ee6:	80 93 ce 11 	sts	0x11CE, r24
    3eea:	90 93 cf 11 	sts	0x11CF, r25
    3eee:	a0 93 d0 11 	sts	0x11D0, r26
    3ef2:	b0 93 d1 11 	sts	0x11D1, r27
    3ef6:	80 91 d2 11 	lds	r24, 0x11D2
    3efa:	8e 7f       	andi	r24, 0xFE	; 254
    3efc:	82 60       	ori	r24, 0x02	; 2
    3efe:	80 93 d2 11 	sts	0x11D2, r24
    3f02:	82 e1       	ldi	r24, 0x12	; 18
    3f04:	0e 94 1f 03 	call	0x63e	; 0x63e <SchedulerBasicP__TaskBasic__postTask>
    3f08:	9f b7       	in	r25, 0x3f	; 63
    3f0a:	f8 94       	cli
    3f0c:	80 91 c4 03 	lds	r24, 0x03C4
    3f10:	9f bf       	out	0x3f, r25	; 63
    3f12:	81 11       	cpse	r24, r1
    3f14:	35 c0       	rjmp	.+106    	; 0x3f80 <SchedulerBasicP__TaskBasic__runTask+0x1cb4>
    3f16:	8f b7       	in	r24, 0x3f	; 63
    3f18:	f8 94       	cli
    3f1a:	93 e0       	ldi	r25, 0x03	; 3
    3f1c:	90 93 c4 03 	sts	0x03C4, r25
    3f20:	8f bf       	out	0x3f, r24	; 63
    3f22:	10 92 c2 03 	sts	0x03C2, r1
    3f26:	45 e0       	ldi	r20, 0x05	; 5
    3f28:	50 e0       	ldi	r21, 0x00	; 0
    3f2a:	6c e7       	ldi	r22, 0x7C	; 124
    3f2c:	74 e0       	ldi	r23, 0x04	; 4
    3f2e:	ce 01       	movw	r24, r28
    3f30:	01 96       	adiw	r24, 0x01	; 1
    3f32:	7c 01       	movw	r14, r24
    3f34:	0e 94 0b 2d 	call	0x5a16	; 0x5a16 <strncpy_P>
    3f38:	00 ec       	ldi	r16, 0xC0	; 192
    3f3a:	12 e0       	ldi	r17, 0x02	; 2
    3f3c:	80 e8       	ldi	r24, 0x80	; 128
    3f3e:	d8 01       	movw	r26, r16
    3f40:	1d 92       	st	X+, r1
    3f42:	8a 95       	dec	r24
    3f44:	e9 f7       	brne	.-6      	; 0x3f40 <SchedulerBasicP__TaskBasic__runTask+0x1c74>
    3f46:	ff 92       	push	r15
    3f48:	ef 92       	push	r14
    3f4a:	8c e5       	ldi	r24, 0x5C	; 92
    3f4c:	92 e0       	ldi	r25, 0x02	; 2
    3f4e:	9f 93       	push	r25
    3f50:	8f 93       	push	r24
    3f52:	1f 93       	push	r17
    3f54:	0f 93       	push	r16
    3f56:	0e 94 c2 2d 	call	0x5b84	; 0x5b84 <sprintf>
    3f5a:	f8 01       	movw	r30, r16
    3f5c:	01 90       	ld	r0, Z+
    3f5e:	00 20       	and	r0, r0
    3f60:	e9 f7       	brne	.-6      	; 0x3f5c <SchedulerBasicP__TaskBasic__runTask+0x1c90>
    3f62:	8f 01       	movw	r16, r30
    3f64:	01 5c       	subi	r16, 0xC1	; 193
    3f66:	12 40       	sbci	r17, 0x02	; 2
    3f68:	10 93 bf 02 	sts	0x02BF, r17
    3f6c:	00 93 be 02 	sts	0x02BE, r16
    3f70:	0e 94 44 03 	call	0x688	; 0x688 <DatabaseP__sendTask__postTask>
    3f74:	0f 90       	pop	r0
    3f76:	0f 90       	pop	r0
    3f78:	0f 90       	pop	r0
    3f7a:	0f 90       	pop	r0
    3f7c:	0f 90       	pop	r0
    3f7e:	0f 90       	pop	r0
    3f80:	10 92 cb 0e 	sts	0x0ECB, r1
    3f84:	2f b7       	in	r18, 0x3f	; 63
    3f86:	f8 94       	cli
    3f88:	80 91 6e 12 	lds	r24, 0x126E
    3f8c:	90 91 68 12 	lds	r25, 0x1268
    3f90:	31 e0       	ldi	r19, 0x01	; 1
    3f92:	30 93 6e 12 	sts	0x126E, r19
    3f96:	2f bf       	out	0x3f, r18	; 63
    3f98:	91 11       	cpse	r25, r1
    3f9a:	97 c4       	rjmp	.+2350   	; 0x48ca <SchedulerBasicP__TaskBasic__runTask+0x25fe>
    3f9c:	81 30       	cpi	r24, 0x01	; 1
    3f9e:	09 f4       	brne	.+2      	; 0x3fa2 <SchedulerBasicP__TaskBasic__runTask+0x1cd6>
    3fa0:	94 c4       	rjmp	.+2344   	; 0x48ca <SchedulerBasicP__TaskBasic__runTask+0x25fe>
    3fa2:	8f b7       	in	r24, 0x3f	; 63
    3fa4:	f8 94       	cli
    3fa6:	94 e0       	ldi	r25, 0x04	; 4
    3fa8:	90 93 68 12 	sts	0x1268, r25
    3fac:	8f bf       	out	0x3f, r24	; 63
    3fae:	81 e0       	ldi	r24, 0x01	; 1
    3fb0:	0e 94 c0 08 	call	0x1180	; 0x1180 <FMClickP__enableRDS>
    3fb4:	8a c4       	rjmp	.+2324   	; 0x48ca <SchedulerBasicP__TaskBasic__runTask+0x25fe>
    3fb6:	9f b7       	in	r25, 0x3f	; 63
    3fb8:	f8 94       	cli
    3fba:	80 91 6b 12 	lds	r24, 0x126B
    3fbe:	9f bf       	out	0x3f, r25	; 63
    3fc0:	81 11       	cpse	r24, r1
    3fc2:	22 c0       	rjmp	.+68     	; 0x4008 <SchedulerBasicP__TaskBasic__runTask+0x1d3c>
    3fc4:	2f b7       	in	r18, 0x3f	; 63
    3fc6:	f8 94       	cli
    3fc8:	80 91 c8 12 	lds	r24, 0x12C8
    3fcc:	90 91 c9 12 	lds	r25, 0x12C9
    3fd0:	8b 56       	subi	r24, 0x6B	; 107
    3fd2:	93 40       	sbci	r25, 0x03	; 3
    3fd4:	93 70       	andi	r25, 0x03	; 3
    3fd6:	90 68       	ori	r25, 0x80	; 128
    3fd8:	90 93 0a 0a 	sts	0x0A0A, r25
    3fdc:	80 93 09 0a 	sts	0x0A09, r24
    3fe0:	80 91 0b 0a 	lds	r24, 0x0A0B
    3fe4:	90 91 0c 0a 	lds	r25, 0x0A0C
    3fe8:	9f 76       	andi	r25, 0x6F	; 111
    3fea:	90 64       	ori	r25, 0x40	; 64
    3fec:	90 93 0c 0a 	sts	0x0A0C, r25
    3ff0:	80 93 0b 0a 	sts	0x0A0B, r24
    3ff4:	84 e0       	ldi	r24, 0x04	; 4
    3ff6:	80 93 60 12 	sts	0x1260, r24
    3ffa:	81 e0       	ldi	r24, 0x01	; 1
    3ffc:	80 93 6b 12 	sts	0x126B, r24
    4000:	2f bf       	out	0x3f, r18	; 63
    4002:	0e 94 47 03 	call	0x68e	; 0x68e <FMClickP__writeRegisters__postTask>
    4006:	61 c4       	rjmp	.+2242   	; 0x48ca <SchedulerBasicP__TaskBasic__runTask+0x25fe>
    4008:	81 30       	cpi	r24, 0x01	; 1
    400a:	59 f4       	brne	.+22     	; 0x4022 <SchedulerBasicP__TaskBasic__runTask+0x1d56>
    400c:	8f b7       	in	r24, 0x3f	; 63
    400e:	f8 94       	cli
    4010:	92 e0       	ldi	r25, 0x02	; 2
    4012:	90 93 6b 12 	sts	0x126B, r25
    4016:	8f bf       	out	0x3f, r24	; 63
    4018:	88 e0       	ldi	r24, 0x08	; 8
    401a:	8c bb       	out	0x1c, r24	; 28
    401c:	0e 94 03 03 	call	0x606	; 0x606 <HplAtm128InterruptPinP__3__Irq__enable>
    4020:	54 c4       	rjmp	.+2216   	; 0x48ca <SchedulerBasicP__TaskBasic__runTask+0x25fe>
    4022:	82 30       	cpi	r24, 0x02	; 2
    4024:	49 f4       	brne	.+18     	; 0x4038 <SchedulerBasicP__TaskBasic__runTask+0x1d6c>
    4026:	8f b7       	in	r24, 0x3f	; 63
    4028:	f8 94       	cli
    402a:	93 e0       	ldi	r25, 0x03	; 3
    402c:	90 93 6b 12 	sts	0x126B, r25
    4030:	8f bf       	out	0x3f, r24	; 63
    4032:	0e 94 53 03 	call	0x6a6	; 0x6a6 <FMClickP__readRegisters__postTask>
    4036:	49 c4       	rjmp	.+2194   	; 0x48ca <SchedulerBasicP__TaskBasic__runTask+0x25fe>
    4038:	83 30       	cpi	r24, 0x03	; 3
    403a:	41 f5       	brne	.+80     	; 0x408c <SchedulerBasicP__TaskBasic__runTask+0x1dc0>
    403c:	2f b7       	in	r18, 0x3f	; 63
    403e:	f8 94       	cli
    4040:	80 91 19 0a 	lds	r24, 0x0A19
    4044:	90 91 1a 0a 	lds	r25, 0x0A1A
    4048:	93 70       	andi	r25, 0x03	; 3
    404a:	85 59       	subi	r24, 0x95	; 149
    404c:	9c 4f       	sbci	r25, 0xFC	; 252
    404e:	90 93 d0 12 	sts	0x12D0, r25
    4052:	80 93 cf 12 	sts	0x12CF, r24
    4056:	80 91 09 0a 	lds	r24, 0x0A09
    405a:	90 91 0a 0a 	lds	r25, 0x0A0A
    405e:	9f 77       	andi	r25, 0x7F	; 127
    4060:	90 93 0a 0a 	sts	0x0A0A, r25
    4064:	80 93 09 0a 	sts	0x0A09, r24
    4068:	80 91 0b 0a 	lds	r24, 0x0A0B
    406c:	90 91 0c 0a 	lds	r25, 0x0A0C
    4070:	9f 7b       	andi	r25, 0xBF	; 191
    4072:	90 93 0c 0a 	sts	0x0A0C, r25
    4076:	80 93 0b 0a 	sts	0x0A0B, r24
    407a:	84 e0       	ldi	r24, 0x04	; 4
    407c:	80 93 60 12 	sts	0x1260, r24
    4080:	80 93 6b 12 	sts	0x126B, r24
    4084:	2f bf       	out	0x3f, r18	; 63
    4086:	0e 94 47 03 	call	0x68e	; 0x68e <FMClickP__writeRegisters__postTask>
    408a:	1f c4       	rjmp	.+2110   	; 0x48ca <SchedulerBasicP__TaskBasic__runTask+0x25fe>
    408c:	84 30       	cpi	r24, 0x04	; 4
    408e:	49 f4       	brne	.+18     	; 0x40a2 <SchedulerBasicP__TaskBasic__runTask+0x1dd6>
    4090:	8f b7       	in	r24, 0x3f	; 63
    4092:	f8 94       	cli
    4094:	95 e0       	ldi	r25, 0x05	; 5
    4096:	90 93 6b 12 	sts	0x126B, r25
    409a:	8f bf       	out	0x3f, r24	; 63
    409c:	0e 94 53 03 	call	0x6a6	; 0x6a6 <FMClickP__readRegisters__postTask>
    40a0:	14 c4       	rjmp	.+2088   	; 0x48ca <SchedulerBasicP__TaskBasic__runTask+0x25fe>
    40a2:	85 30       	cpi	r24, 0x05	; 5
    40a4:	09 f0       	breq	.+2      	; 0x40a8 <SchedulerBasicP__TaskBasic__runTask+0x1ddc>
    40a6:	11 c4       	rjmp	.+2082   	; 0x48ca <SchedulerBasicP__TaskBasic__runTask+0x25fe>
    40a8:	2f b7       	in	r18, 0x3f	; 63
    40aa:	f8 94       	cli
    40ac:	80 91 17 0a 	lds	r24, 0x0A17
    40b0:	90 91 18 0a 	lds	r25, 0x0A18
    40b4:	88 27       	eor	r24, r24
    40b6:	90 74       	andi	r25, 0x40	; 64
    40b8:	89 2f       	mov	r24, r25
    40ba:	99 27       	eor	r25, r25
    40bc:	2f bf       	out	0x3f, r18	; 63
    40be:	89 2b       	or	r24, r25
    40c0:	89 f5       	brne	.+98     	; 0x4124 <SchedulerBasicP__TaskBasic__runTask+0x1e58>
    40c2:	20 91 cf 12 	lds	r18, 0x12CF
    40c6:	30 91 d0 12 	lds	r19, 0x12D0
    40ca:	9f b7       	in	r25, 0x3f	; 63
    40cc:	f8 94       	cli
    40ce:	30 93 d1 07 	sts	0x07D1, r19
    40d2:	20 93 d0 07 	sts	0x07D0, r18
    40d6:	80 91 d3 07 	lds	r24, 0x07D3
    40da:	9f bf       	out	0x3f, r25	; 63
    40dc:	83 30       	cpi	r24, 0x03	; 3
    40de:	31 f0       	breq	.+12     	; 0x40ec <SchedulerBasicP__TaskBasic__runTask+0x1e20>
    40e0:	85 30       	cpi	r24, 0x05	; 5
    40e2:	21 f4       	brne	.+8      	; 0x40ec <SchedulerBasicP__TaskBasic__runTask+0x1e20>
    40e4:	87 e0       	ldi	r24, 0x07	; 7
    40e6:	0e 94 1f 03 	call	0x63e	; 0x63e <SchedulerBasicP__TaskBasic__postTask>
    40ea:	08 c0       	rjmp	.+16     	; 0x40fc <SchedulerBasicP__TaskBasic__runTask+0x1e30>
    40ec:	8f b7       	in	r24, 0x3f	; 63
    40ee:	f8 94       	cli
    40f0:	91 e0       	ldi	r25, 0x01	; 1
    40f2:	90 93 d3 07 	sts	0x07D3, r25
    40f6:	8f bf       	out	0x3f, r24	; 63
    40f8:	0e 94 50 03 	call	0x6a0	; 0x6a0 <RadioScannerP__displayChannelInfo__postTask>
    40fc:	80 91 6e 12 	lds	r24, 0x126E
    4100:	88 23       	and	r24, r24
    4102:	51 f0       	breq	.+20     	; 0x4118 <SchedulerBasicP__TaskBasic__runTask+0x1e4c>
    4104:	8f b7       	in	r24, 0x3f	; 63
    4106:	f8 94       	cli
    4108:	94 e0       	ldi	r25, 0x04	; 4
    410a:	90 93 68 12 	sts	0x1268, r25
    410e:	8f bf       	out	0x3f, r24	; 63
    4110:	81 e0       	ldi	r24, 0x01	; 1
    4112:	0e 94 c0 08 	call	0x1180	; 0x1180 <FMClickP__enableRDS>
    4116:	d9 c3       	rjmp	.+1970   	; 0x48ca <SchedulerBasicP__TaskBasic__runTask+0x25fe>
    4118:	8f b7       	in	r24, 0x3f	; 63
    411a:	f8 94       	cli
    411c:	10 92 68 12 	sts	0x1268, r1
    4120:	8f bf       	out	0x3f, r24	; 63
    4122:	d3 c3       	rjmp	.+1958   	; 0x48ca <SchedulerBasicP__TaskBasic__runTask+0x25fe>
    4124:	8f b7       	in	r24, 0x3f	; 63
    4126:	f8 94       	cli
    4128:	94 e0       	ldi	r25, 0x04	; 4
    412a:	90 93 6b 12 	sts	0x126B, r25
    412e:	8f bf       	out	0x3f, r24	; 63
    4130:	0e 94 4d 03 	call	0x69a	; 0x69a <FMClickP__tune__postTask>
    4134:	ca c3       	rjmp	.+1940   	; 0x48ca <SchedulerBasicP__TaskBasic__runTask+0x25fe>
    4136:	0e 94 02 09 	call	0x1204	; 0x1204 <FMClickP__seek__runTask>
    413a:	c7 c3       	rjmp	.+1934   	; 0x48ca <SchedulerBasicP__TaskBasic__runTask+0x25fe>
    413c:	8f b7       	in	r24, 0x3f	; 63
    413e:	f8 94       	cli
    4140:	60 91 6d 12 	lds	r22, 0x126D
    4144:	8f bf       	out	0x3f, r24	; 63
    4146:	61 11       	cpse	r22, r1
    4148:	09 c0       	rjmp	.+18     	; 0x415c <SchedulerBasicP__TaskBasic__runTask+0x1e90>
    414a:	8f b7       	in	r24, 0x3f	; 63
    414c:	f8 94       	cli
    414e:	91 e0       	ldi	r25, 0x01	; 1
    4150:	90 93 6d 12 	sts	0x126D, r25
    4154:	8f bf       	out	0x3f, r24	; 63
    4156:	0e 94 53 03 	call	0x6a6	; 0x6a6 <FMClickP__readRegisters__postTask>
    415a:	b7 c3       	rjmp	.+1902   	; 0x48ca <SchedulerBasicP__TaskBasic__runTask+0x25fe>
    415c:	61 30       	cpi	r22, 0x01	; 1
    415e:	09 f0       	breq	.+2      	; 0x4162 <SchedulerBasicP__TaskBasic__runTask+0x1e96>
    4160:	b4 c3       	rjmp	.+1896   	; 0x48ca <SchedulerBasicP__TaskBasic__runTask+0x25fe>
    4162:	4f b7       	in	r20, 0x3f	; 63
    4164:	f8 94       	cli
    4166:	90 91 1b 0a 	lds	r25, 0x0A1B
    416a:	f0 91 1c 0a 	lds	r31, 0x0A1C
    416e:	e0 91 1d 0a 	lds	r30, 0x0A1D
    4172:	a0 91 1e 0a 	lds	r26, 0x0A1E
    4176:	80 91 1f 0a 	lds	r24, 0x0A1F
    417a:	70 91 20 0a 	lds	r23, 0x0A20
    417e:	20 91 21 0a 	lds	r18, 0x0A21
    4182:	30 91 22 0a 	lds	r19, 0x0A22
    4186:	4f bf       	out	0x3f, r20	; 63
    4188:	4a 2f       	mov	r20, r26
    418a:	46 95       	lsr	r20
    418c:	46 95       	lsr	r20
    418e:	46 95       	lsr	r20
    4190:	50 e0       	ldi	r21, 0x00	; 0
    4192:	44 30       	cpi	r20, 0x04	; 4
    4194:	51 05       	cpc	r21, r1
    4196:	09 f4       	brne	.+2      	; 0x419a <SchedulerBasicP__TaskBasic__runTask+0x1ece>
    4198:	67 c0       	rjmp	.+206    	; 0x4268 <SchedulerBasicP__TaskBasic__runTask+0x1f9c>
    419a:	24 f4       	brge	.+8      	; 0x41a4 <SchedulerBasicP__TaskBasic__runTask+0x1ed8>
    419c:	42 30       	cpi	r20, 0x02	; 2
    419e:	51 05       	cpc	r21, r1
    41a0:	30 f0       	brcs	.+12     	; 0x41ae <SchedulerBasicP__TaskBasic__runTask+0x1ee2>
    41a2:	d8 c0       	rjmp	.+432    	; 0x4354 <SchedulerBasicP__TaskBasic__runTask+0x2088>
    41a4:	48 30       	cpi	r20, 0x08	; 8
    41a6:	51 05       	cpc	r21, r1
    41a8:	09 f4       	brne	.+2      	; 0x41ac <SchedulerBasicP__TaskBasic__runTask+0x1ee0>
    41aa:	88 c0       	rjmp	.+272    	; 0x42bc <SchedulerBasicP__TaskBasic__runTask+0x1ff0>
    41ac:	d3 c0       	rjmp	.+422    	; 0x4354 <SchedulerBasicP__TaskBasic__runTask+0x2088>
    41ae:	4f b7       	in	r20, 0x3f	; 63
    41b0:	f8 94       	cli
    41b2:	f0 93 7c 12 	sts	0x127C, r31
    41b6:	90 93 7d 12 	sts	0x127D, r25
    41ba:	e3 70       	andi	r30, 0x03	; 3
    41bc:	ae 2f       	mov	r26, r30
    41be:	b0 e0       	ldi	r27, 0x00	; 0
    41c0:	aa 0f       	add	r26, r26
    41c2:	bb 1f       	adc	r27, r27
    41c4:	ad 58       	subi	r26, 0x8D	; 141
    41c6:	bd 4e       	sbci	r27, 0xED	; 237
    41c8:	11 96       	adiw	r26, 0x01	; 1
    41ca:	3c 93       	st	X, r19
    41cc:	11 97       	sbiw	r26, 0x01	; 1
    41ce:	12 96       	adiw	r26, 0x02	; 2
    41d0:	2c 93       	st	X, r18
    41d2:	81 e0       	ldi	r24, 0x01	; 1
    41d4:	90 e0       	ldi	r25, 0x00	; 0
    41d6:	0e 2e       	mov	r0, r30
    41d8:	01 c0       	rjmp	.+2      	; 0x41dc <SchedulerBasicP__TaskBasic__runTask+0x1f10>
    41da:	88 0f       	add	r24, r24
    41dc:	0a 94       	dec	r0
    41de:	ea f7       	brpl	.-6      	; 0x41da <SchedulerBasicP__TaskBasic__runTask+0x1f0e>
    41e0:	90 91 73 12 	lds	r25, 0x1273
    41e4:	89 2b       	or	r24, r25
    41e6:	80 93 73 12 	sts	0x1273, r24
    41ea:	4f bf       	out	0x3f, r20	; 63
    41ec:	8f 30       	cpi	r24, 0x0F	; 15
    41ee:	09 f0       	breq	.+2      	; 0x41f2 <SchedulerBasicP__TaskBasic__runTask+0x1f26>
    41f0:	b1 c0       	rjmp	.+354    	; 0x4354 <SchedulerBasicP__TaskBasic__runTask+0x2088>
    41f2:	8f b7       	in	r24, 0x3f	; 63
    41f4:	f8 94       	cli
    41f6:	20 91 d3 07 	lds	r18, 0x07D3
    41fa:	8f bf       	out	0x3f, r24	; 63
    41fc:	89 e0       	ldi	r24, 0x09	; 9
    41fe:	e8 e7       	ldi	r30, 0x78	; 120
    4200:	f7 e0       	ldi	r31, 0x07	; 7
    4202:	df 01       	movw	r26, r30
    4204:	1d 92       	st	X+, r1
    4206:	8a 95       	dec	r24
    4208:	e9 f7       	brne	.-6      	; 0x4204 <SchedulerBasicP__TaskBasic__runTask+0x1f38>
    420a:	88 e0       	ldi	r24, 0x08	; 8
    420c:	e4 e7       	ldi	r30, 0x74	; 116
    420e:	f2 e1       	ldi	r31, 0x12	; 18
    4210:	a8 e7       	ldi	r26, 0x78	; 120
    4212:	b7 e0       	ldi	r27, 0x07	; 7
    4214:	01 90       	ld	r0, Z+
    4216:	0d 92       	st	X+, r0
    4218:	8a 95       	dec	r24
    421a:	e1 f7       	brne	.-8      	; 0x4214 <SchedulerBasicP__TaskBasic__runTask+0x1f48>
    421c:	3f b7       	in	r19, 0x3f	; 63
    421e:	f8 94       	cli
    4220:	60 93 72 07 	sts	0x0772, r22
    4224:	60 93 73 07 	sts	0x0773, r22
    4228:	80 91 7c 12 	lds	r24, 0x127C
    422c:	90 e0       	ldi	r25, 0x00	; 0
    422e:	98 2f       	mov	r25, r24
    4230:	88 27       	eor	r24, r24
    4232:	40 91 7d 12 	lds	r20, 0x127D
    4236:	84 2b       	or	r24, r20
    4238:	90 93 77 07 	sts	0x0777, r25
    423c:	80 93 76 07 	sts	0x0776, r24
    4240:	3f bf       	out	0x3f, r19	; 63
    4242:	25 30       	cpi	r18, 0x05	; 5
    4244:	19 f4       	brne	.+6      	; 0x424c <SchedulerBasicP__TaskBasic__runTask+0x1f80>
    4246:	89 e0       	ldi	r24, 0x09	; 9
    4248:	0e 94 1f 03 	call	0x63e	; 0x63e <SchedulerBasicP__TaskBasic__postTask>
    424c:	83 e0       	ldi	r24, 0x03	; 3
    424e:	0e 94 1f 03 	call	0x63e	; 0x63e <SchedulerBasicP__TaskBasic__postTask>
    4252:	48 e0       	ldi	r20, 0x08	; 8
    4254:	50 e0       	ldi	r21, 0x00	; 0
    4256:	60 e2       	ldi	r22, 0x20	; 32
    4258:	70 e0       	ldi	r23, 0x00	; 0
    425a:	84 e7       	ldi	r24, 0x74	; 116
    425c:	92 e1       	ldi	r25, 0x12	; 18
    425e:	0e 94 3d 2d 	call	0x5a7a	; 0x5a7a <memset>
    4262:	10 92 73 12 	sts	0x1273, r1
    4266:	76 c0       	rjmp	.+236    	; 0x4354 <SchedulerBasicP__TaskBasic__runTask+0x2088>
    4268:	9f b7       	in	r25, 0x3f	; 63
    426a:	f8 94       	cli
    426c:	ef 70       	andi	r30, 0x0F	; 15
    426e:	b4 e0       	ldi	r27, 0x04	; 4
    4270:	eb 9f       	mul	r30, r27
    4272:	f0 01       	movw	r30, r0
    4274:	11 24       	eor	r1, r1
    4276:	ed 58       	subi	r30, 0x8D	; 141
    4278:	fd 4e       	sbci	r31, 0xED	; 237
    427a:	73 87       	std	Z+11, r23	; 0x0b
    427c:	84 87       	std	Z+12, r24	; 0x0c
    427e:	35 87       	std	Z+13, r19	; 0x0d
    4280:	26 87       	std	Z+14, r18	; 0x0e
    4282:	9f bf       	out	0x3f, r25	; 63
    4284:	8f b7       	in	r24, 0x3f	; 63
    4286:	f8 94       	cli
    4288:	8f bf       	out	0x3f, r24	; 63
    428a:	8f b7       	in	r24, 0x3f	; 63
    428c:	f8 94       	cli
    428e:	60 93 74 07 	sts	0x0774, r22
    4292:	8f bf       	out	0x3f, r24	; 63
    4294:	81 e4       	ldi	r24, 0x41	; 65
    4296:	e1 e8       	ldi	r30, 0x81	; 129
    4298:	f7 e0       	ldi	r31, 0x07	; 7
    429a:	df 01       	movw	r26, r30
    429c:	1d 92       	st	X+, r1
    429e:	8a 95       	dec	r24
    42a0:	e9 f7       	brne	.-6      	; 0x429c <SchedulerBasicP__TaskBasic__runTask+0x1fd0>
    42a2:	80 e4       	ldi	r24, 0x40	; 64
    42a4:	ee e7       	ldi	r30, 0x7E	; 126
    42a6:	f2 e1       	ldi	r31, 0x12	; 18
    42a8:	a1 e8       	ldi	r26, 0x81	; 129
    42aa:	b7 e0       	ldi	r27, 0x07	; 7
    42ac:	01 90       	ld	r0, Z+
    42ae:	0d 92       	st	X+, r0
    42b0:	8a 95       	dec	r24
    42b2:	e1 f7       	brne	.-8      	; 0x42ac <SchedulerBasicP__TaskBasic__runTask+0x1fe0>
    42b4:	83 e0       	ldi	r24, 0x03	; 3
    42b6:	0e 94 1f 03 	call	0x63e	; 0x63e <SchedulerBasicP__TaskBasic__postTask>
    42ba:	4c c0       	rjmp	.+152    	; 0x4354 <SchedulerBasicP__TaskBasic__runTask+0x2088>
    42bc:	82 95       	swap	r24
    42be:	80 71       	andi	r24, 0x10	; 16
    42c0:	93 2f       	mov	r25, r19
    42c2:	92 95       	swap	r25
    42c4:	9f 70       	andi	r25, 0x0F	; 15
    42c6:	89 2b       	or	r24, r25
    42c8:	a9 01       	movw	r20, r18
    42ca:	76 e0       	ldi	r23, 0x06	; 6
    42cc:	56 95       	lsr	r21
    42ce:	47 95       	ror	r20
    42d0:	7a 95       	dec	r23
    42d2:	e1 f7       	brne	.-8      	; 0x42cc <SchedulerBasicP__TaskBasic__runTask+0x2000>
    42d4:	4f 73       	andi	r20, 0x3F	; 63
    42d6:	92 2f       	mov	r25, r18
    42d8:	9f 71       	andi	r25, 0x1F	; 31
    42da:	96 95       	lsr	r25
    42dc:	25 ff       	sbrs	r18, 5
    42de:	02 c0       	rjmp	.+4      	; 0x42e4 <SchedulerBasicP__TaskBasic__runTask+0x2018>
    42e0:	89 1b       	sub	r24, r25
    42e2:	01 c0       	rjmp	.+2      	; 0x42e6 <SchedulerBasicP__TaskBasic__runTask+0x201a>
    42e4:	89 0f       	add	r24, r25
    42e6:	0f b7       	in	r16, 0x3f	; 63
    42e8:	f8 94       	cli
    42ea:	ee eb       	ldi	r30, 0xBE	; 190
    42ec:	f2 e1       	ldi	r31, 0x12	; 18
    42ee:	16 e0       	ldi	r17, 0x06	; 6
    42f0:	df 01       	movw	r26, r30
    42f2:	21 2f       	mov	r18, r17
    42f4:	1d 92       	st	X+, r1
    42f6:	2a 95       	dec	r18
    42f8:	e9 f7       	brne	.-6      	; 0x42f4 <SchedulerBasicP__TaskBasic__runTask+0x2028>
    42fa:	1f 92       	push	r1
    42fc:	4f 93       	push	r20
    42fe:	1f 92       	push	r1
    4300:	8f 93       	push	r24
    4302:	84 e8       	ldi	r24, 0x84	; 132
    4304:	92 e0       	ldi	r25, 0x02	; 2
    4306:	9f 93       	push	r25
    4308:	8f 93       	push	r24
    430a:	ff 93       	push	r31
    430c:	ef 93       	push	r30
    430e:	0e 94 c2 2d 	call	0x5b84	; 0x5b84 <sprintf>
    4312:	0f bf       	out	0x3f, r16	; 63
    4314:	8f b7       	in	r24, 0x3f	; 63
    4316:	f8 94       	cli
    4318:	8f bf       	out	0x3f, r24	; 63
    431a:	8f b7       	in	r24, 0x3f	; 63
    431c:	f8 94       	cli
    431e:	91 e0       	ldi	r25, 0x01	; 1
    4320:	90 93 75 07 	sts	0x0775, r25
    4324:	8f bf       	out	0x3f, r24	; 63
    4326:	e2 ec       	ldi	r30, 0xC2	; 194
    4328:	f7 e0       	ldi	r31, 0x07	; 7
    432a:	df 01       	movw	r26, r30
    432c:	21 2f       	mov	r18, r17
    432e:	1d 92       	st	X+, r1
    4330:	2a 95       	dec	r18
    4332:	e9 f7       	brne	.-6      	; 0x432e <SchedulerBasicP__TaskBasic__runTask+0x2062>
    4334:	ee eb       	ldi	r30, 0xBE	; 190
    4336:	f2 e1       	ldi	r31, 0x12	; 18
    4338:	a2 ec       	ldi	r26, 0xC2	; 194
    433a:	b7 e0       	ldi	r27, 0x07	; 7
    433c:	01 90       	ld	r0, Z+
    433e:	0d 92       	st	X+, r0
    4340:	1a 95       	dec	r17
    4342:	e1 f7       	brne	.-8      	; 0x433c <SchedulerBasicP__TaskBasic__runTask+0x2070>
    4344:	83 e0       	ldi	r24, 0x03	; 3
    4346:	0e 94 1f 03 	call	0x63e	; 0x63e <SchedulerBasicP__TaskBasic__postTask>
    434a:	0f b6       	in	r0, 0x3f	; 63
    434c:	f8 94       	cli
    434e:	de bf       	out	0x3e, r29	; 62
    4350:	0f be       	out	0x3f, r0	; 63
    4352:	cd bf       	out	0x3d, r28	; 61
    4354:	80 91 6e 12 	lds	r24, 0x126E
    4358:	81 11       	cpse	r24, r1
    435a:	0c c0       	rjmp	.+24     	; 0x4374 <SchedulerBasicP__TaskBasic__runTask+0x20a8>
    435c:	8f b7       	in	r24, 0x3f	; 63
    435e:	f8 94       	cli
    4360:	94 e0       	ldi	r25, 0x04	; 4
    4362:	90 93 68 12 	sts	0x1268, r25
    4366:	10 92 6d 12 	sts	0x126D, r1
    436a:	8f bf       	out	0x3f, r24	; 63
    436c:	80 e0       	ldi	r24, 0x00	; 0
    436e:	0e 94 c0 08 	call	0x1180	; 0x1180 <FMClickP__enableRDS>
    4372:	ab c2       	rjmp	.+1366   	; 0x48ca <SchedulerBasicP__TaskBasic__runTask+0x25fe>
    4374:	8f b7       	in	r24, 0x3f	; 63
    4376:	f8 94       	cli
    4378:	10 92 68 12 	sts	0x1268, r1
    437c:	10 92 6d 12 	sts	0x126D, r1
    4380:	8f bf       	out	0x3f, r24	; 63
    4382:	a3 c2       	rjmp	.+1350   	; 0x48ca <SchedulerBasicP__TaskBasic__runTask+0x25fe>
    4384:	9f b7       	in	r25, 0x3f	; 63
    4386:	f8 94       	cli
    4388:	80 91 69 12 	lds	r24, 0x1269
    438c:	9f bf       	out	0x3f, r25	; 63
    438e:	88 23       	and	r24, r24
    4390:	19 f0       	breq	.+6      	; 0x4398 <SchedulerBasicP__TaskBasic__runTask+0x20cc>
    4392:	0e 94 53 03 	call	0x6a6	; 0x6a6 <FMClickP__readRegisters__postTask>
    4396:	99 c2       	rjmp	.+1330   	; 0x48ca <SchedulerBasicP__TaskBasic__runTask+0x25fe>
    4398:	8f b7       	in	r24, 0x3f	; 63
    439a:	f8 94       	cli
    439c:	91 e0       	ldi	r25, 0x01	; 1
    439e:	90 93 69 12 	sts	0x1269, r25
    43a2:	8f bf       	out	0x3f, r24	; 63
    43a4:	0e 94 16 08 	call	0x102c	; 0x102c <ArbiterP__0__Resource__request.constprop.147>
    43a8:	90 c2       	rjmp	.+1312   	; 0x48ca <SchedulerBasicP__TaskBasic__runTask+0x25fe>
    43aa:	0e 94 80 0d 	call	0x1b00	; 0x1b00 <FMClickP__readI2C__runTask>
    43ae:	8d c2       	rjmp	.+1306   	; 0x48ca <SchedulerBasicP__TaskBasic__runTask+0x25fe>
    43b0:	9f b7       	in	r25, 0x3f	; 63
    43b2:	f8 94       	cli
    43b4:	80 91 69 12 	lds	r24, 0x1269
    43b8:	9f bf       	out	0x3f, r25	; 63
    43ba:	88 23       	and	r24, r24
    43bc:	19 f0       	breq	.+6      	; 0x43c4 <SchedulerBasicP__TaskBasic__runTask+0x20f8>
    43be:	0e 94 47 03 	call	0x68e	; 0x68e <FMClickP__writeRegisters__postTask>
    43c2:	83 c2       	rjmp	.+1286   	; 0x48ca <SchedulerBasicP__TaskBasic__runTask+0x25fe>
    43c4:	9f b7       	in	r25, 0x3f	; 63
    43c6:	f8 94       	cli
    43c8:	82 e0       	ldi	r24, 0x02	; 2
    43ca:	80 93 69 12 	sts	0x1269, r24
    43ce:	80 91 60 12 	lds	r24, 0x1260
    43d2:	88 0f       	add	r24, r24
    43d4:	82 50       	subi	r24, 0x02	; 2
    43d6:	9f bf       	out	0x3f, r25	; 63
    43d8:	20 e0       	ldi	r18, 0x00	; 0
    43da:	92 e0       	ldi	r25, 0x02	; 2
    43dc:	28 17       	cp	r18, r24
    43de:	b0 f4       	brcc	.+44     	; 0x440c <SchedulerBasicP__TaskBasic__runTask+0x2140>
    43e0:	3f b7       	in	r19, 0x3f	; 63
    43e2:	f8 94       	cli
    43e4:	42 2f       	mov	r20, r18
    43e6:	50 e0       	ldi	r21, 0x00	; 0
    43e8:	e9 2f       	mov	r30, r25
    43ea:	f0 e0       	ldi	r31, 0x00	; 0
    43ec:	ee 0f       	add	r30, r30
    43ee:	ff 1f       	adc	r31, r31
    43f0:	ed 5f       	subi	r30, 0xFD	; 253
    43f2:	f5 4f       	sbci	r31, 0xF5	; 245
    43f4:	60 81       	ld	r22, Z
    43f6:	71 81       	ldd	r23, Z+1	; 0x01
    43f8:	fa 01       	movw	r30, r20
    43fa:	eb 5f       	subi	r30, 0xFB	; 251
    43fc:	fd 4e       	sbci	r31, 0xED	; 237
    43fe:	70 83       	st	Z, r23
    4400:	61 83       	std	Z+1, r22	; 0x01
    4402:	3f bf       	out	0x3f, r19	; 63
    4404:	9f 5f       	subi	r25, 0xFF	; 255
    4406:	9f 70       	andi	r25, 0x0F	; 15
    4408:	2e 5f       	subi	r18, 0xFE	; 254
    440a:	e8 cf       	rjmp	.-48     	; 0x43dc <SchedulerBasicP__TaskBasic__runTask+0x2110>
    440c:	0e 94 16 08 	call	0x102c	; 0x102c <ArbiterP__0__Resource__request.constprop.147>
    4410:	5c c2       	rjmp	.+1208   	; 0x48ca <SchedulerBasicP__TaskBasic__runTask+0x25fe>
    4412:	9f b7       	in	r25, 0x3f	; 63
    4414:	f8 94       	cli
    4416:	80 91 60 12 	lds	r24, 0x1260
    441a:	9f bf       	out	0x3f, r25	; 63
    441c:	9f b7       	in	r25, 0x3f	; 63
    441e:	f8 94       	cli
    4420:	20 91 0d 02 	lds	r18, 0x020D
    4424:	21 11       	cpse	r18, r1
    4426:	36 c0       	rjmp	.+108    	; 0x4494 <SchedulerBasicP__TaskBasic__runTask+0x21c8>
    4428:	9f bf       	out	0x3f, r25	; 63
    442a:	9f b7       	in	r25, 0x3f	; 63
    442c:	f8 94       	cli
    442e:	20 91 91 02 	lds	r18, 0x0291
    4432:	21 30       	cpi	r18, 0x01	; 1
    4434:	79 f5       	brne	.+94     	; 0x4494 <SchedulerBasicP__TaskBasic__runTask+0x21c8>
    4436:	22 e0       	ldi	r18, 0x02	; 2
    4438:	20 93 91 02 	sts	0x0291, r18
    443c:	9f bf       	out	0x3f, r25	; 63
    443e:	9f b7       	in	r25, 0x3f	; 63
    4440:	f8 94       	cli
    4442:	20 e1       	ldi	r18, 0x10	; 16
    4444:	30 e0       	ldi	r19, 0x00	; 0
    4446:	30 93 ce 0e 	sts	0x0ECE, r19
    444a:	20 93 cd 0e 	sts	0x0ECD, r18
    444e:	25 e0       	ldi	r18, 0x05	; 5
    4450:	32 e1       	ldi	r19, 0x12	; 18
    4452:	30 93 97 0c 	sts	0x0C97, r19
    4456:	20 93 96 0c 	sts	0x0C96, r18
    445a:	88 0f       	add	r24, r24
    445c:	82 50       	subi	r24, 0x02	; 2
    445e:	80 93 d4 07 	sts	0x07D4, r24
    4462:	83 e0       	ldi	r24, 0x03	; 3
    4464:	80 93 f9 12 	sts	0x12F9, r24
    4468:	10 92 61 12 	sts	0x1261, r1
    446c:	10 92 90 02 	sts	0x0290, r1
    4470:	9f bf       	out	0x3f, r25	; 63
    4472:	0e 94 72 03 	call	0x6e4	; 0x6e4 <HplAtm128I2CBusP__I2C__readCurrent>
    4476:	1f b7       	in	r17, 0x3f	; 63
    4478:	f8 94       	cli
    447a:	80 91 e5 11 	lds	r24, 0x11E5
    447e:	8f 7e       	andi	r24, 0xEF	; 239
    4480:	81 6e       	ori	r24, 0xE1	; 225
    4482:	80 93 e5 11 	sts	0x11E5, r24
    4486:	84 e0       	ldi	r24, 0x04	; 4
    4488:	80 93 91 02 	sts	0x0291, r24
    448c:	0e 94 fe 02 	call	0x5fc	; 0x5fc <HplAtm128I2CBusP__I2C__sendCommand>
    4490:	1f bf       	out	0x3f, r17	; 63
    4492:	1b c2       	rjmp	.+1078   	; 0x48ca <SchedulerBasicP__TaskBasic__runTask+0x25fe>
    4494:	9f bf       	out	0x3f, r25	; 63
    4496:	81 e2       	ldi	r24, 0x21	; 33
    4498:	0e 94 1f 03 	call	0x63e	; 0x63e <SchedulerBasicP__TaskBasic__postTask>
    449c:	16 c2       	rjmp	.+1068   	; 0x48ca <SchedulerBasicP__TaskBasic__runTask+0x25fe>
    449e:	40 e0       	ldi	r20, 0x00	; 0
    44a0:	50 e0       	ldi	r21, 0x00	; 0
    44a2:	2a e0       	ldi	r18, 0x0A	; 10
    44a4:	da 01       	movw	r26, r20
    44a6:	ab 5f       	subi	r26, 0xFB	; 251
    44a8:	bd 4e       	sbci	r27, 0xED	; 237
    44aa:	e2 2f       	mov	r30, r18
    44ac:	f0 e0       	ldi	r31, 0x00	; 0
    44ae:	ee 0f       	add	r30, r30
    44b0:	ff 1f       	adc	r31, r31
    44b2:	ed 5f       	subi	r30, 0xFD	; 253
    44b4:	f5 4f       	sbci	r31, 0xF5	; 245
    44b6:	8c 91       	ld	r24, X
    44b8:	90 e0       	ldi	r25, 0x00	; 0
    44ba:	98 2f       	mov	r25, r24
    44bc:	88 27       	eor	r24, r24
    44be:	11 96       	adiw	r26, 0x01	; 1
    44c0:	3c 91       	ld	r19, X
    44c2:	83 2b       	or	r24, r19
    44c4:	91 83       	std	Z+1, r25	; 0x01
    44c6:	80 83       	st	Z, r24
    44c8:	2f 5f       	subi	r18, 0xFF	; 255
    44ca:	2f 70       	andi	r18, 0x0F	; 15
    44cc:	4e 5f       	subi	r20, 0xFE	; 254
    44ce:	5f 4f       	sbci	r21, 0xFF	; 255
    44d0:	40 32       	cpi	r20, 0x20	; 32
    44d2:	51 05       	cpc	r21, r1
    44d4:	39 f7       	brne	.-50     	; 0x44a4 <SchedulerBasicP__TaskBasic__runTask+0x21d8>
    44d6:	f9 c1       	rjmp	.+1010   	; 0x48ca <SchedulerBasicP__TaskBasic__runTask+0x25fe>
    44d8:	8f b7       	in	r24, 0x3f	; 63
    44da:	f8 94       	cli
    44dc:	90 91 5f 12 	lds	r25, 0x125F
    44e0:	90 93 0e 02 	sts	0x020E, r25
    44e4:	93 e0       	ldi	r25, 0x03	; 3
    44e6:	90 93 92 02 	sts	0x0292, r25
    44ea:	8f bf       	out	0x3f, r24	; 63
    44ec:	80 91 0e 02 	lds	r24, 0x020E
    44f0:	9f b7       	in	r25, 0x3f	; 63
    44f2:	f8 94       	cli
    44f4:	80 93 0d 02 	sts	0x020D, r24
    44f8:	9f bf       	out	0x3f, r25	; 63
    44fa:	81 11       	cpse	r24, r1
    44fc:	e6 c1       	rjmp	.+972    	; 0x48ca <SchedulerBasicP__TaskBasic__runTask+0x25fe>
    44fe:	9f b7       	in	r25, 0x3f	; 63
    4500:	f8 94       	cli
    4502:	80 91 69 12 	lds	r24, 0x1269
    4506:	9f bf       	out	0x3f, r25	; 63
    4508:	81 30       	cpi	r24, 0x01	; 1
    450a:	31 f0       	breq	.+12     	; 0x4518 <SchedulerBasicP__TaskBasic__runTask+0x224c>
    450c:	82 30       	cpi	r24, 0x02	; 2
    450e:	41 f4       	brne	.+16     	; 0x4520 <SchedulerBasicP__TaskBasic__runTask+0x2254>
    4510:	81 e2       	ldi	r24, 0x21	; 33
    4512:	0e 94 1f 03 	call	0x63e	; 0x63e <SchedulerBasicP__TaskBasic__postTask>
    4516:	d9 c1       	rjmp	.+946    	; 0x48ca <SchedulerBasicP__TaskBasic__runTask+0x25fe>
    4518:	8f e1       	ldi	r24, 0x1F	; 31
    451a:	0e 94 1f 03 	call	0x63e	; 0x63e <SchedulerBasicP__TaskBasic__postTask>
    451e:	d5 c1       	rjmp	.+938    	; 0x48ca <SchedulerBasicP__TaskBasic__runTask+0x25fe>
    4520:	0e 94 d7 0a 	call	0x15ae	; 0x15ae <FMClickP__I2CResource__release>
    4524:	d2 c1       	rjmp	.+932    	; 0x48ca <SchedulerBasicP__TaskBasic__runTask+0x25fe>
    4526:	0e 94 56 11 	call	0x22ac	; 0x22ac <Atm128I2CMasterPacketP__0__stopTask__runTask>
    452a:	cf c1       	rjmp	.+926    	; 0x48ca <SchedulerBasicP__TaskBasic__runTask+0x25fe>
    452c:	8f b7       	in	r24, 0x3f	; 63
    452e:	f8 94       	cli
    4530:	90 91 cc 0e 	lds	r25, 0x0ECC
    4534:	90 93 0c 02 	sts	0x020C, r25
    4538:	93 e0       	ldi	r25, 0x03	; 3
    453a:	90 93 8e 02 	sts	0x028E, r25
    453e:	8f bf       	out	0x3f, r24	; 63
    4540:	80 91 0c 02 	lds	r24, 0x020C
    4544:	81 11       	cpse	r24, r1
    4546:	01 c0       	rjmp	.+2      	; 0x454a <SchedulerBasicP__TaskBasic__runTask+0x227e>
    4548:	80 98       	cbi	0x10, 0	; 16
    454a:	80 91 0c 02 	lds	r24, 0x020C
    454e:	81 11       	cpse	r24, r1
    4550:	bc c1       	rjmp	.+888    	; 0x48ca <SchedulerBasicP__TaskBasic__runTask+0x25fe>
    4552:	81 e0       	ldi	r24, 0x01	; 1
    4554:	80 93 6f 0f 	sts	0x0F6F, r24
    4558:	10 92 c4 12 	sts	0x12C4, r1
    455c:	0e 94 8b 0a 	call	0x1516	; 0x1516 <AdcP__sample>
    4560:	b4 c1       	rjmp	.+872    	; 0x48ca <SchedulerBasicP__TaskBasic__runTask+0x25fe>
    4562:	10 92 6f 0f 	sts	0x0F6F, r1
    4566:	00 91 e7 11 	lds	r16, 0x11E7
    456a:	10 91 e8 11 	lds	r17, 0x11E8
    456e:	80 91 c4 12 	lds	r24, 0x12C4
    4572:	81 11       	cpse	r24, r1
    4574:	aa c1       	rjmp	.+852    	; 0x48ca <SchedulerBasicP__TaskBasic__runTask+0x25fe>
    4576:	ff b6       	in	r15, 0x3f	; 63
    4578:	f8 94       	cli
    457a:	80 91 8e 02 	lds	r24, 0x028E
    457e:	83 30       	cpi	r24, 0x03	; 3
    4580:	09 f0       	breq	.+2      	; 0x4584 <SchedulerBasicP__TaskBasic__runTask+0x22b8>
    4582:	41 c0       	rjmp	.+130    	; 0x4606 <SchedulerBasicP__TaskBasic__runTask+0x233a>
    4584:	80 91 0c 02 	lds	r24, 0x020C
    4588:	81 11       	cpse	r24, r1
    458a:	3d c0       	rjmp	.+122    	; 0x4606 <SchedulerBasicP__TaskBasic__runTask+0x233a>
    458c:	80 91 a5 11 	lds	r24, 0x11A5
    4590:	88 23       	and	r24, r24
    4592:	09 f4       	brne	.+2      	; 0x4596 <SchedulerBasicP__TaskBasic__runTask+0x22ca>
    4594:	8f c1       	rjmp	.+798    	; 0x48b4 <SchedulerBasicP__TaskBasic__runTask+0x25e8>
    4596:	60 91 8f 02 	lds	r22, 0x028F
    459a:	70 e0       	ldi	r23, 0x00	; 0
    459c:	ab 01       	movw	r20, r22
    459e:	4f 5f       	subi	r20, 0xFF	; 255
    45a0:	5f 4f       	sbci	r21, 0xFF	; 255
    45a2:	a1 e0       	ldi	r26, 0x01	; 1
    45a4:	b0 e0       	ldi	r27, 0x00	; 0
    45a6:	41 30       	cpi	r20, 0x01	; 1
    45a8:	51 05       	cpc	r21, r1
    45aa:	11 f4       	brne	.+4      	; 0x45b0 <SchedulerBasicP__TaskBasic__runTask+0x22e4>
    45ac:	40 e0       	ldi	r20, 0x00	; 0
    45ae:	50 e0       	ldi	r21, 0x00	; 0
    45b0:	84 2f       	mov	r24, r20
    45b2:	86 95       	lsr	r24
    45b4:	86 95       	lsr	r24
    45b6:	86 95       	lsr	r24
    45b8:	90 e0       	ldi	r25, 0x00	; 0
    45ba:	fc 01       	movw	r30, r24
    45bc:	eb 55       	subi	r30, 0x5B	; 91
    45be:	fe 4e       	sbci	r31, 0xEE	; 238
    45c0:	80 81       	ld	r24, Z
    45c2:	94 2f       	mov	r25, r20
    45c4:	97 70       	andi	r25, 0x07	; 7
    45c6:	9d 01       	movw	r18, r26
    45c8:	01 c0       	rjmp	.+2      	; 0x45cc <SchedulerBasicP__TaskBasic__runTask+0x2300>
    45ca:	22 0f       	add	r18, r18
    45cc:	9a 95       	dec	r25
    45ce:	ea f7       	brpl	.-6      	; 0x45ca <SchedulerBasicP__TaskBasic__runTask+0x22fe>
    45d0:	98 2f       	mov	r25, r24
    45d2:	92 23       	and	r25, r18
    45d4:	31 f0       	breq	.+12     	; 0x45e2 <SchedulerBasicP__TaskBasic__runTask+0x2316>
    45d6:	20 95       	com	r18
    45d8:	82 23       	and	r24, r18
    45da:	80 83       	st	Z, r24
    45dc:	40 93 8f 02 	sts	0x028F, r20
    45e0:	07 c0       	rjmp	.+14     	; 0x45f0 <SchedulerBasicP__TaskBasic__runTask+0x2324>
    45e2:	46 17       	cp	r20, r22
    45e4:	57 07       	cpc	r21, r23
    45e6:	19 f0       	breq	.+6      	; 0x45ee <SchedulerBasicP__TaskBasic__runTask+0x2322>
    45e8:	4f 5f       	subi	r20, 0xFF	; 255
    45ea:	5f 4f       	sbci	r21, 0xFF	; 255
    45ec:	dc cf       	rjmp	.-72     	; 0x45a6 <SchedulerBasicP__TaskBasic__runTask+0x22da>
    45ee:	4f ef       	ldi	r20, 0xFF	; 255
    45f0:	40 93 cc 0e 	sts	0x0ECC, r20
    45f4:	8f ef       	ldi	r24, 0xFF	; 255
    45f6:	80 93 0c 02 	sts	0x020C, r24
    45fa:	81 e0       	ldi	r24, 0x01	; 1
    45fc:	80 93 8e 02 	sts	0x028E, r24
    4600:	85 e2       	ldi	r24, 0x25	; 37
    4602:	0e 94 1f 03 	call	0x63e	; 0x63e <SchedulerBasicP__TaskBasic__postTask>
    4606:	ff be       	out	0x3f, r15	; 63
    4608:	86 e0       	ldi	r24, 0x06	; 6
    460a:	16 95       	lsr	r17
    460c:	07 95       	ror	r16
    460e:	8a 95       	dec	r24
    4610:	e1 f7       	brne	.-8      	; 0x460a <SchedulerBasicP__TaskBasic__runTask+0x233e>
    4612:	00 93 c6 03 	sts	0x03C6, r16
    4616:	84 e0       	ldi	r24, 0x04	; 4
    4618:	0e 94 1f 03 	call	0x63e	; 0x63e <SchedulerBasicP__TaskBasic__postTask>
    461c:	56 c1       	rjmp	.+684    	; 0x48ca <SchedulerBasicP__TaskBasic__runTask+0x25fe>
    461e:	80 91 d2 0e 	lds	r24, 0x0ED2
    4622:	81 30       	cpi	r24, 0x01	; 1
    4624:	e1 f4       	brne	.+56     	; 0x465e <SchedulerBasicP__TaskBasic__runTask+0x2392>
    4626:	60 e0       	ldi	r22, 0x00	; 0
    4628:	80 e8       	ldi	r24, 0x80	; 128
    462a:	0e 94 1d 0a 	call	0x143a	; 0x143a <HplLcdP__write>
    462e:	88 e2       	ldi	r24, 0x28	; 40
    4630:	90 e0       	ldi	r25, 0x00	; 0
    4632:	0e 94 cf 07 	call	0xf9e	; 0xf9e <BusyWaitMicroC__BusyWait__wait.part.0>
    4636:	00 e0       	ldi	r16, 0x00	; 0
    4638:	10 e0       	ldi	r17, 0x00	; 0
    463a:	f8 01       	movw	r30, r16
    463c:	e0 59       	subi	r30, 0x90	; 144
    463e:	f0 4f       	sbci	r31, 0xF0	; 240
    4640:	61 e0       	ldi	r22, 0x01	; 1
    4642:	80 81       	ld	r24, Z
    4644:	0e 94 1d 0a 	call	0x143a	; 0x143a <HplLcdP__write>
    4648:	88 e2       	ldi	r24, 0x28	; 40
    464a:	90 e0       	ldi	r25, 0x00	; 0
    464c:	0e 94 cf 07 	call	0xf9e	; 0xf9e <BusyWaitMicroC__BusyWait__wait.part.0>
    4650:	0f 5f       	subi	r16, 0xFF	; 255
    4652:	1f 4f       	sbci	r17, 0xFF	; 255
    4654:	00 31       	cpi	r16, 0x10	; 16
    4656:	11 05       	cpc	r17, r1
    4658:	81 f7       	brne	.-32     	; 0x463a <SchedulerBasicP__TaskBasic__runTask+0x236e>
    465a:	10 92 d2 0e 	sts	0x0ED2, r1
    465e:	80 91 d3 0e 	lds	r24, 0x0ED3
    4662:	81 30       	cpi	r24, 0x01	; 1
    4664:	09 f0       	breq	.+2      	; 0x4668 <SchedulerBasicP__TaskBasic__runTask+0x239c>
    4666:	31 c1       	rjmp	.+610    	; 0x48ca <SchedulerBasicP__TaskBasic__runTask+0x25fe>
    4668:	60 e0       	ldi	r22, 0x00	; 0
    466a:	80 ec       	ldi	r24, 0xC0	; 192
    466c:	0e 94 1d 0a 	call	0x143a	; 0x143a <HplLcdP__write>
    4670:	88 e2       	ldi	r24, 0x28	; 40
    4672:	90 e0       	ldi	r25, 0x00	; 0
    4674:	0e 94 cf 07 	call	0xf9e	; 0xf9e <BusyWaitMicroC__BusyWait__wait.part.0>
    4678:	00 e0       	ldi	r16, 0x00	; 0
    467a:	10 e0       	ldi	r17, 0x00	; 0
    467c:	f8 01       	movw	r30, r16
    467e:	e0 58       	subi	r30, 0x80	; 128
    4680:	f0 4f       	sbci	r31, 0xF0	; 240
    4682:	61 e0       	ldi	r22, 0x01	; 1
    4684:	80 81       	ld	r24, Z
    4686:	0e 94 1d 0a 	call	0x143a	; 0x143a <HplLcdP__write>
    468a:	88 e2       	ldi	r24, 0x28	; 40
    468c:	90 e0       	ldi	r25, 0x00	; 0
    468e:	0e 94 cf 07 	call	0xf9e	; 0xf9e <BusyWaitMicroC__BusyWait__wait.part.0>
    4692:	0f 5f       	subi	r16, 0xFF	; 255
    4694:	1f 4f       	sbci	r17, 0xFF	; 255
    4696:	00 31       	cpi	r16, 0x10	; 16
    4698:	11 05       	cpc	r17, r1
    469a:	81 f7       	brne	.-32     	; 0x467c <SchedulerBasicP__TaskBasic__runTask+0x23b0>
    469c:	10 92 d3 0e 	sts	0x0ED3, r1
    46a0:	14 c1       	rjmp	.+552    	; 0x48ca <SchedulerBasicP__TaskBasic__runTask+0x25fe>
    46a2:	0e 94 41 03 	call	0x682	; 0x682 <RadioScannerP__startTune__postTask>
    46a6:	11 c1       	rjmp	.+546    	; 0x48ca <SchedulerBasicP__TaskBasic__runTask+0x25fe>
    46a8:	e0 91 a5 02 	lds	r30, 0x02A5
    46ac:	ad e0       	ldi	r26, 0x0D	; 13
    46ae:	ea 9f       	mul	r30, r26
    46b0:	c0 01       	movw	r24, r0
    46b2:	11 24       	eor	r1, r1
    46b4:	fc 01       	movw	r30, r24
    46b6:	e2 5b       	subi	r30, 0xB2	; 178
    46b8:	f3 4f       	sbci	r31, 0xF3	; 243
    46ba:	26 e0       	ldi	r18, 0x06	; 6
    46bc:	a3 e2       	ldi	r26, 0x23	; 35
    46be:	ba e0       	ldi	r27, 0x0A	; 10
    46c0:	01 90       	ld	r0, Z+
    46c2:	0d 92       	st	X+, r0
    46c4:	2a 95       	dec	r18
    46c6:	e1 f7       	brne	.-8      	; 0x46c0 <SchedulerBasicP__TaskBasic__runTask+0x23f4>
    46c8:	26 e0       	ldi	r18, 0x06	; 6
    46ca:	e6 e1       	ldi	r30, 0x16	; 22
    46cc:	f2 e0       	ldi	r31, 0x02	; 2
    46ce:	a9 e2       	ldi	r26, 0x29	; 41
    46d0:	ba e0       	ldi	r27, 0x0A	; 10
    46d2:	01 90       	ld	r0, Z+
    46d4:	0d 92       	st	X+, r0
    46d6:	2a 95       	dec	r18
    46d8:	e1 f7       	brne	.-8      	; 0x46d2 <SchedulerBasicP__TaskBasic__runTask+0x2406>
    46da:	fc 01       	movw	r30, r24
    46dc:	e3 5b       	subi	r30, 0xB3	; 179
    46de:	f3 4f       	sbci	r31, 0xF3	; 243
    46e0:	97 81       	ldd	r25, Z+7	; 0x07
    46e2:	80 85       	ldd	r24, Z+8	; 0x08
    46e4:	90 93 30 0a 	sts	0x0A30, r25
    46e8:	80 93 2f 0a 	sts	0x0A2F, r24
    46ec:	03 85       	ldd	r16, Z+11	; 0x0b
    46ee:	14 85       	ldd	r17, Z+12	; 0x0c
    46f0:	61 85       	ldd	r22, Z+9	; 0x09
    46f2:	72 85       	ldd	r23, Z+10	; 0x0a
    46f4:	a8 01       	movw	r20, r16
    46f6:	81 e3       	ldi	r24, 0x31	; 49
    46f8:	9a e0       	ldi	r25, 0x0A	; 10
    46fa:	0e 94 34 2d 	call	0x5a68	; 0x5a68 <memcpy>
    46fe:	80 91 98 02 	lds	r24, 0x0298
    4702:	81 11       	cpse	r24, r1
    4704:	1a c0       	rjmp	.+52     	; 0x473a <SchedulerBasicP__TaskBasic__runTask+0x246e>
    4706:	80 91 99 02 	lds	r24, 0x0299
    470a:	82 30       	cpi	r24, 0x02	; 2
    470c:	b1 f4       	brne	.+44     	; 0x473a <SchedulerBasicP__TaskBasic__runTask+0x246e>
    470e:	0e 94 39 0a 	call	0x1472	; 0x1472 <Atm1280SpiP__Resource__request.constprop.114>
    4712:	81 11       	cpse	r24, r1
    4714:	14 c0       	rjmp	.+40     	; 0x473e <SchedulerBasicP__TaskBasic__runTask+0x2472>
    4716:	83 e2       	ldi	r24, 0x23	; 35
    4718:	9a e0       	ldi	r25, 0x0A	; 10
    471a:	90 93 04 12 	sts	0x1204, r25
    471e:	80 93 03 12 	sts	0x1203, r24
    4722:	02 5f       	subi	r16, 0xF2	; 242
    4724:	1f 4f       	sbci	r17, 0xFF	; 255
    4726:	10 93 99 0c 	sts	0x0C99, r17
    472a:	00 93 98 0c 	sts	0x0C98, r16
    472e:	81 e0       	ldi	r24, 0x01	; 1
    4730:	80 93 98 02 	sts	0x0298, r24
    4734:	80 93 a4 02 	sts	0x02A4, r24
    4738:	c8 c0       	rjmp	.+400    	; 0x48ca <SchedulerBasicP__TaskBasic__runTask+0x25fe>
    473a:	65 e0       	ldi	r22, 0x05	; 5
    473c:	01 c0       	rjmp	.+2      	; 0x4740 <SchedulerBasicP__TaskBasic__runTask+0x2474>
    473e:	67 e0       	ldi	r22, 0x07	; 7
    4740:	80 91 a5 02 	lds	r24, 0x02A5
    4744:	bd e0       	ldi	r27, 0x0D	; 13
    4746:	8b 9f       	mul	r24, r27
    4748:	f0 01       	movw	r30, r0
    474a:	11 24       	eor	r1, r1
    474c:	e3 5b       	subi	r30, 0xB3	; 179
    474e:	f3 4f       	sbci	r31, 0xF3	; 243
    4750:	10 82       	st	Z, r1
    4752:	0e 94 71 0b 	call	0x16e2	; 0x16e2 <LlcQueueP__LlcQueue__sendDone>
    4756:	b9 c0       	rjmp	.+370    	; 0x48ca <SchedulerBasicP__TaskBasic__runTask+0x25fe>
    4758:	80 91 9f 02 	lds	r24, 0x029F
    475c:	28 2f       	mov	r18, r24
    475e:	30 e0       	ldi	r19, 0x00	; 0
    4760:	4d e1       	ldi	r20, 0x1D	; 29
    4762:	84 9f       	mul	r24, r20
    4764:	f0 01       	movw	r30, r0
    4766:	11 24       	eor	r1, r1
    4768:	af 01       	movw	r20, r30
    476a:	4a 5d       	subi	r20, 0xDA	; 218
    476c:	5d 4e       	sbci	r21, 0xED	; 237
    476e:	90 91 5a 0c 	lds	r25, 0x0C5A
    4772:	91 11       	cpse	r25, r1
    4774:	26 c0       	rjmp	.+76     	; 0x47c2 <SchedulerBasicP__TaskBasic__runTask+0x24f6>
    4776:	6b e5       	ldi	r22, 0x5B	; 91
    4778:	7c e0       	ldi	r23, 0x0C	; 12
    477a:	61 15       	cp	r22, r1
    477c:	71 05       	cpc	r23, r1
    477e:	09 f1       	breq	.+66     	; 0x47c2 <SchedulerBasicP__TaskBasic__runTask+0x24f6>
    4780:	e8 5c       	subi	r30, 0xC8	; 200
    4782:	fd 4e       	sbci	r31, 0xED	; 237
    4784:	86 e0       	ldi	r24, 0x06	; 6
    4786:	db 01       	movw	r26, r22
    4788:	01 90       	ld	r0, Z+
    478a:	0d 92       	st	X+, r0
    478c:	8a 95       	dec	r24
    478e:	e1 f7       	brne	.-8      	; 0x4788 <SchedulerBasicP__TaskBasic__runTask+0x24bc>
    4790:	86 e0       	ldi	r24, 0x06	; 6
    4792:	98 e0       	ldi	r25, 0x08	; 8
    4794:	90 93 62 0c 	sts	0x0C62, r25
    4798:	80 93 61 0c 	sts	0x0C61, r24
    479c:	50 93 64 0c 	sts	0x0C64, r21
    47a0:	40 93 63 0c 	sts	0x0C63, r20
    47a4:	8c e1       	ldi	r24, 0x1C	; 28
    47a6:	90 e0       	ldi	r25, 0x00	; 0
    47a8:	90 93 66 0c 	sts	0x0C66, r25
    47ac:	80 93 65 0c 	sts	0x0C65, r24
    47b0:	11 e0       	ldi	r17, 0x01	; 1
    47b2:	10 93 5a 0c 	sts	0x0C5A, r17
    47b6:	80 e1       	ldi	r24, 0x10	; 16
    47b8:	0e 94 1f 03 	call	0x63e	; 0x63e <SchedulerBasicP__TaskBasic__postTask>
    47bc:	10 93 9e 02 	sts	0x029E, r17
    47c0:	84 c0       	rjmp	.+264    	; 0x48ca <SchedulerBasicP__TaskBasic__runTask+0x25fe>
    47c2:	9d e1       	ldi	r25, 0x1D	; 29
    47c4:	92 9f       	mul	r25, r18
    47c6:	f0 01       	movw	r30, r0
    47c8:	93 9f       	mul	r25, r19
    47ca:	f0 0d       	add	r31, r0
    47cc:	11 24       	eor	r1, r1
    47ce:	eb 5d       	subi	r30, 0xDB	; 219
    47d0:	fd 4e       	sbci	r31, 0xED	; 237
    47d2:	10 82       	st	Z, r1
    47d4:	65 e0       	ldi	r22, 0x05	; 5
    47d6:	0e 94 5e 0b 	call	0x16bc	; 0x16bc <ArpP__PacketQueue__sendDone>
    47da:	77 c0       	rjmp	.+238    	; 0x48ca <SchedulerBasicP__TaskBasic__runTask+0x25fe>
    47dc:	80 91 9d 02 	lds	r24, 0x029D
    47e0:	78 e0       	ldi	r23, 0x08	; 8
    47e2:	87 9f       	mul	r24, r23
    47e4:	c0 01       	movw	r24, r0
    47e6:	11 24       	eor	r1, r1
    47e8:	88 54       	subi	r24, 0x48	; 72
    47ea:	91 4f       	sbci	r25, 0xF1	; 241
    47ec:	0e 94 d3 0b 	call	0x17a6	; 0x17a6 <IpTransceiverP__PacketSender__send>
    47f0:	68 2f       	mov	r22, r24
    47f2:	88 23       	and	r24, r24
    47f4:	61 f0       	breq	.+24     	; 0x480e <SchedulerBasicP__TaskBasic__runTask+0x2542>
    47f6:	80 91 9d 02 	lds	r24, 0x029D
    47fa:	28 e0       	ldi	r18, 0x08	; 8
    47fc:	82 9f       	mul	r24, r18
    47fe:	f0 01       	movw	r30, r0
    4800:	11 24       	eor	r1, r1
    4802:	e9 54       	subi	r30, 0x49	; 73
    4804:	f1 4f       	sbci	r31, 0xF1	; 241
    4806:	10 82       	st	Z, r1
    4808:	0e 94 3d 0b 	call	0x167a	; 0x167a <IpQueueP__IpQueue__sendDone>
    480c:	5e c0       	rjmp	.+188    	; 0x48ca <SchedulerBasicP__TaskBasic__runTask+0x25fe>
    480e:	81 e0       	ldi	r24, 0x01	; 1
    4810:	80 93 9c 02 	sts	0x029C, r24
    4814:	5a c0       	rjmp	.+180    	; 0x48ca <SchedulerBasicP__TaskBasic__runTask+0x25fe>
    4816:	8c b5       	in	r24, 0x2c	; 44
    4818:	8f 7b       	andi	r24, 0xBF	; 191
    481a:	8c bd       	out	0x2c, r24	; 44
    481c:	77 ca       	rjmp	.-2834   	; 0x3d0c <SchedulerBasicP__TaskBasic__runTask+0x1a40>
    481e:	90 91 95 0f 	lds	r25, 0x0F95
    4822:	80 91 96 0f 	lds	r24, 0x0F96
    4826:	90 93 9e 0f 	sts	0x0F9E, r25
    482a:	80 93 9d 0f 	sts	0x0F9D, r24
    482e:	90 91 97 0f 	lds	r25, 0x0F97
    4832:	80 91 98 0f 	lds	r24, 0x0F98
    4836:	90 93 a0 0f 	sts	0x0FA0, r25
    483a:	80 93 9f 0f 	sts	0x0F9F, r24
    483e:	40 91 9b 0f 	lds	r20, 0x0F9B
    4842:	50 91 9c 0f 	lds	r21, 0x0F9C
    4846:	8a 01       	movw	r16, r20
    4848:	08 5f       	subi	r16, 0xF8	; 248
    484a:	1f 4f       	sbci	r17, 0xFF	; 255
    484c:	00 93 a2 0f 	sts	0x0FA2, r16
    4850:	10 93 a1 0f 	sts	0x0FA1, r17
    4854:	60 91 99 0f 	lds	r22, 0x0F99
    4858:	70 91 9a 0f 	lds	r23, 0x0F9A
    485c:	85 ea       	ldi	r24, 0xA5	; 165
    485e:	9f e0       	ldi	r25, 0x0F	; 15
    4860:	0e 94 34 2d 	call	0x5a68	; 0x5a68 <memcpy>
    4864:	80 91 bf 0e 	lds	r24, 0x0EBF
    4868:	81 11       	cpse	r24, r1
    486a:	1f c0       	rjmp	.+62     	; 0x48aa <SchedulerBasicP__TaskBasic__runTask+0x25de>
    486c:	80 ec       	ldi	r24, 0xC0	; 192
    486e:	9e e0       	ldi	r25, 0x0E	; 14
    4870:	89 2b       	or	r24, r25
    4872:	d9 f0       	breq	.+54     	; 0x48aa <SchedulerBasicP__TaskBasic__runTask+0x25de>
    4874:	81 e9       	ldi	r24, 0x91	; 145
    4876:	9f e0       	ldi	r25, 0x0F	; 15
    4878:	90 93 c1 0e 	sts	0x0EC1, r25
    487c:	80 93 c0 0e 	sts	0x0EC0, r24
    4880:	81 e1       	ldi	r24, 0x11	; 17
    4882:	80 93 c2 0e 	sts	0x0EC2, r24
    4886:	8d e9       	ldi	r24, 0x9D	; 157
    4888:	9f e0       	ldi	r25, 0x0F	; 15
    488a:	90 93 c4 0e 	sts	0x0EC4, r25
    488e:	80 93 c3 0e 	sts	0x0EC3, r24
    4892:	10 93 c6 0e 	sts	0x0EC6, r17
    4896:	00 93 c5 0e 	sts	0x0EC5, r16
    489a:	f0 92 bf 0e 	sts	0x0EBF, r15
    489e:	84 e1       	ldi	r24, 0x14	; 20
    48a0:	0e 94 1f 03 	call	0x63e	; 0x63e <SchedulerBasicP__TaskBasic__postTask>
    48a4:	f0 92 93 02 	sts	0x0293, r15
    48a8:	10 c0       	rjmp	.+32     	; 0x48ca <SchedulerBasicP__TaskBasic__runTask+0x25fe>
    48aa:	10 92 90 0f 	sts	0x0F90, r1
    48ae:	0e 94 44 03 	call	0x688	; 0x688 <DatabaseP__sendTask__postTask>
    48b2:	0b c0       	rjmp	.+22     	; 0x48ca <SchedulerBasicP__TaskBasic__runTask+0x25fe>
    48b4:	81 e0       	ldi	r24, 0x01	; 1
    48b6:	80 93 0c 02 	sts	0x020C, r24
    48ba:	10 92 8e 02 	sts	0x028E, r1
    48be:	80 91 7a 00 	lds	r24, 0x007A
    48c2:	8f 77       	andi	r24, 0x7F	; 127
    48c4:	80 93 7a 00 	sts	0x007A, r24
    48c8:	9e ce       	rjmp	.-708    	; 0x4606 <SchedulerBasicP__TaskBasic__runTask+0x233a>
    48ca:	c5 57       	subi	r28, 0x75	; 117
    48cc:	df 4f       	sbci	r29, 0xFF	; 255
    48ce:	0f b6       	in	r0, 0x3f	; 63
    48d0:	f8 94       	cli
    48d2:	de bf       	out	0x3e, r29	; 62
    48d4:	0f be       	out	0x3f, r0	; 63
    48d6:	cd bf       	out	0x3d, r28	; 61
    48d8:	df 91       	pop	r29
    48da:	cf 91       	pop	r28
    48dc:	1f 91       	pop	r17
    48de:	0f 91       	pop	r16
    48e0:	ff 90       	pop	r15
    48e2:	ef 90       	pop	r14
    48e4:	df 90       	pop	r13
    48e6:	cf 90       	pop	r12
    48e8:	bf 90       	pop	r11
    48ea:	af 90       	pop	r10
    48ec:	9f 90       	pop	r9
    48ee:	8f 90       	pop	r8
    48f0:	7f 90       	pop	r7
    48f2:	6f 90       	pop	r6
    48f4:	5f 90       	pop	r5
    48f6:	4f 90       	pop	r4
    48f8:	3f 90       	pop	r3
    48fa:	2f 90       	pop	r2
    48fc:	08 95       	ret

000048fe <Atm128I2CMasterPacketP__0__i2c_abort>:
    48fe:	cf 93       	push	r28
    4900:	df 93       	push	r29
    4902:	1f 92       	push	r1
    4904:	cd b7       	in	r28, 0x3d	; 61
    4906:	de b7       	in	r29, 0x3e	; 62
    4908:	89 83       	std	Y+1, r24	; 0x01
    490a:	0e 94 72 03 	call	0x6e4	; 0x6e4 <HplAtm128I2CBusP__I2C__readCurrent>
    490e:	90 91 e5 11 	lds	r25, 0x11E5
    4912:	9a 7f       	andi	r25, 0xFA	; 250
    4914:	90 93 e5 11 	sts	0x11E5, r25
    4918:	0e 94 fe 02 	call	0x5fc	; 0x5fc <HplAtm128I2CBusP__I2C__sendCommand>
    491c:	0e 94 72 03 	call	0x6e4	; 0x6e4 <HplAtm128I2CBusP__I2C__readCurrent>
    4920:	90 91 e5 11 	lds	r25, 0x11E5
    4924:	94 60       	ori	r25, 0x04	; 4
    4926:	90 93 e5 11 	sts	0x11E5, r25
    492a:	0e 94 fe 02 	call	0x5fc	; 0x5fc <HplAtm128I2CBusP__I2C__sendCommand>
    492e:	91 e0       	ldi	r25, 0x01	; 1
    4930:	90 93 91 02 	sts	0x0291, r25
    4934:	20 91 90 02 	lds	r18, 0x0290
    4938:	90 91 0d 02 	lds	r25, 0x020D
    493c:	89 81       	ldd	r24, Y+1	; 0x01
    493e:	22 23       	and	r18, r18
    4940:	39 f0       	breq	.+14     	; 0x4950 <Atm128I2CMasterPacketP__0__i2c_abort+0x52>
    4942:	91 11       	cpse	r25, r1
    4944:	0c c0       	rjmp	.+24     	; 0x495e <Atm128I2CMasterPacketP__0__i2c_abort+0x60>
    4946:	0f 90       	pop	r0
    4948:	df 91       	pop	r29
    494a:	cf 91       	pop	r28
    494c:	0c 94 90 10 	jmp	0x2120	; 0x2120 <FMClickP__I2C__readDone.isra.78>
    4950:	91 11       	cpse	r25, r1
    4952:	05 c0       	rjmp	.+10     	; 0x495e <Atm128I2CMasterPacketP__0__i2c_abort+0x60>
    4954:	0f 90       	pop	r0
    4956:	df 91       	pop	r29
    4958:	cf 91       	pop	r28
    495a:	0c 94 00 11 	jmp	0x2200	; 0x2200 <FMClickP__I2C__writeDone.isra.73>
    495e:	0f 90       	pop	r0
    4960:	df 91       	pop	r29
    4962:	cf 91       	pop	r28
    4964:	08 95       	ret

00004966 <__nesc_atomic_start>:
    4966:	8f b7       	in	r24, 0x3f	; 63
    4968:	f8 94       	cli
    496a:	08 95       	ret

0000496c <__nesc_atomic_end>:
    496c:	8f bf       	out	0x3f, r24	; 63
    496e:	08 95       	ret

00004970 <__vector_13>:
    4970:	1f 92       	push	r1
    4972:	0f 92       	push	r0
    4974:	0f b6       	in	r0, 0x3f	; 63
    4976:	0f 92       	push	r0
    4978:	11 24       	eor	r1, r1
    497a:	0b b6       	in	r0, 0x3b	; 59
    497c:	0f 92       	push	r0
    497e:	2f 93       	push	r18
    4980:	3f 93       	push	r19
    4982:	4f 93       	push	r20
    4984:	5f 93       	push	r21
    4986:	6f 93       	push	r22
    4988:	7f 93       	push	r23
    498a:	8f 93       	push	r24
    498c:	9f 93       	push	r25
    498e:	af 93       	push	r26
    4990:	bf 93       	push	r27
    4992:	ef 93       	push	r30
    4994:	ff 93       	push	r31
    4996:	2f b7       	in	r18, 0x3f	; 63
    4998:	f8 94       	cli
    499a:	80 91 c7 0e 	lds	r24, 0x0EC7
    499e:	90 91 c8 0e 	lds	r25, 0x0EC8
    49a2:	a0 91 c9 0e 	lds	r26, 0x0EC9
    49a6:	b0 91 ca 0e 	lds	r27, 0x0ECA
    49aa:	01 96       	adiw	r24, 0x01	; 1
    49ac:	a1 1d       	adc	r26, r1
    49ae:	b1 1d       	adc	r27, r1
    49b0:	80 93 c7 0e 	sts	0x0EC7, r24
    49b4:	90 93 c8 0e 	sts	0x0EC8, r25
    49b8:	a0 93 c9 0e 	sts	0x0EC9, r26
    49bc:	b0 93 ca 0e 	sts	0x0ECA, r27
    49c0:	2f bf       	out	0x3f, r18	; 63
    49c2:	78 94       	sei
    49c4:	0e 94 62 04 	call	0x8c4	; 0x8c4 <Atm1280AlarmSyncP__0__checkAlarm>
    49c8:	ff 91       	pop	r31
    49ca:	ef 91       	pop	r30
    49cc:	bf 91       	pop	r27
    49ce:	af 91       	pop	r26
    49d0:	9f 91       	pop	r25
    49d2:	8f 91       	pop	r24
    49d4:	7f 91       	pop	r23
    49d6:	6f 91       	pop	r22
    49d8:	5f 91       	pop	r21
    49da:	4f 91       	pop	r20
    49dc:	3f 91       	pop	r19
    49de:	2f 91       	pop	r18
    49e0:	0f 90       	pop	r0
    49e2:	0b be       	out	0x3b, r0	; 59
    49e4:	0f 90       	pop	r0
    49e6:	0f be       	out	0x3f, r0	; 63
    49e8:	0f 90       	pop	r0
    49ea:	1f 90       	pop	r1
    49ec:	18 95       	reti

000049ee <__vector_15>:
    49ee:	1f 92       	push	r1
    49f0:	0f 92       	push	r0
    49f2:	0f b6       	in	r0, 0x3f	; 63
    49f4:	0f 92       	push	r0
    49f6:	11 24       	eor	r1, r1
    49f8:	0f 90       	pop	r0
    49fa:	0f be       	out	0x3f, r0	; 63
    49fc:	0f 90       	pop	r0
    49fe:	1f 90       	pop	r1
    4a00:	18 95       	reti

00004a02 <__vector_24>:
    4a02:	1f 92       	push	r1
    4a04:	0f 92       	push	r0
    4a06:	0f b6       	in	r0, 0x3f	; 63
    4a08:	0f 92       	push	r0
    4a0a:	11 24       	eor	r1, r1
    4a0c:	0b b6       	in	r0, 0x3b	; 59
    4a0e:	0f 92       	push	r0
    4a10:	cf 92       	push	r12
    4a12:	df 92       	push	r13
    4a14:	ef 92       	push	r14
    4a16:	ff 92       	push	r15
    4a18:	0f 93       	push	r16
    4a1a:	1f 93       	push	r17
    4a1c:	2f 93       	push	r18
    4a1e:	3f 93       	push	r19
    4a20:	4f 93       	push	r20
    4a22:	5f 93       	push	r21
    4a24:	6f 93       	push	r22
    4a26:	7f 93       	push	r23
    4a28:	8f 93       	push	r24
    4a2a:	9f 93       	push	r25
    4a2c:	af 93       	push	r26
    4a2e:	bf 93       	push	r27
    4a30:	cf 93       	push	r28
    4a32:	df 93       	push	r29
    4a34:	ef 93       	push	r30
    4a36:	ff 93       	push	r31
    4a38:	2e b5       	in	r18, 0x2e	; 46
    4a3a:	e0 91 d6 07 	lds	r30, 0x07D6
    4a3e:	f0 91 d7 07 	lds	r31, 0x07D7
    4a42:	30 97       	sbiw	r30, 0x00	; 0
    4a44:	39 f0       	breq	.+14     	; 0x4a54 <__vector_24+0x52>
    4a46:	80 91 d0 0e 	lds	r24, 0x0ED0
    4a4a:	90 91 d1 0e 	lds	r25, 0x0ED1
    4a4e:	e8 0f       	add	r30, r24
    4a50:	f9 1f       	adc	r31, r25
    4a52:	20 83       	st	Z, r18
    4a54:	80 91 d0 0e 	lds	r24, 0x0ED0
    4a58:	90 91 d1 0e 	lds	r25, 0x0ED1
    4a5c:	01 96       	adiw	r24, 0x01	; 1
    4a5e:	90 93 d1 0e 	sts	0x0ED1, r25
    4a62:	80 93 d0 0e 	sts	0x0ED0, r24
    4a66:	8c b5       	in	r24, 0x2c	; 44
    4a68:	8f 77       	andi	r24, 0x7F	; 127
    4a6a:	8c bd       	out	0x2c, r24	; 44
    4a6c:	c0 91 d0 0e 	lds	r28, 0x0ED0
    4a70:	d0 91 d1 0e 	lds	r29, 0x0ED1
    4a74:	20 91 c5 12 	lds	r18, 0x12C5
    4a78:	30 91 c6 12 	lds	r19, 0x12C6
    4a7c:	c2 17       	cp	r28, r18
    4a7e:	d3 07       	cpc	r29, r19
    4a80:	d8 f5       	brcc	.+118    	; 0x4af8 <__vector_24+0xf6>
    4a82:	00 91 93 0c 	lds	r16, 0x0C93
    4a86:	10 91 94 0c 	lds	r17, 0x0C94
    4a8a:	c0 90 d6 07 	lds	r12, 0x07D6
    4a8e:	d0 90 d7 07 	lds	r13, 0x07D7
    4a92:	ce 01       	movw	r24, r28
    4a94:	0a 96       	adiw	r24, 0x0a	; 10
    4a96:	28 17       	cp	r18, r24
    4a98:	39 07       	cpc	r19, r25
    4a9a:	08 f4       	brcc	.+2      	; 0x4a9e <__vector_24+0x9c>
    4a9c:	c9 01       	movw	r24, r18
    4a9e:	7c 01       	movw	r14, r24
    4aa0:	21 e0       	ldi	r18, 0x01	; 1
    4aa2:	e2 1a       	sub	r14, r18
    4aa4:	f1 08       	sbc	r15, r1
    4aa6:	ce 15       	cp	r28, r14
    4aa8:	df 05       	cpc	r29, r15
    4aaa:	a0 f4       	brcc	.+40     	; 0x4ad4 <__vector_24+0xd2>
    4aac:	01 15       	cp	r16, r1
    4aae:	11 05       	cpc	r17, r1
    4ab0:	29 f0       	breq	.+10     	; 0x4abc <__vector_24+0xba>
    4ab2:	f8 01       	movw	r30, r16
    4ab4:	ec 0f       	add	r30, r28
    4ab6:	fd 1f       	adc	r31, r29
    4ab8:	80 81       	ld	r24, Z
    4aba:	01 c0       	rjmp	.+2      	; 0x4abe <__vector_24+0xbc>
    4abc:	80 e0       	ldi	r24, 0x00	; 0
    4abe:	0e 94 b0 03 	call	0x760	; 0x760 <Atm1280SpiP__SpiByte__write>
    4ac2:	c1 14       	cp	r12, r1
    4ac4:	d1 04       	cpc	r13, r1
    4ac6:	21 f0       	breq	.+8      	; 0x4ad0 <__vector_24+0xce>
    4ac8:	f6 01       	movw	r30, r12
    4aca:	ec 0f       	add	r30, r28
    4acc:	fd 1f       	adc	r31, r29
    4ace:	80 83       	st	Z, r24
    4ad0:	21 96       	adiw	r28, 0x01	; 1
    4ad2:	e9 cf       	rjmp	.-46     	; 0x4aa6 <__vector_24+0xa4>
    4ad4:	8c b5       	in	r24, 0x2c	; 44
    4ad6:	80 68       	ori	r24, 0x80	; 128
    4ad8:	8c bd       	out	0x2c, r24	; 44
    4ada:	01 15       	cp	r16, r1
    4adc:	11 05       	cpc	r17, r1
    4ade:	31 f0       	breq	.+12     	; 0x4aec <__vector_24+0xea>
    4ae0:	f8 01       	movw	r30, r16
    4ae2:	ec 0f       	add	r30, r28
    4ae4:	fd 1f       	adc	r31, r29
    4ae6:	80 81       	ld	r24, Z
    4ae8:	8e bd       	out	0x2e, r24	; 46
    4aea:	01 c0       	rjmp	.+2      	; 0x4aee <__vector_24+0xec>
    4aec:	1e bc       	out	0x2e, r1	; 46
    4aee:	d0 93 d1 0e 	sts	0x0ED1, r29
    4af2:	c0 93 d0 0e 	sts	0x0ED0, r28
    4af6:	11 c0       	rjmp	.+34     	; 0x4b1a <__vector_24+0x118>
    4af8:	10 92 d7 07 	sts	0x07D7, r1
    4afc:	10 92 d6 07 	sts	0x07D6, r1
    4b00:	10 92 94 0c 	sts	0x0C94, r1
    4b04:	10 92 93 0c 	sts	0x0C93, r1
    4b08:	10 92 c6 12 	sts	0x12C6, r1
    4b0c:	10 92 c5 12 	sts	0x12C5, r1
    4b10:	10 92 d1 0e 	sts	0x0ED1, r1
    4b14:	10 92 d0 0e 	sts	0x0ED0, r1
    4b18:	8e b5       	in	r24, 0x2e	; 46
    4b1a:	ff 91       	pop	r31
    4b1c:	ef 91       	pop	r30
    4b1e:	df 91       	pop	r29
    4b20:	cf 91       	pop	r28
    4b22:	bf 91       	pop	r27
    4b24:	af 91       	pop	r26
    4b26:	9f 91       	pop	r25
    4b28:	8f 91       	pop	r24
    4b2a:	7f 91       	pop	r23
    4b2c:	6f 91       	pop	r22
    4b2e:	5f 91       	pop	r21
    4b30:	4f 91       	pop	r20
    4b32:	3f 91       	pop	r19
    4b34:	2f 91       	pop	r18
    4b36:	1f 91       	pop	r17
    4b38:	0f 91       	pop	r16
    4b3a:	ff 90       	pop	r15
    4b3c:	ef 90       	pop	r14
    4b3e:	df 90       	pop	r13
    4b40:	cf 90       	pop	r12
    4b42:	0f 90       	pop	r0
    4b44:	0b be       	out	0x3b, r0	; 59
    4b46:	0f 90       	pop	r0
    4b48:	0f be       	out	0x3f, r0	; 63
    4b4a:	0f 90       	pop	r0
    4b4c:	1f 90       	pop	r1
    4b4e:	18 95       	reti

00004b50 <__vector_1>:
    4b50:	1f 92       	push	r1
    4b52:	0f 92       	push	r0
    4b54:	0f b6       	in	r0, 0x3f	; 63
    4b56:	0f 92       	push	r0
    4b58:	11 24       	eor	r1, r1
    4b5a:	0f 90       	pop	r0
    4b5c:	0f be       	out	0x3f, r0	; 63
    4b5e:	0f 90       	pop	r0
    4b60:	1f 90       	pop	r1
    4b62:	18 95       	reti

00004b64 <__vector_2>:
    4b64:	1f 92       	push	r1
    4b66:	0f 92       	push	r0
    4b68:	0f b6       	in	r0, 0x3f	; 63
    4b6a:	0f 92       	push	r0
    4b6c:	11 24       	eor	r1, r1
    4b6e:	0f 90       	pop	r0
    4b70:	0f be       	out	0x3f, r0	; 63
    4b72:	0f 90       	pop	r0
    4b74:	1f 90       	pop	r1
    4b76:	18 95       	reti

00004b78 <__vector_3>:
    4b78:	1f 92       	push	r1
    4b7a:	0f 92       	push	r0
    4b7c:	0f b6       	in	r0, 0x3f	; 63
    4b7e:	0f 92       	push	r0
    4b80:	11 24       	eor	r1, r1
    4b82:	0b b6       	in	r0, 0x3b	; 59
    4b84:	0f 92       	push	r0
    4b86:	2f 93       	push	r18
    4b88:	3f 93       	push	r19
    4b8a:	4f 93       	push	r20
    4b8c:	5f 93       	push	r21
    4b8e:	6f 93       	push	r22
    4b90:	7f 93       	push	r23
    4b92:	8f 93       	push	r24
    4b94:	9f 93       	push	r25
    4b96:	af 93       	push	r26
    4b98:	bf 93       	push	r27
    4b9a:	ef 93       	push	r30
    4b9c:	ff 93       	push	r31
    4b9e:	86 e1       	ldi	r24, 0x16	; 22
    4ba0:	0e 94 1f 03 	call	0x63e	; 0x63e <SchedulerBasicP__TaskBasic__postTask>
    4ba4:	ff 91       	pop	r31
    4ba6:	ef 91       	pop	r30
    4ba8:	bf 91       	pop	r27
    4baa:	af 91       	pop	r26
    4bac:	9f 91       	pop	r25
    4bae:	8f 91       	pop	r24
    4bb0:	7f 91       	pop	r23
    4bb2:	6f 91       	pop	r22
    4bb4:	5f 91       	pop	r21
    4bb6:	4f 91       	pop	r20
    4bb8:	3f 91       	pop	r19
    4bba:	2f 91       	pop	r18
    4bbc:	0f 90       	pop	r0
    4bbe:	0b be       	out	0x3b, r0	; 59
    4bc0:	0f 90       	pop	r0
    4bc2:	0f be       	out	0x3f, r0	; 63
    4bc4:	0f 90       	pop	r0
    4bc6:	1f 90       	pop	r1
    4bc8:	18 95       	reti

00004bca <__vector_4>:
    4bca:	1f 92       	push	r1
    4bcc:	0f 92       	push	r0
    4bce:	0f b6       	in	r0, 0x3f	; 63
    4bd0:	0f 92       	push	r0
    4bd2:	11 24       	eor	r1, r1
    4bd4:	0b b6       	in	r0, 0x3b	; 59
    4bd6:	0f 92       	push	r0
    4bd8:	2f 93       	push	r18
    4bda:	3f 93       	push	r19
    4bdc:	4f 93       	push	r20
    4bde:	5f 93       	push	r21
    4be0:	6f 93       	push	r22
    4be2:	7f 93       	push	r23
    4be4:	8f 93       	push	r24
    4be6:	9f 93       	push	r25
    4be8:	af 93       	push	r26
    4bea:	bf 93       	push	r27
    4bec:	ef 93       	push	r30
    4bee:	ff 93       	push	r31
    4bf0:	80 91 68 12 	lds	r24, 0x1268
    4bf4:	82 30       	cpi	r24, 0x02	; 2
    4bf6:	29 f0       	breq	.+10     	; 0x4c02 <__vector_4+0x38>
    4bf8:	83 30       	cpi	r24, 0x03	; 3
    4bfa:	39 f0       	breq	.+14     	; 0x4c0a <__vector_4+0x40>
    4bfc:	81 11       	cpse	r24, r1
    4bfe:	13 c0       	rjmp	.+38     	; 0x4c26 <__vector_4+0x5c>
    4c00:	08 c0       	rjmp	.+16     	; 0x4c12 <__vector_4+0x48>
    4c02:	eb 98       	cbi	0x1d, 3	; 29
    4c04:	0e 94 4d 03 	call	0x69a	; 0x69a <FMClickP__tune__postTask>
    4c08:	0e c0       	rjmp	.+28     	; 0x4c26 <__vector_4+0x5c>
    4c0a:	eb 98       	cbi	0x1d, 3	; 29
    4c0c:	0e 94 4a 03 	call	0x694	; 0x694 <FMClickP__seek__postTask>
    4c10:	0a c0       	rjmp	.+20     	; 0x4c26 <__vector_4+0x5c>
    4c12:	80 91 6e 12 	lds	r24, 0x126E
    4c16:	88 23       	and	r24, r24
    4c18:	31 f0       	breq	.+12     	; 0x4c26 <__vector_4+0x5c>
    4c1a:	86 e0       	ldi	r24, 0x06	; 6
    4c1c:	80 93 68 12 	sts	0x1268, r24
    4c20:	8d e1       	ldi	r24, 0x1D	; 29
    4c22:	0e 94 1f 03 	call	0x63e	; 0x63e <SchedulerBasicP__TaskBasic__postTask>
    4c26:	ff 91       	pop	r31
    4c28:	ef 91       	pop	r30
    4c2a:	bf 91       	pop	r27
    4c2c:	af 91       	pop	r26
    4c2e:	9f 91       	pop	r25
    4c30:	8f 91       	pop	r24
    4c32:	7f 91       	pop	r23
    4c34:	6f 91       	pop	r22
    4c36:	5f 91       	pop	r21
    4c38:	4f 91       	pop	r20
    4c3a:	3f 91       	pop	r19
    4c3c:	2f 91       	pop	r18
    4c3e:	0f 90       	pop	r0
    4c40:	0b be       	out	0x3b, r0	; 59
    4c42:	0f 90       	pop	r0
    4c44:	0f be       	out	0x3f, r0	; 63
    4c46:	0f 90       	pop	r0
    4c48:	1f 90       	pop	r1
    4c4a:	18 95       	reti

00004c4c <__vector_5>:
    4c4c:	1f 92       	push	r1
    4c4e:	0f 92       	push	r0
    4c50:	0f b6       	in	r0, 0x3f	; 63
    4c52:	0f 92       	push	r0
    4c54:	11 24       	eor	r1, r1
    4c56:	0f 90       	pop	r0
    4c58:	0f be       	out	0x3f, r0	; 63
    4c5a:	0f 90       	pop	r0
    4c5c:	1f 90       	pop	r1
    4c5e:	18 95       	reti

00004c60 <__vector_6>:
    4c60:	1f 92       	push	r1
    4c62:	0f 92       	push	r0
    4c64:	0f b6       	in	r0, 0x3f	; 63
    4c66:	0f 92       	push	r0
    4c68:	11 24       	eor	r1, r1
    4c6a:	0f 90       	pop	r0
    4c6c:	0f be       	out	0x3f, r0	; 63
    4c6e:	0f 90       	pop	r0
    4c70:	1f 90       	pop	r1
    4c72:	18 95       	reti

00004c74 <__vector_7>:
    4c74:	1f 92       	push	r1
    4c76:	0f 92       	push	r0
    4c78:	0f b6       	in	r0, 0x3f	; 63
    4c7a:	0f 92       	push	r0
    4c7c:	11 24       	eor	r1, r1
    4c7e:	0f 90       	pop	r0
    4c80:	0f be       	out	0x3f, r0	; 63
    4c82:	0f 90       	pop	r0
    4c84:	1f 90       	pop	r1
    4c86:	18 95       	reti

00004c88 <__vector_8>:
    4c88:	1f 92       	push	r1
    4c8a:	0f 92       	push	r0
    4c8c:	0f b6       	in	r0, 0x3f	; 63
    4c8e:	0f 92       	push	r0
    4c90:	11 24       	eor	r1, r1
    4c92:	0f 90       	pop	r0
    4c94:	0f be       	out	0x3f, r0	; 63
    4c96:	0f 90       	pop	r0
    4c98:	1f 90       	pop	r1
    4c9a:	18 95       	reti

00004c9c <__vector_39>:
    4c9c:	1f 92       	push	r1
    4c9e:	0f 92       	push	r0
    4ca0:	0f b6       	in	r0, 0x3f	; 63
    4ca2:	0f 92       	push	r0
    4ca4:	11 24       	eor	r1, r1
    4ca6:	0b b6       	in	r0, 0x3b	; 59
    4ca8:	0f 92       	push	r0
    4caa:	2f 93       	push	r18
    4cac:	3f 93       	push	r19
    4cae:	4f 93       	push	r20
    4cb0:	5f 93       	push	r21
    4cb2:	6f 93       	push	r22
    4cb4:	7f 93       	push	r23
    4cb6:	8f 93       	push	r24
    4cb8:	9f 93       	push	r25
    4cba:	af 93       	push	r26
    4cbc:	bf 93       	push	r27
    4cbe:	ef 93       	push	r30
    4cc0:	ff 93       	push	r31
    4cc2:	0e 94 72 03 	call	0x6e4	; 0x6e4 <HplAtm128I2CBusP__I2C__readCurrent>
    4cc6:	80 91 b9 00 	lds	r24, 0x00B9
    4cca:	98 2f       	mov	r25, r24
    4ccc:	98 7f       	andi	r25, 0xF8	; 248
    4cce:	20 91 91 02 	lds	r18, 0x0291
    4cd2:	24 30       	cpi	r18, 0x04	; 4
    4cd4:	79 f1       	breq	.+94     	; 0x4d34 <__vector_39+0x98>
    4cd6:	26 30       	cpi	r18, 0x06	; 6
    4cd8:	21 f0       	breq	.+8      	; 0x4ce2 <__vector_39+0x46>
    4cda:	23 30       	cpi	r18, 0x03	; 3
    4cdc:	09 f0       	breq	.+2      	; 0x4ce0 <__vector_39+0x44>
    4cde:	4d c0       	rjmp	.+154    	; 0x4d7a <__vector_39+0xde>
    4ce0:	13 c0       	rjmp	.+38     	; 0x4d08 <__vector_39+0x6c>
    4ce2:	80 91 90 02 	lds	r24, 0x0290
    4ce6:	81 30       	cpi	r24, 0x01	; 1
    4ce8:	49 f4       	brne	.+18     	; 0x4cfc <__vector_39+0x60>
    4cea:	90 34       	cpi	r25, 0x40	; 64
    4cec:	29 f4       	brne	.+10     	; 0x4cf8 <__vector_39+0x5c>
    4cee:	83 e0       	ldi	r24, 0x03	; 3
    4cf0:	80 93 91 02 	sts	0x0291, r24
    4cf4:	81 e0       	ldi	r24, 0x01	; 1
    4cf6:	10 c0       	rjmp	.+32     	; 0x4d18 <__vector_39+0x7c>
    4cf8:	84 e0       	ldi	r24, 0x04	; 4
    4cfa:	16 c0       	rjmp	.+44     	; 0x4d28 <__vector_39+0x8c>
    4cfc:	98 31       	cpi	r25, 0x18	; 24
    4cfe:	e1 f7       	brne	.-8      	; 0x4cf8 <__vector_39+0x5c>
    4d00:	83 e0       	ldi	r24, 0x03	; 3
    4d02:	80 93 91 02 	sts	0x0291, r24
    4d06:	13 c0       	rjmp	.+38     	; 0x4d2e <__vector_39+0x92>
    4d08:	20 91 90 02 	lds	r18, 0x0290
    4d0c:	21 30       	cpi	r18, 0x01	; 1
    4d0e:	39 f4       	brne	.+14     	; 0x4d1e <__vector_39+0x82>
    4d10:	80 7f       	andi	r24, 0xF0	; 240
    4d12:	80 35       	cpi	r24, 0x50	; 80
    4d14:	41 f4       	brne	.+16     	; 0x4d26 <__vector_39+0x8a>
    4d16:	80 e0       	ldi	r24, 0x00	; 0
    4d18:	0e 94 b6 10 	call	0x216c	; 0x216c <Atm128I2CMasterPacketP__0__readNextByte>
    4d1c:	2e c0       	rjmp	.+92     	; 0x4d7a <__vector_39+0xde>
    4d1e:	98 32       	cpi	r25, 0x28	; 40
    4d20:	31 f0       	breq	.+12     	; 0x4d2e <__vector_39+0x92>
    4d22:	90 33       	cpi	r25, 0x30	; 48
    4d24:	21 f0       	breq	.+8      	; 0x4d2e <__vector_39+0x92>
    4d26:	81 e0       	ldi	r24, 0x01	; 1
    4d28:	0e 94 7f 24 	call	0x48fe	; 0x48fe <Atm128I2CMasterPacketP__0__i2c_abort>
    4d2c:	26 c0       	rjmp	.+76     	; 0x4d7a <__vector_39+0xde>
    4d2e:	0e 94 23 11 	call	0x2246	; 0x2246 <Atm128I2CMasterPacketP__0__writeNextByte>
    4d32:	23 c0       	rjmp	.+70     	; 0x4d7a <__vector_39+0xde>
    4d34:	80 91 f9 12 	lds	r24, 0x12F9
    4d38:	8e 7f       	andi	r24, 0xFE	; 254
    4d3a:	80 93 f9 12 	sts	0x12F9, r24
    4d3e:	80 91 e5 11 	lds	r24, 0x11E5
    4d42:	8f 7d       	andi	r24, 0xDF	; 223
    4d44:	98 30       	cpi	r25, 0x08	; 8
    4d46:	29 f0       	breq	.+10     	; 0x4d52 <__vector_39+0xb6>
    4d48:	90 31       	cpi	r25, 0x10	; 16
    4d4a:	19 f0       	breq	.+6      	; 0x4d52 <__vector_39+0xb6>
    4d4c:	80 93 e5 11 	sts	0x11E5, r24
    4d50:	ea cf       	rjmp	.-44     	; 0x4d26 <__vector_39+0x8a>
    4d52:	80 64       	ori	r24, 0x40	; 64
    4d54:	80 93 e5 11 	sts	0x11E5, r24
    4d58:	91 e0       	ldi	r25, 0x01	; 1
    4d5a:	80 91 90 02 	lds	r24, 0x0290
    4d5e:	81 30       	cpi	r24, 0x01	; 1
    4d60:	09 f0       	breq	.+2      	; 0x4d64 <__vector_39+0xc8>
    4d62:	90 e0       	ldi	r25, 0x00	; 0
    4d64:	80 91 cd 0e 	lds	r24, 0x0ECD
    4d68:	88 0f       	add	r24, r24
    4d6a:	89 2b       	or	r24, r25
    4d6c:	80 93 bb 00 	sts	0x00BB, r24
    4d70:	86 e0       	ldi	r24, 0x06	; 6
    4d72:	80 93 91 02 	sts	0x0291, r24
    4d76:	0e 94 fe 02 	call	0x5fc	; 0x5fc <HplAtm128I2CBusP__I2C__sendCommand>
    4d7a:	ff 91       	pop	r31
    4d7c:	ef 91       	pop	r30
    4d7e:	bf 91       	pop	r27
    4d80:	af 91       	pop	r26
    4d82:	9f 91       	pop	r25
    4d84:	8f 91       	pop	r24
    4d86:	7f 91       	pop	r23
    4d88:	6f 91       	pop	r22
    4d8a:	5f 91       	pop	r21
    4d8c:	4f 91       	pop	r20
    4d8e:	3f 91       	pop	r19
    4d90:	2f 91       	pop	r18
    4d92:	0f 90       	pop	r0
    4d94:	0b be       	out	0x3b, r0	; 59
    4d96:	0f 90       	pop	r0
    4d98:	0f be       	out	0x3f, r0	; 63
    4d9a:	0f 90       	pop	r0
    4d9c:	1f 90       	pop	r1
    4d9e:	18 95       	reti

00004da0 <__vector_11>:
    4da0:	1f 92       	push	r1
    4da2:	0f 92       	push	r0
    4da4:	0f b6       	in	r0, 0x3f	; 63
    4da6:	0f 92       	push	r0
    4da8:	11 24       	eor	r1, r1
    4daa:	0b b6       	in	r0, 0x3b	; 59
    4dac:	0f 92       	push	r0
    4dae:	2f 93       	push	r18
    4db0:	3f 93       	push	r19
    4db2:	4f 93       	push	r20
    4db4:	5f 93       	push	r21
    4db6:	6f 93       	push	r22
    4db8:	7f 93       	push	r23
    4dba:	8f 93       	push	r24
    4dbc:	9f 93       	push	r25
    4dbe:	af 93       	push	r26
    4dc0:	bf 93       	push	r27
    4dc2:	ef 93       	push	r30
    4dc4:	ff 93       	push	r31
    4dc6:	90 91 06 01 	lds	r25, 0x0106
    4dca:	80 91 ac 02 	lds	r24, 0x02AC
    4dce:	97 fd       	sbrc	r25, 7
    4dd0:	11 c0       	rjmp	.+34     	; 0x4df4 <__vector_11+0x54>
    4dd2:	83 50       	subi	r24, 0x03	; 3
    4dd4:	88 30       	cpi	r24, 0x08	; 8
    4dd6:	08 f0       	brcs	.+2      	; 0x4dda <__vector_11+0x3a>
    4dd8:	7b c0       	rjmp	.+246    	; 0x4ed0 <__vector_11+0x130>
    4dda:	80 91 a6 02 	lds	r24, 0x02A6
    4dde:	86 95       	lsr	r24
    4de0:	80 93 a6 02 	sts	0x02A6, r24
    4de4:	90 91 06 01 	lds	r25, 0x0106
    4de8:	96 ff       	sbrs	r25, 6
    4dea:	72 c0       	rjmp	.+228    	; 0x4ed0 <__vector_11+0x130>
    4dec:	80 68       	ori	r24, 0x80	; 128
    4dee:	80 93 a6 02 	sts	0x02A6, r24
    4df2:	6e c0       	rjmp	.+220    	; 0x4ed0 <__vector_11+0x130>
    4df4:	81 50       	subi	r24, 0x01	; 1
    4df6:	80 93 ac 02 	sts	0x02AC, r24
    4dfa:	81 11       	cpse	r24, r1
    4dfc:	69 c0       	rjmp	.+210    	; 0x4ed0 <__vector_11+0x130>
    4dfe:	90 91 a6 02 	lds	r25, 0x02A6
    4e02:	90 3e       	cpi	r25, 0xE0	; 224
    4e04:	09 f4       	brne	.+2      	; 0x4e08 <__vector_11+0x68>
    4e06:	61 c0       	rjmp	.+194    	; 0x4eca <__vector_11+0x12a>
    4e08:	80 91 aa 02 	lds	r24, 0x02AA
    4e0c:	81 11       	cpse	r24, r1
    4e0e:	55 c0       	rjmp	.+170    	; 0x4eba <__vector_11+0x11a>
    4e10:	99 35       	cpi	r25, 0x59	; 89
    4e12:	49 f0       	breq	.+18     	; 0x4e26 <__vector_11+0x86>
    4e14:	90 3f       	cpi	r25, 0xF0	; 240
    4e16:	19 f0       	breq	.+6      	; 0x4e1e <__vector_11+0x7e>
    4e18:	92 31       	cpi	r25, 0x12	; 18
    4e1a:	49 f4       	brne	.+18     	; 0x4e2e <__vector_11+0x8e>
    4e1c:	04 c0       	rjmp	.+8      	; 0x4e26 <__vector_11+0x86>
    4e1e:	81 e0       	ldi	r24, 0x01	; 1
    4e20:	80 93 aa 02 	sts	0x02AA, r24
    4e24:	52 c0       	rjmp	.+164    	; 0x4eca <__vector_11+0x12a>
    4e26:	81 e0       	ldi	r24, 0x01	; 1
    4e28:	80 93 ab 02 	sts	0x02AB, r24
    4e2c:	4e c0       	rjmp	.+156    	; 0x4eca <__vector_11+0x12a>
    4e2e:	80 91 ab 02 	lds	r24, 0x02AB
    4e32:	60 e0       	ldi	r22, 0x00	; 0
    4e34:	81 11       	cpse	r24, r1
    4e36:	1f c0       	rjmp	.+62     	; 0x4e76 <__vector_11+0xd6>
    4e38:	81 e4       	ldi	r24, 0x41	; 65
    4e3a:	26 2f       	mov	r18, r22
    4e3c:	30 e0       	ldi	r19, 0x00	; 0
    4e3e:	28 0f       	add	r18, r24
    4e40:	31 1d       	adc	r19, r1
    4e42:	35 95       	asr	r19
    4e44:	27 95       	ror	r18
    4e46:	a9 01       	movw	r20, r18
    4e48:	44 0f       	add	r20, r20
    4e4a:	55 1f       	adc	r21, r21
    4e4c:	fa 01       	movw	r30, r20
    4e4e:	ec 52       	subi	r30, 0x2C	; 44
    4e50:	fe 4f       	sbci	r31, 0xFE	; 254
    4e52:	e4 91       	lpm	r30, Z
    4e54:	e9 17       	cp	r30, r25
    4e56:	18 f4       	brcc	.+6      	; 0x4e5e <__vector_11+0xbe>
    4e58:	61 e0       	ldi	r22, 0x01	; 1
    4e5a:	62 0f       	add	r22, r18
    4e5c:	09 c0       	rjmp	.+18     	; 0x4e70 <__vector_11+0xd0>
    4e5e:	9e 17       	cp	r25, r30
    4e60:	18 f4       	brcc	.+6      	; 0x4e68 <__vector_11+0xc8>
    4e62:	8f ef       	ldi	r24, 0xFF	; 255
    4e64:	82 0f       	add	r24, r18
    4e66:	04 c0       	rjmp	.+8      	; 0x4e70 <__vector_11+0xd0>
    4e68:	fa 01       	movw	r30, r20
    4e6a:	eb 52       	subi	r30, 0x2B	; 43
    4e6c:	fe 4f       	sbci	r31, 0xFE	; 254
    4e6e:	1e c0       	rjmp	.+60     	; 0x4eac <__vector_11+0x10c>
    4e70:	86 17       	cp	r24, r22
    4e72:	18 f7       	brcc	.-58     	; 0x4e3a <__vector_11+0x9a>
    4e74:	2a c0       	rjmp	.+84     	; 0x4eca <__vector_11+0x12a>
    4e76:	81 e4       	ldi	r24, 0x41	; 65
    4e78:	26 2f       	mov	r18, r22
    4e7a:	30 e0       	ldi	r19, 0x00	; 0
    4e7c:	28 0f       	add	r18, r24
    4e7e:	31 1d       	adc	r19, r1
    4e80:	35 95       	asr	r19
    4e82:	27 95       	ror	r18
    4e84:	a9 01       	movw	r20, r18
    4e86:	44 0f       	add	r20, r20
    4e88:	55 1f       	adc	r21, r21
    4e8a:	fa 01       	movw	r30, r20
    4e8c:	e4 5b       	subi	r30, 0xB4	; 180
    4e8e:	fe 4f       	sbci	r31, 0xFE	; 254
    4e90:	e4 91       	lpm	r30, Z
    4e92:	e9 17       	cp	r30, r25
    4e94:	18 f4       	brcc	.+6      	; 0x4e9c <__vector_11+0xfc>
    4e96:	61 e0       	ldi	r22, 0x01	; 1
    4e98:	62 0f       	add	r22, r18
    4e9a:	0c c0       	rjmp	.+24     	; 0x4eb4 <__vector_11+0x114>
    4e9c:	9e 17       	cp	r25, r30
    4e9e:	18 f4       	brcc	.+6      	; 0x4ea6 <__vector_11+0x106>
    4ea0:	8f ef       	ldi	r24, 0xFF	; 255
    4ea2:	82 0f       	add	r24, r18
    4ea4:	07 c0       	rjmp	.+14     	; 0x4eb4 <__vector_11+0x114>
    4ea6:	fa 01       	movw	r30, r20
    4ea8:	e3 5b       	subi	r30, 0xB3	; 179
    4eaa:	fe 4f       	sbci	r31, 0xFE	; 254
    4eac:	84 91       	lpm	r24, Z
    4eae:	0e 94 f8 04 	call	0x9f0	; 0x9f0 <RadioScannerP__Keyboard__receivedChar>
    4eb2:	0b c0       	rjmp	.+22     	; 0x4eca <__vector_11+0x12a>
    4eb4:	86 17       	cp	r24, r22
    4eb6:	00 f7       	brcc	.-64     	; 0x4e78 <__vector_11+0xd8>
    4eb8:	08 c0       	rjmp	.+16     	; 0x4eca <__vector_11+0x12a>
    4eba:	10 92 aa 02 	sts	0x02AA, r1
    4ebe:	92 31       	cpi	r25, 0x12	; 18
    4ec0:	11 f0       	breq	.+4      	; 0x4ec6 <__vector_11+0x126>
    4ec2:	99 35       	cpi	r25, 0x59	; 89
    4ec4:	11 f4       	brne	.+4      	; 0x4eca <__vector_11+0x12a>
    4ec6:	10 92 ab 02 	sts	0x02AB, r1
    4eca:	8b e0       	ldi	r24, 0x0B	; 11
    4ecc:	80 93 ac 02 	sts	0x02AC, r24
    4ed0:	ff 91       	pop	r31
    4ed2:	ef 91       	pop	r30
    4ed4:	bf 91       	pop	r27
    4ed6:	af 91       	pop	r26
    4ed8:	9f 91       	pop	r25
    4eda:	8f 91       	pop	r24
    4edc:	7f 91       	pop	r23
    4ede:	6f 91       	pop	r22
    4ee0:	5f 91       	pop	r21
    4ee2:	4f 91       	pop	r20
    4ee4:	3f 91       	pop	r19
    4ee6:	2f 91       	pop	r18
    4ee8:	0f 90       	pop	r0
    4eea:	0b be       	out	0x3b, r0	; 59
    4eec:	0f 90       	pop	r0
    4eee:	0f be       	out	0x3f, r0	; 63
    4ef0:	0f 90       	pop	r0
    4ef2:	1f 90       	pop	r1
    4ef4:	18 95       	reti

00004ef6 <__vector_29>:
    4ef6:	1f 92       	push	r1
    4ef8:	0f 92       	push	r0
    4efa:	0f b6       	in	r0, 0x3f	; 63
    4efc:	0f 92       	push	r0
    4efe:	11 24       	eor	r1, r1
    4f00:	0b b6       	in	r0, 0x3b	; 59
    4f02:	0f 92       	push	r0
    4f04:	2f 93       	push	r18
    4f06:	3f 93       	push	r19
    4f08:	4f 93       	push	r20
    4f0a:	5f 93       	push	r21
    4f0c:	6f 93       	push	r22
    4f0e:	7f 93       	push	r23
    4f10:	8f 93       	push	r24
    4f12:	9f 93       	push	r25
    4f14:	af 93       	push	r26
    4f16:	bf 93       	push	r27
    4f18:	cf 93       	push	r28
    4f1a:	ef 93       	push	r30
    4f1c:	ff 93       	push	r31
    4f1e:	20 91 78 00 	lds	r18, 0x0078
    4f22:	30 91 79 00 	lds	r19, 0x0079
    4f26:	78 94       	sei
    4f28:	4f b7       	in	r20, 0x3f	; 63
    4f2a:	f8 94       	cli
    4f2c:	80 91 c7 12 	lds	r24, 0x12C7
    4f30:	81 fb       	bst	r24, 1
    4f32:	99 27       	eor	r25, r25
    4f34:	90 f9       	bld	r25, 0
    4f36:	81 70       	andi	r24, 0x01	; 1
    4f38:	4f bf       	out	0x3f, r20	; 63
    4f3a:	81 11       	cpse	r24, r1
    4f3c:	22 c0       	rjmp	.+68     	; 0x4f82 <__vector_29+0x8c>
    4f3e:	80 91 7a 00 	lds	r24, 0x007A
    4f42:	87 7f       	andi	r24, 0xF7	; 247
    4f44:	80 93 7a 00 	sts	0x007A, r24
    4f48:	80 91 6f 0f 	lds	r24, 0x0F6F
    4f4c:	81 30       	cpi	r24, 0x01	; 1
    4f4e:	19 f0       	breq	.+6      	; 0x4f56 <__vector_29+0x60>
    4f50:	82 30       	cpi	r24, 0x02	; 2
    4f52:	91 f0       	breq	.+36     	; 0x4f78 <__vector_29+0x82>
    4f54:	36 c0       	rjmp	.+108    	; 0x4fc2 <__vector_29+0xcc>
    4f56:	91 11       	cpse	r25, r1
    4f58:	07 c0       	rjmp	.+14     	; 0x4f68 <__vector_29+0x72>
    4f5a:	8d e7       	ldi	r24, 0x7D	; 125
    4f5c:	90 e0       	ldi	r25, 0x00	; 0
    4f5e:	0e 94 cf 07 	call	0xf9e	; 0xf9e <BusyWaitMicroC__BusyWait__wait.part.0>
    4f62:	0e 94 8b 0a 	call	0x1516	; 0x1516 <AdcP__sample>
    4f66:	2d c0       	rjmp	.+90     	; 0x4fc2 <__vector_29+0xcc>
    4f68:	30 93 e8 11 	sts	0x11E8, r19
    4f6c:	20 93 e7 11 	sts	0x11E7, r18
    4f70:	86 e2       	ldi	r24, 0x26	; 38
    4f72:	0e 94 1f 03 	call	0x63e	; 0x63e <SchedulerBasicP__TaskBasic__postTask>
    4f76:	25 c0       	rjmp	.+74     	; 0x4fc2 <__vector_29+0xcc>
    4f78:	99 23       	and	r25, r25
    4f7a:	79 f3       	breq	.-34     	; 0x4f5a <__vector_29+0x64>
    4f7c:	10 92 6f 0f 	sts	0x0F6F, r1
    4f80:	20 c0       	rjmp	.+64     	; 0x4fc2 <__vector_29+0xcc>
    4f82:	cf b7       	in	r28, 0x3f	; 63
    4f84:	f8 94       	cli
    4f86:	0e 94 56 03 	call	0x6ac	; 0x6ac <HplAtm1280AdcP__HplAtm1280Adc__getAdmux>
    4f8a:	cf bf       	out	0x3f, r28	; 63
    4f8c:	2f b7       	in	r18, 0x3f	; 63
    4f8e:	f8 94       	cli
    4f90:	80 91 7a 00 	lds	r24, 0x007A
    4f94:	86 fb       	bst	r24, 6
    4f96:	99 27       	eor	r25, r25
    4f98:	90 f9       	bld	r25, 0
    4f9a:	87 7f       	andi	r24, 0xF7	; 247
    4f9c:	80 61       	ori	r24, 0x10	; 16
    4f9e:	90 fb       	bst	r25, 0
    4fa0:	86 f9       	bld	r24, 6
    4fa2:	8f 77       	andi	r24, 0x7F	; 127
    4fa4:	80 93 7a 00 	sts	0x007A, r24
    4fa8:	87 7f       	andi	r24, 0xF7	; 247
    4faa:	80 61       	ori	r24, 0x10	; 16
    4fac:	8f 7b       	andi	r24, 0xBF	; 191
    4fae:	8f 77       	andi	r24, 0x7F	; 127
    4fb0:	80 93 7a 00 	sts	0x007A, r24
    4fb4:	87 7f       	andi	r24, 0xF7	; 247
    4fb6:	80 61       	ori	r24, 0x10	; 16
    4fb8:	8f 7b       	andi	r24, 0xBF	; 191
    4fba:	80 68       	ori	r24, 0x80	; 128
    4fbc:	80 93 7a 00 	sts	0x007A, r24
    4fc0:	2f bf       	out	0x3f, r18	; 63
    4fc2:	ff 91       	pop	r31
    4fc4:	ef 91       	pop	r30
    4fc6:	cf 91       	pop	r28
    4fc8:	bf 91       	pop	r27
    4fca:	af 91       	pop	r26
    4fcc:	9f 91       	pop	r25
    4fce:	8f 91       	pop	r24
    4fd0:	7f 91       	pop	r23
    4fd2:	6f 91       	pop	r22
    4fd4:	5f 91       	pop	r21
    4fd6:	4f 91       	pop	r20
    4fd8:	3f 91       	pop	r19
    4fda:	2f 91       	pop	r18
    4fdc:	0f 90       	pop	r0
    4fde:	0b be       	out	0x3b, r0	; 59
    4fe0:	0f 90       	pop	r0
    4fe2:	0f be       	out	0x3f, r0	; 63
    4fe4:	0f 90       	pop	r0
    4fe6:	1f 90       	pop	r1
    4fe8:	18 95       	reti

00004fea <Enc28j60P__readRegM>:
    4fea:	cf 93       	push	r28
    4fec:	df 93       	push	r29
    4fee:	1f 92       	push	r1
    4ff0:	cd b7       	in	r28, 0x3d	; 61
    4ff2:	de b7       	in	r29, 0x3e	; 62
    4ff4:	89 83       	std	Y+1, r24	; 0x01
    4ff6:	0e 94 07 03 	call	0x60e	; 0x60e <HplAtm128GeneralIOPinP__8__IO__clr>
    4ffa:	89 81       	ldd	r24, Y+1	; 0x01
    4ffc:	0e 94 b6 03 	call	0x76c	; 0x76c <Enc28j60P__SpiByte__write>
    5000:	8f ef       	ldi	r24, 0xFF	; 255
    5002:	0e 94 b6 03 	call	0x76c	; 0x76c <Enc28j60P__SpiByte__write>
    5006:	8f ef       	ldi	r24, 0xFF	; 255
    5008:	0e 94 b0 03 	call	0x760	; 0x760 <Atm1280SpiP__SpiByte__write>
    500c:	89 83       	std	Y+1, r24	; 0x01
    500e:	0e 94 05 03 	call	0x60a	; 0x60a <HplAtm128GeneralIOPinP__8__IO__set>
    5012:	89 81       	ldd	r24, Y+1	; 0x01
    5014:	0f 90       	pop	r0
    5016:	df 91       	pop	r29
    5018:	cf 91       	pop	r28
    501a:	08 95       	ret

0000501c <main>:
    501c:	cf 93       	push	r28
    501e:	df 93       	push	r29
    5020:	cd b7       	in	r28, 0x3d	; 61
    5022:	de b7       	in	r29, 0x3e	; 62
    5024:	2a 97       	sbiw	r28, 0x0a	; 10
    5026:	0f b6       	in	r0, 0x3f	; 63
    5028:	f8 94       	cli
    502a:	de bf       	out	0x3e, r29	; 62
    502c:	0f be       	out	0x3f, r0	; 63
    502e:	cd bf       	out	0x3d, r28	; 61
    5030:	0f b7       	in	r16, 0x3f	; 63
    5032:	f8 94       	cli
    5034:	48 e2       	ldi	r20, 0x28	; 40
    5036:	50 e0       	ldi	r21, 0x00	; 0
    5038:	6f ef       	ldi	r22, 0xFF	; 255
    503a:	70 e0       	ldi	r23, 0x00	; 0
    503c:	87 e6       	ldi	r24, 0x67	; 103
    503e:	9c e0       	ldi	r25, 0x0C	; 12
    5040:	0e 94 3d 2d 	call	0x5a7a	; 0x5a7a <memset>
    5044:	8f ef       	ldi	r24, 0xFF	; 255
    5046:	80 93 6f 12 	sts	0x126F, r24
    504a:	80 93 ce 12 	sts	0x12CE, r24
    504e:	88 ee       	ldi	r24, 0xE8	; 232
    5050:	91 e0       	ldi	r25, 0x01	; 1
    5052:	90 93 71 12 	sts	0x1271, r25
    5056:	80 93 70 12 	sts	0x1270, r24
    505a:	08 9a       	sbi	0x01, 0	; 1
    505c:	09 9a       	sbi	0x01, 1	; 1
    505e:	0a 9a       	sbi	0x01, 2	; 1
    5060:	10 98       	cbi	0x02, 0	; 2
    5062:	11 98       	cbi	0x02, 1	; 2
    5064:	12 98       	cbi	0x02, 2	; 2
    5066:	80 e0       	ldi	r24, 0x00	; 0
    5068:	87 7f       	andi	r24, 0xF7	; 247
    506a:	8f 7e       	andi	r24, 0xEF	; 239
    506c:	8f 7d       	andi	r24, 0xDF	; 223
    506e:	8f 7b       	andi	r24, 0xBF	; 191
    5070:	8f 77       	andi	r24, 0x7F	; 127
    5072:	80 93 7a 00 	sts	0x007A, r24
    5076:	81 e0       	ldi	r24, 0x01	; 1
    5078:	83 bf       	out	0x33, r24	; 51
    507a:	0e 94 0d 03 	call	0x61a	; 0x61a <SchedulerBasicP__popTask>
    507e:	8f 3f       	cpi	r24, 0xFF	; 255
    5080:	19 f0       	breq	.+6      	; 0x5088 <main+0x6c>
    5082:	0e 94 66 11 	call	0x22cc	; 0x22cc <SchedulerBasicP__TaskBasic__runTask>
    5086:	f9 cf       	rjmp	.-14     	; 0x507a <main+0x5e>
    5088:	87 b1       	in	r24, 0x07	; 7
    508a:	8c 6f       	ori	r24, 0xFC	; 252
    508c:	87 b9       	out	0x07, r24	; 7
    508e:	18 e2       	ldi	r17, 0x28	; 40
    5090:	88 ee       	ldi	r24, 0xE8	; 232
    5092:	93 e0       	ldi	r25, 0x03	; 3
    5094:	0e 94 cf 07 	call	0xf9e	; 0xf9e <BusyWaitMicroC__BusyWait__wait.part.0>
    5098:	11 50       	subi	r17, 0x01	; 1
    509a:	d1 f7       	brne	.-12     	; 0x5090 <main+0x74>
    509c:	60 e0       	ldi	r22, 0x00	; 0
    509e:	88 e2       	ldi	r24, 0x28	; 40
    50a0:	0e 94 1d 0a 	call	0x143a	; 0x143a <HplLcdP__write>
    50a4:	88 e2       	ldi	r24, 0x28	; 40
    50a6:	90 e0       	ldi	r25, 0x00	; 0
    50a8:	0e 94 cf 07 	call	0xf9e	; 0xf9e <BusyWaitMicroC__BusyWait__wait.part.0>
    50ac:	60 e0       	ldi	r22, 0x00	; 0
    50ae:	88 e2       	ldi	r24, 0x28	; 40
    50b0:	0e 94 1d 0a 	call	0x143a	; 0x143a <HplLcdP__write>
    50b4:	88 e2       	ldi	r24, 0x28	; 40
    50b6:	90 e0       	ldi	r25, 0x00	; 0
    50b8:	0e 94 cf 07 	call	0xf9e	; 0xf9e <BusyWaitMicroC__BusyWait__wait.part.0>
    50bc:	60 e0       	ldi	r22, 0x00	; 0
    50be:	8c e0       	ldi	r24, 0x0C	; 12
    50c0:	0e 94 1d 0a 	call	0x143a	; 0x143a <HplLcdP__write>
    50c4:	88 e2       	ldi	r24, 0x28	; 40
    50c6:	90 e0       	ldi	r25, 0x00	; 0
    50c8:	0e 94 cf 07 	call	0xf9e	; 0xf9e <BusyWaitMicroC__BusyWait__wait.part.0>
    50cc:	60 e0       	ldi	r22, 0x00	; 0
    50ce:	81 e0       	ldi	r24, 0x01	; 1
    50d0:	0e 94 1d 0a 	call	0x143a	; 0x143a <HplLcdP__write>
    50d4:	88 ee       	ldi	r24, 0xE8	; 232
    50d6:	93 e0       	ldi	r25, 0x03	; 3
    50d8:	0e 94 cf 07 	call	0xf9e	; 0xf9e <BusyWaitMicroC__BusyWait__wait.part.0>
    50dc:	88 ee       	ldi	r24, 0xE8	; 232
    50de:	93 e0       	ldi	r25, 0x03	; 3
    50e0:	0e 94 cf 07 	call	0xf9e	; 0xf9e <BusyWaitMicroC__BusyWait__wait.part.0>
    50e4:	60 e0       	ldi	r22, 0x00	; 0
    50e6:	86 e0       	ldi	r24, 0x06	; 6
    50e8:	0e 94 1d 0a 	call	0x143a	; 0x143a <HplLcdP__write>
    50ec:	88 e2       	ldi	r24, 0x28	; 40
    50ee:	90 e0       	ldi	r25, 0x00	; 0
    50f0:	0e 94 cf 07 	call	0xf9e	; 0xf9e <BusyWaitMicroC__BusyWait__wait.part.0>
    50f4:	40 e2       	ldi	r20, 0x20	; 32
    50f6:	50 e0       	ldi	r21, 0x00	; 0
    50f8:	60 e2       	ldi	r22, 0x20	; 32
    50fa:	70 e0       	ldi	r23, 0x00	; 0
    50fc:	80 e7       	ldi	r24, 0x70	; 112
    50fe:	9f e0       	ldi	r25, 0x0F	; 15
    5100:	0e 94 3d 2d 	call	0x5a7a	; 0x5a7a <memset>
    5104:	81 e0       	ldi	r24, 0x01	; 1
    5106:	80 93 d2 0e 	sts	0x0ED2, r24
    510a:	80 93 d3 0e 	sts	0x0ED3, r24
    510e:	10 92 72 12 	sts	0x1272, r1
    5112:	10 92 e6 11 	sts	0x11E6, r1
    5116:	10 92 a5 11 	sts	0x11A5, r1
    511a:	1f ef       	ldi	r17, 0xFF	; 255
    511c:	10 93 d4 0e 	sts	0x0ED4, r17
    5120:	72 9a       	sbi	0x0e, 2	; 14
    5122:	73 9a       	sbi	0x0e, 3	; 14
    5124:	74 98       	cbi	0x0e, 4	; 14
    5126:	75 9a       	sbi	0x0e, 5	; 14
    5128:	0e 94 0b 03 	call	0x616	; 0x616 <HplAtm128GeneralIOPinP__38__IO__set>
    512c:	77 9a       	sbi	0x0e, 7	; 14
    512e:	6a 9a       	sbi	0x0d, 2	; 13
    5130:	6b 9a       	sbi	0x0d, 3	; 13
    5132:	6c 9a       	sbi	0x0d, 4	; 13
    5134:	6d 9a       	sbi	0x0d, 5	; 13
    5136:	6e 9a       	sbi	0x0d, 6	; 13
    5138:	6f 9a       	sbi	0x0d, 7	; 13
    513a:	82 b1       	in	r24, 0x02	; 2
    513c:	12 b8       	out	0x02, r1	; 2
    513e:	81 b1       	in	r24, 0x01	; 1
    5140:	11 b9       	out	0x01, r17	; 1
    5142:	6f e3       	ldi	r22, 0x3F	; 63
    5144:	80 e0       	ldi	r24, 0x00	; 0
    5146:	0e 94 31 0e 	call	0x1c62	; 0x1c62 <HplKS0108P__HplKS0108__controlWrite>
    514a:	6f e3       	ldi	r22, 0x3F	; 63
    514c:	81 e0       	ldi	r24, 0x01	; 1
    514e:	0e 94 31 0e 	call	0x1c62	; 0x1c62 <HplKS0108P__HplKS0108__controlWrite>
    5152:	60 ec       	ldi	r22, 0xC0	; 192
    5154:	80 e0       	ldi	r24, 0x00	; 0
    5156:	0e 94 31 0e 	call	0x1c62	; 0x1c62 <HplKS0108P__HplKS0108__controlWrite>
    515a:	60 ec       	ldi	r22, 0xC0	; 192
    515c:	81 e0       	ldi	r24, 0x01	; 1
    515e:	0e 94 31 0e 	call	0x1c62	; 0x1c62 <HplKS0108P__HplKS0108__controlWrite>
    5162:	10 93 9a 0c 	sts	0x0C9A, r17
    5166:	80 91 b6 00 	lds	r24, 0x00B6
    516a:	80 72       	andi	r24, 0x20	; 32
    516c:	80 93 b6 00 	sts	0x00B6, r24
    5170:	80 91 b6 00 	lds	r24, 0x00B6
    5174:	81 fd       	sbrc	r24, 1
    5176:	fc cf       	rjmp	.-8      	; 0x5170 <main+0x154>
    5178:	82 e0       	ldi	r24, 0x02	; 2
    517a:	80 93 b0 00 	sts	0x00B0, r24
    517e:	80 91 b6 00 	lds	r24, 0x00B6
    5182:	80 fd       	sbrc	r24, 0
    5184:	fc cf       	rjmp	.-8      	; 0x517e <main+0x162>
    5186:	85 e0       	ldi	r24, 0x05	; 5
    5188:	80 93 b1 00 	sts	0x00B1, r24
    518c:	8c e7       	ldi	r24, 0x7C	; 124
    518e:	80 93 b3 00 	sts	0x00B3, r24
    5192:	80 91 70 00 	lds	r24, 0x0070
    5196:	82 60       	ori	r24, 0x02	; 2
    5198:	80 93 70 00 	sts	0x0070, r24
    519c:	0e 94 7a 03 	call	0x6f4	; 0x6f4 <Atm1280AlarmSyncP__0__Counter__get>
    51a0:	60 93 af 11 	sts	0x11AF, r22
    51a4:	70 93 b0 11 	sts	0x11B0, r23
    51a8:	80 93 b1 11 	sts	0x11B1, r24
    51ac:	90 93 b2 11 	sts	0x11B2, r25
    51b0:	80 e3       	ldi	r24, 0x30	; 48
    51b2:	95 e7       	ldi	r25, 0x75	; 117
    51b4:	a0 e0       	ldi	r26, 0x00	; 0
    51b6:	b0 e0       	ldi	r27, 0x00	; 0
    51b8:	80 93 b3 11 	sts	0x11B3, r24
    51bc:	90 93 b4 11 	sts	0x11B4, r25
    51c0:	a0 93 b5 11 	sts	0x11B5, r26
    51c4:	b0 93 b6 11 	sts	0x11B6, r27
    51c8:	80 91 b7 11 	lds	r24, 0x11B7
    51cc:	8e 7f       	andi	r24, 0xFE	; 254
    51ce:	82 60       	ori	r24, 0x02	; 2
    51d0:	80 93 b7 11 	sts	0x11B7, r24
    51d4:	82 e1       	ldi	r24, 0x12	; 18
    51d6:	0e 94 1f 03 	call	0x63e	; 0x63e <SchedulerBasicP__TaskBasic__postTask>
    51da:	80 91 28 02 	lds	r24, 0x0228
    51de:	90 91 29 02 	lds	r25, 0x0229
    51e2:	90 93 26 02 	sts	0x0226, r25
    51e6:	80 93 27 02 	sts	0x0227, r24
    51ea:	0e 94 0d 03 	call	0x61a	; 0x61a <SchedulerBasicP__popTask>
    51ee:	8f 3f       	cpi	r24, 0xFF	; 255
    51f0:	19 f0       	breq	.+6      	; 0x51f8 <main+0x1dc>
    51f2:	0e 94 66 11 	call	0x22cc	; 0x22cc <SchedulerBasicP__TaskBasic__runTask>
    51f6:	f9 cf       	rjmp	.-14     	; 0x51ea <main+0x1ce>
    51f8:	0f bf       	out	0x3f, r16	; 63
    51fa:	78 94       	sei
    51fc:	e2 ed       	ldi	r30, 0xD2	; 210
    51fe:	f3 e0       	ldi	r31, 0x03	; 3
    5200:	99 e0       	ldi	r25, 0x09	; 9
    5202:	89 e2       	ldi	r24, 0x29	; 41
    5204:	2f b7       	in	r18, 0x3f	; 63
    5206:	f8 94       	cli
    5208:	2f bf       	out	0x3f, r18	; 63
    520a:	af 01       	movw	r20, r30
    520c:	46 5f       	subi	r20, 0xF6	; 246
    520e:	5f 4f       	sbci	r21, 0xFF	; 255
    5210:	57 83       	std	Z+7, r21	; 0x07
    5212:	46 83       	std	Z+6, r20	; 0x06
    5214:	9f 01       	movw	r18, r30
    5216:	2d 5e       	subi	r18, 0xED	; 237
    5218:	3f 4f       	sbci	r19, 0xFF	; 255
    521a:	31 87       	std	Z+9, r19	; 0x09
    521c:	20 87       	std	Z+8, r18	; 0x08
    521e:	da 01       	movw	r26, r20
    5220:	29 2f       	mov	r18, r25
    5222:	1d 92       	st	X+, r1
    5224:	2a 95       	dec	r18
    5226:	e9 f7       	brne	.-6      	; 0x5222 <main+0x206>
    5228:	40 85       	ldd	r20, Z+8	; 0x08
    522a:	51 85       	ldd	r21, Z+9	; 0x09
    522c:	da 01       	movw	r26, r20
    522e:	28 2f       	mov	r18, r24
    5230:	1d 92       	st	X+, r1
    5232:	2a 95       	dec	r18
    5234:	e9 f7       	brne	.-6      	; 0x5230 <main+0x214>
    5236:	fb 96       	adiw	r30, 0x3b	; 59
    5238:	a7 e0       	ldi	r26, 0x07	; 7
    523a:	e7 34       	cpi	r30, 0x47	; 71
    523c:	fa 07       	cpc	r31, r26
    523e:	11 f7       	brne	.-60     	; 0x5204 <main+0x1e8>
    5240:	8f b7       	in	r24, 0x3f	; 63
    5242:	f8 94       	cli
    5244:	10 92 d3 07 	sts	0x07D3, r1
    5248:	10 92 d2 03 	sts	0x03D2, r1
    524c:	8f bf       	out	0x3f, r24	; 63
    524e:	10 92 c8 03 	sts	0x03C8, r1
    5252:	49 e0       	ldi	r20, 0x09	; 9
    5254:	50 e0       	ldi	r21, 0x00	; 0
    5256:	6f ef       	ldi	r22, 0xFF	; 255
    5258:	70 e0       	ldi	r23, 0x00	; 0
    525a:	89 ec       	ldi	r24, 0xC9	; 201
    525c:	93 e0       	ldi	r25, 0x03	; 3
    525e:	0e 94 3d 2d 	call	0x5a7a	; 0x5a7a <memset>
    5262:	10 92 c7 03 	sts	0x03C7, r1
    5266:	10 92 c6 03 	sts	0x03C6, r1
    526a:	63 e9       	ldi	r22, 0x93	; 147
    526c:	75 e0       	ldi	r23, 0x05	; 5
    526e:	ce 01       	movw	r24, r28
    5270:	01 96       	adiw	r24, 0x01	; 1
    5272:	0e 94 f6 2c 	call	0x59ec	; 0x59ec <strcpy_P>
    5276:	18 86       	std	Y+8, r1	; 0x08
    5278:	10 92 72 12 	sts	0x1272, r1
    527c:	10 92 e6 11 	sts	0x11E6, r1
    5280:	ce 01       	movw	r24, r28
    5282:	01 96       	adiw	r24, 0x01	; 1
    5284:	0e 94 d0 04 	call	0x9a0	; 0x9a0 <BufferedLcdP__0__BufferedLcd__write>
    5288:	0e 94 57 05 	call	0xaae	; 0xaae <RadioScannerP__printVolume>
    528c:	0e 94 8e 0f 	call	0x1f1c	; 0x1f1c <GlcdP__Glcd__fill.constprop.94>
    5290:	4a e0       	ldi	r20, 0x0A	; 10
    5292:	60 e0       	ldi	r22, 0x00	; 0
    5294:	81 e5       	ldi	r24, 0x51	; 81
    5296:	95 e0       	ldi	r25, 0x05	; 5
    5298:	0e 94 01 0f 	call	0x1e02	; 0x1e02 <GlcdP__Glcd__drawTextPgm>
    529c:	9f b7       	in	r25, 0x3f	; 63
    529e:	f8 94       	cli
    52a0:	80 91 07 01 	lds	r24, 0x0107
    52a4:	8f 77       	andi	r24, 0x7F	; 127
    52a6:	80 93 07 01 	sts	0x0107, r24
    52aa:	9f bf       	out	0x3f, r25	; 63
    52ac:	9f b7       	in	r25, 0x3f	; 63
    52ae:	f8 94       	cli
    52b0:	80 91 07 01 	lds	r24, 0x0107
    52b4:	8f 7b       	andi	r24, 0xBF	; 191
    52b6:	80 93 07 01 	sts	0x0107, r24
    52ba:	9f bf       	out	0x3f, r25	; 63
    52bc:	80 91 6d 00 	lds	r24, 0x006D
    52c0:	80 68       	ori	r24, 0x80	; 128
    52c2:	80 93 6d 00 	sts	0x006D, r24
    52c6:	8f b7       	in	r24, 0x3f	; 63
    52c8:	f8 94       	cli
    52ca:	9b e0       	ldi	r25, 0x0B	; 11
    52cc:	90 93 ac 02 	sts	0x02AC, r25
    52d0:	10 92 ab 02 	sts	0x02AB, r1
    52d4:	10 92 aa 02 	sts	0x02AA, r1
    52d8:	8f bf       	out	0x3f, r24	; 63
    52da:	80 91 68 00 	lds	r24, 0x0068
    52de:	84 60       	ori	r24, 0x04	; 4
    52e0:	80 93 68 00 	sts	0x0068, r24
    52e4:	9f b7       	in	r25, 0x3f	; 63
    52e6:	f8 94       	cli
    52e8:	80 91 68 12 	lds	r24, 0x1268
    52ec:	9f bf       	out	0x3f, r25	; 63
    52ee:	81 11       	cpse	r24, r1
    52f0:	31 c0       	rjmp	.+98     	; 0x5354 <main+0x338>
    52f2:	9f b7       	in	r25, 0x3f	; 63
    52f4:	f8 94       	cli
    52f6:	81 e0       	ldi	r24, 0x01	; 1
    52f8:	80 93 68 12 	sts	0x1268, r24
    52fc:	10 92 69 12 	sts	0x1269, r1
    5300:	10 92 6a 12 	sts	0x126A, r1
    5304:	10 92 6e 12 	sts	0x126E, r1
    5308:	80 e2       	ldi	r24, 0x20	; 32
    530a:	e3 e0       	ldi	r30, 0x03	; 3
    530c:	fa e0       	ldi	r31, 0x0A	; 10
    530e:	df 01       	movw	r26, r30
    5310:	28 2f       	mov	r18, r24
    5312:	1d 92       	st	X+, r1
    5314:	2a 95       	dec	r18
    5316:	e9 f7       	brne	.-6      	; 0x5312 <main+0x2f6>
    5318:	e5 e0       	ldi	r30, 0x05	; 5
    531a:	f2 e1       	ldi	r31, 0x12	; 18
    531c:	df 01       	movw	r26, r30
    531e:	1d 92       	st	X+, r1
    5320:	8a 95       	dec	r24
    5322:	e9 f7       	brne	.-6      	; 0x531e <main+0x302>
    5324:	9f bf       	out	0x3f, r25	; 63
    5326:	52 9a       	sbi	0x0a, 2	; 10
    5328:	5a 98       	cbi	0x0b, 2	; 11
    532a:	51 9a       	sbi	0x0a, 1	; 10
    532c:	59 98       	cbi	0x0b, 1	; 11
    532e:	53 98       	cbi	0x0a, 3	; 10
    5330:	5b 98       	cbi	0x0b, 3	; 11
    5332:	80 91 69 00 	lds	r24, 0x0069
    5336:	80 68       	ori	r24, 0x80	; 128
    5338:	80 93 69 00 	sts	0x0069, r24
    533c:	80 91 69 00 	lds	r24, 0x0069
    5340:	8f 7b       	andi	r24, 0xBF	; 191
    5342:	80 93 69 00 	sts	0x0069, r24
    5346:	41 e0       	ldi	r20, 0x01	; 1
    5348:	50 e0       	ldi	r21, 0x00	; 0
    534a:	60 e0       	ldi	r22, 0x00	; 0
    534c:	70 e0       	ldi	r23, 0x00	; 0
    534e:	82 e0       	ldi	r24, 0x02	; 2
    5350:	0e 94 86 03 	call	0x70c	; 0x70c <VirtualizeTimerC__0__Timer__startOneShot>
    5354:	8f b7       	in	r24, 0x3f	; 63
    5356:	f8 94       	cli
    5358:	91 e0       	ldi	r25, 0x01	; 1
    535a:	90 93 c4 03 	sts	0x03C4, r25
    535e:	8f bf       	out	0x3f, r24	; 63
    5360:	40 ec       	ldi	r20, 0xC0	; 192
    5362:	40 93 24 02 	sts	0x0224, r20
    5366:	38 ea       	ldi	r19, 0xA8	; 168
    5368:	30 93 25 02 	sts	0x0225, r19
    536c:	2a e2       	ldi	r18, 0x2A	; 42
    536e:	20 93 26 02 	sts	0x0226, r18
    5372:	82 e0       	ldi	r24, 0x02	; 2
    5374:	80 93 27 02 	sts	0x0227, r24
    5378:	8f ef       	ldi	r24, 0xFF	; 255
    537a:	80 93 1c 02 	sts	0x021C, r24
    537e:	80 93 1d 02 	sts	0x021D, r24
    5382:	80 93 1e 02 	sts	0x021E, r24
    5386:	10 92 1f 02 	sts	0x021F, r1
    538a:	40 93 20 02 	sts	0x0220, r20
    538e:	30 93 21 02 	sts	0x0221, r19
    5392:	20 93 22 02 	sts	0x0222, r18
    5396:	90 93 23 02 	sts	0x0223, r25
    539a:	10 92 c3 03 	sts	0x03C3, r1
    539e:	80 91 99 02 	lds	r24, 0x0299
    53a2:	81 11       	cpse	r24, r1
    53a4:	36 c0       	rjmp	.+108    	; 0x5412 <main+0x3f6>
    53a6:	20 9a       	sbi	0x04, 0	; 4
    53a8:	0e 94 05 03 	call	0x60a	; 0x60a <HplAtm128GeneralIOPinP__8__IO__set>
    53ac:	24 9a       	sbi	0x04, 4	; 4
    53ae:	2c 98       	cbi	0x05, 4	; 5
    53b0:	1a 86       	std	Y+10, r1	; 0x0a
    53b2:	19 86       	std	Y+9, r1	; 0x09
    53b4:	89 85       	ldd	r24, Y+9	; 0x09
    53b6:	9a 85       	ldd	r25, Y+10	; 0x0a
    53b8:	80 32       	cpi	r24, 0x20	; 32
    53ba:	9e 44       	sbci	r25, 0x4E	; 78
    53bc:	30 f4       	brcc	.+12     	; 0x53ca <main+0x3ae>
    53be:	89 85       	ldd	r24, Y+9	; 0x09
    53c0:	9a 85       	ldd	r25, Y+10	; 0x0a
    53c2:	01 96       	adiw	r24, 0x01	; 1
    53c4:	9a 87       	std	Y+10, r25	; 0x0a
    53c6:	89 87       	std	Y+9, r24	; 0x09
    53c8:	f5 cf       	rjmp	.-22     	; 0x53b4 <main+0x398>
    53ca:	2c 9a       	sbi	0x05, 4	; 5
    53cc:	1a 86       	std	Y+10, r1	; 0x0a
    53ce:	19 86       	std	Y+9, r1	; 0x09
    53d0:	89 85       	ldd	r24, Y+9	; 0x09
    53d2:	9a 85       	ldd	r25, Y+10	; 0x0a
    53d4:	80 32       	cpi	r24, 0x20	; 32
    53d6:	9e 44       	sbci	r25, 0x4E	; 78
    53d8:	30 f4       	brcc	.+12     	; 0x53e6 <main+0x3ca>
    53da:	89 85       	ldd	r24, Y+9	; 0x09
    53dc:	9a 85       	ldd	r25, Y+10	; 0x0a
    53de:	01 96       	adiw	r24, 0x01	; 1
    53e0:	9a 87       	std	Y+10, r25	; 0x0a
    53e2:	89 87       	std	Y+9, r24	; 0x09
    53e4:	f5 cf       	rjmp	.-22     	; 0x53d0 <main+0x3b4>
    53e6:	52 98       	cbi	0x0a, 2	; 10
    53e8:	5a 9a       	sbi	0x0b, 2	; 11
    53ea:	84 e0       	ldi	r24, 0x04	; 4
    53ec:	8c bb       	out	0x1c, r24	; 28
    53ee:	80 91 69 00 	lds	r24, 0x0069
    53f2:	80 62       	ori	r24, 0x20	; 32
    53f4:	80 93 69 00 	sts	0x0069, r24
    53f8:	80 91 69 00 	lds	r24, 0x0069
    53fc:	8f 7e       	andi	r24, 0xEF	; 239
    53fe:	80 93 69 00 	sts	0x0069, r24
    5402:	ea 9a       	sbi	0x1d, 2	; 29
    5404:	0e 94 39 0a 	call	0x1472	; 0x1472 <Atm1280SpiP__Resource__request.constprop.114>
    5408:	81 11       	cpse	r24, r1
    540a:	03 c0       	rjmp	.+6      	; 0x5412 <main+0x3f6>
    540c:	81 e0       	ldi	r24, 0x01	; 1
    540e:	80 93 99 02 	sts	0x0299, r24
    5412:	8f b7       	in	r24, 0x3f	; 63
    5414:	f8 94       	cli
    5416:	10 92 c4 03 	sts	0x03C4, r1
    541a:	8f bf       	out	0x3f, r24	; 63
    541c:	1f b7       	in	r17, 0x3f	; 63
    541e:	f8 94       	cli
    5420:	0e 94 0d 03 	call	0x61a	; 0x61a <SchedulerBasicP__popTask>
    5424:	8f 3f       	cpi	r24, 0xFF	; 255
    5426:	09 f0       	breq	.+2      	; 0x542a <main+0x40e>
    5428:	58 c0       	rjmp	.+176    	; 0x54da <main+0x4be>
    542a:	80 91 70 00 	lds	r24, 0x0070
    542e:	83 70       	andi	r24, 0x03	; 3
    5430:	89 f0       	breq	.+34     	; 0x5454 <main+0x438>
    5432:	80 91 b6 00 	lds	r24, 0x00B6
    5436:	8a 71       	andi	r24, 0x1A	; 26
    5438:	e1 f7       	brne	.-8      	; 0x5432 <main+0x416>
    543a:	80 91 b3 00 	lds	r24, 0x00B3
    543e:	90 91 b2 00 	lds	r25, 0x00B2
    5442:	89 1b       	sub	r24, r25
    5444:	88 30       	cpi	r24, 0x08	; 8
    5446:	40 f0       	brcs	.+16     	; 0x5458 <main+0x43c>
    5448:	80 91 b2 00 	lds	r24, 0x00B2
    544c:	89 3f       	cpi	r24, 0xF9	; 249
    544e:	20 f4       	brcc	.+8      	; 0x5458 <main+0x43c>
    5450:	83 e0       	ldi	r24, 0x03	; 3
    5452:	03 c0       	rjmp	.+6      	; 0x545a <main+0x43e>
    5454:	85 e0       	ldi	r24, 0x05	; 5
    5456:	01 c0       	rjmp	.+2      	; 0x545a <main+0x43e>
    5458:	82 e0       	ldi	r24, 0x02	; 2
    545a:	e0 91 6e 00 	lds	r30, 0x006E
    545e:	e6 70       	andi	r30, 0x06	; 6
    5460:	29 f5       	brne	.+74     	; 0x54ac <main+0x490>
    5462:	90 91 6f 00 	lds	r25, 0x006F
    5466:	9e 72       	andi	r25, 0x2E	; 46
    5468:	21 f5       	brne	.+72     	; 0x54b2 <main+0x496>
    546a:	e0 91 71 00 	lds	r30, 0x0071
    546e:	ee 72       	andi	r30, 0x2E	; 46
    5470:	e9 f4       	brne	.+58     	; 0x54ac <main+0x490>
    5472:	90 91 72 00 	lds	r25, 0x0072
    5476:	9e 72       	andi	r25, 0x2E	; 46
    5478:	e1 f4       	brne	.+56     	; 0x54b2 <main+0x496>
    547a:	e0 91 73 00 	lds	r30, 0x0073
    547e:	ee 72       	andi	r30, 0x2E	; 46
    5480:	a9 f4       	brne	.+42     	; 0x54ac <main+0x490>
    5482:	0c b4       	in	r0, 0x2c	; 44
    5484:	07 fc       	sbrc	r0, 7
    5486:	15 c0       	rjmp	.+42     	; 0x54b2 <main+0x496>
    5488:	90 91 c1 00 	lds	r25, 0x00C1
    548c:	98 71       	andi	r25, 0x18	; 24
    548e:	89 f4       	brne	.+34     	; 0x54b2 <main+0x496>
    5490:	e0 91 c9 00 	lds	r30, 0x00C9
    5494:	e8 71       	andi	r30, 0x18	; 24
    5496:	51 f4       	brne	.+20     	; 0x54ac <main+0x490>
    5498:	90 91 bc 00 	lds	r25, 0x00BC
    549c:	92 fd       	sbrc	r25, 2
    549e:	09 c0       	rjmp	.+18     	; 0x54b2 <main+0x496>
    54a0:	90 91 7a 00 	lds	r25, 0x007A
    54a4:	97 fd       	sbrc	r25, 7
    54a6:	04 c0       	rjmp	.+8      	; 0x54b0 <main+0x494>
    54a8:	e5 e0       	ldi	r30, 0x05	; 5
    54aa:	03 c0       	rjmp	.+6      	; 0x54b2 <main+0x496>
    54ac:	e0 e0       	ldi	r30, 0x00	; 0
    54ae:	01 c0       	rjmp	.+2      	; 0x54b2 <main+0x496>
    54b0:	e1 e0       	ldi	r30, 0x01	; 1
    54b2:	93 b7       	in	r25, 0x33	; 51
    54b4:	8e 17       	cp	r24, r30
    54b6:	08 f4       	brcc	.+2      	; 0x54ba <main+0x49e>
    54b8:	e8 2f       	mov	r30, r24
    54ba:	f0 e0       	ldi	r31, 0x00	; 0
    54bc:	ea 5b       	subi	r30, 0xBA	; 186
    54be:	fe 4f       	sbci	r31, 0xFE	; 254
    54c0:	84 91       	lpm	r24, Z
    54c2:	e9 2f       	mov	r30, r25
    54c4:	e0 7f       	andi	r30, 0xF0	; 240
    54c6:	e1 60       	ori	r30, 0x01	; 1
    54c8:	e8 2b       	or	r30, r24
    54ca:	e3 bf       	out	0x33, r30	; 51
    54cc:	78 94       	sei
    54ce:	88 95       	sleep
    54d0:	f8 94       	cli
    54d2:	83 b7       	in	r24, 0x33	; 51
    54d4:	8e 7f       	andi	r24, 0xFE	; 254
    54d6:	83 bf       	out	0x33, r24	; 51
    54d8:	a3 cf       	rjmp	.-186    	; 0x5420 <main+0x404>
    54da:	1f bf       	out	0x3f, r17	; 63
    54dc:	0e 94 66 11 	call	0x22cc	; 0x22cc <SchedulerBasicP__TaskBasic__runTask>
    54e0:	9d cf       	rjmp	.-198    	; 0x541c <main+0x400>

000054e2 <__udivmodhi4>:
    54e2:	aa 1b       	sub	r26, r26
    54e4:	bb 1b       	sub	r27, r27
    54e6:	51 e1       	ldi	r21, 0x11	; 17
    54e8:	07 c0       	rjmp	.+14     	; 0x54f8 <__udivmodhi4_ep>

000054ea <__udivmodhi4_loop>:
    54ea:	aa 1f       	adc	r26, r26
    54ec:	bb 1f       	adc	r27, r27
    54ee:	a6 17       	cp	r26, r22
    54f0:	b7 07       	cpc	r27, r23
    54f2:	10 f0       	brcs	.+4      	; 0x54f8 <__udivmodhi4_ep>
    54f4:	a6 1b       	sub	r26, r22
    54f6:	b7 0b       	sbc	r27, r23

000054f8 <__udivmodhi4_ep>:
    54f8:	88 1f       	adc	r24, r24
    54fa:	99 1f       	adc	r25, r25
    54fc:	5a 95       	dec	r21
    54fe:	a9 f7       	brne	.-22     	; 0x54ea <__udivmodhi4_loop>
    5500:	80 95       	com	r24
    5502:	90 95       	com	r25
    5504:	bc 01       	movw	r22, r24
    5506:	cd 01       	movw	r24, r26
    5508:	08 95       	ret

0000550a <__tablejump2__>:
    550a:	ee 0f       	add	r30, r30
    550c:	ff 1f       	adc	r31, r31

0000550e <__tablejump__>:
    550e:	05 90       	lpm	r0, Z+
    5510:	f4 91       	lpm	r31, Z
    5512:	e0 2d       	mov	r30, r0
    5514:	09 94       	ijmp

00005516 <strtol>:
    5516:	2f 92       	push	r2
    5518:	3f 92       	push	r3
    551a:	4f 92       	push	r4
    551c:	5f 92       	push	r5
    551e:	6f 92       	push	r6
    5520:	7f 92       	push	r7
    5522:	8f 92       	push	r8
    5524:	9f 92       	push	r9
    5526:	af 92       	push	r10
    5528:	bf 92       	push	r11
    552a:	cf 92       	push	r12
    552c:	df 92       	push	r13
    552e:	ef 92       	push	r14
    5530:	ff 92       	push	r15
    5532:	0f 93       	push	r16
    5534:	1f 93       	push	r17
    5536:	cf 93       	push	r28
    5538:	df 93       	push	r29
    553a:	5c 01       	movw	r10, r24
    553c:	6b 01       	movw	r12, r22
    553e:	7a 01       	movw	r14, r20
    5540:	61 15       	cp	r22, r1
    5542:	71 05       	cpc	r23, r1
    5544:	19 f0       	breq	.+6      	; 0x554c <strtol+0x36>
    5546:	fb 01       	movw	r30, r22
    5548:	91 83       	std	Z+1, r25	; 0x01
    554a:	80 83       	st	Z, r24
    554c:	e1 14       	cp	r14, r1
    554e:	f1 04       	cpc	r15, r1
    5550:	29 f0       	breq	.+10     	; 0x555c <strtol+0x46>
    5552:	c7 01       	movw	r24, r14
    5554:	02 97       	sbiw	r24, 0x02	; 2
    5556:	83 97       	sbiw	r24, 0x23	; 35
    5558:	08 f0       	brcs	.+2      	; 0x555c <strtol+0x46>
    555a:	f1 c0       	rjmp	.+482    	; 0x573e <strtol+0x228>
    555c:	e5 01       	movw	r28, r10
    555e:	21 96       	adiw	r28, 0x01	; 1
    5560:	f5 01       	movw	r30, r10
    5562:	10 81       	ld	r17, Z
    5564:	81 2f       	mov	r24, r17
    5566:	90 e0       	ldi	r25, 0x00	; 0
    5568:	0e 94 ee 2c 	call	0x59dc	; 0x59dc <isspace>
    556c:	89 2b       	or	r24, r25
    556e:	11 f0       	breq	.+4      	; 0x5574 <strtol+0x5e>
    5570:	5e 01       	movw	r10, r28
    5572:	f4 cf       	rjmp	.-24     	; 0x555c <strtol+0x46>
    5574:	1d 32       	cpi	r17, 0x2D	; 45
    5576:	29 f4       	brne	.+10     	; 0x5582 <strtol+0x6c>
    5578:	21 96       	adiw	r28, 0x01	; 1
    557a:	f5 01       	movw	r30, r10
    557c:	11 81       	ldd	r17, Z+1	; 0x01
    557e:	01 e0       	ldi	r16, 0x01	; 1
    5580:	07 c0       	rjmp	.+14     	; 0x5590 <strtol+0x7a>
    5582:	1b 32       	cpi	r17, 0x2B	; 43
    5584:	21 f4       	brne	.+8      	; 0x558e <strtol+0x78>
    5586:	e5 01       	movw	r28, r10
    5588:	22 96       	adiw	r28, 0x02	; 2
    558a:	f5 01       	movw	r30, r10
    558c:	11 81       	ldd	r17, Z+1	; 0x01
    558e:	00 e0       	ldi	r16, 0x00	; 0
    5590:	e1 14       	cp	r14, r1
    5592:	f1 04       	cpc	r15, r1
    5594:	59 f1       	breq	.+86     	; 0x55ec <strtol+0xd6>
    5596:	f0 e1       	ldi	r31, 0x10	; 16
    5598:	ef 16       	cp	r14, r31
    559a:	f1 04       	cpc	r15, r1
    559c:	61 f4       	brne	.+24     	; 0x55b6 <strtol+0xa0>
    559e:	10 33       	cpi	r17, 0x30	; 48
    55a0:	e1 f4       	brne	.+56     	; 0x55da <strtol+0xc4>
    55a2:	88 81       	ld	r24, Y
    55a4:	8f 7d       	andi	r24, 0xDF	; 223
    55a6:	88 35       	cpi	r24, 0x58	; 88
    55a8:	69 f5       	brne	.+90     	; 0x5604 <strtol+0xee>
    55aa:	19 81       	ldd	r17, Y+1	; 0x01
    55ac:	22 96       	adiw	r28, 0x02	; 2
    55ae:	02 60       	ori	r16, 0x02	; 2
    55b0:	70 e1       	ldi	r23, 0x10	; 16
    55b2:	e7 2e       	mov	r14, r23
    55b4:	f1 2c       	mov	r15, r1
    55b6:	88 e0       	ldi	r24, 0x08	; 8
    55b8:	e8 16       	cp	r14, r24
    55ba:	f1 04       	cpc	r15, r1
    55bc:	39 f1       	breq	.+78     	; 0x560c <strtol+0xf6>
    55be:	2c f4       	brge	.+10     	; 0x55ca <strtol+0xb4>
    55c0:	f2 e0       	ldi	r31, 0x02	; 2
    55c2:	ef 16       	cp	r14, r31
    55c4:	f1 04       	cpc	r15, r1
    55c6:	c9 f1       	breq	.+114    	; 0x563a <strtol+0x124>
    55c8:	2a c0       	rjmp	.+84     	; 0x561e <strtol+0x108>
    55ca:	8a e0       	ldi	r24, 0x0A	; 10
    55cc:	e8 16       	cp	r14, r24
    55ce:	f1 04       	cpc	r15, r1
    55d0:	79 f0       	breq	.+30     	; 0x55f0 <strtol+0xda>
    55d2:	e0 e1       	ldi	r30, 0x10	; 16
    55d4:	ee 16       	cp	r14, r30
    55d6:	f1 04       	cpc	r15, r1
    55d8:	11 f5       	brne	.+68     	; 0x561e <strtol+0x108>
    55da:	50 e1       	ldi	r21, 0x10	; 16
    55dc:	e5 2e       	mov	r14, r21
    55de:	f1 2c       	mov	r15, r1
    55e0:	81 2c       	mov	r8, r1
    55e2:	91 2c       	mov	r9, r1
    55e4:	a1 2c       	mov	r10, r1
    55e6:	68 e0       	ldi	r22, 0x08	; 8
    55e8:	b6 2e       	mov	r11, r22
    55ea:	2c c0       	rjmp	.+88     	; 0x5644 <strtol+0x12e>
    55ec:	10 33       	cpi	r17, 0x30	; 48
    55ee:	c9 f2       	breq	.-78     	; 0x55a2 <strtol+0x8c>
    55f0:	3a e0       	ldi	r19, 0x0A	; 10
    55f2:	e3 2e       	mov	r14, r19
    55f4:	f1 2c       	mov	r15, r1
    55f6:	4c ec       	ldi	r20, 0xCC	; 204
    55f8:	84 2e       	mov	r8, r20
    55fa:	98 2c       	mov	r9, r8
    55fc:	a8 2c       	mov	r10, r8
    55fe:	4c e0       	ldi	r20, 0x0C	; 12
    5600:	b4 2e       	mov	r11, r20
    5602:	20 c0       	rjmp	.+64     	; 0x5644 <strtol+0x12e>
    5604:	10 e3       	ldi	r17, 0x30	; 48
    5606:	e1 14       	cp	r14, r1
    5608:	f1 04       	cpc	r15, r1
    560a:	a9 f6       	brne	.-86     	; 0x55b6 <strtol+0xa0>
    560c:	98 e0       	ldi	r25, 0x08	; 8
    560e:	e9 2e       	mov	r14, r25
    5610:	f1 2c       	mov	r15, r1
    5612:	81 2c       	mov	r8, r1
    5614:	91 2c       	mov	r9, r1
    5616:	a1 2c       	mov	r10, r1
    5618:	20 e1       	ldi	r18, 0x10	; 16
    561a:	b2 2e       	mov	r11, r18
    561c:	13 c0       	rjmp	.+38     	; 0x5644 <strtol+0x12e>
    561e:	60 e0       	ldi	r22, 0x00	; 0
    5620:	70 e0       	ldi	r23, 0x00	; 0
    5622:	80 e0       	ldi	r24, 0x00	; 0
    5624:	90 e8       	ldi	r25, 0x80	; 128
    5626:	97 01       	movw	r18, r14
    5628:	44 27       	eor	r20, r20
    562a:	37 fd       	sbrc	r19, 7
    562c:	40 95       	com	r20
    562e:	54 2f       	mov	r21, r20
    5630:	0e 94 ac 30 	call	0x6158	; 0x6158 <__udivmodsi4>
    5634:	49 01       	movw	r8, r18
    5636:	5a 01       	movw	r10, r20
    5638:	05 c0       	rjmp	.+10     	; 0x5644 <strtol+0x12e>
    563a:	81 2c       	mov	r8, r1
    563c:	91 2c       	mov	r9, r1
    563e:	a1 2c       	mov	r10, r1
    5640:	80 e4       	ldi	r24, 0x40	; 64
    5642:	b8 2e       	mov	r11, r24
    5644:	60 e0       	ldi	r22, 0x00	; 0
    5646:	20 e0       	ldi	r18, 0x00	; 0
    5648:	30 e0       	ldi	r19, 0x00	; 0
    564a:	a9 01       	movw	r20, r18
    564c:	27 01       	movw	r4, r14
    564e:	66 24       	eor	r6, r6
    5650:	57 fc       	sbrc	r5, 7
    5652:	60 94       	com	r6
    5654:	76 2c       	mov	r7, r6
    5656:	1e 01       	movw	r2, r28
    5658:	e0 ed       	ldi	r30, 0xD0	; 208
    565a:	e1 0f       	add	r30, r17
    565c:	ea 30       	cpi	r30, 0x0A	; 10
    565e:	60 f0       	brcs	.+24     	; 0x5678 <strtol+0x162>
    5660:	8f eb       	ldi	r24, 0xBF	; 191
    5662:	81 0f       	add	r24, r17
    5664:	8a 31       	cpi	r24, 0x1A	; 26
    5666:	10 f4       	brcc	.+4      	; 0x566c <strtol+0x156>
    5668:	e9 ec       	ldi	r30, 0xC9	; 201
    566a:	05 c0       	rjmp	.+10     	; 0x5676 <strtol+0x160>
    566c:	8f e9       	ldi	r24, 0x9F	; 159
    566e:	81 0f       	add	r24, r17
    5670:	8a 31       	cpi	r24, 0x1A	; 26
    5672:	28 f5       	brcc	.+74     	; 0x56be <strtol+0x1a8>
    5674:	e9 ea       	ldi	r30, 0xA9	; 169
    5676:	e1 0f       	add	r30, r17
    5678:	8e 2f       	mov	r24, r30
    567a:	90 e0       	ldi	r25, 0x00	; 0
    567c:	8e 15       	cp	r24, r14
    567e:	9f 05       	cpc	r25, r15
    5680:	f4 f4       	brge	.+60     	; 0x56be <strtol+0x1a8>
    5682:	67 fd       	sbrc	r22, 7
    5684:	18 c0       	rjmp	.+48     	; 0x56b6 <strtol+0x1a0>
    5686:	82 16       	cp	r8, r18
    5688:	93 06       	cpc	r9, r19
    568a:	a4 06       	cpc	r10, r20
    568c:	b5 06       	cpc	r11, r21
    568e:	90 f0       	brcs	.+36     	; 0x56b4 <strtol+0x19e>
    5690:	c3 01       	movw	r24, r6
    5692:	b2 01       	movw	r22, r4
    5694:	0e 94 9c 30 	call	0x6138	; 0x6138 <__mulsi3>
    5698:	9b 01       	movw	r18, r22
    569a:	ac 01       	movw	r20, r24
    569c:	2e 0f       	add	r18, r30
    569e:	31 1d       	adc	r19, r1
    56a0:	41 1d       	adc	r20, r1
    56a2:	51 1d       	adc	r21, r1
    56a4:	21 30       	cpi	r18, 0x01	; 1
    56a6:	31 05       	cpc	r19, r1
    56a8:	41 05       	cpc	r20, r1
    56aa:	f0 e8       	ldi	r31, 0x80	; 128
    56ac:	5f 07       	cpc	r21, r31
    56ae:	10 f4       	brcc	.+4      	; 0x56b4 <strtol+0x19e>
    56b0:	61 e0       	ldi	r22, 0x01	; 1
    56b2:	01 c0       	rjmp	.+2      	; 0x56b6 <strtol+0x1a0>
    56b4:	6f ef       	ldi	r22, 0xFF	; 255
    56b6:	21 96       	adiw	r28, 0x01	; 1
    56b8:	f1 01       	movw	r30, r2
    56ba:	10 81       	ld	r17, Z
    56bc:	cc cf       	rjmp	.-104    	; 0x5656 <strtol+0x140>
    56be:	80 2f       	mov	r24, r16
    56c0:	81 70       	andi	r24, 0x01	; 1
    56c2:	c1 14       	cp	r12, r1
    56c4:	d1 04       	cpc	r13, r1
    56c6:	71 f0       	breq	.+28     	; 0x56e4 <strtol+0x1ce>
    56c8:	66 23       	and	r22, r22
    56ca:	29 f0       	breq	.+10     	; 0x56d6 <strtol+0x1c0>
    56cc:	21 97       	sbiw	r28, 0x01	; 1
    56ce:	f6 01       	movw	r30, r12
    56d0:	d1 83       	std	Z+1, r29	; 0x01
    56d2:	c0 83       	st	Z, r28
    56d4:	07 c0       	rjmp	.+14     	; 0x56e4 <strtol+0x1ce>
    56d6:	01 ff       	sbrs	r16, 1
    56d8:	19 c0       	rjmp	.+50     	; 0x570c <strtol+0x1f6>
    56da:	22 97       	sbiw	r28, 0x02	; 2
    56dc:	f6 01       	movw	r30, r12
    56de:	d1 83       	std	Z+1, r29	; 0x01
    56e0:	c0 83       	st	Z, r28
    56e2:	14 c0       	rjmp	.+40     	; 0x570c <strtol+0x1f6>
    56e4:	67 ff       	sbrs	r22, 7
    56e6:	12 c0       	rjmp	.+36     	; 0x570c <strtol+0x1f6>
    56e8:	81 11       	cpse	r24, r1
    56ea:	05 c0       	rjmp	.+10     	; 0x56f6 <strtol+0x1e0>
    56ec:	2f ef       	ldi	r18, 0xFF	; 255
    56ee:	3f ef       	ldi	r19, 0xFF	; 255
    56f0:	4f ef       	ldi	r20, 0xFF	; 255
    56f2:	5f e7       	ldi	r21, 0x7F	; 127
    56f4:	04 c0       	rjmp	.+8      	; 0x56fe <strtol+0x1e8>
    56f6:	20 e0       	ldi	r18, 0x00	; 0
    56f8:	30 e0       	ldi	r19, 0x00	; 0
    56fa:	40 e0       	ldi	r20, 0x00	; 0
    56fc:	50 e8       	ldi	r21, 0x80	; 128
    56fe:	82 e2       	ldi	r24, 0x22	; 34
    5700:	90 e0       	ldi	r25, 0x00	; 0
    5702:	90 93 fb 12 	sts	0x12FB, r25
    5706:	80 93 fa 12 	sts	0x12FA, r24
    570a:	16 c0       	rjmp	.+44     	; 0x5738 <strtol+0x222>
    570c:	88 23       	and	r24, r24
    570e:	41 f0       	breq	.+16     	; 0x5720 <strtol+0x20a>
    5710:	50 95       	com	r21
    5712:	40 95       	com	r20
    5714:	30 95       	com	r19
    5716:	21 95       	neg	r18
    5718:	3f 4f       	sbci	r19, 0xFF	; 255
    571a:	4f 4f       	sbci	r20, 0xFF	; 255
    571c:	5f 4f       	sbci	r21, 0xFF	; 255
    571e:	0c c0       	rjmp	.+24     	; 0x5738 <strtol+0x222>
    5720:	57 ff       	sbrs	r21, 7
    5722:	0a c0       	rjmp	.+20     	; 0x5738 <strtol+0x222>
    5724:	82 e2       	ldi	r24, 0x22	; 34
    5726:	90 e0       	ldi	r25, 0x00	; 0
    5728:	90 93 fb 12 	sts	0x12FB, r25
    572c:	80 93 fa 12 	sts	0x12FA, r24
    5730:	2f ef       	ldi	r18, 0xFF	; 255
    5732:	3f ef       	ldi	r19, 0xFF	; 255
    5734:	4f ef       	ldi	r20, 0xFF	; 255
    5736:	5f e7       	ldi	r21, 0x7F	; 127
    5738:	b9 01       	movw	r22, r18
    573a:	ca 01       	movw	r24, r20
    573c:	04 c0       	rjmp	.+8      	; 0x5746 <strtol+0x230>
    573e:	60 e0       	ldi	r22, 0x00	; 0
    5740:	70 e0       	ldi	r23, 0x00	; 0
    5742:	80 e0       	ldi	r24, 0x00	; 0
    5744:	90 e0       	ldi	r25, 0x00	; 0
    5746:	df 91       	pop	r29
    5748:	cf 91       	pop	r28
    574a:	1f 91       	pop	r17
    574c:	0f 91       	pop	r16
    574e:	ff 90       	pop	r15
    5750:	ef 90       	pop	r14
    5752:	df 90       	pop	r13
    5754:	cf 90       	pop	r12
    5756:	bf 90       	pop	r11
    5758:	af 90       	pop	r10
    575a:	9f 90       	pop	r9
    575c:	8f 90       	pop	r8
    575e:	7f 90       	pop	r7
    5760:	6f 90       	pop	r6
    5762:	5f 90       	pop	r5
    5764:	4f 90       	pop	r4
    5766:	3f 90       	pop	r3
    5768:	2f 90       	pop	r2
    576a:	08 95       	ret

0000576c <strtoul>:
    576c:	2f 92       	push	r2
    576e:	3f 92       	push	r3
    5770:	4f 92       	push	r4
    5772:	5f 92       	push	r5
    5774:	6f 92       	push	r6
    5776:	7f 92       	push	r7
    5778:	8f 92       	push	r8
    577a:	9f 92       	push	r9
    577c:	af 92       	push	r10
    577e:	bf 92       	push	r11
    5780:	cf 92       	push	r12
    5782:	df 92       	push	r13
    5784:	ef 92       	push	r14
    5786:	ff 92       	push	r15
    5788:	0f 93       	push	r16
    578a:	1f 93       	push	r17
    578c:	cf 93       	push	r28
    578e:	df 93       	push	r29
    5790:	00 d0       	rcall	.+0      	; 0x5792 <strtoul+0x26>
    5792:	00 d0       	rcall	.+0      	; 0x5794 <strtoul+0x28>
    5794:	00 d0       	rcall	.+0      	; 0x5796 <strtoul+0x2a>
    5796:	cd b7       	in	r28, 0x3d	; 61
    5798:	de b7       	in	r29, 0x3e	; 62
    579a:	5c 01       	movw	r10, r24
    579c:	6b 01       	movw	r12, r22
    579e:	7a 01       	movw	r14, r20
    57a0:	61 15       	cp	r22, r1
    57a2:	71 05       	cpc	r23, r1
    57a4:	19 f0       	breq	.+6      	; 0x57ac <strtoul+0x40>
    57a6:	db 01       	movw	r26, r22
    57a8:	8d 93       	st	X+, r24
    57aa:	9c 93       	st	X, r25
    57ac:	e1 14       	cp	r14, r1
    57ae:	f1 04       	cpc	r15, r1
    57b0:	29 f0       	breq	.+10     	; 0x57bc <strtoul+0x50>
    57b2:	c7 01       	movw	r24, r14
    57b4:	02 97       	sbiw	r24, 0x02	; 2
    57b6:	83 97       	sbiw	r24, 0x23	; 35
    57b8:	08 f0       	brcs	.+2      	; 0x57bc <strtoul+0x50>
    57ba:	dc c0       	rjmp	.+440    	; 0x5974 <strtoul+0x208>
    57bc:	35 01       	movw	r6, r10
    57be:	bf ef       	ldi	r27, 0xFF	; 255
    57c0:	6b 1a       	sub	r6, r27
    57c2:	7b 0a       	sbc	r7, r27
    57c4:	f5 01       	movw	r30, r10
    57c6:	10 81       	ld	r17, Z
    57c8:	81 2f       	mov	r24, r17
    57ca:	90 e0       	ldi	r25, 0x00	; 0
    57cc:	0e 94 ee 2c 	call	0x59dc	; 0x59dc <isspace>
    57d0:	89 2b       	or	r24, r25
    57d2:	11 f0       	breq	.+4      	; 0x57d8 <strtoul+0x6c>
    57d4:	53 01       	movw	r10, r6
    57d6:	f2 cf       	rjmp	.-28     	; 0x57bc <strtoul+0x50>
    57d8:	1d 32       	cpi	r17, 0x2D	; 45
    57da:	49 f4       	brne	.+18     	; 0x57ee <strtoul+0x82>
    57dc:	35 01       	movw	r6, r10
    57de:	f2 e0       	ldi	r31, 0x02	; 2
    57e0:	6f 0e       	add	r6, r31
    57e2:	71 1c       	adc	r7, r1
    57e4:	d5 01       	movw	r26, r10
    57e6:	11 96       	adiw	r26, 0x01	; 1
    57e8:	1c 91       	ld	r17, X
    57ea:	01 e0       	ldi	r16, 0x01	; 1
    57ec:	09 c0       	rjmp	.+18     	; 0x5800 <strtoul+0x94>
    57ee:	1b 32       	cpi	r17, 0x2B	; 43
    57f0:	31 f4       	brne	.+12     	; 0x57fe <strtoul+0x92>
    57f2:	35 01       	movw	r6, r10
    57f4:	b2 e0       	ldi	r27, 0x02	; 2
    57f6:	6b 0e       	add	r6, r27
    57f8:	71 1c       	adc	r7, r1
    57fa:	f5 01       	movw	r30, r10
    57fc:	11 81       	ldd	r17, Z+1	; 0x01
    57fe:	00 e0       	ldi	r16, 0x00	; 0
    5800:	e1 14       	cp	r14, r1
    5802:	f1 04       	cpc	r15, r1
    5804:	09 f4       	brne	.+2      	; 0x5808 <strtoul+0x9c>
    5806:	c4 c0       	rjmp	.+392    	; 0x5990 <strtoul+0x224>
    5808:	f0 e1       	ldi	r31, 0x10	; 16
    580a:	ef 16       	cp	r14, r31
    580c:	f1 04       	cpc	r15, r1
    580e:	89 f4       	brne	.+34     	; 0x5832 <strtoul+0xc6>
    5810:	10 33       	cpi	r17, 0x30	; 48
    5812:	99 f5       	brne	.+102    	; 0x587a <strtoul+0x10e>
    5814:	d3 01       	movw	r26, r6
    5816:	8c 91       	ld	r24, X
    5818:	8f 7d       	andi	r24, 0xDF	; 223
    581a:	88 35       	cpi	r24, 0x58	; 88
    581c:	09 f0       	breq	.+2      	; 0x5820 <strtoul+0xb4>
    581e:	b2 c0       	rjmp	.+356    	; 0x5984 <strtoul+0x218>
    5820:	11 96       	adiw	r26, 0x01	; 1
    5822:	1c 91       	ld	r17, X
    5824:	b2 e0       	ldi	r27, 0x02	; 2
    5826:	6b 0e       	add	r6, r27
    5828:	71 1c       	adc	r7, r1
    582a:	02 60       	ori	r16, 0x02	; 2
    582c:	50 e1       	ldi	r21, 0x10	; 16
    582e:	e5 2e       	mov	r14, r21
    5830:	f1 2c       	mov	r15, r1
    5832:	ea e0       	ldi	r30, 0x0A	; 10
    5834:	ee 16       	cp	r14, r30
    5836:	f1 04       	cpc	r15, r1
    5838:	09 f4       	brne	.+2      	; 0x583c <strtoul+0xd0>
    583a:	b0 c0       	rjmp	.+352    	; 0x599c <strtoul+0x230>
    583c:	f0 e1       	ldi	r31, 0x10	; 16
    583e:	ef 16       	cp	r14, r31
    5840:	f1 04       	cpc	r15, r1
    5842:	d9 f0       	breq	.+54     	; 0x587a <strtoul+0x10e>
    5844:	28 e0       	ldi	r18, 0x08	; 8
    5846:	e2 16       	cp	r14, r18
    5848:	f1 04       	cpc	r15, r1
    584a:	51 f4       	brne	.+20     	; 0x5860 <strtoul+0xf4>
    584c:	38 e0       	ldi	r19, 0x08	; 8
    584e:	e3 2e       	mov	r14, r19
    5850:	f1 2c       	mov	r15, r1
    5852:	88 24       	eor	r8, r8
    5854:	8a 94       	dec	r8
    5856:	98 2c       	mov	r9, r8
    5858:	a8 2c       	mov	r10, r8
    585a:	4f e1       	ldi	r20, 0x1F	; 31
    585c:	b4 2e       	mov	r11, r20
    585e:	13 c0       	rjmp	.+38     	; 0x5886 <strtoul+0x11a>
    5860:	6f ef       	ldi	r22, 0xFF	; 255
    5862:	7f ef       	ldi	r23, 0xFF	; 255
    5864:	cb 01       	movw	r24, r22
    5866:	97 01       	movw	r18, r14
    5868:	44 27       	eor	r20, r20
    586a:	37 fd       	sbrc	r19, 7
    586c:	40 95       	com	r20
    586e:	54 2f       	mov	r21, r20
    5870:	0e 94 ac 30 	call	0x6158	; 0x6158 <__udivmodsi4>
    5874:	49 01       	movw	r8, r18
    5876:	5a 01       	movw	r10, r20
    5878:	06 c0       	rjmp	.+12     	; 0x5886 <strtoul+0x11a>
    587a:	88 24       	eor	r8, r8
    587c:	8a 94       	dec	r8
    587e:	98 2c       	mov	r9, r8
    5880:	a8 2c       	mov	r10, r8
    5882:	2f e0       	ldi	r18, 0x0F	; 15
    5884:	b2 2e       	mov	r11, r18
    5886:	7e 82       	std	Y+6, r7	; 0x06
    5888:	6d 82       	std	Y+5, r6	; 0x05
    588a:	60 e0       	ldi	r22, 0x00	; 0
    588c:	20 e0       	ldi	r18, 0x00	; 0
    588e:	30 e0       	ldi	r19, 0x00	; 0
    5890:	a9 01       	movw	r20, r18
    5892:	27 01       	movw	r4, r14
    5894:	66 24       	eor	r6, r6
    5896:	57 fc       	sbrc	r5, 7
    5898:	60 94       	com	r6
    589a:	76 2c       	mov	r7, r6
    589c:	2d 80       	ldd	r2, Y+5	; 0x05
    589e:	3e 80       	ldd	r3, Y+6	; 0x06
    58a0:	e0 ed       	ldi	r30, 0xD0	; 208
    58a2:	e1 0f       	add	r30, r17
    58a4:	ea 30       	cpi	r30, 0x0A	; 10
    58a6:	60 f0       	brcs	.+24     	; 0x58c0 <strtoul+0x154>
    58a8:	8f eb       	ldi	r24, 0xBF	; 191
    58aa:	81 0f       	add	r24, r17
    58ac:	8a 31       	cpi	r24, 0x1A	; 26
    58ae:	10 f4       	brcc	.+4      	; 0x58b4 <strtoul+0x148>
    58b0:	e9 ec       	ldi	r30, 0xC9	; 201
    58b2:	05 c0       	rjmp	.+10     	; 0x58be <strtoul+0x152>
    58b4:	8f e9       	ldi	r24, 0x9F	; 159
    58b6:	81 0f       	add	r24, r17
    58b8:	8a 31       	cpi	r24, 0x1A	; 26
    58ba:	90 f5       	brcc	.+100    	; 0x5920 <strtoul+0x1b4>
    58bc:	e9 ea       	ldi	r30, 0xA9	; 169
    58be:	e1 0f       	add	r30, r17
    58c0:	8e 2f       	mov	r24, r30
    58c2:	90 e0       	ldi	r25, 0x00	; 0
    58c4:	8e 15       	cp	r24, r14
    58c6:	9f 05       	cpc	r25, r15
    58c8:	5c f5       	brge	.+86     	; 0x5920 <strtoul+0x1b4>
    58ca:	6f 3f       	cpi	r22, 0xFF	; 255
    58cc:	09 f1       	breq	.+66     	; 0x5910 <strtoul+0x1a4>
    58ce:	82 16       	cp	r8, r18
    58d0:	93 06       	cpc	r9, r19
    58d2:	a4 06       	cpc	r10, r20
    58d4:	b5 06       	cpc	r11, r21
    58d6:	d8 f0       	brcs	.+54     	; 0x590e <strtoul+0x1a2>
    58d8:	c3 01       	movw	r24, r6
    58da:	b2 01       	movw	r22, r4
    58dc:	0e 94 9c 30 	call	0x6138	; 0x6138 <__mulsi3>
    58e0:	2e 2f       	mov	r18, r30
    58e2:	30 e0       	ldi	r19, 0x00	; 0
    58e4:	40 e0       	ldi	r20, 0x00	; 0
    58e6:	50 e0       	ldi	r21, 0x00	; 0
    58e8:	29 83       	std	Y+1, r18	; 0x01
    58ea:	3a 83       	std	Y+2, r19	; 0x02
    58ec:	4b 83       	std	Y+3, r20	; 0x03
    58ee:	5c 83       	std	Y+4, r21	; 0x04
    58f0:	26 0f       	add	r18, r22
    58f2:	37 1f       	adc	r19, r23
    58f4:	48 1f       	adc	r20, r24
    58f6:	59 1f       	adc	r21, r25
    58f8:	89 81       	ldd	r24, Y+1	; 0x01
    58fa:	9a 81       	ldd	r25, Y+2	; 0x02
    58fc:	ab 81       	ldd	r26, Y+3	; 0x03
    58fe:	bc 81       	ldd	r27, Y+4	; 0x04
    5900:	28 17       	cp	r18, r24
    5902:	39 07       	cpc	r19, r25
    5904:	4a 07       	cpc	r20, r26
    5906:	5b 07       	cpc	r21, r27
    5908:	10 f0       	brcs	.+4      	; 0x590e <strtoul+0x1a2>
    590a:	61 e0       	ldi	r22, 0x01	; 1
    590c:	01 c0       	rjmp	.+2      	; 0x5910 <strtoul+0x1a4>
    590e:	6f ef       	ldi	r22, 0xFF	; 255
    5910:	ed 81       	ldd	r30, Y+5	; 0x05
    5912:	fe 81       	ldd	r31, Y+6	; 0x06
    5914:	31 96       	adiw	r30, 0x01	; 1
    5916:	fe 83       	std	Y+6, r31	; 0x06
    5918:	ed 83       	std	Y+5, r30	; 0x05
    591a:	d1 01       	movw	r26, r2
    591c:	1c 91       	ld	r17, X
    591e:	be cf       	rjmp	.-132    	; 0x589c <strtoul+0x130>
    5920:	c1 14       	cp	r12, r1
    5922:	d1 04       	cpc	r13, r1
    5924:	89 f0       	breq	.+34     	; 0x5948 <strtoul+0x1dc>
    5926:	66 23       	and	r22, r22
    5928:	39 f0       	breq	.+14     	; 0x5938 <strtoul+0x1cc>
    592a:	8d 81       	ldd	r24, Y+5	; 0x05
    592c:	9e 81       	ldd	r25, Y+6	; 0x06
    592e:	01 97       	sbiw	r24, 0x01	; 1
    5930:	f6 01       	movw	r30, r12
    5932:	91 83       	std	Z+1, r25	; 0x01
    5934:	80 83       	st	Z, r24
    5936:	08 c0       	rjmp	.+16     	; 0x5948 <strtoul+0x1dc>
    5938:	01 ff       	sbrs	r16, 1
    593a:	06 c0       	rjmp	.+12     	; 0x5948 <strtoul+0x1dc>
    593c:	8d 81       	ldd	r24, Y+5	; 0x05
    593e:	9e 81       	ldd	r25, Y+6	; 0x06
    5940:	02 97       	sbiw	r24, 0x02	; 2
    5942:	d6 01       	movw	r26, r12
    5944:	8d 93       	st	X+, r24
    5946:	9c 93       	st	X, r25
    5948:	00 ff       	sbrs	r16, 0
    594a:	07 c0       	rjmp	.+14     	; 0x595a <strtoul+0x1ee>
    594c:	50 95       	com	r21
    594e:	40 95       	com	r20
    5950:	30 95       	com	r19
    5952:	21 95       	neg	r18
    5954:	3f 4f       	sbci	r19, 0xFF	; 255
    5956:	4f 4f       	sbci	r20, 0xFF	; 255
    5958:	5f 4f       	sbci	r21, 0xFF	; 255
    595a:	67 ff       	sbrs	r22, 7
    595c:	10 c0       	rjmp	.+32     	; 0x597e <strtoul+0x212>
    595e:	82 e2       	ldi	r24, 0x22	; 34
    5960:	90 e0       	ldi	r25, 0x00	; 0
    5962:	90 93 fb 12 	sts	0x12FB, r25
    5966:	80 93 fa 12 	sts	0x12FA, r24
    596a:	6f ef       	ldi	r22, 0xFF	; 255
    596c:	7f ef       	ldi	r23, 0xFF	; 255
    596e:	8f ef       	ldi	r24, 0xFF	; 255
    5970:	9f ef       	ldi	r25, 0xFF	; 255
    5972:	1b c0       	rjmp	.+54     	; 0x59aa <strtoul+0x23e>
    5974:	60 e0       	ldi	r22, 0x00	; 0
    5976:	70 e0       	ldi	r23, 0x00	; 0
    5978:	80 e0       	ldi	r24, 0x00	; 0
    597a:	90 e0       	ldi	r25, 0x00	; 0
    597c:	16 c0       	rjmp	.+44     	; 0x59aa <strtoul+0x23e>
    597e:	b9 01       	movw	r22, r18
    5980:	ca 01       	movw	r24, r20
    5982:	13 c0       	rjmp	.+38     	; 0x59aa <strtoul+0x23e>
    5984:	10 e3       	ldi	r17, 0x30	; 48
    5986:	e1 14       	cp	r14, r1
    5988:	f1 04       	cpc	r15, r1
    598a:	09 f4       	brne	.+2      	; 0x598e <strtoul+0x222>
    598c:	5f cf       	rjmp	.-322    	; 0x584c <strtoul+0xe0>
    598e:	51 cf       	rjmp	.-350    	; 0x5832 <strtoul+0xc6>
    5990:	10 33       	cpi	r17, 0x30	; 48
    5992:	09 f4       	brne	.+2      	; 0x5996 <strtoul+0x22a>
    5994:	3f cf       	rjmp	.-386    	; 0x5814 <strtoul+0xa8>
    5996:	9a e0       	ldi	r25, 0x0A	; 10
    5998:	e9 2e       	mov	r14, r25
    599a:	f1 2c       	mov	r15, r1
    599c:	89 e9       	ldi	r24, 0x99	; 153
    599e:	88 2e       	mov	r8, r24
    59a0:	98 2c       	mov	r9, r8
    59a2:	a8 2c       	mov	r10, r8
    59a4:	89 e1       	ldi	r24, 0x19	; 25
    59a6:	b8 2e       	mov	r11, r24
    59a8:	6e cf       	rjmp	.-292    	; 0x5886 <strtoul+0x11a>
    59aa:	26 96       	adiw	r28, 0x06	; 6
    59ac:	0f b6       	in	r0, 0x3f	; 63
    59ae:	f8 94       	cli
    59b0:	de bf       	out	0x3e, r29	; 62
    59b2:	0f be       	out	0x3f, r0	; 63
    59b4:	cd bf       	out	0x3d, r28	; 61
    59b6:	df 91       	pop	r29
    59b8:	cf 91       	pop	r28
    59ba:	1f 91       	pop	r17
    59bc:	0f 91       	pop	r16
    59be:	ff 90       	pop	r15
    59c0:	ef 90       	pop	r14
    59c2:	df 90       	pop	r13
    59c4:	cf 90       	pop	r12
    59c6:	bf 90       	pop	r11
    59c8:	af 90       	pop	r10
    59ca:	9f 90       	pop	r9
    59cc:	8f 90       	pop	r8
    59ce:	7f 90       	pop	r7
    59d0:	6f 90       	pop	r6
    59d2:	5f 90       	pop	r5
    59d4:	4f 90       	pop	r4
    59d6:	3f 90       	pop	r3
    59d8:	2f 90       	pop	r2
    59da:	08 95       	ret

000059dc <isspace>:
    59dc:	91 11       	cpse	r25, r1
    59de:	fd c2       	rjmp	.+1530   	; 0x5fda <__ctype_isfalse>
    59e0:	80 32       	cpi	r24, 0x20	; 32
    59e2:	19 f0       	breq	.+6      	; 0x59ea <isspace+0xe>
    59e4:	89 50       	subi	r24, 0x09	; 9
    59e6:	85 50       	subi	r24, 0x05	; 5
    59e8:	d0 f7       	brcc	.-12     	; 0x59de <isspace+0x2>
    59ea:	08 95       	ret

000059ec <strcpy_P>:
    59ec:	fb 01       	movw	r30, r22
    59ee:	dc 01       	movw	r26, r24
    59f0:	05 90       	lpm	r0, Z+
    59f2:	0d 92       	st	X+, r0
    59f4:	00 20       	and	r0, r0
    59f6:	e1 f7       	brne	.-8      	; 0x59f0 <strcpy_P+0x4>
    59f8:	08 95       	ret

000059fa <strncmp_P>:
    59fa:	fb 01       	movw	r30, r22
    59fc:	dc 01       	movw	r26, r24
    59fe:	41 50       	subi	r20, 0x01	; 1
    5a00:	50 40       	sbci	r21, 0x00	; 0
    5a02:	30 f0       	brcs	.+12     	; 0x5a10 <strncmp_P+0x16>
    5a04:	8d 91       	ld	r24, X+
    5a06:	05 90       	lpm	r0, Z+
    5a08:	80 19       	sub	r24, r0
    5a0a:	19 f4       	brne	.+6      	; 0x5a12 <strncmp_P+0x18>
    5a0c:	00 20       	and	r0, r0
    5a0e:	b9 f7       	brne	.-18     	; 0x59fe <strncmp_P+0x4>
    5a10:	88 1b       	sub	r24, r24
    5a12:	99 0b       	sbc	r25, r25
    5a14:	08 95       	ret

00005a16 <strncpy_P>:
    5a16:	fb 01       	movw	r30, r22
    5a18:	dc 01       	movw	r26, r24
    5a1a:	41 50       	subi	r20, 0x01	; 1
    5a1c:	50 40       	sbci	r21, 0x00	; 0
    5a1e:	48 f0       	brcs	.+18     	; 0x5a32 <strncpy_P+0x1c>
    5a20:	05 90       	lpm	r0, Z+
    5a22:	0d 92       	st	X+, r0
    5a24:	00 20       	and	r0, r0
    5a26:	c9 f7       	brne	.-14     	; 0x5a1a <strncpy_P+0x4>
    5a28:	01 c0       	rjmp	.+2      	; 0x5a2c <strncpy_P+0x16>
    5a2a:	1d 92       	st	X+, r1
    5a2c:	41 50       	subi	r20, 0x01	; 1
    5a2e:	50 40       	sbci	r21, 0x00	; 0
    5a30:	e0 f7       	brcc	.-8      	; 0x5a2a <strncpy_P+0x14>
    5a32:	08 95       	ret

00005a34 <strstr_P>:
    5a34:	fb 01       	movw	r30, r22
    5a36:	55 91       	lpm	r21, Z+
    5a38:	55 23       	and	r21, r21
    5a3a:	a9 f0       	breq	.+42     	; 0x5a66 <strstr_P+0x32>
    5a3c:	bf 01       	movw	r22, r30
    5a3e:	dc 01       	movw	r26, r24
    5a40:	4d 91       	ld	r20, X+
    5a42:	45 17       	cp	r20, r21
    5a44:	41 11       	cpse	r20, r1
    5a46:	e1 f7       	brne	.-8      	; 0x5a40 <strstr_P+0xc>
    5a48:	59 f4       	brne	.+22     	; 0x5a60 <strstr_P+0x2c>
    5a4a:	cd 01       	movw	r24, r26
    5a4c:	05 90       	lpm	r0, Z+
    5a4e:	00 20       	and	r0, r0
    5a50:	49 f0       	breq	.+18     	; 0x5a64 <strstr_P+0x30>
    5a52:	4d 91       	ld	r20, X+
    5a54:	40 15       	cp	r20, r0
    5a56:	41 11       	cpse	r20, r1
    5a58:	c9 f3       	breq	.-14     	; 0x5a4c <strstr_P+0x18>
    5a5a:	fb 01       	movw	r30, r22
    5a5c:	41 11       	cpse	r20, r1
    5a5e:	ef cf       	rjmp	.-34     	; 0x5a3e <strstr_P+0xa>
    5a60:	81 e0       	ldi	r24, 0x01	; 1
    5a62:	90 e0       	ldi	r25, 0x00	; 0
    5a64:	01 97       	sbiw	r24, 0x01	; 1
    5a66:	08 95       	ret

00005a68 <memcpy>:
    5a68:	fb 01       	movw	r30, r22
    5a6a:	dc 01       	movw	r26, r24
    5a6c:	02 c0       	rjmp	.+4      	; 0x5a72 <memcpy+0xa>
    5a6e:	01 90       	ld	r0, Z+
    5a70:	0d 92       	st	X+, r0
    5a72:	41 50       	subi	r20, 0x01	; 1
    5a74:	50 40       	sbci	r21, 0x00	; 0
    5a76:	d8 f7       	brcc	.-10     	; 0x5a6e <memcpy+0x6>
    5a78:	08 95       	ret

00005a7a <memset>:
    5a7a:	dc 01       	movw	r26, r24
    5a7c:	01 c0       	rjmp	.+2      	; 0x5a80 <memset+0x6>
    5a7e:	6d 93       	st	X+, r22
    5a80:	41 50       	subi	r20, 0x01	; 1
    5a82:	50 40       	sbci	r21, 0x00	; 0
    5a84:	e0 f7       	brcc	.-8      	; 0x5a7e <memset+0x4>
    5a86:	08 95       	ret

00005a88 <strchr>:
    5a88:	fc 01       	movw	r30, r24
    5a8a:	81 91       	ld	r24, Z+
    5a8c:	86 17       	cp	r24, r22
    5a8e:	21 f0       	breq	.+8      	; 0x5a98 <strchr+0x10>
    5a90:	88 23       	and	r24, r24
    5a92:	d9 f7       	brne	.-10     	; 0x5a8a <strchr+0x2>
    5a94:	99 27       	eor	r25, r25
    5a96:	08 95       	ret
    5a98:	31 97       	sbiw	r30, 0x01	; 1
    5a9a:	cf 01       	movw	r24, r30
    5a9c:	08 95       	ret

00005a9e <strncpy>:
    5a9e:	fb 01       	movw	r30, r22
    5aa0:	dc 01       	movw	r26, r24
    5aa2:	41 50       	subi	r20, 0x01	; 1
    5aa4:	50 40       	sbci	r21, 0x00	; 0
    5aa6:	48 f0       	brcs	.+18     	; 0x5aba <strncpy+0x1c>
    5aa8:	01 90       	ld	r0, Z+
    5aaa:	0d 92       	st	X+, r0
    5aac:	00 20       	and	r0, r0
    5aae:	c9 f7       	brne	.-14     	; 0x5aa2 <strncpy+0x4>
    5ab0:	01 c0       	rjmp	.+2      	; 0x5ab4 <strncpy+0x16>
    5ab2:	1d 92       	st	X+, r1
    5ab4:	41 50       	subi	r20, 0x01	; 1
    5ab6:	50 40       	sbci	r21, 0x00	; 0
    5ab8:	e0 f7       	brcc	.-8      	; 0x5ab2 <strncpy+0x14>
    5aba:	08 95       	ret

00005abc <strtok_r>:
    5abc:	fa 01       	movw	r30, r20
    5abe:	a1 91       	ld	r26, Z+
    5ac0:	b0 81       	ld	r27, Z
    5ac2:	00 97       	sbiw	r24, 0x00	; 0
    5ac4:	19 f4       	brne	.+6      	; 0x5acc <strtok_r+0x10>
    5ac6:	10 97       	sbiw	r26, 0x00	; 0
    5ac8:	e1 f0       	breq	.+56     	; 0x5b02 <strtok_r+0x46>
    5aca:	cd 01       	movw	r24, r26
    5acc:	dc 01       	movw	r26, r24
    5ace:	cd 01       	movw	r24, r26
    5ad0:	0d 90       	ld	r0, X+
    5ad2:	00 20       	and	r0, r0
    5ad4:	11 f4       	brne	.+4      	; 0x5ada <strtok_r+0x1e>
    5ad6:	c0 01       	movw	r24, r0
    5ad8:	13 c0       	rjmp	.+38     	; 0x5b00 <strtok_r+0x44>
    5ada:	fb 01       	movw	r30, r22
    5adc:	21 91       	ld	r18, Z+
    5ade:	22 23       	and	r18, r18
    5ae0:	19 f0       	breq	.+6      	; 0x5ae8 <strtok_r+0x2c>
    5ae2:	20 15       	cp	r18, r0
    5ae4:	d9 f7       	brne	.-10     	; 0x5adc <strtok_r+0x20>
    5ae6:	f3 cf       	rjmp	.-26     	; 0x5ace <strtok_r+0x12>
    5ae8:	fb 01       	movw	r30, r22
    5aea:	21 91       	ld	r18, Z+
    5aec:	20 15       	cp	r18, r0
    5aee:	19 f4       	brne	.+6      	; 0x5af6 <strtok_r+0x3a>
    5af0:	1e 92       	st	-X, r1
    5af2:	11 96       	adiw	r26, 0x01	; 1
    5af4:	06 c0       	rjmp	.+12     	; 0x5b02 <strtok_r+0x46>
    5af6:	22 23       	and	r18, r18
    5af8:	c1 f7       	brne	.-16     	; 0x5aea <strtok_r+0x2e>
    5afa:	0d 90       	ld	r0, X+
    5afc:	00 20       	and	r0, r0
    5afe:	a1 f7       	brne	.-24     	; 0x5ae8 <strtok_r+0x2c>
    5b00:	d0 01       	movw	r26, r0
    5b02:	fa 01       	movw	r30, r20
    5b04:	a1 93       	st	Z+, r26
    5b06:	b0 83       	st	Z, r27
    5b08:	08 95       	ret

00005b0a <snprintf>:
    5b0a:	0f 93       	push	r16
    5b0c:	1f 93       	push	r17
    5b0e:	cf 93       	push	r28
    5b10:	df 93       	push	r29
    5b12:	cd b7       	in	r28, 0x3d	; 61
    5b14:	de b7       	in	r29, 0x3e	; 62
    5b16:	2e 97       	sbiw	r28, 0x0e	; 14
    5b18:	0f b6       	in	r0, 0x3f	; 63
    5b1a:	f8 94       	cli
    5b1c:	de bf       	out	0x3e, r29	; 62
    5b1e:	0f be       	out	0x3f, r0	; 63
    5b20:	cd bf       	out	0x3d, r28	; 61
    5b22:	0d 89       	ldd	r16, Y+21	; 0x15
    5b24:	1e 89       	ldd	r17, Y+22	; 0x16
    5b26:	8f 89       	ldd	r24, Y+23	; 0x17
    5b28:	98 8d       	ldd	r25, Y+24	; 0x18
    5b2a:	26 e0       	ldi	r18, 0x06	; 6
    5b2c:	2c 83       	std	Y+4, r18	; 0x04
    5b2e:	1a 83       	std	Y+2, r17	; 0x02
    5b30:	09 83       	std	Y+1, r16	; 0x01
    5b32:	97 ff       	sbrs	r25, 7
    5b34:	02 c0       	rjmp	.+4      	; 0x5b3a <snprintf+0x30>
    5b36:	80 e0       	ldi	r24, 0x00	; 0
    5b38:	90 e8       	ldi	r25, 0x80	; 128
    5b3a:	01 97       	sbiw	r24, 0x01	; 1
    5b3c:	9e 83       	std	Y+6, r25	; 0x06
    5b3e:	8d 83       	std	Y+5, r24	; 0x05
    5b40:	ae 01       	movw	r20, r28
    5b42:	45 5e       	subi	r20, 0xE5	; 229
    5b44:	5f 4f       	sbci	r21, 0xFF	; 255
    5b46:	69 8d       	ldd	r22, Y+25	; 0x19
    5b48:	7a 8d       	ldd	r23, Y+26	; 0x1a
    5b4a:	ce 01       	movw	r24, r28
    5b4c:	01 96       	adiw	r24, 0x01	; 1
    5b4e:	0e 94 f2 2d 	call	0x5be4	; 0x5be4 <vfprintf>
    5b52:	4d 81       	ldd	r20, Y+5	; 0x05
    5b54:	5e 81       	ldd	r21, Y+6	; 0x06
    5b56:	57 fd       	sbrc	r21, 7
    5b58:	0a c0       	rjmp	.+20     	; 0x5b6e <snprintf+0x64>
    5b5a:	2f 81       	ldd	r18, Y+7	; 0x07
    5b5c:	38 85       	ldd	r19, Y+8	; 0x08
    5b5e:	42 17       	cp	r20, r18
    5b60:	53 07       	cpc	r21, r19
    5b62:	0c f4       	brge	.+2      	; 0x5b66 <snprintf+0x5c>
    5b64:	9a 01       	movw	r18, r20
    5b66:	f8 01       	movw	r30, r16
    5b68:	e2 0f       	add	r30, r18
    5b6a:	f3 1f       	adc	r31, r19
    5b6c:	10 82       	st	Z, r1
    5b6e:	2e 96       	adiw	r28, 0x0e	; 14
    5b70:	0f b6       	in	r0, 0x3f	; 63
    5b72:	f8 94       	cli
    5b74:	de bf       	out	0x3e, r29	; 62
    5b76:	0f be       	out	0x3f, r0	; 63
    5b78:	cd bf       	out	0x3d, r28	; 61
    5b7a:	df 91       	pop	r29
    5b7c:	cf 91       	pop	r28
    5b7e:	1f 91       	pop	r17
    5b80:	0f 91       	pop	r16
    5b82:	08 95       	ret

00005b84 <sprintf>:
    5b84:	0f 93       	push	r16
    5b86:	1f 93       	push	r17
    5b88:	cf 93       	push	r28
    5b8a:	df 93       	push	r29
    5b8c:	cd b7       	in	r28, 0x3d	; 61
    5b8e:	de b7       	in	r29, 0x3e	; 62
    5b90:	2e 97       	sbiw	r28, 0x0e	; 14
    5b92:	0f b6       	in	r0, 0x3f	; 63
    5b94:	f8 94       	cli
    5b96:	de bf       	out	0x3e, r29	; 62
    5b98:	0f be       	out	0x3f, r0	; 63
    5b9a:	cd bf       	out	0x3d, r28	; 61
    5b9c:	0d 89       	ldd	r16, Y+21	; 0x15
    5b9e:	1e 89       	ldd	r17, Y+22	; 0x16
    5ba0:	86 e0       	ldi	r24, 0x06	; 6
    5ba2:	8c 83       	std	Y+4, r24	; 0x04
    5ba4:	1a 83       	std	Y+2, r17	; 0x02
    5ba6:	09 83       	std	Y+1, r16	; 0x01
    5ba8:	8f ef       	ldi	r24, 0xFF	; 255
    5baa:	9f e7       	ldi	r25, 0x7F	; 127
    5bac:	9e 83       	std	Y+6, r25	; 0x06
    5bae:	8d 83       	std	Y+5, r24	; 0x05
    5bb0:	ae 01       	movw	r20, r28
    5bb2:	47 5e       	subi	r20, 0xE7	; 231
    5bb4:	5f 4f       	sbci	r21, 0xFF	; 255
    5bb6:	6f 89       	ldd	r22, Y+23	; 0x17
    5bb8:	78 8d       	ldd	r23, Y+24	; 0x18
    5bba:	ce 01       	movw	r24, r28
    5bbc:	01 96       	adiw	r24, 0x01	; 1
    5bbe:	0e 94 f2 2d 	call	0x5be4	; 0x5be4 <vfprintf>
    5bc2:	2f 81       	ldd	r18, Y+7	; 0x07
    5bc4:	38 85       	ldd	r19, Y+8	; 0x08
    5bc6:	f8 01       	movw	r30, r16
    5bc8:	e2 0f       	add	r30, r18
    5bca:	f3 1f       	adc	r31, r19
    5bcc:	10 82       	st	Z, r1
    5bce:	2e 96       	adiw	r28, 0x0e	; 14
    5bd0:	0f b6       	in	r0, 0x3f	; 63
    5bd2:	f8 94       	cli
    5bd4:	de bf       	out	0x3e, r29	; 62
    5bd6:	0f be       	out	0x3f, r0	; 63
    5bd8:	cd bf       	out	0x3d, r28	; 61
    5bda:	df 91       	pop	r29
    5bdc:	cf 91       	pop	r28
    5bde:	1f 91       	pop	r17
    5be0:	0f 91       	pop	r16
    5be2:	08 95       	ret

00005be4 <vfprintf>:
    5be4:	2f 92       	push	r2
    5be6:	3f 92       	push	r3
    5be8:	4f 92       	push	r4
    5bea:	5f 92       	push	r5
    5bec:	6f 92       	push	r6
    5bee:	7f 92       	push	r7
    5bf0:	8f 92       	push	r8
    5bf2:	9f 92       	push	r9
    5bf4:	af 92       	push	r10
    5bf6:	bf 92       	push	r11
    5bf8:	cf 92       	push	r12
    5bfa:	df 92       	push	r13
    5bfc:	ef 92       	push	r14
    5bfe:	ff 92       	push	r15
    5c00:	0f 93       	push	r16
    5c02:	1f 93       	push	r17
    5c04:	cf 93       	push	r28
    5c06:	df 93       	push	r29
    5c08:	cd b7       	in	r28, 0x3d	; 61
    5c0a:	de b7       	in	r29, 0x3e	; 62
    5c0c:	2c 97       	sbiw	r28, 0x0c	; 12
    5c0e:	0f b6       	in	r0, 0x3f	; 63
    5c10:	f8 94       	cli
    5c12:	de bf       	out	0x3e, r29	; 62
    5c14:	0f be       	out	0x3f, r0	; 63
    5c16:	cd bf       	out	0x3d, r28	; 61
    5c18:	7c 01       	movw	r14, r24
    5c1a:	6b 01       	movw	r12, r22
    5c1c:	8a 01       	movw	r16, r20
    5c1e:	fc 01       	movw	r30, r24
    5c20:	17 82       	std	Z+7, r1	; 0x07
    5c22:	16 82       	std	Z+6, r1	; 0x06
    5c24:	83 81       	ldd	r24, Z+3	; 0x03
    5c26:	81 ff       	sbrs	r24, 1
    5c28:	bd c1       	rjmp	.+890    	; 0x5fa4 <vfprintf+0x3c0>
    5c2a:	ce 01       	movw	r24, r28
    5c2c:	01 96       	adiw	r24, 0x01	; 1
    5c2e:	4c 01       	movw	r8, r24
    5c30:	f7 01       	movw	r30, r14
    5c32:	93 81       	ldd	r25, Z+3	; 0x03
    5c34:	f6 01       	movw	r30, r12
    5c36:	93 fd       	sbrc	r25, 3
    5c38:	85 91       	lpm	r24, Z+
    5c3a:	93 ff       	sbrs	r25, 3
    5c3c:	81 91       	ld	r24, Z+
    5c3e:	6f 01       	movw	r12, r30
    5c40:	88 23       	and	r24, r24
    5c42:	09 f4       	brne	.+2      	; 0x5c46 <vfprintf+0x62>
    5c44:	ab c1       	rjmp	.+854    	; 0x5f9c <vfprintf+0x3b8>
    5c46:	85 32       	cpi	r24, 0x25	; 37
    5c48:	39 f4       	brne	.+14     	; 0x5c58 <vfprintf+0x74>
    5c4a:	93 fd       	sbrc	r25, 3
    5c4c:	85 91       	lpm	r24, Z+
    5c4e:	93 ff       	sbrs	r25, 3
    5c50:	81 91       	ld	r24, Z+
    5c52:	6f 01       	movw	r12, r30
    5c54:	85 32       	cpi	r24, 0x25	; 37
    5c56:	29 f4       	brne	.+10     	; 0x5c62 <vfprintf+0x7e>
    5c58:	b7 01       	movw	r22, r14
    5c5a:	90 e0       	ldi	r25, 0x00	; 0
    5c5c:	0e 94 06 30 	call	0x600c	; 0x600c <fputc>
    5c60:	e7 cf       	rjmp	.-50     	; 0x5c30 <vfprintf+0x4c>
    5c62:	51 2c       	mov	r5, r1
    5c64:	31 2c       	mov	r3, r1
    5c66:	20 e0       	ldi	r18, 0x00	; 0
    5c68:	20 32       	cpi	r18, 0x20	; 32
    5c6a:	a0 f4       	brcc	.+40     	; 0x5c94 <vfprintf+0xb0>
    5c6c:	8b 32       	cpi	r24, 0x2B	; 43
    5c6e:	69 f0       	breq	.+26     	; 0x5c8a <vfprintf+0xa6>
    5c70:	30 f4       	brcc	.+12     	; 0x5c7e <vfprintf+0x9a>
    5c72:	80 32       	cpi	r24, 0x20	; 32
    5c74:	59 f0       	breq	.+22     	; 0x5c8c <vfprintf+0xa8>
    5c76:	83 32       	cpi	r24, 0x23	; 35
    5c78:	69 f4       	brne	.+26     	; 0x5c94 <vfprintf+0xb0>
    5c7a:	20 61       	ori	r18, 0x10	; 16
    5c7c:	2c c0       	rjmp	.+88     	; 0x5cd6 <vfprintf+0xf2>
    5c7e:	8d 32       	cpi	r24, 0x2D	; 45
    5c80:	39 f0       	breq	.+14     	; 0x5c90 <vfprintf+0xac>
    5c82:	80 33       	cpi	r24, 0x30	; 48
    5c84:	39 f4       	brne	.+14     	; 0x5c94 <vfprintf+0xb0>
    5c86:	21 60       	ori	r18, 0x01	; 1
    5c88:	26 c0       	rjmp	.+76     	; 0x5cd6 <vfprintf+0xf2>
    5c8a:	22 60       	ori	r18, 0x02	; 2
    5c8c:	24 60       	ori	r18, 0x04	; 4
    5c8e:	23 c0       	rjmp	.+70     	; 0x5cd6 <vfprintf+0xf2>
    5c90:	28 60       	ori	r18, 0x08	; 8
    5c92:	21 c0       	rjmp	.+66     	; 0x5cd6 <vfprintf+0xf2>
    5c94:	27 fd       	sbrc	r18, 7
    5c96:	27 c0       	rjmp	.+78     	; 0x5ce6 <vfprintf+0x102>
    5c98:	30 ed       	ldi	r19, 0xD0	; 208
    5c9a:	38 0f       	add	r19, r24
    5c9c:	3a 30       	cpi	r19, 0x0A	; 10
    5c9e:	78 f4       	brcc	.+30     	; 0x5cbe <vfprintf+0xda>
    5ca0:	26 ff       	sbrs	r18, 6
    5ca2:	06 c0       	rjmp	.+12     	; 0x5cb0 <vfprintf+0xcc>
    5ca4:	fa e0       	ldi	r31, 0x0A	; 10
    5ca6:	5f 9e       	mul	r5, r31
    5ca8:	30 0d       	add	r19, r0
    5caa:	11 24       	eor	r1, r1
    5cac:	53 2e       	mov	r5, r19
    5cae:	13 c0       	rjmp	.+38     	; 0x5cd6 <vfprintf+0xf2>
    5cb0:	8a e0       	ldi	r24, 0x0A	; 10
    5cb2:	38 9e       	mul	r3, r24
    5cb4:	30 0d       	add	r19, r0
    5cb6:	11 24       	eor	r1, r1
    5cb8:	33 2e       	mov	r3, r19
    5cba:	20 62       	ori	r18, 0x20	; 32
    5cbc:	0c c0       	rjmp	.+24     	; 0x5cd6 <vfprintf+0xf2>
    5cbe:	8e 32       	cpi	r24, 0x2E	; 46
    5cc0:	21 f4       	brne	.+8      	; 0x5cca <vfprintf+0xe6>
    5cc2:	26 fd       	sbrc	r18, 6
    5cc4:	6b c1       	rjmp	.+726    	; 0x5f9c <vfprintf+0x3b8>
    5cc6:	20 64       	ori	r18, 0x40	; 64
    5cc8:	06 c0       	rjmp	.+12     	; 0x5cd6 <vfprintf+0xf2>
    5cca:	8c 36       	cpi	r24, 0x6C	; 108
    5ccc:	11 f4       	brne	.+4      	; 0x5cd2 <vfprintf+0xee>
    5cce:	20 68       	ori	r18, 0x80	; 128
    5cd0:	02 c0       	rjmp	.+4      	; 0x5cd6 <vfprintf+0xf2>
    5cd2:	88 36       	cpi	r24, 0x68	; 104
    5cd4:	41 f4       	brne	.+16     	; 0x5ce6 <vfprintf+0x102>
    5cd6:	f6 01       	movw	r30, r12
    5cd8:	93 fd       	sbrc	r25, 3
    5cda:	85 91       	lpm	r24, Z+
    5cdc:	93 ff       	sbrs	r25, 3
    5cde:	81 91       	ld	r24, Z+
    5ce0:	6f 01       	movw	r12, r30
    5ce2:	81 11       	cpse	r24, r1
    5ce4:	c1 cf       	rjmp	.-126    	; 0x5c68 <vfprintf+0x84>
    5ce6:	98 2f       	mov	r25, r24
    5ce8:	9f 7d       	andi	r25, 0xDF	; 223
    5cea:	95 54       	subi	r25, 0x45	; 69
    5cec:	93 30       	cpi	r25, 0x03	; 3
    5cee:	28 f4       	brcc	.+10     	; 0x5cfa <vfprintf+0x116>
    5cf0:	0c 5f       	subi	r16, 0xFC	; 252
    5cf2:	1f 4f       	sbci	r17, 0xFF	; 255
    5cf4:	ff e3       	ldi	r31, 0x3F	; 63
    5cf6:	f9 83       	std	Y+1, r31	; 0x01
    5cf8:	0d c0       	rjmp	.+26     	; 0x5d14 <vfprintf+0x130>
    5cfa:	83 36       	cpi	r24, 0x63	; 99
    5cfc:	31 f0       	breq	.+12     	; 0x5d0a <vfprintf+0x126>
    5cfe:	83 37       	cpi	r24, 0x73	; 115
    5d00:	71 f0       	breq	.+28     	; 0x5d1e <vfprintf+0x13a>
    5d02:	83 35       	cpi	r24, 0x53	; 83
    5d04:	09 f0       	breq	.+2      	; 0x5d08 <vfprintf+0x124>
    5d06:	5b c0       	rjmp	.+182    	; 0x5dbe <vfprintf+0x1da>
    5d08:	22 c0       	rjmp	.+68     	; 0x5d4e <vfprintf+0x16a>
    5d0a:	f8 01       	movw	r30, r16
    5d0c:	80 81       	ld	r24, Z
    5d0e:	89 83       	std	Y+1, r24	; 0x01
    5d10:	0e 5f       	subi	r16, 0xFE	; 254
    5d12:	1f 4f       	sbci	r17, 0xFF	; 255
    5d14:	44 24       	eor	r4, r4
    5d16:	43 94       	inc	r4
    5d18:	51 2c       	mov	r5, r1
    5d1a:	54 01       	movw	r10, r8
    5d1c:	15 c0       	rjmp	.+42     	; 0x5d48 <vfprintf+0x164>
    5d1e:	38 01       	movw	r6, r16
    5d20:	f2 e0       	ldi	r31, 0x02	; 2
    5d22:	6f 0e       	add	r6, r31
    5d24:	71 1c       	adc	r7, r1
    5d26:	f8 01       	movw	r30, r16
    5d28:	a0 80       	ld	r10, Z
    5d2a:	b1 80       	ldd	r11, Z+1	; 0x01
    5d2c:	26 ff       	sbrs	r18, 6
    5d2e:	03 c0       	rjmp	.+6      	; 0x5d36 <vfprintf+0x152>
    5d30:	65 2d       	mov	r22, r5
    5d32:	70 e0       	ldi	r23, 0x00	; 0
    5d34:	02 c0       	rjmp	.+4      	; 0x5d3a <vfprintf+0x156>
    5d36:	6f ef       	ldi	r22, 0xFF	; 255
    5d38:	7f ef       	ldi	r23, 0xFF	; 255
    5d3a:	c5 01       	movw	r24, r10
    5d3c:	2c 87       	std	Y+12, r18	; 0x0c
    5d3e:	0e 94 fb 2f 	call	0x5ff6	; 0x5ff6 <strnlen>
    5d42:	2c 01       	movw	r4, r24
    5d44:	83 01       	movw	r16, r6
    5d46:	2c 85       	ldd	r18, Y+12	; 0x0c
    5d48:	2f 77       	andi	r18, 0x7F	; 127
    5d4a:	22 2e       	mov	r2, r18
    5d4c:	17 c0       	rjmp	.+46     	; 0x5d7c <vfprintf+0x198>
    5d4e:	38 01       	movw	r6, r16
    5d50:	f2 e0       	ldi	r31, 0x02	; 2
    5d52:	6f 0e       	add	r6, r31
    5d54:	71 1c       	adc	r7, r1
    5d56:	f8 01       	movw	r30, r16
    5d58:	a0 80       	ld	r10, Z
    5d5a:	b1 80       	ldd	r11, Z+1	; 0x01
    5d5c:	26 ff       	sbrs	r18, 6
    5d5e:	03 c0       	rjmp	.+6      	; 0x5d66 <vfprintf+0x182>
    5d60:	65 2d       	mov	r22, r5
    5d62:	70 e0       	ldi	r23, 0x00	; 0
    5d64:	02 c0       	rjmp	.+4      	; 0x5d6a <vfprintf+0x186>
    5d66:	6f ef       	ldi	r22, 0xFF	; 255
    5d68:	7f ef       	ldi	r23, 0xFF	; 255
    5d6a:	c5 01       	movw	r24, r10
    5d6c:	2c 87       	std	Y+12, r18	; 0x0c
    5d6e:	0e 94 f0 2f 	call	0x5fe0	; 0x5fe0 <strnlen_P>
    5d72:	2c 01       	movw	r4, r24
    5d74:	2c 85       	ldd	r18, Y+12	; 0x0c
    5d76:	20 68       	ori	r18, 0x80	; 128
    5d78:	22 2e       	mov	r2, r18
    5d7a:	83 01       	movw	r16, r6
    5d7c:	23 fc       	sbrc	r2, 3
    5d7e:	1b c0       	rjmp	.+54     	; 0x5db6 <vfprintf+0x1d2>
    5d80:	83 2d       	mov	r24, r3
    5d82:	90 e0       	ldi	r25, 0x00	; 0
    5d84:	48 16       	cp	r4, r24
    5d86:	59 06       	cpc	r5, r25
    5d88:	b0 f4       	brcc	.+44     	; 0x5db6 <vfprintf+0x1d2>
    5d8a:	b7 01       	movw	r22, r14
    5d8c:	80 e2       	ldi	r24, 0x20	; 32
    5d8e:	90 e0       	ldi	r25, 0x00	; 0
    5d90:	0e 94 06 30 	call	0x600c	; 0x600c <fputc>
    5d94:	3a 94       	dec	r3
    5d96:	f4 cf       	rjmp	.-24     	; 0x5d80 <vfprintf+0x19c>
    5d98:	f5 01       	movw	r30, r10
    5d9a:	27 fc       	sbrc	r2, 7
    5d9c:	85 91       	lpm	r24, Z+
    5d9e:	27 fe       	sbrs	r2, 7
    5da0:	81 91       	ld	r24, Z+
    5da2:	5f 01       	movw	r10, r30
    5da4:	b7 01       	movw	r22, r14
    5da6:	90 e0       	ldi	r25, 0x00	; 0
    5da8:	0e 94 06 30 	call	0x600c	; 0x600c <fputc>
    5dac:	31 10       	cpse	r3, r1
    5dae:	3a 94       	dec	r3
    5db0:	f1 e0       	ldi	r31, 0x01	; 1
    5db2:	4f 1a       	sub	r4, r31
    5db4:	51 08       	sbc	r5, r1
    5db6:	41 14       	cp	r4, r1
    5db8:	51 04       	cpc	r5, r1
    5dba:	71 f7       	brne	.-36     	; 0x5d98 <vfprintf+0x1b4>
    5dbc:	e5 c0       	rjmp	.+458    	; 0x5f88 <vfprintf+0x3a4>
    5dbe:	84 36       	cpi	r24, 0x64	; 100
    5dc0:	11 f0       	breq	.+4      	; 0x5dc6 <vfprintf+0x1e2>
    5dc2:	89 36       	cpi	r24, 0x69	; 105
    5dc4:	39 f5       	brne	.+78     	; 0x5e14 <vfprintf+0x230>
    5dc6:	f8 01       	movw	r30, r16
    5dc8:	27 ff       	sbrs	r18, 7
    5dca:	07 c0       	rjmp	.+14     	; 0x5dda <vfprintf+0x1f6>
    5dcc:	60 81       	ld	r22, Z
    5dce:	71 81       	ldd	r23, Z+1	; 0x01
    5dd0:	82 81       	ldd	r24, Z+2	; 0x02
    5dd2:	93 81       	ldd	r25, Z+3	; 0x03
    5dd4:	0c 5f       	subi	r16, 0xFC	; 252
    5dd6:	1f 4f       	sbci	r17, 0xFF	; 255
    5dd8:	08 c0       	rjmp	.+16     	; 0x5dea <vfprintf+0x206>
    5dda:	60 81       	ld	r22, Z
    5ddc:	71 81       	ldd	r23, Z+1	; 0x01
    5dde:	88 27       	eor	r24, r24
    5de0:	77 fd       	sbrc	r23, 7
    5de2:	80 95       	com	r24
    5de4:	98 2f       	mov	r25, r24
    5de6:	0e 5f       	subi	r16, 0xFE	; 254
    5de8:	1f 4f       	sbci	r17, 0xFF	; 255
    5dea:	2f 76       	andi	r18, 0x6F	; 111
    5dec:	72 2e       	mov	r7, r18
    5dee:	97 ff       	sbrs	r25, 7
    5df0:	09 c0       	rjmp	.+18     	; 0x5e04 <vfprintf+0x220>
    5df2:	90 95       	com	r25
    5df4:	80 95       	com	r24
    5df6:	70 95       	com	r23
    5df8:	61 95       	neg	r22
    5dfa:	7f 4f       	sbci	r23, 0xFF	; 255
    5dfc:	8f 4f       	sbci	r24, 0xFF	; 255
    5dfe:	9f 4f       	sbci	r25, 0xFF	; 255
    5e00:	20 68       	ori	r18, 0x80	; 128
    5e02:	72 2e       	mov	r7, r18
    5e04:	2a e0       	ldi	r18, 0x0A	; 10
    5e06:	30 e0       	ldi	r19, 0x00	; 0
    5e08:	a4 01       	movw	r20, r8
    5e0a:	0e 94 3e 30 	call	0x607c	; 0x607c <__ultoa_invert>
    5e0e:	a8 2e       	mov	r10, r24
    5e10:	a8 18       	sub	r10, r8
    5e12:	44 c0       	rjmp	.+136    	; 0x5e9c <vfprintf+0x2b8>
    5e14:	85 37       	cpi	r24, 0x75	; 117
    5e16:	29 f4       	brne	.+10     	; 0x5e22 <vfprintf+0x23e>
    5e18:	2f 7e       	andi	r18, 0xEF	; 239
    5e1a:	b2 2e       	mov	r11, r18
    5e1c:	2a e0       	ldi	r18, 0x0A	; 10
    5e1e:	30 e0       	ldi	r19, 0x00	; 0
    5e20:	25 c0       	rjmp	.+74     	; 0x5e6c <vfprintf+0x288>
    5e22:	f2 2f       	mov	r31, r18
    5e24:	f9 7f       	andi	r31, 0xF9	; 249
    5e26:	bf 2e       	mov	r11, r31
    5e28:	8f 36       	cpi	r24, 0x6F	; 111
    5e2a:	c1 f0       	breq	.+48     	; 0x5e5c <vfprintf+0x278>
    5e2c:	18 f4       	brcc	.+6      	; 0x5e34 <vfprintf+0x250>
    5e2e:	88 35       	cpi	r24, 0x58	; 88
    5e30:	79 f0       	breq	.+30     	; 0x5e50 <vfprintf+0x26c>
    5e32:	b4 c0       	rjmp	.+360    	; 0x5f9c <vfprintf+0x3b8>
    5e34:	80 37       	cpi	r24, 0x70	; 112
    5e36:	19 f0       	breq	.+6      	; 0x5e3e <vfprintf+0x25a>
    5e38:	88 37       	cpi	r24, 0x78	; 120
    5e3a:	21 f0       	breq	.+8      	; 0x5e44 <vfprintf+0x260>
    5e3c:	af c0       	rjmp	.+350    	; 0x5f9c <vfprintf+0x3b8>
    5e3e:	2f 2f       	mov	r18, r31
    5e40:	20 61       	ori	r18, 0x10	; 16
    5e42:	b2 2e       	mov	r11, r18
    5e44:	b4 fe       	sbrs	r11, 4
    5e46:	0d c0       	rjmp	.+26     	; 0x5e62 <vfprintf+0x27e>
    5e48:	8b 2d       	mov	r24, r11
    5e4a:	84 60       	ori	r24, 0x04	; 4
    5e4c:	b8 2e       	mov	r11, r24
    5e4e:	09 c0       	rjmp	.+18     	; 0x5e62 <vfprintf+0x27e>
    5e50:	24 ff       	sbrs	r18, 4
    5e52:	0a c0       	rjmp	.+20     	; 0x5e68 <vfprintf+0x284>
    5e54:	9f 2f       	mov	r25, r31
    5e56:	96 60       	ori	r25, 0x06	; 6
    5e58:	b9 2e       	mov	r11, r25
    5e5a:	06 c0       	rjmp	.+12     	; 0x5e68 <vfprintf+0x284>
    5e5c:	28 e0       	ldi	r18, 0x08	; 8
    5e5e:	30 e0       	ldi	r19, 0x00	; 0
    5e60:	05 c0       	rjmp	.+10     	; 0x5e6c <vfprintf+0x288>
    5e62:	20 e1       	ldi	r18, 0x10	; 16
    5e64:	30 e0       	ldi	r19, 0x00	; 0
    5e66:	02 c0       	rjmp	.+4      	; 0x5e6c <vfprintf+0x288>
    5e68:	20 e1       	ldi	r18, 0x10	; 16
    5e6a:	32 e0       	ldi	r19, 0x02	; 2
    5e6c:	f8 01       	movw	r30, r16
    5e6e:	b7 fe       	sbrs	r11, 7
    5e70:	07 c0       	rjmp	.+14     	; 0x5e80 <vfprintf+0x29c>
    5e72:	60 81       	ld	r22, Z
    5e74:	71 81       	ldd	r23, Z+1	; 0x01
    5e76:	82 81       	ldd	r24, Z+2	; 0x02
    5e78:	93 81       	ldd	r25, Z+3	; 0x03
    5e7a:	0c 5f       	subi	r16, 0xFC	; 252
    5e7c:	1f 4f       	sbci	r17, 0xFF	; 255
    5e7e:	06 c0       	rjmp	.+12     	; 0x5e8c <vfprintf+0x2a8>
    5e80:	60 81       	ld	r22, Z
    5e82:	71 81       	ldd	r23, Z+1	; 0x01
    5e84:	80 e0       	ldi	r24, 0x00	; 0
    5e86:	90 e0       	ldi	r25, 0x00	; 0
    5e88:	0e 5f       	subi	r16, 0xFE	; 254
    5e8a:	1f 4f       	sbci	r17, 0xFF	; 255
    5e8c:	a4 01       	movw	r20, r8
    5e8e:	0e 94 3e 30 	call	0x607c	; 0x607c <__ultoa_invert>
    5e92:	a8 2e       	mov	r10, r24
    5e94:	a8 18       	sub	r10, r8
    5e96:	fb 2d       	mov	r31, r11
    5e98:	ff 77       	andi	r31, 0x7F	; 127
    5e9a:	7f 2e       	mov	r7, r31
    5e9c:	76 fe       	sbrs	r7, 6
    5e9e:	0b c0       	rjmp	.+22     	; 0x5eb6 <vfprintf+0x2d2>
    5ea0:	37 2d       	mov	r19, r7
    5ea2:	3e 7f       	andi	r19, 0xFE	; 254
    5ea4:	a5 14       	cp	r10, r5
    5ea6:	50 f4       	brcc	.+20     	; 0x5ebc <vfprintf+0x2d8>
    5ea8:	74 fe       	sbrs	r7, 4
    5eaa:	0a c0       	rjmp	.+20     	; 0x5ec0 <vfprintf+0x2dc>
    5eac:	72 fc       	sbrc	r7, 2
    5eae:	08 c0       	rjmp	.+16     	; 0x5ec0 <vfprintf+0x2dc>
    5eb0:	37 2d       	mov	r19, r7
    5eb2:	3e 7e       	andi	r19, 0xEE	; 238
    5eb4:	05 c0       	rjmp	.+10     	; 0x5ec0 <vfprintf+0x2dc>
    5eb6:	ba 2c       	mov	r11, r10
    5eb8:	37 2d       	mov	r19, r7
    5eba:	03 c0       	rjmp	.+6      	; 0x5ec2 <vfprintf+0x2de>
    5ebc:	ba 2c       	mov	r11, r10
    5ebe:	01 c0       	rjmp	.+2      	; 0x5ec2 <vfprintf+0x2de>
    5ec0:	b5 2c       	mov	r11, r5
    5ec2:	34 ff       	sbrs	r19, 4
    5ec4:	0d c0       	rjmp	.+26     	; 0x5ee0 <vfprintf+0x2fc>
    5ec6:	fe 01       	movw	r30, r28
    5ec8:	ea 0d       	add	r30, r10
    5eca:	f1 1d       	adc	r31, r1
    5ecc:	80 81       	ld	r24, Z
    5ece:	80 33       	cpi	r24, 0x30	; 48
    5ed0:	11 f4       	brne	.+4      	; 0x5ed6 <vfprintf+0x2f2>
    5ed2:	39 7e       	andi	r19, 0xE9	; 233
    5ed4:	09 c0       	rjmp	.+18     	; 0x5ee8 <vfprintf+0x304>
    5ed6:	32 ff       	sbrs	r19, 2
    5ed8:	06 c0       	rjmp	.+12     	; 0x5ee6 <vfprintf+0x302>
    5eda:	b3 94       	inc	r11
    5edc:	b3 94       	inc	r11
    5ede:	04 c0       	rjmp	.+8      	; 0x5ee8 <vfprintf+0x304>
    5ee0:	83 2f       	mov	r24, r19
    5ee2:	86 78       	andi	r24, 0x86	; 134
    5ee4:	09 f0       	breq	.+2      	; 0x5ee8 <vfprintf+0x304>
    5ee6:	b3 94       	inc	r11
    5ee8:	33 fd       	sbrc	r19, 3
    5eea:	13 c0       	rjmp	.+38     	; 0x5f12 <vfprintf+0x32e>
    5eec:	30 ff       	sbrs	r19, 0
    5eee:	06 c0       	rjmp	.+12     	; 0x5efc <vfprintf+0x318>
    5ef0:	5a 2c       	mov	r5, r10
    5ef2:	b3 14       	cp	r11, r3
    5ef4:	18 f4       	brcc	.+6      	; 0x5efc <vfprintf+0x318>
    5ef6:	53 0c       	add	r5, r3
    5ef8:	5b 18       	sub	r5, r11
    5efa:	b3 2c       	mov	r11, r3
    5efc:	b3 14       	cp	r11, r3
    5efe:	68 f4       	brcc	.+26     	; 0x5f1a <vfprintf+0x336>
    5f00:	b7 01       	movw	r22, r14
    5f02:	80 e2       	ldi	r24, 0x20	; 32
    5f04:	90 e0       	ldi	r25, 0x00	; 0
    5f06:	3c 87       	std	Y+12, r19	; 0x0c
    5f08:	0e 94 06 30 	call	0x600c	; 0x600c <fputc>
    5f0c:	b3 94       	inc	r11
    5f0e:	3c 85       	ldd	r19, Y+12	; 0x0c
    5f10:	f5 cf       	rjmp	.-22     	; 0x5efc <vfprintf+0x318>
    5f12:	b3 14       	cp	r11, r3
    5f14:	10 f4       	brcc	.+4      	; 0x5f1a <vfprintf+0x336>
    5f16:	3b 18       	sub	r3, r11
    5f18:	01 c0       	rjmp	.+2      	; 0x5f1c <vfprintf+0x338>
    5f1a:	31 2c       	mov	r3, r1
    5f1c:	34 ff       	sbrs	r19, 4
    5f1e:	12 c0       	rjmp	.+36     	; 0x5f44 <vfprintf+0x360>
    5f20:	b7 01       	movw	r22, r14
    5f22:	80 e3       	ldi	r24, 0x30	; 48
    5f24:	90 e0       	ldi	r25, 0x00	; 0
    5f26:	3c 87       	std	Y+12, r19	; 0x0c
    5f28:	0e 94 06 30 	call	0x600c	; 0x600c <fputc>
    5f2c:	3c 85       	ldd	r19, Y+12	; 0x0c
    5f2e:	32 ff       	sbrs	r19, 2
    5f30:	17 c0       	rjmp	.+46     	; 0x5f60 <vfprintf+0x37c>
    5f32:	31 fd       	sbrc	r19, 1
    5f34:	03 c0       	rjmp	.+6      	; 0x5f3c <vfprintf+0x358>
    5f36:	88 e7       	ldi	r24, 0x78	; 120
    5f38:	90 e0       	ldi	r25, 0x00	; 0
    5f3a:	02 c0       	rjmp	.+4      	; 0x5f40 <vfprintf+0x35c>
    5f3c:	88 e5       	ldi	r24, 0x58	; 88
    5f3e:	90 e0       	ldi	r25, 0x00	; 0
    5f40:	b7 01       	movw	r22, r14
    5f42:	0c c0       	rjmp	.+24     	; 0x5f5c <vfprintf+0x378>
    5f44:	83 2f       	mov	r24, r19
    5f46:	86 78       	andi	r24, 0x86	; 134
    5f48:	59 f0       	breq	.+22     	; 0x5f60 <vfprintf+0x37c>
    5f4a:	31 ff       	sbrs	r19, 1
    5f4c:	02 c0       	rjmp	.+4      	; 0x5f52 <vfprintf+0x36e>
    5f4e:	8b e2       	ldi	r24, 0x2B	; 43
    5f50:	01 c0       	rjmp	.+2      	; 0x5f54 <vfprintf+0x370>
    5f52:	80 e2       	ldi	r24, 0x20	; 32
    5f54:	37 fd       	sbrc	r19, 7
    5f56:	8d e2       	ldi	r24, 0x2D	; 45
    5f58:	b7 01       	movw	r22, r14
    5f5a:	90 e0       	ldi	r25, 0x00	; 0
    5f5c:	0e 94 06 30 	call	0x600c	; 0x600c <fputc>
    5f60:	a5 14       	cp	r10, r5
    5f62:	38 f4       	brcc	.+14     	; 0x5f72 <vfprintf+0x38e>
    5f64:	b7 01       	movw	r22, r14
    5f66:	80 e3       	ldi	r24, 0x30	; 48
    5f68:	90 e0       	ldi	r25, 0x00	; 0
    5f6a:	0e 94 06 30 	call	0x600c	; 0x600c <fputc>
    5f6e:	5a 94       	dec	r5
    5f70:	f7 cf       	rjmp	.-18     	; 0x5f60 <vfprintf+0x37c>
    5f72:	aa 94       	dec	r10
    5f74:	f4 01       	movw	r30, r8
    5f76:	ea 0d       	add	r30, r10
    5f78:	f1 1d       	adc	r31, r1
    5f7a:	80 81       	ld	r24, Z
    5f7c:	b7 01       	movw	r22, r14
    5f7e:	90 e0       	ldi	r25, 0x00	; 0
    5f80:	0e 94 06 30 	call	0x600c	; 0x600c <fputc>
    5f84:	a1 10       	cpse	r10, r1
    5f86:	f5 cf       	rjmp	.-22     	; 0x5f72 <vfprintf+0x38e>
    5f88:	33 20       	and	r3, r3
    5f8a:	09 f4       	brne	.+2      	; 0x5f8e <vfprintf+0x3aa>
    5f8c:	51 ce       	rjmp	.-862    	; 0x5c30 <vfprintf+0x4c>
    5f8e:	b7 01       	movw	r22, r14
    5f90:	80 e2       	ldi	r24, 0x20	; 32
    5f92:	90 e0       	ldi	r25, 0x00	; 0
    5f94:	0e 94 06 30 	call	0x600c	; 0x600c <fputc>
    5f98:	3a 94       	dec	r3
    5f9a:	f6 cf       	rjmp	.-20     	; 0x5f88 <vfprintf+0x3a4>
    5f9c:	f7 01       	movw	r30, r14
    5f9e:	86 81       	ldd	r24, Z+6	; 0x06
    5fa0:	97 81       	ldd	r25, Z+7	; 0x07
    5fa2:	02 c0       	rjmp	.+4      	; 0x5fa8 <vfprintf+0x3c4>
    5fa4:	8f ef       	ldi	r24, 0xFF	; 255
    5fa6:	9f ef       	ldi	r25, 0xFF	; 255
    5fa8:	2c 96       	adiw	r28, 0x0c	; 12
    5faa:	0f b6       	in	r0, 0x3f	; 63
    5fac:	f8 94       	cli
    5fae:	de bf       	out	0x3e, r29	; 62
    5fb0:	0f be       	out	0x3f, r0	; 63
    5fb2:	cd bf       	out	0x3d, r28	; 61
    5fb4:	df 91       	pop	r29
    5fb6:	cf 91       	pop	r28
    5fb8:	1f 91       	pop	r17
    5fba:	0f 91       	pop	r16
    5fbc:	ff 90       	pop	r15
    5fbe:	ef 90       	pop	r14
    5fc0:	df 90       	pop	r13
    5fc2:	cf 90       	pop	r12
    5fc4:	bf 90       	pop	r11
    5fc6:	af 90       	pop	r10
    5fc8:	9f 90       	pop	r9
    5fca:	8f 90       	pop	r8
    5fcc:	7f 90       	pop	r7
    5fce:	6f 90       	pop	r6
    5fd0:	5f 90       	pop	r5
    5fd2:	4f 90       	pop	r4
    5fd4:	3f 90       	pop	r3
    5fd6:	2f 90       	pop	r2
    5fd8:	08 95       	ret

00005fda <__ctype_isfalse>:
    5fda:	99 27       	eor	r25, r25
    5fdc:	88 27       	eor	r24, r24

00005fde <__ctype_istrue>:
    5fde:	08 95       	ret

00005fe0 <strnlen_P>:
    5fe0:	fc 01       	movw	r30, r24
    5fe2:	05 90       	lpm	r0, Z+
    5fe4:	61 50       	subi	r22, 0x01	; 1
    5fe6:	70 40       	sbci	r23, 0x00	; 0
    5fe8:	01 10       	cpse	r0, r1
    5fea:	d8 f7       	brcc	.-10     	; 0x5fe2 <strnlen_P+0x2>
    5fec:	80 95       	com	r24
    5fee:	90 95       	com	r25
    5ff0:	8e 0f       	add	r24, r30
    5ff2:	9f 1f       	adc	r25, r31
    5ff4:	08 95       	ret

00005ff6 <strnlen>:
    5ff6:	fc 01       	movw	r30, r24
    5ff8:	61 50       	subi	r22, 0x01	; 1
    5ffa:	70 40       	sbci	r23, 0x00	; 0
    5ffc:	01 90       	ld	r0, Z+
    5ffe:	01 10       	cpse	r0, r1
    6000:	d8 f7       	brcc	.-10     	; 0x5ff8 <strnlen+0x2>
    6002:	80 95       	com	r24
    6004:	90 95       	com	r25
    6006:	8e 0f       	add	r24, r30
    6008:	9f 1f       	adc	r25, r31
    600a:	08 95       	ret

0000600c <fputc>:
    600c:	0f 93       	push	r16
    600e:	1f 93       	push	r17
    6010:	cf 93       	push	r28
    6012:	df 93       	push	r29
    6014:	fb 01       	movw	r30, r22
    6016:	23 81       	ldd	r18, Z+3	; 0x03
    6018:	21 fd       	sbrc	r18, 1
    601a:	03 c0       	rjmp	.+6      	; 0x6022 <fputc+0x16>
    601c:	8f ef       	ldi	r24, 0xFF	; 255
    601e:	9f ef       	ldi	r25, 0xFF	; 255
    6020:	28 c0       	rjmp	.+80     	; 0x6072 <fputc+0x66>
    6022:	22 ff       	sbrs	r18, 2
    6024:	16 c0       	rjmp	.+44     	; 0x6052 <fputc+0x46>
    6026:	46 81       	ldd	r20, Z+6	; 0x06
    6028:	57 81       	ldd	r21, Z+7	; 0x07
    602a:	24 81       	ldd	r18, Z+4	; 0x04
    602c:	35 81       	ldd	r19, Z+5	; 0x05
    602e:	42 17       	cp	r20, r18
    6030:	53 07       	cpc	r21, r19
    6032:	44 f4       	brge	.+16     	; 0x6044 <fputc+0x38>
    6034:	a0 81       	ld	r26, Z
    6036:	b1 81       	ldd	r27, Z+1	; 0x01
    6038:	9d 01       	movw	r18, r26
    603a:	2f 5f       	subi	r18, 0xFF	; 255
    603c:	3f 4f       	sbci	r19, 0xFF	; 255
    603e:	31 83       	std	Z+1, r19	; 0x01
    6040:	20 83       	st	Z, r18
    6042:	8c 93       	st	X, r24
    6044:	26 81       	ldd	r18, Z+6	; 0x06
    6046:	37 81       	ldd	r19, Z+7	; 0x07
    6048:	2f 5f       	subi	r18, 0xFF	; 255
    604a:	3f 4f       	sbci	r19, 0xFF	; 255
    604c:	37 83       	std	Z+7, r19	; 0x07
    604e:	26 83       	std	Z+6, r18	; 0x06
    6050:	10 c0       	rjmp	.+32     	; 0x6072 <fputc+0x66>
    6052:	eb 01       	movw	r28, r22
    6054:	09 2f       	mov	r16, r25
    6056:	18 2f       	mov	r17, r24
    6058:	00 84       	ldd	r0, Z+8	; 0x08
    605a:	f1 85       	ldd	r31, Z+9	; 0x09
    605c:	e0 2d       	mov	r30, r0
    605e:	09 95       	icall
    6060:	89 2b       	or	r24, r25
    6062:	e1 f6       	brne	.-72     	; 0x601c <fputc+0x10>
    6064:	8e 81       	ldd	r24, Y+6	; 0x06
    6066:	9f 81       	ldd	r25, Y+7	; 0x07
    6068:	01 96       	adiw	r24, 0x01	; 1
    606a:	9f 83       	std	Y+7, r25	; 0x07
    606c:	8e 83       	std	Y+6, r24	; 0x06
    606e:	81 2f       	mov	r24, r17
    6070:	90 2f       	mov	r25, r16
    6072:	df 91       	pop	r29
    6074:	cf 91       	pop	r28
    6076:	1f 91       	pop	r17
    6078:	0f 91       	pop	r16
    607a:	08 95       	ret

0000607c <__ultoa_invert>:
    607c:	fa 01       	movw	r30, r20
    607e:	aa 27       	eor	r26, r26
    6080:	28 30       	cpi	r18, 0x08	; 8
    6082:	51 f1       	breq	.+84     	; 0x60d8 <__ultoa_invert+0x5c>
    6084:	20 31       	cpi	r18, 0x10	; 16
    6086:	81 f1       	breq	.+96     	; 0x60e8 <__ultoa_invert+0x6c>
    6088:	e8 94       	clt
    608a:	6f 93       	push	r22
    608c:	6e 7f       	andi	r22, 0xFE	; 254
    608e:	6e 5f       	subi	r22, 0xFE	; 254
    6090:	7f 4f       	sbci	r23, 0xFF	; 255
    6092:	8f 4f       	sbci	r24, 0xFF	; 255
    6094:	9f 4f       	sbci	r25, 0xFF	; 255
    6096:	af 4f       	sbci	r26, 0xFF	; 255
    6098:	b1 e0       	ldi	r27, 0x01	; 1
    609a:	3e d0       	rcall	.+124    	; 0x6118 <__ultoa_invert+0x9c>
    609c:	b4 e0       	ldi	r27, 0x04	; 4
    609e:	3c d0       	rcall	.+120    	; 0x6118 <__ultoa_invert+0x9c>
    60a0:	67 0f       	add	r22, r23
    60a2:	78 1f       	adc	r23, r24
    60a4:	89 1f       	adc	r24, r25
    60a6:	9a 1f       	adc	r25, r26
    60a8:	a1 1d       	adc	r26, r1
    60aa:	68 0f       	add	r22, r24
    60ac:	79 1f       	adc	r23, r25
    60ae:	8a 1f       	adc	r24, r26
    60b0:	91 1d       	adc	r25, r1
    60b2:	a1 1d       	adc	r26, r1
    60b4:	6a 0f       	add	r22, r26
    60b6:	71 1d       	adc	r23, r1
    60b8:	81 1d       	adc	r24, r1
    60ba:	91 1d       	adc	r25, r1
    60bc:	a1 1d       	adc	r26, r1
    60be:	20 d0       	rcall	.+64     	; 0x6100 <__ultoa_invert+0x84>
    60c0:	09 f4       	brne	.+2      	; 0x60c4 <__ultoa_invert+0x48>
    60c2:	68 94       	set
    60c4:	3f 91       	pop	r19
    60c6:	2a e0       	ldi	r18, 0x0A	; 10
    60c8:	26 9f       	mul	r18, r22
    60ca:	11 24       	eor	r1, r1
    60cc:	30 19       	sub	r19, r0
    60ce:	30 5d       	subi	r19, 0xD0	; 208
    60d0:	31 93       	st	Z+, r19
    60d2:	de f6       	brtc	.-74     	; 0x608a <__ultoa_invert+0xe>
    60d4:	cf 01       	movw	r24, r30
    60d6:	08 95       	ret
    60d8:	46 2f       	mov	r20, r22
    60da:	47 70       	andi	r20, 0x07	; 7
    60dc:	40 5d       	subi	r20, 0xD0	; 208
    60de:	41 93       	st	Z+, r20
    60e0:	b3 e0       	ldi	r27, 0x03	; 3
    60e2:	0f d0       	rcall	.+30     	; 0x6102 <__ultoa_invert+0x86>
    60e4:	c9 f7       	brne	.-14     	; 0x60d8 <__ultoa_invert+0x5c>
    60e6:	f6 cf       	rjmp	.-20     	; 0x60d4 <__ultoa_invert+0x58>
    60e8:	46 2f       	mov	r20, r22
    60ea:	4f 70       	andi	r20, 0x0F	; 15
    60ec:	40 5d       	subi	r20, 0xD0	; 208
    60ee:	4a 33       	cpi	r20, 0x3A	; 58
    60f0:	18 f0       	brcs	.+6      	; 0x60f8 <__ultoa_invert+0x7c>
    60f2:	49 5d       	subi	r20, 0xD9	; 217
    60f4:	31 fd       	sbrc	r19, 1
    60f6:	40 52       	subi	r20, 0x20	; 32
    60f8:	41 93       	st	Z+, r20
    60fa:	02 d0       	rcall	.+4      	; 0x6100 <__ultoa_invert+0x84>
    60fc:	a9 f7       	brne	.-22     	; 0x60e8 <__ultoa_invert+0x6c>
    60fe:	ea cf       	rjmp	.-44     	; 0x60d4 <__ultoa_invert+0x58>
    6100:	b4 e0       	ldi	r27, 0x04	; 4
    6102:	a6 95       	lsr	r26
    6104:	97 95       	ror	r25
    6106:	87 95       	ror	r24
    6108:	77 95       	ror	r23
    610a:	67 95       	ror	r22
    610c:	ba 95       	dec	r27
    610e:	c9 f7       	brne	.-14     	; 0x6102 <__ultoa_invert+0x86>
    6110:	00 97       	sbiw	r24, 0x00	; 0
    6112:	61 05       	cpc	r22, r1
    6114:	71 05       	cpc	r23, r1
    6116:	08 95       	ret
    6118:	9b 01       	movw	r18, r22
    611a:	ac 01       	movw	r20, r24
    611c:	0a 2e       	mov	r0, r26
    611e:	06 94       	lsr	r0
    6120:	57 95       	ror	r21
    6122:	47 95       	ror	r20
    6124:	37 95       	ror	r19
    6126:	27 95       	ror	r18
    6128:	ba 95       	dec	r27
    612a:	c9 f7       	brne	.-14     	; 0x611e <__ultoa_invert+0xa2>
    612c:	62 0f       	add	r22, r18
    612e:	73 1f       	adc	r23, r19
    6130:	84 1f       	adc	r24, r20
    6132:	95 1f       	adc	r25, r21
    6134:	a0 1d       	adc	r26, r0
    6136:	08 95       	ret

00006138 <__mulsi3>:
    6138:	db 01       	movw	r26, r22
    613a:	8f 93       	push	r24
    613c:	9f 93       	push	r25
    613e:	0e 94 ce 30 	call	0x619c	; 0x619c <__muluhisi3>
    6142:	bf 91       	pop	r27
    6144:	af 91       	pop	r26
    6146:	a2 9f       	mul	r26, r18
    6148:	80 0d       	add	r24, r0
    614a:	91 1d       	adc	r25, r1
    614c:	a3 9f       	mul	r26, r19
    614e:	90 0d       	add	r25, r0
    6150:	b2 9f       	mul	r27, r18
    6152:	90 0d       	add	r25, r0
    6154:	11 24       	eor	r1, r1
    6156:	08 95       	ret

00006158 <__udivmodsi4>:
    6158:	a1 e2       	ldi	r26, 0x21	; 33
    615a:	1a 2e       	mov	r1, r26
    615c:	aa 1b       	sub	r26, r26
    615e:	bb 1b       	sub	r27, r27
    6160:	fd 01       	movw	r30, r26
    6162:	0d c0       	rjmp	.+26     	; 0x617e <__udivmodsi4_ep>

00006164 <__udivmodsi4_loop>:
    6164:	aa 1f       	adc	r26, r26
    6166:	bb 1f       	adc	r27, r27
    6168:	ee 1f       	adc	r30, r30
    616a:	ff 1f       	adc	r31, r31
    616c:	a2 17       	cp	r26, r18
    616e:	b3 07       	cpc	r27, r19
    6170:	e4 07       	cpc	r30, r20
    6172:	f5 07       	cpc	r31, r21
    6174:	20 f0       	brcs	.+8      	; 0x617e <__udivmodsi4_ep>
    6176:	a2 1b       	sub	r26, r18
    6178:	b3 0b       	sbc	r27, r19
    617a:	e4 0b       	sbc	r30, r20
    617c:	f5 0b       	sbc	r31, r21

0000617e <__udivmodsi4_ep>:
    617e:	66 1f       	adc	r22, r22
    6180:	77 1f       	adc	r23, r23
    6182:	88 1f       	adc	r24, r24
    6184:	99 1f       	adc	r25, r25
    6186:	1a 94       	dec	r1
    6188:	69 f7       	brne	.-38     	; 0x6164 <__udivmodsi4_loop>
    618a:	60 95       	com	r22
    618c:	70 95       	com	r23
    618e:	80 95       	com	r24
    6190:	90 95       	com	r25
    6192:	9b 01       	movw	r18, r22
    6194:	ac 01       	movw	r20, r24
    6196:	bd 01       	movw	r22, r26
    6198:	cf 01       	movw	r24, r30
    619a:	08 95       	ret

0000619c <__muluhisi3>:
    619c:	0e 94 d9 30 	call	0x61b2	; 0x61b2 <__umulhisi3>
    61a0:	a5 9f       	mul	r26, r21
    61a2:	90 0d       	add	r25, r0
    61a4:	b4 9f       	mul	r27, r20
    61a6:	90 0d       	add	r25, r0
    61a8:	a4 9f       	mul	r26, r20
    61aa:	80 0d       	add	r24, r0
    61ac:	91 1d       	adc	r25, r1
    61ae:	11 24       	eor	r1, r1
    61b0:	08 95       	ret

000061b2 <__umulhisi3>:
    61b2:	a2 9f       	mul	r26, r18
    61b4:	b0 01       	movw	r22, r0
    61b6:	b3 9f       	mul	r27, r19
    61b8:	c0 01       	movw	r24, r0
    61ba:	a3 9f       	mul	r26, r19
    61bc:	70 0d       	add	r23, r0
    61be:	81 1d       	adc	r24, r1
    61c0:	11 24       	eor	r1, r1
    61c2:	91 1d       	adc	r25, r1
    61c4:	b2 9f       	mul	r27, r18
    61c6:	70 0d       	add	r23, r0
    61c8:	81 1d       	adc	r24, r1
    61ca:	11 24       	eor	r1, r1
    61cc:	91 1d       	adc	r25, r1
    61ce:	08 95       	ret

000061d0 <_exit>:
    61d0:	f8 94       	cli

000061d2 <__stop_program>:
    61d2:	ff cf       	rjmp	.-2      	; 0x61d2 <__stop_program>
