
build/bigAVR6_1280/main.exe:     file format elf32-avr


Disassembly of section .text:

00000000 <__vectors>:
       0:	0c 94 6e 01 	jmp	0x2dc	; 0x2dc <__ctors_end>
       4:	0c 94 d2 09 	jmp	0x13a4	; 0x13a4 <__vector_1>
       8:	0c 94 dc 09 	jmp	0x13b8	; 0x13b8 <__vector_2>
       c:	0c 94 e6 09 	jmp	0x13cc	; 0x13cc <__vector_3>
      10:	0c 94 f0 09 	jmp	0x13e0	; 0x13e0 <__vector_4>
      14:	0c 94 25 0a 	jmp	0x144a	; 0x144a <__vector_5>
      18:	0c 94 2f 0a 	jmp	0x145e	; 0x145e <__vector_6>
      1c:	0c 94 39 0a 	jmp	0x1472	; 0x1472 <__vector_7>
      20:	0c 94 43 0a 	jmp	0x1486	; 0x1486 <__vector_8>
      24:	0c 94 8d 01 	jmp	0x31a	; 0x31a <__bad_interrupt>
      28:	0c 94 8d 01 	jmp	0x31a	; 0x31a <__bad_interrupt>
      2c:	0c 94 8d 01 	jmp	0x31a	; 0x31a <__bad_interrupt>
      30:	0c 94 8d 01 	jmp	0x31a	; 0x31a <__bad_interrupt>
      34:	0c 94 cc 0a 	jmp	0x1598	; 0x1598 <__vector_13>
      38:	0c 94 8d 01 	jmp	0x31a	; 0x31a <__bad_interrupt>
      3c:	0c 94 0b 0b 	jmp	0x1616	; 0x1616 <__vector_15>
      40:	0c 94 8d 01 	jmp	0x31a	; 0x31a <__bad_interrupt>
      44:	0c 94 8d 01 	jmp	0x31a	; 0x31a <__bad_interrupt>
      48:	0c 94 8d 01 	jmp	0x31a	; 0x31a <__bad_interrupt>
      4c:	0c 94 8d 01 	jmp	0x31a	; 0x31a <__bad_interrupt>
      50:	0c 94 8d 01 	jmp	0x31a	; 0x31a <__bad_interrupt>
      54:	0c 94 8d 01 	jmp	0x31a	; 0x31a <__bad_interrupt>
      58:	0c 94 8d 01 	jmp	0x31a	; 0x31a <__bad_interrupt>
      5c:	0c 94 8d 01 	jmp	0x31a	; 0x31a <__bad_interrupt>
      60:	0c 94 8d 01 	jmp	0x31a	; 0x31a <__bad_interrupt>
      64:	0c 94 8d 01 	jmp	0x31a	; 0x31a <__bad_interrupt>
      68:	0c 94 8d 01 	jmp	0x31a	; 0x31a <__bad_interrupt>
      6c:	0c 94 8d 01 	jmp	0x31a	; 0x31a <__bad_interrupt>
      70:	0c 94 8d 01 	jmp	0x31a	; 0x31a <__bad_interrupt>
      74:	0c 94 8d 01 	jmp	0x31a	; 0x31a <__bad_interrupt>
      78:	0c 94 8d 01 	jmp	0x31a	; 0x31a <__bad_interrupt>
      7c:	0c 94 8d 01 	jmp	0x31a	; 0x31a <__bad_interrupt>
      80:	0c 94 8d 01 	jmp	0x31a	; 0x31a <__bad_interrupt>
      84:	0c 94 8d 01 	jmp	0x31a	; 0x31a <__bad_interrupt>
      88:	0c 94 8d 01 	jmp	0x31a	; 0x31a <__bad_interrupt>
      8c:	0c 94 8d 01 	jmp	0x31a	; 0x31a <__bad_interrupt>
      90:	0c 94 8d 01 	jmp	0x31a	; 0x31a <__bad_interrupt>
      94:	0c 94 8d 01 	jmp	0x31a	; 0x31a <__bad_interrupt>
      98:	0c 94 8d 01 	jmp	0x31a	; 0x31a <__bad_interrupt>
      9c:	0c 94 4d 0a 	jmp	0x149a	; 0x149a <__vector_39>
      a0:	0c 94 8d 01 	jmp	0x31a	; 0x31a <__bad_interrupt>
      a4:	0c 94 8d 01 	jmp	0x31a	; 0x31a <__bad_interrupt>
      a8:	0c 94 8d 01 	jmp	0x31a	; 0x31a <__bad_interrupt>
      ac:	0c 94 8d 01 	jmp	0x31a	; 0x31a <__bad_interrupt>
      b0:	0c 94 8d 01 	jmp	0x31a	; 0x31a <__bad_interrupt>
      b4:	0c 94 8d 01 	jmp	0x31a	; 0x31a <__bad_interrupt>
      b8:	0c 94 8d 01 	jmp	0x31a	; 0x31a <__bad_interrupt>
      bc:	0c 94 8d 01 	jmp	0x31a	; 0x31a <__bad_interrupt>
      c0:	0c 94 8d 01 	jmp	0x31a	; 0x31a <__bad_interrupt>
      c4:	0c 94 8d 01 	jmp	0x31a	; 0x31a <__bad_interrupt>
      c8:	0c 94 8d 01 	jmp	0x31a	; 0x31a <__bad_interrupt>
      cc:	0c 94 8d 01 	jmp	0x31a	; 0x31a <__bad_interrupt>
      d0:	0c 94 8d 01 	jmp	0x31a	; 0x31a <__bad_interrupt>
      d4:	0c 94 8d 01 	jmp	0x31a	; 0x31a <__bad_interrupt>
      d8:	0c 94 8d 01 	jmp	0x31a	; 0x31a <__bad_interrupt>
      dc:	0c 94 8d 01 	jmp	0x31a	; 0x31a <__bad_interrupt>
      e0:	0c 94 8d 01 	jmp	0x31a	; 0x31a <__bad_interrupt>
      e4:	dc 06       	cpc	r13, r28
      e6:	08 07       	cpc	r16, r24
      e8:	0f 07       	cpc	r16, r31
      ea:	2f 07       	cpc	r18, r31
      ec:	42 08       	sbc	r4, r2
      ee:	d6 08       	sbc	r13, r6
      f0:	fe 08       	sbc	r15, r14
      f2:	0c 09       	sbc	r16, r12
      f4:	5d 09       	sbc	r21, r13

000000f6 <McuSleepC__atm128PowerBits>:
      f6:	00 02 0e 06 0c 04                                   ......

000000fc <Font5x7>:
      fc:	00 00 00 00 00 00 00 5f 00 00 00 07 00 07 00 14     ......._........
     10c:	7f 14 7f 14 24 2a 7f 2a 12 23 13 08 64 62 36 49     ....$*.*.#..db6I
     11c:	55 22 50 00 05 03 00 00 00 1c 22 41 00 00 41 22     U"P......."A..A"
     12c:	1c 00 08 2a 1c 2a 08 08 08 3e 08 08 00 50 30 00     ...*.*...>...P0.
     13c:	00 08 08 08 08 08 00 60 60 00 00 20 10 08 04 02     .......``.. ....
     14c:	3e 51 49 45 3e 00 42 7f 40 00 42 61 51 49 46 21     >QIE>.B.@.BaQIF!
     15c:	41 45 4b 31 18 14 12 7f 10 27 45 45 45 39 3c 4a     AEK1.....'EEE9<J
     16c:	49 49 30 01 71 09 05 03 36 49 49 49 36 06 49 49     II0.q...6III6.II
     17c:	29 1e 00 36 36 00 00 00 56 36 00 00 00 08 14 22     )..66...V6....."
     18c:	41 14 14 14 14 14 41 22 14 08 00 02 01 51 09 06     A.....A".....Q..
     19c:	32 49 79 41 3e 7e 11 11 11 7e 7f 49 49 49 36 3e     2IyA>~...~.III6>
     1ac:	41 41 41 22 7f 41 41 22 1c 7f 49 49 49 41 7f 09     AAA".AA"..IIIA..
     1bc:	09 01 01 3e 41 41 51 32 7f 08 08 08 7f 00 41 7f     ...>AAQ2......A.
     1cc:	41 00 20 40 41 3f 01 7f 08 14 22 41 7f 40 40 40     A. @A?...."A.@@@
     1dc:	40 7f 02 04 02 7f 7f 04 08 10 7f 3e 41 41 41 3e     @..........>AAA>
     1ec:	7f 09 09 09 06 3e 41 51 21 5e 7f 09 19 29 46 46     .....>AQ!^...)FF
     1fc:	49 49 49 31 01 01 7f 01 01 3f 40 40 40 3f 1f 20     III1.....?@@@?. 
     20c:	40 20 1f 7f 20 18 20 7f 63 14 08 14 63 03 04 78     @ .. . .c...c..x
     21c:	04 03 61 51 49 45 43 00 00 7f 41 41 02 04 08 10     ..aQIEC...AA....
     22c:	20 41 41 7f 00 00 04 02 01 02 04 40 40 40 40 40      AA........@@@@@
     23c:	00 01 02 04 00 20 54 54 54 78 7f 48 44 44 38 38     ..... TTTx.HDD88
     24c:	44 44 44 20 38 44 44 48 7f 38 54 54 54 18 08 7e     DDD 8DDH.8TTT..~
     25c:	09 01 02 08 14 54 54 3c 7f 08 04 04 78 00 44 7d     .....TT<....x.D}
     26c:	40 00 20 40 44 3d 00 00 7f 10 28 44 00 41 7f 40     @. @D=....(D.A.@
     27c:	00 7c 04 18 04 78 7c 08 04 04 78 38 44 44 44 38     .|...x|...x8DDD8
     28c:	7c 14 14 14 08 08 14 14 18 7c 7c 08 04 04 08 48     |........||....H
     29c:	54 54 54 20 04 3f 44 40 20 3c 40 40 20 7c 1c 20     TTT .?D@ <@@ |. 
     2ac:	40 20 1c 3c 40 30 40 3c 44 28 10 28 44 0c 50 50     @ .<@0@<D(.(D.PP
     2bc:	50 3c 44 64 54 4c 44 00 08 36 41 00 00 00 7f 00     P<DdTLD..6A.....
     2cc:	00 00 41 36 08 00 08 08 2a 1c 08 08 1c 2a 08 08     ..A6....*....*..

000002dc <__ctors_end>:
     2dc:	11 24       	eor	r1, r1
     2de:	1f be       	out	0x3f, r1	; 63
     2e0:	cf ef       	ldi	r28, 0xFF	; 255
     2e2:	d1 e2       	ldi	r29, 0x21	; 33
     2e4:	de bf       	out	0x3e, r29	; 62
     2e6:	cd bf       	out	0x3d, r28	; 61

000002e8 <__do_copy_data>:
     2e8:	12 e0       	ldi	r17, 0x02	; 2
     2ea:	a0 e0       	ldi	r26, 0x00	; 0
     2ec:	b2 e0       	ldi	r27, 0x02	; 2
     2ee:	e8 e1       	ldi	r30, 0x18	; 24
     2f0:	fe e1       	ldi	r31, 0x1E	; 30
     2f2:	00 e0       	ldi	r16, 0x00	; 0
     2f4:	0b bf       	out	0x3b, r16	; 59
     2f6:	02 c0       	rjmp	.+4      	; 0x2fc <__do_copy_data+0x14>
     2f8:	07 90       	elpm	r0, Z+
     2fa:	0d 92       	st	X+, r0
     2fc:	a0 36       	cpi	r26, 0x60	; 96
     2fe:	b1 07       	cpc	r27, r17
     300:	d9 f7       	brne	.-10     	; 0x2f8 <__do_copy_data+0x10>

00000302 <__do_clear_bss>:
     302:	12 e0       	ldi	r17, 0x02	; 2
     304:	a0 e6       	ldi	r26, 0x60	; 96
     306:	b2 e0       	ldi	r27, 0x02	; 2
     308:	01 c0       	rjmp	.+2      	; 0x30c <.do_clear_bss_start>

0000030a <.do_clear_bss_loop>:
     30a:	1d 92       	st	X+, r1

0000030c <.do_clear_bss_start>:
     30c:	a7 3e       	cpi	r26, 0xE7	; 231
     30e:	b1 07       	cpc	r27, r17
     310:	e1 f7       	brne	.-8      	; 0x30a <.do_clear_bss_loop>
     312:	0e 94 15 0b 	call	0x162a	; 0x162a <main>
     316:	0c 94 0a 0f 	jmp	0x1e14	; 0x1e14 <_exit>

0000031a <__bad_interrupt>:
     31a:	0c 94 00 00 	jmp	0	; 0x0 <__vectors>

0000031e <HplAtm128I2CBusP__I2C__sendCommand>:
     31e:	80 91 a5 02 	lds	r24, 0x02A5
     322:	80 93 bc 00 	sts	0x00BC, r24
     326:	08 95       	ret

00000328 <HplAtm128GeneralIOPinP__38__IO__clr>:
     328:	76 98       	cbi	0x0e, 6	; 14
     32a:	08 95       	ret

0000032c <HplAtm128GeneralIOPinP__38__IO__set>:
     32c:	76 9a       	sbi	0x0e, 6	; 14
     32e:	08 95       	ret

00000330 <SchedulerBasicP__popTask>:
     330:	80 91 e0 02 	lds	r24, 0x02E0
     334:	8f 3f       	cpi	r24, 0xFF	; 255
     336:	69 f0       	breq	.+26     	; 0x352 <SchedulerBasicP__popTask+0x22>
     338:	e8 2f       	mov	r30, r24
     33a:	f0 e0       	ldi	r31, 0x00	; 0
     33c:	eb 57       	subi	r30, 0x7B	; 123
     33e:	fd 4f       	sbci	r31, 0xFD	; 253
     340:	90 81       	ld	r25, Z
     342:	90 93 e0 02 	sts	0x02E0, r25
     346:	9f 3f       	cpi	r25, 0xFF	; 255
     348:	11 f4       	brne	.+4      	; 0x34e <SchedulerBasicP__popTask+0x1e>
     34a:	90 93 e5 02 	sts	0x02E5, r25
     34e:	9f ef       	ldi	r25, 0xFF	; 255
     350:	90 83       	st	Z, r25
     352:	08 95       	ret

00000354 <SchedulerBasicP__TaskBasic__postTask>:
     354:	9f b7       	in	r25, 0x3f	; 63
     356:	f8 94       	cli
     358:	e8 2f       	mov	r30, r24
     35a:	f0 e0       	ldi	r31, 0x00	; 0
     35c:	eb 57       	subi	r30, 0x7B	; 123
     35e:	fd 4f       	sbci	r31, 0xFD	; 253
     360:	20 81       	ld	r18, Z
     362:	2f 3f       	cpi	r18, 0xFF	; 255
     364:	99 f4       	brne	.+38     	; 0x38c <SchedulerBasicP__TaskBasic__postTask+0x38>
     366:	e0 91 e5 02 	lds	r30, 0x02E5
     36a:	e8 17       	cp	r30, r24
     36c:	79 f0       	breq	.+30     	; 0x38c <SchedulerBasicP__TaskBasic__postTask+0x38>
     36e:	20 91 e0 02 	lds	r18, 0x02E0
     372:	2f 3f       	cpi	r18, 0xFF	; 255
     374:	19 f4       	brne	.+6      	; 0x37c <SchedulerBasicP__TaskBasic__postTask+0x28>
     376:	80 93 e0 02 	sts	0x02E0, r24
     37a:	04 c0       	rjmp	.+8      	; 0x384 <SchedulerBasicP__TaskBasic__postTask+0x30>
     37c:	f0 e0       	ldi	r31, 0x00	; 0
     37e:	eb 57       	subi	r30, 0x7B	; 123
     380:	fd 4f       	sbci	r31, 0xFD	; 253
     382:	80 83       	st	Z, r24
     384:	80 93 e5 02 	sts	0x02E5, r24
     388:	80 e0       	ldi	r24, 0x00	; 0
     38a:	01 c0       	rjmp	.+2      	; 0x38e <SchedulerBasicP__TaskBasic__postTask+0x3a>
     38c:	85 e0       	ldi	r24, 0x05	; 5
     38e:	9f bf       	out	0x3f, r25	; 63
     390:	08 95       	ret

00000392 <FMClickP___tune__postTask>:
     392:	84 e0       	ldi	r24, 0x04	; 4
     394:	0c 94 aa 01 	jmp	0x354	; 0x354 <SchedulerBasicP__TaskBasic__postTask>

00000398 <FMClickP___init__postTask>:
     398:	83 e0       	ldi	r24, 0x03	; 3
     39a:	0c 94 aa 01 	jmp	0x354	; 0x354 <SchedulerBasicP__TaskBasic__postTask>

0000039e <VirtualizeTimerC__0__fireTimers>:
     39e:	8f 92       	push	r8
     3a0:	9f 92       	push	r9
     3a2:	af 92       	push	r10
     3a4:	bf 92       	push	r11
     3a6:	cf 92       	push	r12
     3a8:	df 92       	push	r13
     3aa:	ef 92       	push	r14
     3ac:	ff 92       	push	r15
     3ae:	0f 93       	push	r16
     3b0:	1f 93       	push	r17
     3b2:	40 91 a4 02 	lds	r20, 0x02A4
     3b6:	41 ff       	sbrs	r20, 1
     3b8:	3b c0       	rjmp	.+118    	; 0x430 <VirtualizeTimerC__0__fireTimers+0x92>
     3ba:	80 90 9c 02 	lds	r8, 0x029C
     3be:	90 90 9d 02 	lds	r9, 0x029D
     3c2:	a0 90 9e 02 	lds	r10, 0x029E
     3c6:	b0 90 9f 02 	lds	r11, 0x029F
     3ca:	c0 90 a0 02 	lds	r12, 0x02A0
     3ce:	d0 90 a1 02 	lds	r13, 0x02A1
     3d2:	e0 90 a2 02 	lds	r14, 0x02A2
     3d6:	f0 90 a3 02 	lds	r15, 0x02A3
     3da:	8b 01       	movw	r16, r22
     3dc:	9c 01       	movw	r18, r24
     3de:	08 19       	sub	r16, r8
     3e0:	19 09       	sbc	r17, r9
     3e2:	2a 09       	sbc	r18, r10
     3e4:	3b 09       	sbc	r19, r11
     3e6:	0c 15       	cp	r16, r12
     3e8:	1d 05       	cpc	r17, r13
     3ea:	2e 05       	cpc	r18, r14
     3ec:	3f 05       	cpc	r19, r15
     3ee:	00 f1       	brcs	.+64     	; 0x430 <VirtualizeTimerC__0__fireTimers+0x92>
     3f0:	40 ff       	sbrs	r20, 0
     3f2:	05 c0       	rjmp	.+10     	; 0x3fe <VirtualizeTimerC__0__fireTimers+0x60>
     3f4:	84 2f       	mov	r24, r20
     3f6:	8d 7f       	andi	r24, 0xFD	; 253
     3f8:	80 93 a4 02 	sts	0x02A4, r24
     3fc:	0e c0       	rjmp	.+28     	; 0x41a <VirtualizeTimerC__0__fireTimers+0x7c>
     3fe:	b7 01       	movw	r22, r14
     400:	a6 01       	movw	r20, r12
     402:	48 0d       	add	r20, r8
     404:	59 1d       	adc	r21, r9
     406:	6a 1d       	adc	r22, r10
     408:	7b 1d       	adc	r23, r11
     40a:	40 93 9c 02 	sts	0x029C, r20
     40e:	50 93 9d 02 	sts	0x029D, r21
     412:	60 93 9e 02 	sts	0x029E, r22
     416:	70 93 9f 02 	sts	0x029F, r23
     41a:	2f b7       	in	r18, 0x3f	; 63
     41c:	f8 94       	cli
     41e:	80 91 d2 02 	lds	r24, 0x02D2
     422:	90 91 d3 02 	lds	r25, 0x02D3
     426:	2f bf       	out	0x3f, r18	; 63
     428:	01 97       	sbiw	r24, 0x01	; 1
     42a:	11 f4       	brne	.+4      	; 0x430 <VirtualizeTimerC__0__fireTimers+0x92>
     42c:	0e 94 cc 01 	call	0x398	; 0x398 <FMClickP___init__postTask>
     430:	88 e0       	ldi	r24, 0x08	; 8
     432:	1f 91       	pop	r17
     434:	0f 91       	pop	r16
     436:	ff 90       	pop	r15
     438:	ef 90       	pop	r14
     43a:	df 90       	pop	r13
     43c:	cf 90       	pop	r12
     43e:	bf 90       	pop	r11
     440:	af 90       	pop	r10
     442:	9f 90       	pop	r9
     444:	8f 90       	pop	r8
     446:	0c 94 aa 01 	jmp	0x354	; 0x354 <SchedulerBasicP__TaskBasic__postTask>

0000044a <Atm1280AlarmSyncP__0__checkAlarm>:
     44a:	2f b7       	in	r18, 0x3f	; 63
     44c:	f8 94       	cli
     44e:	80 91 64 02 	lds	r24, 0x0264
     452:	88 23       	and	r24, r24
     454:	09 f1       	breq	.+66     	; 0x498 <Atm1280AlarmSyncP__0__checkAlarm+0x4e>
     456:	40 91 a6 02 	lds	r20, 0x02A6
     45a:	50 91 a7 02 	lds	r21, 0x02A7
     45e:	60 91 a8 02 	lds	r22, 0x02A8
     462:	70 91 a9 02 	lds	r23, 0x02A9
     466:	80 91 8e 02 	lds	r24, 0x028E
     46a:	90 91 8f 02 	lds	r25, 0x028F
     46e:	a0 91 90 02 	lds	r26, 0x0290
     472:	b0 91 91 02 	lds	r27, 0x0291
     476:	84 0f       	add	r24, r20
     478:	95 1f       	adc	r25, r21
     47a:	a6 1f       	adc	r26, r22
     47c:	b7 1f       	adc	r27, r23
     47e:	40 91 96 02 	lds	r20, 0x0296
     482:	50 91 97 02 	lds	r21, 0x0297
     486:	60 91 98 02 	lds	r22, 0x0298
     48a:	70 91 99 02 	lds	r23, 0x0299
     48e:	48 17       	cp	r20, r24
     490:	59 07       	cpc	r21, r25
     492:	6a 07       	cpc	r22, r26
     494:	7b 07       	cpc	r23, r27
     496:	11 f0       	breq	.+4      	; 0x49c <Atm1280AlarmSyncP__0__checkAlarm+0x52>
     498:	2f bf       	out	0x3f, r18	; 63
     49a:	08 95       	ret
     49c:	10 92 64 02 	sts	0x0264, r1
     4a0:	2f bf       	out	0x3f, r18	; 63
     4a2:	87 e0       	ldi	r24, 0x07	; 7
     4a4:	0c 94 aa 01 	jmp	0x354	; 0x354 <SchedulerBasicP__TaskBasic__postTask>

000004a8 <HplAtm128I2CBusP__I2C__readCurrent>:
     4a8:	8f b7       	in	r24, 0x3f	; 63
     4aa:	f8 94       	cli
     4ac:	90 91 bc 00 	lds	r25, 0x00BC
     4b0:	90 93 a5 02 	sts	0x02A5, r25
     4b4:	8f bf       	out	0x3f, r24	; 63
     4b6:	08 95       	ret

000004b8 <BusyWaitMicroC__BusyWait__wait.constprop.37>:
     4b8:	82 e0       	ldi	r24, 0x02	; 2
     4ba:	90 e0       	ldi	r25, 0x00	; 0
     4bc:	01 97       	sbiw	r24, 0x01	; 1
     4be:	01 96       	adiw	r24, 0x01	; 1
     4c0:	01 97       	sbiw	r24, 0x01	; 1
     4c2:	01 96       	adiw	r24, 0x01	; 1
     4c4:	01 97       	sbiw	r24, 0x01	; 1
     4c6:	01 96       	adiw	r24, 0x01	; 1
     4c8:	01 97       	sbiw	r24, 0x01	; 1
     4ca:	c1 f7       	brne	.-16     	; 0x4bc <BusyWaitMicroC__BusyWait__wait.constprop.37+0x4>
     4cc:	08 95       	ret

000004ce <ArbiterP__0__Resource__request.constprop.47>:
     4ce:	1f 93       	push	r17
     4d0:	cf 93       	push	r28
     4d2:	df 93       	push	r29
     4d4:	8f b7       	in	r24, 0x3f	; 63
     4d6:	f8 94       	cli
     4d8:	c0 91 62 02 	lds	r28, 0x0262
     4dc:	c1 11       	cpse	r28, r1
     4de:	3d c0       	rjmp	.+122    	; 0x55a <ArbiterP__0__Resource__request.constprop.47+0x8c>
     4e0:	11 e0       	ldi	r17, 0x01	; 1
     4e2:	10 93 62 02 	sts	0x0262, r17
     4e6:	10 92 cc 02 	sts	0x02CC, r1
     4ea:	8f bf       	out	0x3f, r24	; 63
     4ec:	df b7       	in	r29, 0x3f	; 63
     4ee:	f8 94       	cli
     4f0:	80 91 61 02 	lds	r24, 0x0261
     4f4:	81 11       	cpse	r24, r1
     4f6:	17 c0       	rjmp	.+46     	; 0x526 <ArbiterP__0__Resource__request.constprop.47+0x58>
     4f8:	50 98       	cbi	0x0a, 0	; 10
     4fa:	51 98       	cbi	0x0a, 1	; 10
     4fc:	10 92 b9 00 	sts	0x00B9, r1
     500:	81 e4       	ldi	r24, 0x41	; 65
     502:	80 93 b8 00 	sts	0x00B8, r24
     506:	10 92 ba 00 	sts	0x00BA, r1
     50a:	10 92 bc 00 	sts	0x00BC, r1
     50e:	0e 94 54 02 	call	0x4a8	; 0x4a8 <HplAtm128I2CBusP__I2C__readCurrent>
     512:	80 91 a5 02 	lds	r24, 0x02A5
     516:	8e 7f       	andi	r24, 0xFE	; 254
     518:	84 60       	ori	r24, 0x04	; 4
     51a:	80 93 a5 02 	sts	0x02A5, r24
     51e:	0e 94 8f 01 	call	0x31e	; 0x31e <HplAtm128I2CBusP__I2C__sendCommand>
     522:	10 93 61 02 	sts	0x0261, r17
     526:	df bf       	out	0x3f, r29	; 63
     528:	df b7       	in	r29, 0x3f	; 63
     52a:	f8 94       	cli
     52c:	80 91 01 02 	lds	r24, 0x0201
     530:	81 30       	cpi	r24, 0x01	; 1
     532:	89 f4       	brne	.+34     	; 0x556 <ArbiterP__0__Resource__request.constprop.47+0x88>
     534:	80 91 62 02 	lds	r24, 0x0262
     538:	81 30       	cpi	r24, 0x01	; 1
     53a:	21 f4       	brne	.+8      	; 0x544 <ArbiterP__0__Resource__request.constprop.47+0x76>
     53c:	85 e0       	ldi	r24, 0x05	; 5
     53e:	0e 94 aa 01 	call	0x354	; 0x354 <SchedulerBasicP__TaskBasic__postTask>
     542:	09 c0       	rjmp	.+18     	; 0x556 <ArbiterP__0__Resource__request.constprop.47+0x88>
     544:	82 30       	cpi	r24, 0x02	; 2
     546:	39 f4       	brne	.+14     	; 0x556 <ArbiterP__0__Resource__request.constprop.47+0x88>
     548:	80 91 cc 02 	lds	r24, 0x02CC
     54c:	80 93 01 02 	sts	0x0201, r24
     550:	83 e0       	ldi	r24, 0x03	; 3
     552:	80 93 62 02 	sts	0x0262, r24
     556:	df bf       	out	0x3f, r29	; 63
     558:	1d c0       	rjmp	.+58     	; 0x594 <ArbiterP__0__Resource__request.constprop.47+0xc6>
     55a:	c0 91 cc 02 	lds	r28, 0x02CC
     55e:	cc 23       	and	r28, r28
     560:	c1 f0       	breq	.+48     	; 0x592 <ArbiterP__0__Resource__request.constprop.47+0xc4>
     562:	90 91 95 02 	lds	r25, 0x0295
     566:	9f 3f       	cpi	r25, 0xFF	; 255
     568:	99 f4       	brne	.+38     	; 0x590 <ArbiterP__0__Resource__request.constprop.47+0xc2>
     56a:	e0 91 02 02 	lds	r30, 0x0202
     56e:	ee 23       	and	r30, r30
     570:	79 f0       	breq	.+30     	; 0x590 <ArbiterP__0__Resource__request.constprop.47+0xc2>
     572:	90 91 03 02 	lds	r25, 0x0203
     576:	9f 3f       	cpi	r25, 0xFF	; 255
     578:	19 f4       	brne	.+6      	; 0x580 <ArbiterP__0__Resource__request.constprop.47+0xb2>
     57a:	10 92 03 02 	sts	0x0203, r1
     57e:	04 c0       	rjmp	.+8      	; 0x588 <ArbiterP__0__Resource__request.constprop.47+0xba>
     580:	f0 e0       	ldi	r31, 0x00	; 0
     582:	eb 56       	subi	r30, 0x6B	; 107
     584:	fd 4f       	sbci	r31, 0xFD	; 253
     586:	10 82       	st	Z, r1
     588:	10 92 02 02 	sts	0x0202, r1
     58c:	c0 e0       	ldi	r28, 0x00	; 0
     58e:	01 c0       	rjmp	.+2      	; 0x592 <ArbiterP__0__Resource__request.constprop.47+0xc4>
     590:	c5 e0       	ldi	r28, 0x05	; 5
     592:	8f bf       	out	0x3f, r24	; 63
     594:	8c 2f       	mov	r24, r28
     596:	df 91       	pop	r29
     598:	cf 91       	pop	r28
     59a:	1f 91       	pop	r17
     59c:	08 95       	ret

0000059e <VirtualizeTimerC__0__Timer__startOneShot.constprop.31>:
     59e:	0f 93       	push	r16
     5a0:	1f 93       	push	r17
     5a2:	4f b7       	in	r20, 0x3f	; 63
     5a4:	f8 94       	cli
     5a6:	00 91 96 02 	lds	r16, 0x0296
     5aa:	10 91 97 02 	lds	r17, 0x0297
     5ae:	20 91 98 02 	lds	r18, 0x0298
     5b2:	30 91 99 02 	lds	r19, 0x0299
     5b6:	4f bf       	out	0x3f, r20	; 63
     5b8:	ec e9       	ldi	r30, 0x9C	; 156
     5ba:	f2 e0       	ldi	r31, 0x02	; 2
     5bc:	00 83       	st	Z, r16
     5be:	11 83       	std	Z+1, r17	; 0x01
     5c0:	22 83       	std	Z+2, r18	; 0x02
     5c2:	33 83       	std	Z+3, r19	; 0x03
     5c4:	64 83       	std	Z+4, r22	; 0x04
     5c6:	75 83       	std	Z+5, r23	; 0x05
     5c8:	86 83       	std	Z+6, r24	; 0x06
     5ca:	97 83       	std	Z+7, r25	; 0x07
     5cc:	e4 ea       	ldi	r30, 0xA4	; 164
     5ce:	f2 e0       	ldi	r31, 0x02	; 2
     5d0:	80 81       	ld	r24, Z
     5d2:	81 60       	ori	r24, 0x01	; 1
     5d4:	82 60       	ori	r24, 0x02	; 2
     5d6:	80 83       	st	Z, r24
     5d8:	88 e0       	ldi	r24, 0x08	; 8
     5da:	1f 91       	pop	r17
     5dc:	0f 91       	pop	r16
     5de:	0c 94 aa 01 	jmp	0x354	; 0x354 <SchedulerBasicP__TaskBasic__postTask>

000005e2 <FMClickP__I2CResource__release>:
     5e2:	cf 93       	push	r28
     5e4:	df 93       	push	r29
     5e6:	cf b7       	in	r28, 0x3f	; 63
     5e8:	f8 94       	cli
     5ea:	0e 94 54 02 	call	0x4a8	; 0x4a8 <HplAtm128I2CBusP__I2C__readCurrent>
     5ee:	80 91 a5 02 	lds	r24, 0x02A5
     5f2:	8e 7f       	andi	r24, 0xFE	; 254
     5f4:	80 69       	ori	r24, 0x90	; 144
     5f6:	80 93 a5 02 	sts	0x02A5, r24
     5fa:	0e 94 8f 01 	call	0x31e	; 0x31e <HplAtm128I2CBusP__I2C__sendCommand>
     5fe:	cf bf       	out	0x3f, r28	; 63
     600:	df b7       	in	r29, 0x3f	; 63
     602:	f8 94       	cli
     604:	80 91 62 02 	lds	r24, 0x0262
     608:	83 30       	cpi	r24, 0x03	; 3
     60a:	c1 f5       	brne	.+112    	; 0x67c <FMClickP__I2CResource__release+0x9a>
     60c:	c0 91 01 02 	lds	r28, 0x0201
     610:	c1 11       	cpse	r28, r1
     612:	34 c0       	rjmp	.+104    	; 0x67c <FMClickP__I2CResource__release+0x9a>
     614:	80 91 03 02 	lds	r24, 0x0203
     618:	8f 3f       	cpi	r24, 0xFF	; 255
     61a:	c1 f0       	breq	.+48     	; 0x64c <FMClickP__I2CResource__release+0x6a>
     61c:	e8 2f       	mov	r30, r24
     61e:	f0 e0       	ldi	r31, 0x00	; 0
     620:	eb 56       	subi	r30, 0x6B	; 107
     622:	fd 4f       	sbci	r31, 0xFD	; 253
     624:	90 81       	ld	r25, Z
     626:	90 93 03 02 	sts	0x0203, r25
     62a:	9f 3f       	cpi	r25, 0xFF	; 255
     62c:	11 f4       	brne	.+4      	; 0x632 <FMClickP__I2CResource__release+0x50>
     62e:	90 93 02 02 	sts	0x0202, r25
     632:	9f ef       	ldi	r25, 0xFF	; 255
     634:	90 83       	st	Z, r25
     636:	80 93 cc 02 	sts	0x02CC, r24
     63a:	90 93 01 02 	sts	0x0201, r25
     63e:	81 e0       	ldi	r24, 0x01	; 1
     640:	80 93 62 02 	sts	0x0262, r24
     644:	85 e0       	ldi	r24, 0x05	; 5
     646:	0e 94 aa 01 	call	0x354	; 0x354 <SchedulerBasicP__TaskBasic__postTask>
     64a:	16 c0       	rjmp	.+44     	; 0x678 <FMClickP__I2CResource__release+0x96>
     64c:	81 e0       	ldi	r24, 0x01	; 1
     64e:	80 93 01 02 	sts	0x0201, r24
     652:	10 92 62 02 	sts	0x0262, r1
     656:	80 91 61 02 	lds	r24, 0x0261
     65a:	81 30       	cpi	r24, 0x01	; 1
     65c:	69 f4       	brne	.+26     	; 0x678 <FMClickP__I2CResource__release+0x96>
     65e:	0e 94 54 02 	call	0x4a8	; 0x4a8 <HplAtm128I2CBusP__I2C__readCurrent>
     662:	80 91 a5 02 	lds	r24, 0x02A5
     666:	8a 76       	andi	r24, 0x6A	; 106
     668:	80 93 a5 02 	sts	0x02A5, r24
     66c:	0e 94 8f 01 	call	0x31e	; 0x31e <HplAtm128I2CBusP__I2C__sendCommand>
     670:	58 98       	cbi	0x0b, 0	; 11
     672:	59 98       	cbi	0x0b, 1	; 11
     674:	10 92 61 02 	sts	0x0261, r1
     678:	df bf       	out	0x3f, r29	; 63
     67a:	02 c0       	rjmp	.+4      	; 0x680 <FMClickP__I2CResource__release+0x9e>
     67c:	df bf       	out	0x3f, r29	; 63
     67e:	c1 e0       	ldi	r28, 0x01	; 1
     680:	8c 2f       	mov	r24, r28
     682:	df 91       	pop	r29
     684:	cf 91       	pop	r28
     686:	08 95       	ret

00000688 <FMClickP__readRegisters>:
     688:	cf 93       	push	r28
     68a:	2f b7       	in	r18, 0x3f	; 63
     68c:	f8 94       	cli
     68e:	80 91 d4 02 	lds	r24, 0x02D4
     692:	90 91 d5 02 	lds	r25, 0x02D5
     696:	2f bf       	out	0x3f, r18	; 63
     698:	00 97       	sbiw	r24, 0x00	; 0
     69a:	81 f4       	brne	.+32     	; 0x6bc <FMClickP__readRegisters+0x34>
     69c:	2f b7       	in	r18, 0x3f	; 63
     69e:	f8 94       	cli
     6a0:	81 e0       	ldi	r24, 0x01	; 1
     6a2:	90 e0       	ldi	r25, 0x00	; 0
     6a4:	90 93 d9 02 	sts	0x02D9, r25
     6a8:	80 93 d8 02 	sts	0x02D8, r24
     6ac:	90 93 d5 02 	sts	0x02D5, r25
     6b0:	80 93 d4 02 	sts	0x02D4, r24
     6b4:	2f bf       	out	0x3f, r18	; 63
     6b6:	cf 91       	pop	r28
     6b8:	0c 94 67 02 	jmp	0x4ce	; 0x4ce <ArbiterP__0__Resource__request.constprop.47>
     6bc:	01 97       	sbiw	r24, 0x01	; 1
     6be:	09 f0       	breq	.+2      	; 0x6c2 <FMClickP__readRegisters+0x3a>
     6c0:	44 c0       	rjmp	.+136    	; 0x74a <FMClickP__readRegisters+0xc2>
     6c2:	8f b7       	in	r24, 0x3f	; 63
     6c4:	f8 94       	cli
     6c6:	90 91 00 02 	lds	r25, 0x0200
     6ca:	91 11       	cpse	r25, r1
     6cc:	3c c0       	rjmp	.+120    	; 0x746 <FMClickP__readRegisters+0xbe>
     6ce:	8f bf       	out	0x3f, r24	; 63
     6d0:	8f b7       	in	r24, 0x3f	; 63
     6d2:	f8 94       	cli
     6d4:	90 91 61 02 	lds	r25, 0x0261
     6d8:	91 30       	cpi	r25, 0x01	; 1
     6da:	a9 f5       	brne	.+106    	; 0x746 <FMClickP__readRegisters+0xbe>
     6dc:	22 e0       	ldi	r18, 0x02	; 2
     6de:	20 93 61 02 	sts	0x0261, r18
     6e2:	8f bf       	out	0x3f, r24	; 63
     6e4:	8f b7       	in	r24, 0x3f	; 63
     6e6:	f8 94       	cli
     6e8:	20 e1       	ldi	r18, 0x10	; 16
     6ea:	30 e0       	ldi	r19, 0x00	; 0
     6ec:	30 93 9b 02 	sts	0x029B, r19
     6f0:	20 93 9a 02 	sts	0x029A, r18
     6f4:	2a ea       	ldi	r18, 0xAA	; 170
     6f6:	32 e0       	ldi	r19, 0x02	; 2
     6f8:	30 93 94 02 	sts	0x0294, r19
     6fc:	20 93 93 02 	sts	0x0293, r18
     700:	20 e2       	ldi	r18, 0x20	; 32
     702:	20 93 63 02 	sts	0x0263, r18
     706:	23 e0       	ldi	r18, 0x03	; 3
     708:	20 93 e6 02 	sts	0x02E6, r18
     70c:	10 92 cd 02 	sts	0x02CD, r1
     710:	90 93 60 02 	sts	0x0260, r25
     714:	8f bf       	out	0x3f, r24	; 63
     716:	0e 94 54 02 	call	0x4a8	; 0x4a8 <HplAtm128I2CBusP__I2C__readCurrent>
     71a:	cf b7       	in	r28, 0x3f	; 63
     71c:	f8 94       	cli
     71e:	80 91 a5 02 	lds	r24, 0x02A5
     722:	8f 7a       	andi	r24, 0xAF	; 175
     724:	81 6a       	ori	r24, 0xA1	; 161
     726:	80 93 a5 02 	sts	0x02A5, r24
     72a:	84 e0       	ldi	r24, 0x04	; 4
     72c:	80 93 61 02 	sts	0x0261, r24
     730:	0e 94 8f 01 	call	0x31e	; 0x31e <HplAtm128I2CBusP__I2C__sendCommand>
     734:	cf bf       	out	0x3f, r28	; 63
     736:	8f b7       	in	r24, 0x3f	; 63
     738:	f8 94       	cli
     73a:	10 92 d5 02 	sts	0x02D5, r1
     73e:	10 92 d4 02 	sts	0x02D4, r1
     742:	8f bf       	out	0x3f, r24	; 63
     744:	02 c0       	rjmp	.+4      	; 0x74a <FMClickP__readRegisters+0xc2>
     746:	8f bf       	out	0x3f, r24	; 63
     748:	bc cf       	rjmp	.-136    	; 0x6c2 <FMClickP__readRegisters+0x3a>
     74a:	cf 91       	pop	r28
     74c:	08 95       	ret

0000074e <FMClickP___seek.constprop.38>:
     74e:	80 91 de 02 	lds	r24, 0x02DE
     752:	90 91 df 02 	lds	r25, 0x02DF
     756:	00 97       	sbiw	r24, 0x00	; 0
     758:	79 f4       	brne	.+30     	; 0x778 <FMClickP___seek.constprop.38+0x2a>
     75a:	80 91 69 02 	lds	r24, 0x0269
     75e:	90 91 6a 02 	lds	r25, 0x026A
     762:	99 7f       	andi	r25, 0xF9	; 249
     764:	91 60       	ori	r25, 0x01	; 1
     766:	90 93 6a 02 	sts	0x026A, r25
     76a:	80 93 69 02 	sts	0x0269, r24
     76e:	0e 94 e0 04 	call	0x9c0	; 0x9c0 <FMClickP__writeRegisters>
     772:	81 e0       	ldi	r24, 0x01	; 1
     774:	90 e0       	ldi	r25, 0x00	; 0
     776:	06 c0       	rjmp	.+12     	; 0x784 <FMClickP___seek.constprop.38+0x36>
     778:	81 30       	cpi	r24, 0x01	; 1
     77a:	91 05       	cpc	r25, r1
     77c:	41 f4       	brne	.+16     	; 0x78e <FMClickP___seek.constprop.38+0x40>
     77e:	eb 9a       	sbi	0x1d, 3	; 29
     780:	82 e0       	ldi	r24, 0x02	; 2
     782:	90 e0       	ldi	r25, 0x00	; 0
     784:	90 93 df 02 	sts	0x02DF, r25
     788:	80 93 de 02 	sts	0x02DE, r24
     78c:	2e c0       	rjmp	.+92     	; 0x7ea <FMClickP___seek.constprop.38+0x9c>
     78e:	82 30       	cpi	r24, 0x02	; 2
     790:	91 05       	cpc	r25, r1
     792:	29 f4       	brne	.+10     	; 0x79e <FMClickP___seek.constprop.38+0x50>
     794:	0e 94 44 03 	call	0x688	; 0x688 <FMClickP__readRegisters>
     798:	83 e0       	ldi	r24, 0x03	; 3
     79a:	90 e0       	ldi	r25, 0x00	; 0
     79c:	f3 cf       	rjmp	.-26     	; 0x784 <FMClickP___seek.constprop.38+0x36>
     79e:	83 30       	cpi	r24, 0x03	; 3
     7a0:	91 05       	cpc	r25, r1
     7a2:	71 f4       	brne	.+28     	; 0x7c0 <FMClickP___seek.constprop.38+0x72>
     7a4:	80 91 69 02 	lds	r24, 0x0269
     7a8:	90 91 6a 02 	lds	r25, 0x026A
     7ac:	9e 7f       	andi	r25, 0xFE	; 254
     7ae:	90 93 6a 02 	sts	0x026A, r25
     7b2:	80 93 69 02 	sts	0x0269, r24
     7b6:	0e 94 e0 04 	call	0x9c0	; 0x9c0 <FMClickP__writeRegisters>
     7ba:	84 e0       	ldi	r24, 0x04	; 4
     7bc:	90 e0       	ldi	r25, 0x00	; 0
     7be:	e2 cf       	rjmp	.-60     	; 0x784 <FMClickP___seek.constprop.38+0x36>
     7c0:	04 97       	sbiw	r24, 0x04	; 4
     7c2:	99 f4       	brne	.+38     	; 0x7ea <FMClickP___seek.constprop.38+0x9c>
     7c4:	80 91 7b 02 	lds	r24, 0x027B
     7c8:	90 91 7c 02 	lds	r25, 0x027C
     7cc:	93 70       	andi	r25, 0x03	; 3
     7ce:	2f b7       	in	r18, 0x3f	; 63
     7d0:	f8 94       	cli
     7d2:	90 93 cb 02 	sts	0x02CB, r25
     7d6:	80 93 ca 02 	sts	0x02CA, r24
     7da:	2f bf       	out	0x3f, r18	; 63
     7dc:	82 e0       	ldi	r24, 0x02	; 2
     7de:	0e 94 aa 01 	call	0x354	; 0x354 <SchedulerBasicP__TaskBasic__postTask>
     7e2:	10 92 d3 02 	sts	0x02D3, r1
     7e6:	10 92 d2 02 	sts	0x02D2, r1
     7ea:	80 e0       	ldi	r24, 0x00	; 0
     7ec:	08 95       	ret

000007ee <FMClickP__I2C__readDone.isra.19>:
     7ee:	cf 93       	push	r28
     7f0:	df 93       	push	r29
     7f2:	c0 91 d2 02 	lds	r28, 0x02D2
     7f6:	d0 91 d3 02 	lds	r29, 0x02D3
     7fa:	0e 94 f1 02 	call	0x5e2	; 0x5e2 <FMClickP__I2CResource__release>
     7fe:	10 92 d9 02 	sts	0x02D9, r1
     802:	10 92 d8 02 	sts	0x02D8, r1
     806:	40 e0       	ldi	r20, 0x00	; 0
     808:	50 e0       	ldi	r21, 0x00	; 0
     80a:	2a e0       	ldi	r18, 0x0A	; 10
     80c:	da 01       	movw	r26, r20
     80e:	a6 55       	subi	r26, 0x56	; 86
     810:	bd 4f       	sbci	r27, 0xFD	; 253
     812:	e2 2f       	mov	r30, r18
     814:	f0 e0       	ldi	r31, 0x00	; 0
     816:	ee 0f       	add	r30, r30
     818:	ff 1f       	adc	r31, r31
     81a:	eb 59       	subi	r30, 0x9B	; 155
     81c:	fd 4f       	sbci	r31, 0xFD	; 253
     81e:	8c 91       	ld	r24, X
     820:	90 e0       	ldi	r25, 0x00	; 0
     822:	98 2f       	mov	r25, r24
     824:	88 27       	eor	r24, r24
     826:	11 96       	adiw	r26, 0x01	; 1
     828:	3c 91       	ld	r19, X
     82a:	83 2b       	or	r24, r19
     82c:	91 83       	std	Z+1, r25	; 0x01
     82e:	80 83       	st	Z, r24
     830:	2f 5f       	subi	r18, 0xFF	; 255
     832:	2f 70       	andi	r18, 0x0F	; 15
     834:	4e 5f       	subi	r20, 0xFE	; 254
     836:	5f 4f       	sbci	r21, 0xFF	; 255
     838:	40 32       	cpi	r20, 0x20	; 32
     83a:	51 05       	cpc	r21, r1
     83c:	39 f7       	brne	.-50     	; 0x80c <FMClickP__I2C__readDone.isra.19+0x1e>
     83e:	c2 30       	cpi	r28, 0x02	; 2
     840:	d1 05       	cpc	r29, r1
     842:	49 f0       	breq	.+18     	; 0x856 <FMClickP__I2C__readDone.isra.19+0x68>
     844:	c3 30       	cpi	r28, 0x03	; 3
     846:	d1 05       	cpc	r29, r1
     848:	51 f0       	breq	.+20     	; 0x85e <FMClickP__I2C__readDone.isra.19+0x70>
     84a:	21 97       	sbiw	r28, 0x01	; 1
     84c:	61 f4       	brne	.+24     	; 0x866 <FMClickP__I2C__readDone.isra.19+0x78>
     84e:	df 91       	pop	r29
     850:	cf 91       	pop	r28
     852:	0c 94 cc 01 	jmp	0x398	; 0x398 <FMClickP___init__postTask>
     856:	df 91       	pop	r29
     858:	cf 91       	pop	r28
     85a:	0c 94 c9 01 	jmp	0x392	; 0x392 <FMClickP___tune__postTask>
     85e:	df 91       	pop	r29
     860:	cf 91       	pop	r28
     862:	0c 94 a7 03 	jmp	0x74e	; 0x74e <FMClickP___seek.constprop.38>
     866:	df 91       	pop	r29
     868:	cf 91       	pop	r28
     86a:	08 95       	ret

0000086c <Atm128I2CMasterPacketP__0__readNextByte>:
     86c:	81 11       	cpse	r24, r1
     86e:	10 c0       	rjmp	.+32     	; 0x890 <Atm128I2CMasterPacketP__0__readNextByte+0x24>
     870:	80 91 bb 00 	lds	r24, 0x00BB
     874:	90 91 cd 02 	lds	r25, 0x02CD
     878:	e0 91 93 02 	lds	r30, 0x0293
     87c:	f0 91 94 02 	lds	r31, 0x0294
     880:	e9 0f       	add	r30, r25
     882:	f1 1d       	adc	r31, r1
     884:	80 83       	st	Z, r24
     886:	80 91 cd 02 	lds	r24, 0x02CD
     88a:	8f 5f       	subi	r24, 0xFF	; 255
     88c:	80 93 cd 02 	sts	0x02CD, r24
     890:	20 91 cd 02 	lds	r18, 0x02CD
     894:	80 91 63 02 	lds	r24, 0x0263
     898:	28 17       	cp	r18, r24
     89a:	88 f4       	brcc	.+34     	; 0x8be <Atm128I2CMasterPacketP__0__readNextByte+0x52>
     89c:	30 e0       	ldi	r19, 0x00	; 0
     89e:	90 e0       	ldi	r25, 0x00	; 0
     8a0:	01 97       	sbiw	r24, 0x01	; 1
     8a2:	28 17       	cp	r18, r24
     8a4:	39 07       	cpc	r19, r25
     8a6:	49 f4       	brne	.+18     	; 0x8ba <Atm128I2CMasterPacketP__0__readNextByte+0x4e>
     8a8:	80 91 e6 02 	lds	r24, 0x02E6
     8ac:	82 fd       	sbrc	r24, 2
     8ae:	05 c0       	rjmp	.+10     	; 0x8ba <Atm128I2CMasterPacketP__0__readNextByte+0x4e>
     8b0:	80 91 a5 02 	lds	r24, 0x02A5
     8b4:	8f 7b       	andi	r24, 0xBF	; 191
     8b6:	80 93 a5 02 	sts	0x02A5, r24
     8ba:	0c 94 8f 01 	jmp	0x31e	; 0x31e <HplAtm128I2CBusP__I2C__sendCommand>
     8be:	80 91 a5 02 	lds	r24, 0x02A5
     8c2:	28 2f       	mov	r18, r24
     8c4:	2e 7f       	andi	r18, 0xFE	; 254
     8c6:	90 91 e6 02 	lds	r25, 0x02E6
     8ca:	91 ff       	sbrs	r25, 1
     8cc:	0a c0       	rjmp	.+20     	; 0x8e2 <Atm128I2CMasterPacketP__0__readNextByte+0x76>
     8ce:	9d 7f       	andi	r25, 0xFD	; 253
     8d0:	90 93 e6 02 	sts	0x02E6, r25
     8d4:	82 2f       	mov	r24, r18
     8d6:	80 61       	ori	r24, 0x10	; 16
     8d8:	80 93 a5 02 	sts	0x02A5, r24
     8dc:	80 91 b9 00 	lds	r24, 0x00B9
     8e0:	03 c0       	rjmp	.+6      	; 0x8e8 <Atm128I2CMasterPacketP__0__readNextByte+0x7c>
     8e2:	8e 77       	andi	r24, 0x7E	; 126
     8e4:	80 93 a5 02 	sts	0x02A5, r24
     8e8:	0e 94 8f 01 	call	0x31e	; 0x31e <HplAtm128I2CBusP__I2C__sendCommand>
     8ec:	81 e0       	ldi	r24, 0x01	; 1
     8ee:	80 93 61 02 	sts	0x0261, r24
     8f2:	80 91 00 02 	lds	r24, 0x0200
     8f6:	81 11       	cpse	r24, r1
     8f8:	02 c0       	rjmp	.+4      	; 0x8fe <Atm128I2CMasterPacketP__0__readNextByte+0x92>
     8fa:	0c 94 f7 03 	jmp	0x7ee	; 0x7ee <FMClickP__I2C__readDone.isra.19>
     8fe:	08 95       	ret

00000900 <Atm128I2CMasterImplP__0__SubPacket__writeDone.isra.15>:
     900:	cf 93       	push	r28
     902:	df 93       	push	r29
     904:	80 91 00 02 	lds	r24, 0x0200
     908:	81 11       	cpse	r24, r1
     90a:	29 c0       	rjmp	.+82     	; 0x95e <Atm128I2CMasterImplP__0__SubPacket__writeDone.isra.15+0x5e>
     90c:	c0 91 d2 02 	lds	r28, 0x02D2
     910:	d0 91 d3 02 	lds	r29, 0x02D3
     914:	0e 94 f1 02 	call	0x5e2	; 0x5e2 <FMClickP__I2CResource__release>
     918:	10 92 d9 02 	sts	0x02D9, r1
     91c:	10 92 d8 02 	sts	0x02D8, r1
     920:	c3 30       	cpi	r28, 0x03	; 3
     922:	d1 05       	cpc	r29, r1
     924:	a1 f0       	breq	.+40     	; 0x94e <Atm128I2CMasterImplP__0__SubPacket__writeDone.isra.15+0x4e>
     926:	48 f4       	brcc	.+18     	; 0x93a <Atm128I2CMasterImplP__0__SubPacket__writeDone.isra.15+0x3a>
     928:	c1 30       	cpi	r28, 0x01	; 1
     92a:	d1 05       	cpc	r29, r1
     92c:	61 f0       	breq	.+24     	; 0x946 <Atm128I2CMasterImplP__0__SubPacket__writeDone.isra.15+0x46>
     92e:	22 97       	sbiw	r28, 0x02	; 2
     930:	b1 f4       	brne	.+44     	; 0x95e <Atm128I2CMasterImplP__0__SubPacket__writeDone.isra.15+0x5e>
     932:	df 91       	pop	r29
     934:	cf 91       	pop	r28
     936:	0c 94 c9 01 	jmp	0x392	; 0x392 <FMClickP___tune__postTask>
     93a:	c4 30       	cpi	r28, 0x04	; 4
     93c:	d1 05       	cpc	r29, r1
     93e:	59 f0       	breq	.+22     	; 0x956 <Atm128I2CMasterImplP__0__SubPacket__writeDone.isra.15+0x56>
     940:	25 97       	sbiw	r28, 0x05	; 5
     942:	49 f0       	breq	.+18     	; 0x956 <Atm128I2CMasterImplP__0__SubPacket__writeDone.isra.15+0x56>
     944:	0c c0       	rjmp	.+24     	; 0x95e <Atm128I2CMasterImplP__0__SubPacket__writeDone.isra.15+0x5e>
     946:	df 91       	pop	r29
     948:	cf 91       	pop	r28
     94a:	0c 94 cc 01 	jmp	0x398	; 0x398 <FMClickP___init__postTask>
     94e:	df 91       	pop	r29
     950:	cf 91       	pop	r28
     952:	0c 94 a7 03 	jmp	0x74e	; 0x74e <FMClickP___seek.constprop.38>
     956:	10 92 d3 02 	sts	0x02D3, r1
     95a:	10 92 d2 02 	sts	0x02D2, r1
     95e:	df 91       	pop	r29
     960:	cf 91       	pop	r28
     962:	08 95       	ret

00000964 <Atm128I2CMasterPacketP__0__writeNextByte>:
     964:	80 91 cd 02 	lds	r24, 0x02CD
     968:	90 91 63 02 	lds	r25, 0x0263
     96c:	89 17       	cp	r24, r25
     96e:	80 f4       	brcc	.+32     	; 0x990 <Atm128I2CMasterPacketP__0__writeNextByte+0x2c>
     970:	e0 91 93 02 	lds	r30, 0x0293
     974:	f0 91 94 02 	lds	r31, 0x0294
     978:	e8 0f       	add	r30, r24
     97a:	f1 1d       	adc	r31, r1
     97c:	80 81       	ld	r24, Z
     97e:	80 93 bb 00 	sts	0x00BB, r24
     982:	80 91 cd 02 	lds	r24, 0x02CD
     986:	8f 5f       	subi	r24, 0xFF	; 255
     988:	80 93 cd 02 	sts	0x02CD, r24
     98c:	0c 94 8f 01 	jmp	0x31e	; 0x31e <HplAtm128I2CBusP__I2C__sendCommand>
     990:	80 91 a5 02 	lds	r24, 0x02A5
     994:	28 2f       	mov	r18, r24
     996:	2e 7f       	andi	r18, 0xFE	; 254
     998:	90 91 e6 02 	lds	r25, 0x02E6
     99c:	91 ff       	sbrs	r25, 1
     99e:	06 c0       	rjmp	.+12     	; 0x9ac <Atm128I2CMasterPacketP__0__writeNextByte+0x48>
     9a0:	9d 7f       	andi	r25, 0xFD	; 253
     9a2:	90 93 e6 02 	sts	0x02E6, r25
     9a6:	82 2f       	mov	r24, r18
     9a8:	80 61       	ori	r24, 0x10	; 16
     9aa:	01 c0       	rjmp	.+2      	; 0x9ae <Atm128I2CMasterPacketP__0__writeNextByte+0x4a>
     9ac:	8e 77       	andi	r24, 0x7E	; 126
     9ae:	80 93 a5 02 	sts	0x02A5, r24
     9b2:	0e 94 8f 01 	call	0x31e	; 0x31e <HplAtm128I2CBusP__I2C__sendCommand>
     9b6:	81 e0       	ldi	r24, 0x01	; 1
     9b8:	80 93 61 02 	sts	0x0261, r24
     9bc:	0c 94 80 04 	jmp	0x900	; 0x900 <Atm128I2CMasterImplP__0__SubPacket__writeDone.isra.15>

000009c0 <FMClickP__writeRegisters>:
     9c0:	cf 93       	push	r28
     9c2:	2f b7       	in	r18, 0x3f	; 63
     9c4:	f8 94       	cli
     9c6:	80 91 d6 02 	lds	r24, 0x02D6
     9ca:	90 91 d7 02 	lds	r25, 0x02D7
     9ce:	2f bf       	out	0x3f, r18	; 63
     9d0:	00 97       	sbiw	r24, 0x00	; 0
     9d2:	61 f5       	brne	.+88     	; 0xa2c <FMClickP__writeRegisters+0x6c>
     9d4:	20 e0       	ldi	r18, 0x00	; 0
     9d6:	30 e0       	ldi	r19, 0x00	; 0
     9d8:	82 e0       	ldi	r24, 0x02	; 2
     9da:	9f b7       	in	r25, 0x3f	; 63
     9dc:	f8 94       	cli
     9de:	e8 2f       	mov	r30, r24
     9e0:	f0 e0       	ldi	r31, 0x00	; 0
     9e2:	ee 0f       	add	r30, r30
     9e4:	ff 1f       	adc	r31, r31
     9e6:	eb 59       	subi	r30, 0x9B	; 155
     9e8:	fd 4f       	sbci	r31, 0xFD	; 253
     9ea:	40 81       	ld	r20, Z
     9ec:	51 81       	ldd	r21, Z+1	; 0x01
     9ee:	f9 01       	movw	r30, r18
     9f0:	e6 55       	subi	r30, 0x56	; 86
     9f2:	fd 4f       	sbci	r31, 0xFD	; 253
     9f4:	50 83       	st	Z, r21
     9f6:	41 83       	std	Z+1, r20	; 0x01
     9f8:	9f bf       	out	0x3f, r25	; 63
     9fa:	8f 5f       	subi	r24, 0xFF	; 255
     9fc:	8f 70       	andi	r24, 0x0F	; 15
     9fe:	2e 5f       	subi	r18, 0xFE	; 254
     a00:	3f 4f       	sbci	r19, 0xFF	; 255
     a02:	2c 30       	cpi	r18, 0x0C	; 12
     a04:	31 05       	cpc	r19, r1
     a06:	49 f7       	brne	.-46     	; 0x9da <FMClickP__writeRegisters+0x1a>
     a08:	8f b7       	in	r24, 0x3f	; 63
     a0a:	f8 94       	cli
     a0c:	22 e0       	ldi	r18, 0x02	; 2
     a0e:	30 e0       	ldi	r19, 0x00	; 0
     a10:	30 93 d9 02 	sts	0x02D9, r19
     a14:	20 93 d8 02 	sts	0x02D8, r18
     a18:	21 e0       	ldi	r18, 0x01	; 1
     a1a:	30 e0       	ldi	r19, 0x00	; 0
     a1c:	30 93 d7 02 	sts	0x02D7, r19
     a20:	20 93 d6 02 	sts	0x02D6, r18
     a24:	8f bf       	out	0x3f, r24	; 63
     a26:	cf 91       	pop	r28
     a28:	0c 94 67 02 	jmp	0x4ce	; 0x4ce <ArbiterP__0__Resource__request.constprop.47>
     a2c:	01 97       	sbiw	r24, 0x01	; 1
     a2e:	09 f0       	breq	.+2      	; 0xa32 <FMClickP__writeRegisters+0x72>
     a30:	44 c0       	rjmp	.+136    	; 0xaba <FMClickP__writeRegisters+0xfa>
     a32:	8f b7       	in	r24, 0x3f	; 63
     a34:	f8 94       	cli
     a36:	90 91 00 02 	lds	r25, 0x0200
     a3a:	91 11       	cpse	r25, r1
     a3c:	3c c0       	rjmp	.+120    	; 0xab6 <FMClickP__writeRegisters+0xf6>
     a3e:	8f bf       	out	0x3f, r24	; 63
     a40:	8f b7       	in	r24, 0x3f	; 63
     a42:	f8 94       	cli
     a44:	90 91 61 02 	lds	r25, 0x0261
     a48:	91 30       	cpi	r25, 0x01	; 1
     a4a:	a9 f5       	brne	.+106    	; 0xab6 <FMClickP__writeRegisters+0xf6>
     a4c:	92 e0       	ldi	r25, 0x02	; 2
     a4e:	90 93 61 02 	sts	0x0261, r25
     a52:	8f bf       	out	0x3f, r24	; 63
     a54:	8f b7       	in	r24, 0x3f	; 63
     a56:	f8 94       	cli
     a58:	20 e1       	ldi	r18, 0x10	; 16
     a5a:	30 e0       	ldi	r19, 0x00	; 0
     a5c:	30 93 9b 02 	sts	0x029B, r19
     a60:	20 93 9a 02 	sts	0x029A, r18
     a64:	2a ea       	ldi	r18, 0xAA	; 170
     a66:	32 e0       	ldi	r19, 0x02	; 2
     a68:	30 93 94 02 	sts	0x0294, r19
     a6c:	20 93 93 02 	sts	0x0293, r18
     a70:	9c e0       	ldi	r25, 0x0C	; 12
     a72:	90 93 63 02 	sts	0x0263, r25
     a76:	93 e0       	ldi	r25, 0x03	; 3
     a78:	90 93 e6 02 	sts	0x02E6, r25
     a7c:	10 92 cd 02 	sts	0x02CD, r1
     a80:	10 92 60 02 	sts	0x0260, r1
     a84:	8f bf       	out	0x3f, r24	; 63
     a86:	0e 94 54 02 	call	0x4a8	; 0x4a8 <HplAtm128I2CBusP__I2C__readCurrent>
     a8a:	cf b7       	in	r28, 0x3f	; 63
     a8c:	f8 94       	cli
     a8e:	80 91 a5 02 	lds	r24, 0x02A5
     a92:	8f 7e       	andi	r24, 0xEF	; 239
     a94:	81 6e       	ori	r24, 0xE1	; 225
     a96:	80 93 a5 02 	sts	0x02A5, r24
     a9a:	84 e0       	ldi	r24, 0x04	; 4
     a9c:	80 93 61 02 	sts	0x0261, r24
     aa0:	0e 94 8f 01 	call	0x31e	; 0x31e <HplAtm128I2CBusP__I2C__sendCommand>
     aa4:	cf bf       	out	0x3f, r28	; 63
     aa6:	8f b7       	in	r24, 0x3f	; 63
     aa8:	f8 94       	cli
     aaa:	10 92 d7 02 	sts	0x02D7, r1
     aae:	10 92 d6 02 	sts	0x02D6, r1
     ab2:	8f bf       	out	0x3f, r24	; 63
     ab4:	02 c0       	rjmp	.+4      	; 0xaba <FMClickP__writeRegisters+0xfa>
     ab6:	8f bf       	out	0x3f, r24	; 63
     ab8:	bc cf       	rjmp	.-136    	; 0xa32 <FMClickP__writeRegisters+0x72>
     aba:	cf 91       	pop	r28
     abc:	08 95       	ret

00000abe <Atm128I2CMasterPacketP__0__i2c_abort.isra.24>:
     abe:	0e 94 54 02 	call	0x4a8	; 0x4a8 <HplAtm128I2CBusP__I2C__readCurrent>
     ac2:	80 91 a5 02 	lds	r24, 0x02A5
     ac6:	8a 7f       	andi	r24, 0xFA	; 250
     ac8:	80 93 a5 02 	sts	0x02A5, r24
     acc:	0e 94 8f 01 	call	0x31e	; 0x31e <HplAtm128I2CBusP__I2C__sendCommand>
     ad0:	0e 94 54 02 	call	0x4a8	; 0x4a8 <HplAtm128I2CBusP__I2C__readCurrent>
     ad4:	80 91 a5 02 	lds	r24, 0x02A5
     ad8:	84 60       	ori	r24, 0x04	; 4
     ada:	80 93 a5 02 	sts	0x02A5, r24
     ade:	0e 94 8f 01 	call	0x31e	; 0x31e <HplAtm128I2CBusP__I2C__sendCommand>
     ae2:	81 e0       	ldi	r24, 0x01	; 1
     ae4:	80 93 61 02 	sts	0x0261, r24
     ae8:	80 91 60 02 	lds	r24, 0x0260
     aec:	88 23       	and	r24, r24
     aee:	31 f0       	breq	.+12     	; 0xafc <Atm128I2CMasterPacketP__0__i2c_abort.isra.24+0x3e>
     af0:	80 91 00 02 	lds	r24, 0x0200
     af4:	81 11       	cpse	r24, r1
     af6:	04 c0       	rjmp	.+8      	; 0xb00 <Atm128I2CMasterPacketP__0__i2c_abort.isra.24+0x42>
     af8:	0c 94 f7 03 	jmp	0x7ee	; 0x7ee <FMClickP__I2C__readDone.isra.19>
     afc:	0c 94 80 04 	jmp	0x900	; 0x900 <Atm128I2CMasterImplP__0__SubPacket__writeDone.isra.15>
     b00:	08 95       	ret

00000b02 <HplKS0108P__busy_wait_controller>:
     b02:	88 23       	and	r24, r24
     b04:	29 f0       	breq	.+10     	; 0xb10 <HplKS0108P__busy_wait_controller+0xe>
     b06:	81 30       	cpi	r24, 0x01	; 1
     b08:	29 f4       	brne	.+10     	; 0xb14 <HplKS0108P__busy_wait_controller+0x12>
     b0a:	72 98       	cbi	0x0e, 2	; 14
     b0c:	73 9a       	sbi	0x0e, 3	; 14
     b0e:	02 c0       	rjmp	.+4      	; 0xb14 <HplKS0108P__busy_wait_controller+0x12>
     b10:	73 98       	cbi	0x0e, 3	; 14
     b12:	72 9a       	sbi	0x0e, 2	; 14
     b14:	82 b1       	in	r24, 0x02	; 2
     b16:	82 b9       	out	0x02, r24	; 2
     b18:	81 b1       	in	r24, 0x01	; 1
     b1a:	11 b8       	out	0x01, r1	; 1
     b1c:	74 98       	cbi	0x0e, 4	; 14
     b1e:	75 9a       	sbi	0x0e, 5	; 14
     b20:	0e 94 96 01 	call	0x32c	; 0x32c <HplAtm128GeneralIOPinP__38__IO__set>
     b24:	0e 94 5c 02 	call	0x4b8	; 0x4b8 <BusyWaitMicroC__BusyWait__wait.constprop.37>
     b28:	80 b1       	in	r24, 0x00	; 0
     b2a:	07 9b       	sbis	0x00, 7	; 0
     b2c:	09 c0       	rjmp	.+18     	; 0xb40 <HplKS0108P__busy_wait_controller+0x3e>
     b2e:	0e 94 94 01 	call	0x328	; 0x328 <HplAtm128GeneralIOPinP__38__IO__clr>
     b32:	0e 94 5c 02 	call	0x4b8	; 0x4b8 <BusyWaitMicroC__BusyWait__wait.constprop.37>
     b36:	0e 94 96 01 	call	0x32c	; 0x32c <HplAtm128GeneralIOPinP__38__IO__set>
     b3a:	0e 94 5c 02 	call	0x4b8	; 0x4b8 <BusyWaitMicroC__BusyWait__wait.constprop.37>
     b3e:	f5 cf       	rjmp	.-22     	; 0xb2a <HplKS0108P__busy_wait_controller+0x28>
     b40:	0e 94 94 01 	call	0x328	; 0x328 <HplAtm128GeneralIOPinP__38__IO__clr>
     b44:	75 98       	cbi	0x0e, 5	; 14
     b46:	81 b1       	in	r24, 0x01	; 1
     b48:	8f ef       	ldi	r24, 0xFF	; 255
     b4a:	81 b9       	out	0x01, r24	; 1
     b4c:	08 95       	ret

00000b4e <HplKS0108P__HplKS0108__dataRead>:
     b4e:	cf 93       	push	r28
     b50:	df 93       	push	r29
     b52:	1f 92       	push	r1
     b54:	cd b7       	in	r28, 0x3d	; 61
     b56:	de b7       	in	r29, 0x3e	; 62
     b58:	0e 94 81 05 	call	0xb02	; 0xb02 <HplKS0108P__busy_wait_controller>
     b5c:	81 b1       	in	r24, 0x01	; 1
     b5e:	11 b8       	out	0x01, r1	; 1
     b60:	74 9a       	sbi	0x0e, 4	; 14
     b62:	75 9a       	sbi	0x0e, 5	; 14
     b64:	0e 94 96 01 	call	0x32c	; 0x32c <HplAtm128GeneralIOPinP__38__IO__set>
     b68:	0e 94 5c 02 	call	0x4b8	; 0x4b8 <BusyWaitMicroC__BusyWait__wait.constprop.37>
     b6c:	80 b1       	in	r24, 0x00	; 0
     b6e:	0e 94 94 01 	call	0x328	; 0x328 <HplAtm128GeneralIOPinP__38__IO__clr>
     b72:	0e 94 5c 02 	call	0x4b8	; 0x4b8 <BusyWaitMicroC__BusyWait__wait.constprop.37>
     b76:	0e 94 96 01 	call	0x32c	; 0x32c <HplAtm128GeneralIOPinP__38__IO__set>
     b7a:	0e 94 5c 02 	call	0x4b8	; 0x4b8 <BusyWaitMicroC__BusyWait__wait.constprop.37>
     b7e:	80 b1       	in	r24, 0x00	; 0
     b80:	89 83       	std	Y+1, r24	; 0x01
     b82:	0e 94 94 01 	call	0x328	; 0x328 <HplAtm128GeneralIOPinP__38__IO__clr>
     b86:	89 81       	ldd	r24, Y+1	; 0x01
     b88:	0f 90       	pop	r0
     b8a:	df 91       	pop	r29
     b8c:	cf 91       	pop	r28
     b8e:	08 95       	ret

00000b90 <HplKS0108P__HplKS0108__dataWrite>:
     b90:	cf 93       	push	r28
     b92:	df 93       	push	r29
     b94:	1f 92       	push	r1
     b96:	cd b7       	in	r28, 0x3d	; 61
     b98:	de b7       	in	r29, 0x3e	; 62
     b9a:	69 83       	std	Y+1, r22	; 0x01
     b9c:	0e 94 81 05 	call	0xb02	; 0xb02 <HplKS0108P__busy_wait_controller>
     ba0:	69 81       	ldd	r22, Y+1	; 0x01
     ba2:	62 b9       	out	0x02, r22	; 2
     ba4:	81 b1       	in	r24, 0x01	; 1
     ba6:	8f ef       	ldi	r24, 0xFF	; 255
     ba8:	81 b9       	out	0x01, r24	; 1
     baa:	74 9a       	sbi	0x0e, 4	; 14
     bac:	75 98       	cbi	0x0e, 5	; 14
     bae:	0e 94 96 01 	call	0x32c	; 0x32c <HplAtm128GeneralIOPinP__38__IO__set>
     bb2:	0e 94 5c 02 	call	0x4b8	; 0x4b8 <BusyWaitMicroC__BusyWait__wait.constprop.37>
     bb6:	0e 94 94 01 	call	0x328	; 0x328 <HplAtm128GeneralIOPinP__38__IO__clr>
     bba:	80 e0       	ldi	r24, 0x00	; 0
     bbc:	0f 90       	pop	r0
     bbe:	df 91       	pop	r29
     bc0:	cf 91       	pop	r28
     bc2:	08 95       	ret

00000bc4 <HplKS0108P__HplKS0108__controlWrite>:
     bc4:	cf 93       	push	r28
     bc6:	df 93       	push	r29
     bc8:	1f 92       	push	r1
     bca:	cd b7       	in	r28, 0x3d	; 61
     bcc:	de b7       	in	r29, 0x3e	; 62
     bce:	69 83       	std	Y+1, r22	; 0x01
     bd0:	0e 94 81 05 	call	0xb02	; 0xb02 <HplKS0108P__busy_wait_controller>
     bd4:	74 98       	cbi	0x0e, 4	; 14
     bd6:	75 98       	cbi	0x0e, 5	; 14
     bd8:	0e 94 96 01 	call	0x32c	; 0x32c <HplAtm128GeneralIOPinP__38__IO__set>
     bdc:	81 b1       	in	r24, 0x01	; 1
     bde:	8f ef       	ldi	r24, 0xFF	; 255
     be0:	81 b9       	out	0x01, r24	; 1
     be2:	69 81       	ldd	r22, Y+1	; 0x01
     be4:	62 b9       	out	0x02, r22	; 2
     be6:	0e 94 5c 02 	call	0x4b8	; 0x4b8 <BusyWaitMicroC__BusyWait__wait.constprop.37>
     bea:	0e 94 94 01 	call	0x328	; 0x328 <HplAtm128GeneralIOPinP__38__IO__clr>
     bee:	80 e0       	ldi	r24, 0x00	; 0
     bf0:	0f 90       	pop	r0
     bf2:	df 91       	pop	r29
     bf4:	cf 91       	pop	r28
     bf6:	08 95       	ret

00000bf8 <GlcdP__setAddress>:
     bf8:	cf 93       	push	r28
     bfa:	df 93       	push	r29
     bfc:	98 2f       	mov	r25, r24
     bfe:	c6 2f       	mov	r28, r22
     c00:	d8 2f       	mov	r29, r24
     c02:	d2 95       	swap	r29
     c04:	d6 95       	lsr	r29
     c06:	d6 95       	lsr	r29
     c08:	d3 70       	andi	r29, 0x03	; 3
     c0a:	81 e0       	ldi	r24, 0x01	; 1
     c0c:	d8 27       	eor	r29, r24
     c0e:	9f 73       	andi	r25, 0x3F	; 63
     c10:	69 2f       	mov	r22, r25
     c12:	60 64       	ori	r22, 0x40	; 64
     c14:	8d 2f       	mov	r24, r29
     c16:	0e 94 e2 05 	call	0xbc4	; 0xbc4 <HplKS0108P__HplKS0108__controlWrite>
     c1a:	6c 2f       	mov	r22, r28
     c1c:	67 70       	andi	r22, 0x07	; 7
     c1e:	68 6b       	ori	r22, 0xB8	; 184
     c20:	8d 2f       	mov	r24, r29
     c22:	df 91       	pop	r29
     c24:	cf 91       	pop	r28
     c26:	0c 94 e2 05 	jmp	0xbc4	; 0xbc4 <HplKS0108P__HplKS0108__controlWrite>

00000c2a <GlcdP__Glcd__drawText>:
     c2a:	2f 92       	push	r2
     c2c:	3f 92       	push	r3
     c2e:	4f 92       	push	r4
     c30:	5f 92       	push	r5
     c32:	6f 92       	push	r6
     c34:	7f 92       	push	r7
     c36:	8f 92       	push	r8
     c38:	9f 92       	push	r9
     c3a:	af 92       	push	r10
     c3c:	bf 92       	push	r11
     c3e:	cf 92       	push	r12
     c40:	df 92       	push	r13
     c42:	ef 92       	push	r14
     c44:	ff 92       	push	r15
     c46:	0f 93       	push	r16
     c48:	1f 93       	push	r17
     c4a:	cf 93       	push	r28
     c4c:	df 93       	push	r29
     c4e:	00 d0       	rcall	.+0      	; 0xc50 <GlcdP__Glcd__drawText+0x26>
     c50:	1f 92       	push	r1
     c52:	cd b7       	in	r28, 0x3d	; 61
     c54:	de b7       	in	r29, 0x3e	; 62
     c56:	c6 2e       	mov	r12, r22
     c58:	8c 01       	movw	r16, r24
     c5a:	4b 83       	std	Y+3, r20	; 0x03
     c5c:	96 2f       	mov	r25, r22
     c5e:	55 e0       	ldi	r21, 0x05	; 5
     c60:	95 2e       	mov	r9, r21
     c62:	88 24       	eor	r8, r8
     c64:	83 94       	inc	r8
     c66:	ee 24       	eor	r14, r14
     c68:	e3 94       	inc	r14
     c6a:	f1 2c       	mov	r15, r1
     c6c:	f8 01       	movw	r30, r16
     c6e:	21 91       	ld	r18, Z+
     c70:	8f 01       	movw	r16, r30
     c72:	22 23       	and	r18, r18
     c74:	09 f4       	brne	.+2      	; 0xc78 <GlcdP__Glcd__drawText+0x4e>
     c76:	70 c0       	rjmp	.+224    	; 0xd58 <GlcdP__Glcd__drawText+0x12e>
     c78:	2a 30       	cpi	r18, 0x0A	; 10
     c7a:	11 f0       	breq	.+4      	; 0xc80 <GlcdP__Glcd__drawText+0x56>
     c7c:	2d 30       	cpi	r18, 0x0D	; 13
     c7e:	29 f4       	brne	.+10     	; 0xc8a <GlcdP__Glcd__drawText+0x60>
     c80:	2b 81       	ldd	r18, Y+3	; 0x03
     c82:	28 5f       	subi	r18, 0xF8	; 248
     c84:	2b 83       	std	Y+3, r18	; 0x03
     c86:	5c 2c       	mov	r5, r12
     c88:	65 c0       	rjmp	.+202    	; 0xd54 <GlcdP__Glcd__drawText+0x12a>
     c8a:	29 30       	cpi	r18, 0x09	; 9
     c8c:	21 f4       	brne	.+8      	; 0xc96 <GlcdP__Glcd__drawText+0x6c>
     c8e:	4a e0       	ldi	r20, 0x0A	; 10
     c90:	54 2e       	mov	r5, r20
     c92:	59 0e       	add	r5, r25
     c94:	5f c0       	rjmp	.+190    	; 0xd54 <GlcdP__Glcd__drawText+0x12a>
     c96:	36 e0       	ldi	r19, 0x06	; 6
     c98:	53 2e       	mov	r5, r19
     c9a:	59 0e       	add	r5, r25
     c9c:	33 27       	eor	r19, r19
     c9e:	27 fd       	sbrc	r18, 7
     ca0:	30 95       	com	r19
     ca2:	20 32       	cpi	r18, 0x20	; 32
     ca4:	31 05       	cpc	r19, r1
     ca6:	0c f4       	brge	.+2      	; 0xcaa <GlcdP__Glcd__drawText+0x80>
     ca8:	55 c0       	rjmp	.+170    	; 0xd54 <GlcdP__Glcd__drawText+0x12a>
     caa:	20 52       	subi	r18, 0x20	; 32
     cac:	31 09       	sbc	r19, r1
     cae:	92 9e       	mul	r9, r18
     cb0:	a0 01       	movw	r20, r0
     cb2:	93 9e       	mul	r9, r19
     cb4:	50 0d       	add	r21, r0
     cb6:	11 24       	eor	r1, r1
     cb8:	fa 01       	movw	r30, r20
     cba:	e4 50       	subi	r30, 0x04	; 4
     cbc:	ff 4f       	sbci	r31, 0xFF	; 255
     cbe:	5f 01       	movw	r10, r30
     cc0:	95 5f       	subi	r25, 0xF5	; 245
     cc2:	99 83       	std	Y+1, r25	; 0x01
     cc4:	95 2d       	mov	r25, r5
     cc6:	89 ef       	ldi	r24, 0xF9	; 249
     cc8:	48 2e       	mov	r4, r24
     cca:	2b 81       	ldd	r18, Y+3	; 0x03
     ccc:	42 0e       	add	r4, r18
     cce:	64 2c       	mov	r6, r4
     cd0:	f5 01       	movw	r30, r10
     cd2:	d4 90       	lpm	r13, Z
     cd4:	96 fb       	bst	r25, 6
     cd6:	77 24       	eor	r7, r7
     cd8:	70 f8       	bld	r7, 0
     cda:	78 24       	eor	r7, r8
     cdc:	26 2c       	mov	r2, r6
     cde:	26 94       	lsr	r2
     ce0:	26 94       	lsr	r2
     ce2:	26 94       	lsr	r2
     ce4:	f6 2d       	mov	r31, r6
     ce6:	f7 70       	andi	r31, 0x07	; 7
     ce8:	3f 2e       	mov	r3, r31
     cea:	62 2d       	mov	r22, r2
     cec:	89 2f       	mov	r24, r25
     cee:	9a 83       	std	Y+2, r25	; 0x02
     cf0:	d0 fe       	sbrs	r13, 0
     cf2:	0d c0       	rjmp	.+26     	; 0xd0e <GlcdP__Glcd__drawText+0xe4>
     cf4:	0e 94 fc 05 	call	0xbf8	; 0xbf8 <GlcdP__setAddress>
     cf8:	87 2d       	mov	r24, r7
     cfa:	0e 94 a7 05 	call	0xb4e	; 0xb4e <HplKS0108P__HplKS0108__dataRead>
     cfe:	b7 01       	movw	r22, r14
     d00:	01 c0       	rjmp	.+2      	; 0xd04 <GlcdP__Glcd__drawText+0xda>
     d02:	66 0f       	add	r22, r22
     d04:	3a 94       	dec	r3
     d06:	ea f7       	brpl	.-6      	; 0xd02 <GlcdP__Glcd__drawText+0xd8>
     d08:	38 2e       	mov	r3, r24
     d0a:	36 2a       	or	r3, r22
     d0c:	0d c0       	rjmp	.+26     	; 0xd28 <GlcdP__Glcd__drawText+0xfe>
     d0e:	0e 94 fc 05 	call	0xbf8	; 0xbf8 <GlcdP__setAddress>
     d12:	87 2d       	mov	r24, r7
     d14:	0e 94 a7 05 	call	0xb4e	; 0xb4e <HplKS0108P__HplKS0108__dataRead>
     d18:	97 01       	movw	r18, r14
     d1a:	01 c0       	rjmp	.+2      	; 0xd1e <GlcdP__Glcd__drawText+0xf4>
     d1c:	22 0f       	add	r18, r18
     d1e:	3a 94       	dec	r3
     d20:	ea f7       	brpl	.-6      	; 0xd1c <GlcdP__Glcd__drawText+0xf2>
     d22:	20 95       	com	r18
     d24:	38 2e       	mov	r3, r24
     d26:	32 22       	and	r3, r18
     d28:	62 2d       	mov	r22, r2
     d2a:	9a 81       	ldd	r25, Y+2	; 0x02
     d2c:	89 2f       	mov	r24, r25
     d2e:	0e 94 fc 05 	call	0xbf8	; 0xbf8 <GlcdP__setAddress>
     d32:	63 2d       	mov	r22, r3
     d34:	87 2d       	mov	r24, r7
     d36:	0e 94 c8 05 	call	0xb90	; 0xb90 <HplKS0108P__HplKS0108__dataWrite>
     d3a:	9a 81       	ldd	r25, Y+2	; 0x02
     d3c:	d6 94       	lsr	r13
     d3e:	63 94       	inc	r6
     d40:	2b 81       	ldd	r18, Y+3	; 0x03
     d42:	62 12       	cpse	r6, r18
     d44:	cb cf       	rjmp	.-106    	; 0xcdc <GlcdP__Glcd__drawText+0xb2>
     d46:	9f 5f       	subi	r25, 0xFF	; 255
     d48:	3f ef       	ldi	r19, 0xFF	; 255
     d4a:	a3 1a       	sub	r10, r19
     d4c:	b3 0a       	sbc	r11, r19
     d4e:	29 81       	ldd	r18, Y+1	; 0x01
     d50:	92 13       	cpse	r25, r18
     d52:	bd cf       	rjmp	.-134    	; 0xcce <GlcdP__Glcd__drawText+0xa4>
     d54:	95 2d       	mov	r25, r5
     d56:	8a cf       	rjmp	.-236    	; 0xc6c <GlcdP__Glcd__drawText+0x42>
     d58:	0f 90       	pop	r0
     d5a:	0f 90       	pop	r0
     d5c:	0f 90       	pop	r0
     d5e:	df 91       	pop	r29
     d60:	cf 91       	pop	r28
     d62:	1f 91       	pop	r17
     d64:	0f 91       	pop	r16
     d66:	ff 90       	pop	r15
     d68:	ef 90       	pop	r14
     d6a:	df 90       	pop	r13
     d6c:	cf 90       	pop	r12
     d6e:	bf 90       	pop	r11
     d70:	af 90       	pop	r10
     d72:	9f 90       	pop	r9
     d74:	8f 90       	pop	r8
     d76:	7f 90       	pop	r7
     d78:	6f 90       	pop	r6
     d7a:	5f 90       	pop	r5
     d7c:	4f 90       	pop	r4
     d7e:	3f 90       	pop	r3
     d80:	2f 90       	pop	r2
     d82:	08 95       	ret

00000d84 <SchedulerBasicP__TaskBasic__runTask>:
     d84:	cf 92       	push	r12
     d86:	df 92       	push	r13
     d88:	ef 92       	push	r14
     d8a:	ff 92       	push	r15
     d8c:	0f 93       	push	r16
     d8e:	1f 93       	push	r17
     d90:	cf 93       	push	r28
     d92:	df 93       	push	r29
     d94:	cd b7       	in	r28, 0x3d	; 61
     d96:	de b7       	in	r29, 0x3e	; 62
     d98:	27 97       	sbiw	r28, 0x07	; 7
     d9a:	0f b6       	in	r0, 0x3f	; 63
     d9c:	f8 94       	cli
     d9e:	de bf       	out	0x3e, r29	; 62
     da0:	0f be       	out	0x3f, r0	; 63
     da2:	cd bf       	out	0x3d, r28	; 61
     da4:	90 e0       	ldi	r25, 0x00	; 0
     da6:	89 30       	cpi	r24, 0x09	; 9
     da8:	91 05       	cpc	r25, r1
     daa:	08 f0       	brcs	.+2      	; 0xdae <SchedulerBasicP__TaskBasic__runTask+0x2a>
     dac:	e7 c2       	rjmp	.+1486   	; 0x137c <SchedulerBasicP__TaskBasic__runTask+0x5f8>
     dae:	fc 01       	movw	r30, r24
     db0:	ee 58       	subi	r30, 0x8E	; 142
     db2:	ff 4f       	sbci	r31, 0xFF	; 255
     db4:	0c 94 26 0c 	jmp	0x184c	; 0x184c <__tablejump2__>
     db8:	4a e0       	ldi	r20, 0x0A	; 10
     dba:	60 e0       	ldi	r22, 0x00	; 0
     dbc:	8c e0       	ldi	r24, 0x0C	; 12
     dbe:	92 e0       	ldi	r25, 0x02	; 2
     dc0:	0e 94 15 06 	call	0xc2a	; 0xc2a <GlcdP__Glcd__drawText>
     dc4:	4a e0       	ldi	r20, 0x0A	; 10
     dc6:	60 e0       	ldi	r22, 0x00	; 0
     dc8:	86 e1       	ldi	r24, 0x16	; 22
     dca:	92 e0       	ldi	r25, 0x02	; 2
     dcc:	0e 94 15 06 	call	0xc2a	; 0xc2a <GlcdP__Glcd__drawText>
     dd0:	2f b7       	in	r18, 0x3f	; 63
     dd2:	f8 94       	cli
     dd4:	80 91 d2 02 	lds	r24, 0x02D2
     dd8:	90 91 d3 02 	lds	r25, 0x02D3
     ddc:	2f bf       	out	0x3f, r18	; 63
     dde:	89 2b       	or	r24, r25
     de0:	09 f0       	breq	.+2      	; 0xde4 <SchedulerBasicP__TaskBasic__runTask+0x60>
     de2:	cc c2       	rjmp	.+1432   	; 0x137c <SchedulerBasicP__TaskBasic__runTask+0x5f8>
     de4:	8f b7       	in	r24, 0x3f	; 63
     de6:	f8 94       	cli
     de8:	22 e0       	ldi	r18, 0x02	; 2
     dea:	30 e0       	ldi	r19, 0x00	; 0
     dec:	30 93 d3 02 	sts	0x02D3, r19
     df0:	20 93 d2 02 	sts	0x02D2, r18
     df4:	10 92 dd 02 	sts	0x02DD, r1
     df8:	10 92 dc 02 	sts	0x02DC, r1
     dfc:	23 e8       	ldi	r18, 0x83	; 131
     dfe:	33 e0       	ldi	r19, 0x03	; 3
     e00:	30 93 e4 02 	sts	0x02E4, r19
     e04:	20 93 e3 02 	sts	0x02E3, r18
     e08:	8f bf       	out	0x3f, r24	; 63
     e0a:	0e 94 c9 01 	call	0x392	; 0x392 <FMClickP___tune__postTask>
     e0e:	b6 c2       	rjmp	.+1388   	; 0x137c <SchedulerBasicP__TaskBasic__runTask+0x5f8>
     e10:	4a e0       	ldi	r20, 0x0A	; 10
     e12:	60 e0       	ldi	r22, 0x00	; 0
     e14:	86 e2       	ldi	r24, 0x26	; 38
     e16:	92 e0       	ldi	r25, 0x02	; 2
     e18:	0e 94 15 06 	call	0xc2a	; 0xc2a <GlcdP__Glcd__drawText>
     e1c:	af c2       	rjmp	.+1374   	; 0x137c <SchedulerBasicP__TaskBasic__runTask+0x5f8>
     e1e:	2f b7       	in	r18, 0x3f	; 63
     e20:	f8 94       	cli
     e22:	80 91 ca 02 	lds	r24, 0x02CA
     e26:	90 91 cb 02 	lds	r25, 0x02CB
     e2a:	2f bf       	out	0x3f, r18	; 63
     e2c:	9f 93       	push	r25
     e2e:	8f 93       	push	r24
     e30:	83 e3       	ldi	r24, 0x33	; 51
     e32:	92 e0       	ldi	r25, 0x02	; 2
     e34:	9f 93       	push	r25
     e36:	8f 93       	push	r24
     e38:	8e 01       	movw	r16, r28
     e3a:	0f 5f       	subi	r16, 0xFF	; 255
     e3c:	1f 4f       	sbci	r17, 0xFF	; 255
     e3e:	1f 93       	push	r17
     e40:	0f 93       	push	r16
     e42:	0e 94 33 0c 	call	0x1866	; 0x1866 <sprintf>
     e46:	4a e0       	ldi	r20, 0x0A	; 10
     e48:	60 e0       	ldi	r22, 0x00	; 0
     e4a:	86 e3       	ldi	r24, 0x36	; 54
     e4c:	92 e0       	ldi	r25, 0x02	; 2
     e4e:	0e 94 15 06 	call	0xc2a	; 0xc2a <GlcdP__Glcd__drawText>
     e52:	4e e1       	ldi	r20, 0x1E	; 30
     e54:	60 e0       	ldi	r22, 0x00	; 0
     e56:	c8 01       	movw	r24, r16
     e58:	0e 94 15 06 	call	0xc2a	; 0xc2a <GlcdP__Glcd__drawText>
     e5c:	55 c1       	rjmp	.+682    	; 0x1108 <SchedulerBasicP__TaskBasic__runTask+0x384>
     e5e:	2f b7       	in	r18, 0x3f	; 63
     e60:	f8 94       	cli
     e62:	80 91 da 02 	lds	r24, 0x02DA
     e66:	90 91 db 02 	lds	r25, 0x02DB
     e6a:	2f bf       	out	0x3f, r18	; 63
     e6c:	00 97       	sbiw	r24, 0x00	; 0
     e6e:	e1 f4       	brne	.+56     	; 0xea8 <SchedulerBasicP__TaskBasic__runTask+0x124>
     e70:	44 e1       	ldi	r20, 0x14	; 20
     e72:	60 e0       	ldi	r22, 0x00	; 0
     e74:	87 e4       	ldi	r24, 0x47	; 71
     e76:	92 e0       	ldi	r25, 0x02	; 2
     e78:	0e 94 15 06 	call	0xc2a	; 0xc2a <GlcdP__Glcd__drawText>
     e7c:	52 9a       	sbi	0x0a, 2	; 10
     e7e:	5a 98       	cbi	0x0b, 2	; 11
     e80:	51 9a       	sbi	0x0a, 1	; 10
     e82:	59 98       	cbi	0x0b, 1	; 11
     e84:	80 91 69 00 	lds	r24, 0x0069
     e88:	80 68       	ori	r24, 0x80	; 128
     e8a:	80 93 69 00 	sts	0x0069, r24
     e8e:	80 91 69 00 	lds	r24, 0x0069
     e92:	8f 7b       	andi	r24, 0xBF	; 191
     e94:	80 93 69 00 	sts	0x0069, r24
     e98:	5a 9a       	sbi	0x0b, 2	; 11
     e9a:	0e 94 44 03 	call	0x688	; 0x688 <FMClickP__readRegisters>
     e9e:	8f b7       	in	r24, 0x3f	; 63
     ea0:	f8 94       	cli
     ea2:	21 e0       	ldi	r18, 0x01	; 1
     ea4:	30 e0       	ldi	r19, 0x00	; 0
     ea6:	25 c0       	rjmp	.+74     	; 0xef2 <SchedulerBasicP__TaskBasic__runTask+0x16e>
     ea8:	81 30       	cpi	r24, 0x01	; 1
     eaa:	91 05       	cpc	r25, r1
     eac:	41 f5       	brne	.+80     	; 0xefe <SchedulerBasicP__TaskBasic__runTask+0x17a>
     eae:	8f b7       	in	r24, 0x3f	; 63
     eb0:	f8 94       	cli
     eb2:	8f bf       	out	0x3f, r24	; 63
     eb4:	44 e1       	ldi	r20, 0x14	; 20
     eb6:	60 e0       	ldi	r22, 0x00	; 0
     eb8:	89 e4       	ldi	r24, 0x49	; 73
     eba:	92 e0       	ldi	r25, 0x02	; 2
     ebc:	0e 94 15 06 	call	0xc2a	; 0xc2a <GlcdP__Glcd__drawText>
     ec0:	2f b7       	in	r18, 0x3f	; 63
     ec2:	f8 94       	cli
     ec4:	80 91 73 02 	lds	r24, 0x0273
     ec8:	90 91 74 02 	lds	r25, 0x0274
     ecc:	90 68       	ori	r25, 0x80	; 128
     ece:	90 93 74 02 	sts	0x0274, r25
     ed2:	80 93 73 02 	sts	0x0273, r24
     ed6:	2f bf       	out	0x3f, r18	; 63
     ed8:	8f b7       	in	r24, 0x3f	; 63
     eda:	f8 94       	cli
     edc:	10 92 84 02 	sts	0x0284, r1
     ee0:	10 92 83 02 	sts	0x0283, r1
     ee4:	8f bf       	out	0x3f, r24	; 63
     ee6:	0e 94 e0 04 	call	0x9c0	; 0x9c0 <FMClickP__writeRegisters>
     eea:	8f b7       	in	r24, 0x3f	; 63
     eec:	f8 94       	cli
     eee:	22 e0       	ldi	r18, 0x02	; 2
     ef0:	30 e0       	ldi	r19, 0x00	; 0
     ef2:	30 93 db 02 	sts	0x02DB, r19
     ef6:	20 93 da 02 	sts	0x02DA, r18
     efa:	8f bf       	out	0x3f, r24	; 63
     efc:	3f c2       	rjmp	.+1150   	; 0x137c <SchedulerBasicP__TaskBasic__runTask+0x5f8>
     efe:	82 30       	cpi	r24, 0x02	; 2
     f00:	91 05       	cpc	r25, r1
     f02:	89 f4       	brne	.+34     	; 0xf26 <SchedulerBasicP__TaskBasic__runTask+0x1a2>
     f04:	44 e1       	ldi	r20, 0x14	; 20
     f06:	60 e0       	ldi	r22, 0x00	; 0
     f08:	8b e4       	ldi	r24, 0x4B	; 75
     f0a:	92 e0       	ldi	r25, 0x02	; 2
     f0c:	0e 94 15 06 	call	0xc2a	; 0xc2a <GlcdP__Glcd__drawText>
     f10:	68 e5       	ldi	r22, 0x58	; 88
     f12:	72 e0       	ldi	r23, 0x02	; 2
     f14:	80 e0       	ldi	r24, 0x00	; 0
     f16:	90 e0       	ldi	r25, 0x00	; 0
     f18:	0e 94 cf 02 	call	0x59e	; 0x59e <VirtualizeTimerC__0__Timer__startOneShot.constprop.31>
     f1c:	8f b7       	in	r24, 0x3f	; 63
     f1e:	f8 94       	cli
     f20:	23 e0       	ldi	r18, 0x03	; 3
     f22:	30 e0       	ldi	r19, 0x00	; 0
     f24:	e6 cf       	rjmp	.-52     	; 0xef2 <SchedulerBasicP__TaskBasic__runTask+0x16e>
     f26:	83 30       	cpi	r24, 0x03	; 3
     f28:	91 05       	cpc	r25, r1
     f2a:	d1 f4       	brne	.+52     	; 0xf60 <SchedulerBasicP__TaskBasic__runTask+0x1dc>
     f2c:	44 e1       	ldi	r20, 0x14	; 20
     f2e:	60 e0       	ldi	r22, 0x00	; 0
     f30:	8d e4       	ldi	r24, 0x4D	; 77
     f32:	92 e0       	ldi	r25, 0x02	; 2
     f34:	0e 94 15 06 	call	0xc2a	; 0xc2a <GlcdP__Glcd__drawText>
     f38:	2f b7       	in	r18, 0x3f	; 63
     f3a:	f8 94       	cli
     f3c:	80 91 69 02 	lds	r24, 0x0269
     f40:	90 91 6a 02 	lds	r25, 0x026A
     f44:	81 60       	ori	r24, 0x01	; 1
     f46:	90 64       	ori	r25, 0x40	; 64
     f48:	90 93 6a 02 	sts	0x026A, r25
     f4c:	80 93 69 02 	sts	0x0269, r24
     f50:	2f bf       	out	0x3f, r18	; 63
     f52:	0e 94 e0 04 	call	0x9c0	; 0x9c0 <FMClickP__writeRegisters>
     f56:	8f b7       	in	r24, 0x3f	; 63
     f58:	f8 94       	cli
     f5a:	24 e0       	ldi	r18, 0x04	; 4
     f5c:	30 e0       	ldi	r19, 0x00	; 0
     f5e:	c9 cf       	rjmp	.-110    	; 0xef2 <SchedulerBasicP__TaskBasic__runTask+0x16e>
     f60:	84 30       	cpi	r24, 0x04	; 4
     f62:	91 05       	cpc	r25, r1
     f64:	89 f4       	brne	.+34     	; 0xf88 <SchedulerBasicP__TaskBasic__runTask+0x204>
     f66:	44 e1       	ldi	r20, 0x14	; 20
     f68:	60 e0       	ldi	r22, 0x00	; 0
     f6a:	84 e1       	ldi	r24, 0x14	; 20
     f6c:	92 e0       	ldi	r25, 0x02	; 2
     f6e:	0e 94 15 06 	call	0xc2a	; 0xc2a <GlcdP__Glcd__drawText>
     f72:	6e e6       	ldi	r22, 0x6E	; 110
     f74:	70 e0       	ldi	r23, 0x00	; 0
     f76:	80 e0       	ldi	r24, 0x00	; 0
     f78:	90 e0       	ldi	r25, 0x00	; 0
     f7a:	0e 94 cf 02 	call	0x59e	; 0x59e <VirtualizeTimerC__0__Timer__startOneShot.constprop.31>
     f7e:	8f b7       	in	r24, 0x3f	; 63
     f80:	f8 94       	cli
     f82:	25 e0       	ldi	r18, 0x05	; 5
     f84:	30 e0       	ldi	r19, 0x00	; 0
     f86:	b5 cf       	rjmp	.-150    	; 0xef2 <SchedulerBasicP__TaskBasic__runTask+0x16e>
     f88:	85 30       	cpi	r24, 0x05	; 5
     f8a:	91 05       	cpc	r25, r1
     f8c:	69 f4       	brne	.+26     	; 0xfa8 <SchedulerBasicP__TaskBasic__runTask+0x224>
     f8e:	44 e1       	ldi	r20, 0x14	; 20
     f90:	60 e0       	ldi	r22, 0x00	; 0
     f92:	8f e4       	ldi	r24, 0x4F	; 79
     f94:	92 e0       	ldi	r25, 0x02	; 2
     f96:	0e 94 15 06 	call	0xc2a	; 0xc2a <GlcdP__Glcd__drawText>
     f9a:	0e 94 44 03 	call	0x688	; 0x688 <FMClickP__readRegisters>
     f9e:	8f b7       	in	r24, 0x3f	; 63
     fa0:	f8 94       	cli
     fa2:	26 e0       	ldi	r18, 0x06	; 6
     fa4:	30 e0       	ldi	r19, 0x00	; 0
     fa6:	a5 cf       	rjmp	.-182    	; 0xef2 <SchedulerBasicP__TaskBasic__runTask+0x16e>
     fa8:	86 30       	cpi	r24, 0x06	; 6
     faa:	91 05       	cpc	r25, r1
     fac:	49 f5       	brne	.+82     	; 0x1000 <SchedulerBasicP__TaskBasic__runTask+0x27c>
     fae:	8f b7       	in	r24, 0x3f	; 63
     fb0:	f8 94       	cli
     fb2:	8f bf       	out	0x3f, r24	; 63
     fb4:	4f b7       	in	r20, 0x3f	; 63
     fb6:	f8 94       	cli
     fb8:	80 91 6d 02 	lds	r24, 0x026D
     fbc:	90 91 6e 02 	lds	r25, 0x026E
     fc0:	83 73       	andi	r24, 0x33	; 51
     fc2:	20 91 71 02 	lds	r18, 0x0271
     fc6:	30 91 72 02 	lds	r19, 0x0272
     fca:	22 27       	eor	r18, r18
     fcc:	3e 7f       	andi	r19, 0xFE	; 254
     fce:	28 64       	ori	r18, 0x48	; 72
     fd0:	30 93 72 02 	sts	0x0272, r19
     fd4:	20 93 71 02 	sts	0x0271, r18
     fd8:	84 60       	ori	r24, 0x04	; 4
     fda:	98 64       	ori	r25, 0x48	; 72
     fdc:	90 93 6e 02 	sts	0x026E, r25
     fe0:	80 93 6d 02 	sts	0x026D, r24
     fe4:	8f e1       	ldi	r24, 0x1F	; 31
     fe6:	99 e1       	ldi	r25, 0x19	; 25
     fe8:	90 93 70 02 	sts	0x0270, r25
     fec:	80 93 6f 02 	sts	0x026F, r24
     ff0:	4f bf       	out	0x3f, r20	; 63
     ff2:	0e 94 e0 04 	call	0x9c0	; 0x9c0 <FMClickP__writeRegisters>
     ff6:	8f b7       	in	r24, 0x3f	; 63
     ff8:	f8 94       	cli
     ffa:	27 e0       	ldi	r18, 0x07	; 7
     ffc:	30 e0       	ldi	r19, 0x00	; 0
     ffe:	79 cf       	rjmp	.-270    	; 0xef2 <SchedulerBasicP__TaskBasic__runTask+0x16e>
    1000:	07 97       	sbiw	r24, 0x07	; 7
    1002:	09 f0       	breq	.+2      	; 0x1006 <SchedulerBasicP__TaskBasic__runTask+0x282>
    1004:	bb c1       	rjmp	.+886    	; 0x137c <SchedulerBasicP__TaskBasic__runTask+0x5f8>
    1006:	44 e1       	ldi	r20, 0x14	; 20
    1008:	60 e0       	ldi	r22, 0x00	; 0
    100a:	81 e5       	ldi	r24, 0x51	; 81
    100c:	92 e0       	ldi	r25, 0x02	; 2
    100e:	0e 94 15 06 	call	0xc2a	; 0xc2a <GlcdP__Glcd__drawText>
    1012:	80 91 68 02 	lds	r24, 0x0268
    1016:	8f 93       	push	r24
    1018:	80 91 67 02 	lds	r24, 0x0267
    101c:	8f 93       	push	r24
    101e:	83 e5       	ldi	r24, 0x53	; 83
    1020:	e8 2e       	mov	r14, r24
    1022:	82 e0       	ldi	r24, 0x02	; 2
    1024:	f8 2e       	mov	r15, r24
    1026:	ff 92       	push	r15
    1028:	ef 92       	push	r14
    102a:	8e 01       	movw	r16, r28
    102c:	0f 5f       	subi	r16, 0xFF	; 255
    102e:	1f 4f       	sbci	r17, 0xFF	; 255
    1030:	1f 93       	push	r17
    1032:	0f 93       	push	r16
    1034:	0e 94 33 0c 	call	0x1866	; 0x1866 <sprintf>
    1038:	44 e1       	ldi	r20, 0x14	; 20
    103a:	60 e0       	ldi	r22, 0x00	; 0
    103c:	c8 01       	movw	r24, r16
    103e:	0e 94 15 06 	call	0xc2a	; 0xc2a <GlcdP__Glcd__drawText>
    1042:	80 91 6a 02 	lds	r24, 0x026A
    1046:	8f 93       	push	r24
    1048:	80 91 69 02 	lds	r24, 0x0269
    104c:	8f 93       	push	r24
    104e:	ff 92       	push	r15
    1050:	ef 92       	push	r14
    1052:	1f 93       	push	r17
    1054:	0f 93       	push	r16
    1056:	0e 94 33 0c 	call	0x1866	; 0x1866 <sprintf>
    105a:	44 e1       	ldi	r20, 0x14	; 20
    105c:	64 e2       	ldi	r22, 0x24	; 36
    105e:	c8 01       	movw	r24, r16
    1060:	0e 94 15 06 	call	0xc2a	; 0xc2a <GlcdP__Glcd__drawText>
    1064:	8f b7       	in	r24, 0x3f	; 63
    1066:	f8 94       	cli
    1068:	10 92 d3 02 	sts	0x02D3, r1
    106c:	10 92 d2 02 	sts	0x02D2, r1
    1070:	8f bf       	out	0x3f, r24	; 63
    1072:	80 e0       	ldi	r24, 0x00	; 0
    1074:	0e 94 aa 01 	call	0x354	; 0x354 <SchedulerBasicP__TaskBasic__postTask>
    1078:	0f b6       	in	r0, 0x3f	; 63
    107a:	f8 94       	cli
    107c:	de bf       	out	0x3e, r29	; 62
    107e:	0f be       	out	0x3f, r0	; 63
    1080:	cd bf       	out	0x3d, r28	; 61
    1082:	7c c1       	rjmp	.+760    	; 0x137c <SchedulerBasicP__TaskBasic__runTask+0x5f8>
    1084:	2f b7       	in	r18, 0x3f	; 63
    1086:	f8 94       	cli
    1088:	80 91 dc 02 	lds	r24, 0x02DC
    108c:	90 91 dd 02 	lds	r25, 0x02DD
    1090:	2f bf       	out	0x3f, r18	; 63
    1092:	00 97       	sbiw	r24, 0x00	; 0
    1094:	09 f0       	breq	.+2      	; 0x1098 <SchedulerBasicP__TaskBasic__runTask+0x314>
    1096:	3f c0       	rjmp	.+126    	; 0x1116 <SchedulerBasicP__TaskBasic__runTask+0x392>
    1098:	6f b7       	in	r22, 0x3f	; 63
    109a:	f8 94       	cli
    109c:	80 91 6b 02 	lds	r24, 0x026B
    10a0:	90 91 6c 02 	lds	r25, 0x026C
    10a4:	ac 01       	movw	r20, r24
    10a6:	50 68       	ori	r21, 0x80	; 128
    10a8:	20 91 e3 02 	lds	r18, 0x02E3
    10ac:	30 91 e4 02 	lds	r19, 0x02E4
    10b0:	c9 01       	movw	r24, r18
    10b2:	8b 56       	subi	r24, 0x6B	; 107
    10b4:	93 40       	sbci	r25, 0x03	; 3
    10b6:	93 70       	andi	r25, 0x03	; 3
    10b8:	84 2b       	or	r24, r20
    10ba:	95 2b       	or	r25, r21
    10bc:	90 93 6c 02 	sts	0x026C, r25
    10c0:	80 93 6b 02 	sts	0x026B, r24
    10c4:	6f bf       	out	0x3f, r22	; 63
    10c6:	80 91 6c 02 	lds	r24, 0x026C
    10ca:	8f 93       	push	r24
    10cc:	80 91 6b 02 	lds	r24, 0x026B
    10d0:	8f 93       	push	r24
    10d2:	83 e5       	ldi	r24, 0x53	; 83
    10d4:	92 e0       	ldi	r25, 0x02	; 2
    10d6:	9f 93       	push	r25
    10d8:	8f 93       	push	r24
    10da:	8e 01       	movw	r16, r28
    10dc:	0f 5f       	subi	r16, 0xFF	; 255
    10de:	1f 4f       	sbci	r17, 0xFF	; 255
    10e0:	1f 93       	push	r17
    10e2:	0f 93       	push	r16
    10e4:	0e 94 33 0c 	call	0x1866	; 0x1866 <sprintf>
    10e8:	44 e1       	ldi	r20, 0x14	; 20
    10ea:	68 e4       	ldi	r22, 0x48	; 72
    10ec:	c8 01       	movw	r24, r16
    10ee:	0e 94 15 06 	call	0xc2a	; 0xc2a <GlcdP__Glcd__drawText>
    10f2:	0e 94 e0 04 	call	0x9c0	; 0x9c0 <FMClickP__writeRegisters>
    10f6:	8f b7       	in	r24, 0x3f	; 63
    10f8:	f8 94       	cli
    10fa:	21 e0       	ldi	r18, 0x01	; 1
    10fc:	30 e0       	ldi	r19, 0x00	; 0
    10fe:	30 93 dd 02 	sts	0x02DD, r19
    1102:	20 93 dc 02 	sts	0x02DC, r18
    1106:	8f bf       	out	0x3f, r24	; 63
    1108:	0f 90       	pop	r0
    110a:	0f 90       	pop	r0
    110c:	0f 90       	pop	r0
    110e:	0f 90       	pop	r0
    1110:	0f 90       	pop	r0
    1112:	0f 90       	pop	r0
    1114:	33 c1       	rjmp	.+614    	; 0x137c <SchedulerBasicP__TaskBasic__runTask+0x5f8>
    1116:	81 30       	cpi	r24, 0x01	; 1
    1118:	91 05       	cpc	r25, r1
    111a:	31 f4       	brne	.+12     	; 0x1128 <SchedulerBasicP__TaskBasic__runTask+0x3a4>
    111c:	eb 9a       	sbi	0x1d, 3	; 29
    111e:	8f b7       	in	r24, 0x3f	; 63
    1120:	f8 94       	cli
    1122:	22 e0       	ldi	r18, 0x02	; 2
    1124:	30 e0       	ldi	r19, 0x00	; 0
    1126:	1f c0       	rjmp	.+62     	; 0x1166 <SchedulerBasicP__TaskBasic__runTask+0x3e2>
    1128:	82 30       	cpi	r24, 0x02	; 2
    112a:	91 05       	cpc	r25, r1
    112c:	39 f4       	brne	.+14     	; 0x113c <SchedulerBasicP__TaskBasic__runTask+0x3b8>
    112e:	0e 94 44 03 	call	0x688	; 0x688 <FMClickP__readRegisters>
    1132:	8f b7       	in	r24, 0x3f	; 63
    1134:	f8 94       	cli
    1136:	23 e0       	ldi	r18, 0x03	; 3
    1138:	30 e0       	ldi	r19, 0x00	; 0
    113a:	15 c0       	rjmp	.+42     	; 0x1166 <SchedulerBasicP__TaskBasic__runTask+0x3e2>
    113c:	83 30       	cpi	r24, 0x03	; 3
    113e:	91 05       	cpc	r25, r1
    1140:	b9 f4       	brne	.+46     	; 0x1170 <SchedulerBasicP__TaskBasic__runTask+0x3ec>
    1142:	2f b7       	in	r18, 0x3f	; 63
    1144:	f8 94       	cli
    1146:	80 91 6b 02 	lds	r24, 0x026B
    114a:	90 91 6c 02 	lds	r25, 0x026C
    114e:	9f 77       	andi	r25, 0x7F	; 127
    1150:	90 93 6c 02 	sts	0x026C, r25
    1154:	80 93 6b 02 	sts	0x026B, r24
    1158:	2f bf       	out	0x3f, r18	; 63
    115a:	0e 94 e0 04 	call	0x9c0	; 0x9c0 <FMClickP__writeRegisters>
    115e:	8f b7       	in	r24, 0x3f	; 63
    1160:	f8 94       	cli
    1162:	24 e0       	ldi	r18, 0x04	; 4
    1164:	30 e0       	ldi	r19, 0x00	; 0
    1166:	30 93 dd 02 	sts	0x02DD, r19
    116a:	20 93 dc 02 	sts	0x02DC, r18
    116e:	c5 ce       	rjmp	.-630    	; 0xefa <SchedulerBasicP__TaskBasic__runTask+0x176>
    1170:	04 97       	sbiw	r24, 0x04	; 4
    1172:	09 f0       	breq	.+2      	; 0x1176 <SchedulerBasicP__TaskBasic__runTask+0x3f2>
    1174:	03 c1       	rjmp	.+518    	; 0x137c <SchedulerBasicP__TaskBasic__runTask+0x5f8>
    1176:	2f b7       	in	r18, 0x3f	; 63
    1178:	f8 94       	cli
    117a:	80 91 7b 02 	lds	r24, 0x027B
    117e:	90 91 7c 02 	lds	r25, 0x027C
    1182:	93 70       	andi	r25, 0x03	; 3
    1184:	85 59       	subi	r24, 0x95	; 149
    1186:	9c 4f       	sbci	r25, 0xFC	; 252
    1188:	2f bf       	out	0x3f, r18	; 63
    118a:	2f b7       	in	r18, 0x3f	; 63
    118c:	f8 94       	cli
    118e:	90 93 cb 02 	sts	0x02CB, r25
    1192:	80 93 ca 02 	sts	0x02CA, r24
    1196:	2f bf       	out	0x3f, r18	; 63
    1198:	82 e0       	ldi	r24, 0x02	; 2
    119a:	0e 94 aa 01 	call	0x354	; 0x354 <SchedulerBasicP__TaskBasic__postTask>
    119e:	8f b7       	in	r24, 0x3f	; 63
    11a0:	f8 94       	cli
    11a2:	10 92 d3 02 	sts	0x02D3, r1
    11a6:	10 92 d2 02 	sts	0x02D2, r1
    11aa:	a7 ce       	rjmp	.-690    	; 0xefa <SchedulerBasicP__TaskBasic__runTask+0x176>
    11ac:	8f b7       	in	r24, 0x3f	; 63
    11ae:	f8 94       	cli
    11b0:	90 91 cc 02 	lds	r25, 0x02CC
    11b4:	90 93 01 02 	sts	0x0201, r25
    11b8:	93 e0       	ldi	r25, 0x03	; 3
    11ba:	90 93 62 02 	sts	0x0262, r25
    11be:	8f bf       	out	0x3f, r24	; 63
    11c0:	80 91 01 02 	lds	r24, 0x0201
    11c4:	9f b7       	in	r25, 0x3f	; 63
    11c6:	f8 94       	cli
    11c8:	80 93 00 02 	sts	0x0200, r24
    11cc:	9f bf       	out	0x3f, r25	; 63
    11ce:	81 11       	cpse	r24, r1
    11d0:	d5 c0       	rjmp	.+426    	; 0x137c <SchedulerBasicP__TaskBasic__runTask+0x5f8>
    11d2:	2f b7       	in	r18, 0x3f	; 63
    11d4:	f8 94       	cli
    11d6:	80 91 d8 02 	lds	r24, 0x02D8
    11da:	90 91 d9 02 	lds	r25, 0x02D9
    11de:	2f bf       	out	0x3f, r18	; 63
    11e0:	81 30       	cpi	r24, 0x01	; 1
    11e2:	91 05       	cpc	r25, r1
    11e4:	29 f0       	breq	.+10     	; 0x11f0 <SchedulerBasicP__TaskBasic__runTask+0x46c>
    11e6:	02 97       	sbiw	r24, 0x02	; 2
    11e8:	31 f4       	brne	.+12     	; 0x11f6 <SchedulerBasicP__TaskBasic__runTask+0x472>
    11ea:	0e 94 e0 04 	call	0x9c0	; 0x9c0 <FMClickP__writeRegisters>
    11ee:	c6 c0       	rjmp	.+396    	; 0x137c <SchedulerBasicP__TaskBasic__runTask+0x5f8>
    11f0:	0e 94 44 03 	call	0x688	; 0x688 <FMClickP__readRegisters>
    11f4:	c3 c0       	rjmp	.+390    	; 0x137c <SchedulerBasicP__TaskBasic__runTask+0x5f8>
    11f6:	0e 94 f1 02 	call	0x5e2	; 0x5e2 <FMClickP__I2CResource__release>
    11fa:	c0 c0       	rjmp	.+384    	; 0x137c <SchedulerBasicP__TaskBasic__runTask+0x5f8>
    11fc:	1f b7       	in	r17, 0x3f	; 63
    11fe:	f8 94       	cli
    1200:	80 91 60 02 	lds	r24, 0x0260
    1204:	88 23       	and	r24, r24
    1206:	21 f0       	breq	.+8      	; 0x1210 <SchedulerBasicP__TaskBasic__runTask+0x48c>
    1208:	81 e0       	ldi	r24, 0x01	; 1
    120a:	0e 94 36 04 	call	0x86c	; 0x86c <Atm128I2CMasterPacketP__0__readNextByte>
    120e:	02 c0       	rjmp	.+4      	; 0x1214 <SchedulerBasicP__TaskBasic__runTask+0x490>
    1210:	0e 94 b2 04 	call	0x964	; 0x964 <Atm128I2CMasterPacketP__0__writeNextByte>
    1214:	1f bf       	out	0x3f, r17	; 63
    1216:	b2 c0       	rjmp	.+356    	; 0x137c <SchedulerBasicP__TaskBasic__runTask+0x5f8>
    1218:	80 91 92 02 	lds	r24, 0x0292
    121c:	81 11       	cpse	r24, r1
    121e:	41 c0       	rjmp	.+130    	; 0x12a2 <SchedulerBasicP__TaskBasic__runTask+0x51e>
    1220:	40 91 ce 02 	lds	r20, 0x02CE
    1224:	50 91 cf 02 	lds	r21, 0x02CF
    1228:	60 91 d0 02 	lds	r22, 0x02D0
    122c:	70 91 d1 02 	lds	r23, 0x02D1
    1230:	2f b7       	in	r18, 0x3f	; 63
    1232:	f8 94       	cli
    1234:	c0 90 a6 02 	lds	r12, 0x02A6
    1238:	d0 90 a7 02 	lds	r13, 0x02A7
    123c:	e0 90 a8 02 	lds	r14, 0x02A8
    1240:	f0 90 a9 02 	lds	r15, 0x02A9
    1244:	80 91 8e 02 	lds	r24, 0x028E
    1248:	90 91 8f 02 	lds	r25, 0x028F
    124c:	a0 91 90 02 	lds	r26, 0x0290
    1250:	b0 91 91 02 	lds	r27, 0x0291
    1254:	8c 0d       	add	r24, r12
    1256:	9d 1d       	adc	r25, r13
    1258:	ae 1d       	adc	r26, r14
    125a:	bf 1d       	adc	r27, r15
    125c:	2f bf       	out	0x3f, r18	; 63
    125e:	40 93 ce 02 	sts	0x02CE, r20
    1262:	50 93 cf 02 	sts	0x02CF, r21
    1266:	60 93 d0 02 	sts	0x02D0, r22
    126a:	70 93 d1 02 	sts	0x02D1, r23
    126e:	10 92 92 02 	sts	0x0292, r1
    1272:	2f b7       	in	r18, 0x3f	; 63
    1274:	f8 94       	cli
    1276:	31 e0       	ldi	r19, 0x01	; 1
    1278:	30 93 64 02 	sts	0x0264, r19
    127c:	80 93 8e 02 	sts	0x028E, r24
    1280:	90 93 8f 02 	sts	0x028F, r25
    1284:	a0 93 90 02 	sts	0x0290, r26
    1288:	b0 93 91 02 	sts	0x0291, r27
    128c:	40 93 a6 02 	sts	0x02A6, r20
    1290:	50 93 a7 02 	sts	0x02A7, r21
    1294:	60 93 a8 02 	sts	0x02A8, r22
    1298:	70 93 a9 02 	sts	0x02A9, r23
    129c:	2f bf       	out	0x3f, r18	; 63
    129e:	0e 94 25 02 	call	0x44a	; 0x44a <Atm1280AlarmSyncP__0__checkAlarm>
    12a2:	2f b7       	in	r18, 0x3f	; 63
    12a4:	f8 94       	cli
    12a6:	60 91 96 02 	lds	r22, 0x0296
    12aa:	70 91 97 02 	lds	r23, 0x0297
    12ae:	80 91 98 02 	lds	r24, 0x0298
    12b2:	90 91 99 02 	lds	r25, 0x0299
    12b6:	2f bf       	out	0x3f, r18	; 63
    12b8:	3c c0       	rjmp	.+120    	; 0x1332 <SchedulerBasicP__TaskBasic__runTask+0x5ae>
    12ba:	8f b7       	in	r24, 0x3f	; 63
    12bc:	f8 94       	cli
    12be:	40 91 96 02 	lds	r20, 0x0296
    12c2:	50 91 97 02 	lds	r21, 0x0297
    12c6:	60 91 98 02 	lds	r22, 0x0298
    12ca:	70 91 99 02 	lds	r23, 0x0299
    12ce:	8f bf       	out	0x3f, r24	; 63
    12d0:	8f b7       	in	r24, 0x3f	; 63
    12d2:	f8 94       	cli
    12d4:	10 92 64 02 	sts	0x0264, r1
    12d8:	8f bf       	out	0x3f, r24	; 63
    12da:	80 91 a4 02 	lds	r24, 0x02A4
    12de:	81 ff       	sbrs	r24, 1
    12e0:	4d c0       	rjmp	.+154    	; 0x137c <SchedulerBasicP__TaskBasic__runTask+0x5f8>
    12e2:	80 91 9c 02 	lds	r24, 0x029C
    12e6:	90 91 9d 02 	lds	r25, 0x029D
    12ea:	a0 91 9e 02 	lds	r26, 0x029E
    12ee:	b0 91 9f 02 	lds	r27, 0x029F
    12f2:	8a 01       	movw	r16, r20
    12f4:	9b 01       	movw	r18, r22
    12f6:	08 1b       	sub	r16, r24
    12f8:	19 0b       	sbc	r17, r25
    12fa:	2a 0b       	sbc	r18, r26
    12fc:	3b 0b       	sbc	r19, r27
    12fe:	80 91 a0 02 	lds	r24, 0x02A0
    1302:	90 91 a1 02 	lds	r25, 0x02A1
    1306:	a0 91 a2 02 	lds	r26, 0x02A2
    130a:	b0 91 a3 02 	lds	r27, 0x02A3
    130e:	80 1b       	sub	r24, r16
    1310:	91 0b       	sbc	r25, r17
    1312:	a2 0b       	sbc	r26, r18
    1314:	b3 0b       	sbc	r27, r19
    1316:	8f 3f       	cpi	r24, 0xFF	; 255
    1318:	2f ef       	ldi	r18, 0xFF	; 255
    131a:	92 07       	cpc	r25, r18
    131c:	a2 07       	cpc	r26, r18
    131e:	2f e7       	ldi	r18, 0x7F	; 127
    1320:	b2 07       	cpc	r27, r18
    1322:	61 f1       	breq	.+88     	; 0x137c <SchedulerBasicP__TaskBasic__runTask+0x5f8>
    1324:	18 16       	cp	r1, r24
    1326:	19 06       	cpc	r1, r25
    1328:	1a 06       	cpc	r1, r26
    132a:	1b 06       	cpc	r1, r27
    132c:	2c f0       	brlt	.+10     	; 0x1338 <SchedulerBasicP__TaskBasic__runTask+0x5b4>
    132e:	cb 01       	movw	r24, r22
    1330:	ba 01       	movw	r22, r20
    1332:	0e 94 cf 01 	call	0x39e	; 0x39e <VirtualizeTimerC__0__fireTimers>
    1336:	22 c0       	rjmp	.+68     	; 0x137c <SchedulerBasicP__TaskBasic__runTask+0x5f8>
    1338:	80 93 ce 02 	sts	0x02CE, r24
    133c:	90 93 cf 02 	sts	0x02CF, r25
    1340:	a0 93 d0 02 	sts	0x02D0, r26
    1344:	b0 93 d1 02 	sts	0x02D1, r27
    1348:	21 e0       	ldi	r18, 0x01	; 1
    134a:	20 93 92 02 	sts	0x0292, r18
    134e:	3f b7       	in	r19, 0x3f	; 63
    1350:	f8 94       	cli
    1352:	20 93 64 02 	sts	0x0264, r18
    1356:	40 93 8e 02 	sts	0x028E, r20
    135a:	50 93 8f 02 	sts	0x028F, r21
    135e:	60 93 90 02 	sts	0x0290, r22
    1362:	70 93 91 02 	sts	0x0291, r23
    1366:	80 93 a6 02 	sts	0x02A6, r24
    136a:	90 93 a7 02 	sts	0x02A7, r25
    136e:	a0 93 a8 02 	sts	0x02A8, r26
    1372:	b0 93 a9 02 	sts	0x02A9, r27
    1376:	3f bf       	out	0x3f, r19	; 63
    1378:	0e 94 25 02 	call	0x44a	; 0x44a <Atm1280AlarmSyncP__0__checkAlarm>
    137c:	27 96       	adiw	r28, 0x07	; 7
    137e:	0f b6       	in	r0, 0x3f	; 63
    1380:	f8 94       	cli
    1382:	de bf       	out	0x3e, r29	; 62
    1384:	0f be       	out	0x3f, r0	; 63
    1386:	cd bf       	out	0x3d, r28	; 61
    1388:	df 91       	pop	r29
    138a:	cf 91       	pop	r28
    138c:	1f 91       	pop	r17
    138e:	0f 91       	pop	r16
    1390:	ff 90       	pop	r15
    1392:	ef 90       	pop	r14
    1394:	df 90       	pop	r13
    1396:	cf 90       	pop	r12
    1398:	08 95       	ret

0000139a <__nesc_atomic_start>:
    139a:	8f b7       	in	r24, 0x3f	; 63
    139c:	f8 94       	cli
    139e:	08 95       	ret

000013a0 <__nesc_atomic_end>:
    13a0:	8f bf       	out	0x3f, r24	; 63
    13a2:	08 95       	ret

000013a4 <__vector_1>:
    13a4:	1f 92       	push	r1
    13a6:	0f 92       	push	r0
    13a8:	0f b6       	in	r0, 0x3f	; 63
    13aa:	0f 92       	push	r0
    13ac:	11 24       	eor	r1, r1
    13ae:	0f 90       	pop	r0
    13b0:	0f be       	out	0x3f, r0	; 63
    13b2:	0f 90       	pop	r0
    13b4:	1f 90       	pop	r1
    13b6:	18 95       	reti

000013b8 <__vector_2>:
    13b8:	1f 92       	push	r1
    13ba:	0f 92       	push	r0
    13bc:	0f b6       	in	r0, 0x3f	; 63
    13be:	0f 92       	push	r0
    13c0:	11 24       	eor	r1, r1
    13c2:	0f 90       	pop	r0
    13c4:	0f be       	out	0x3f, r0	; 63
    13c6:	0f 90       	pop	r0
    13c8:	1f 90       	pop	r1
    13ca:	18 95       	reti

000013cc <__vector_3>:
    13cc:	1f 92       	push	r1
    13ce:	0f 92       	push	r0
    13d0:	0f b6       	in	r0, 0x3f	; 63
    13d2:	0f 92       	push	r0
    13d4:	11 24       	eor	r1, r1
    13d6:	0f 90       	pop	r0
    13d8:	0f be       	out	0x3f, r0	; 63
    13da:	0f 90       	pop	r0
    13dc:	1f 90       	pop	r1
    13de:	18 95       	reti

000013e0 <__vector_4>:
    13e0:	1f 92       	push	r1
    13e2:	0f 92       	push	r0
    13e4:	0f b6       	in	r0, 0x3f	; 63
    13e6:	0f 92       	push	r0
    13e8:	11 24       	eor	r1, r1
    13ea:	0b b6       	in	r0, 0x3b	; 59
    13ec:	0f 92       	push	r0
    13ee:	2f 93       	push	r18
    13f0:	3f 93       	push	r19
    13f2:	4f 93       	push	r20
    13f4:	5f 93       	push	r21
    13f6:	6f 93       	push	r22
    13f8:	7f 93       	push	r23
    13fa:	8f 93       	push	r24
    13fc:	9f 93       	push	r25
    13fe:	af 93       	push	r26
    1400:	bf 93       	push	r27
    1402:	ef 93       	push	r30
    1404:	ff 93       	push	r31
    1406:	80 91 d2 02 	lds	r24, 0x02D2
    140a:	90 91 d3 02 	lds	r25, 0x02D3
    140e:	eb 98       	cbi	0x1d, 3	; 29
    1410:	82 30       	cpi	r24, 0x02	; 2
    1412:	91 05       	cpc	r25, r1
    1414:	29 f0       	breq	.+10     	; 0x1420 <__vector_4+0x40>
    1416:	03 97       	sbiw	r24, 0x03	; 3
    1418:	29 f4       	brne	.+10     	; 0x1424 <__vector_4+0x44>
    141a:	0e 94 a7 03 	call	0x74e	; 0x74e <FMClickP___seek.constprop.38>
    141e:	02 c0       	rjmp	.+4      	; 0x1424 <__vector_4+0x44>
    1420:	0e 94 c9 01 	call	0x392	; 0x392 <FMClickP___tune__postTask>
    1424:	ff 91       	pop	r31
    1426:	ef 91       	pop	r30
    1428:	bf 91       	pop	r27
    142a:	af 91       	pop	r26
    142c:	9f 91       	pop	r25
    142e:	8f 91       	pop	r24
    1430:	7f 91       	pop	r23
    1432:	6f 91       	pop	r22
    1434:	5f 91       	pop	r21
    1436:	4f 91       	pop	r20
    1438:	3f 91       	pop	r19
    143a:	2f 91       	pop	r18
    143c:	0f 90       	pop	r0
    143e:	0b be       	out	0x3b, r0	; 59
    1440:	0f 90       	pop	r0
    1442:	0f be       	out	0x3f, r0	; 63
    1444:	0f 90       	pop	r0
    1446:	1f 90       	pop	r1
    1448:	18 95       	reti

0000144a <__vector_5>:
    144a:	1f 92       	push	r1
    144c:	0f 92       	push	r0
    144e:	0f b6       	in	r0, 0x3f	; 63
    1450:	0f 92       	push	r0
    1452:	11 24       	eor	r1, r1
    1454:	0f 90       	pop	r0
    1456:	0f be       	out	0x3f, r0	; 63
    1458:	0f 90       	pop	r0
    145a:	1f 90       	pop	r1
    145c:	18 95       	reti

0000145e <__vector_6>:
    145e:	1f 92       	push	r1
    1460:	0f 92       	push	r0
    1462:	0f b6       	in	r0, 0x3f	; 63
    1464:	0f 92       	push	r0
    1466:	11 24       	eor	r1, r1
    1468:	0f 90       	pop	r0
    146a:	0f be       	out	0x3f, r0	; 63
    146c:	0f 90       	pop	r0
    146e:	1f 90       	pop	r1
    1470:	18 95       	reti

00001472 <__vector_7>:
    1472:	1f 92       	push	r1
    1474:	0f 92       	push	r0
    1476:	0f b6       	in	r0, 0x3f	; 63
    1478:	0f 92       	push	r0
    147a:	11 24       	eor	r1, r1
    147c:	0f 90       	pop	r0
    147e:	0f be       	out	0x3f, r0	; 63
    1480:	0f 90       	pop	r0
    1482:	1f 90       	pop	r1
    1484:	18 95       	reti

00001486 <__vector_8>:
    1486:	1f 92       	push	r1
    1488:	0f 92       	push	r0
    148a:	0f b6       	in	r0, 0x3f	; 63
    148c:	0f 92       	push	r0
    148e:	11 24       	eor	r1, r1
    1490:	0f 90       	pop	r0
    1492:	0f be       	out	0x3f, r0	; 63
    1494:	0f 90       	pop	r0
    1496:	1f 90       	pop	r1
    1498:	18 95       	reti

0000149a <__vector_39>:
    149a:	1f 92       	push	r1
    149c:	0f 92       	push	r0
    149e:	0f b6       	in	r0, 0x3f	; 63
    14a0:	0f 92       	push	r0
    14a2:	11 24       	eor	r1, r1
    14a4:	0b b6       	in	r0, 0x3b	; 59
    14a6:	0f 92       	push	r0
    14a8:	2f 93       	push	r18
    14aa:	3f 93       	push	r19
    14ac:	4f 93       	push	r20
    14ae:	5f 93       	push	r21
    14b0:	6f 93       	push	r22
    14b2:	7f 93       	push	r23
    14b4:	8f 93       	push	r24
    14b6:	9f 93       	push	r25
    14b8:	af 93       	push	r26
    14ba:	bf 93       	push	r27
    14bc:	ef 93       	push	r30
    14be:	ff 93       	push	r31
    14c0:	0e 94 54 02 	call	0x4a8	; 0x4a8 <HplAtm128I2CBusP__I2C__readCurrent>
    14c4:	80 91 b9 00 	lds	r24, 0x00B9
    14c8:	98 2f       	mov	r25, r24
    14ca:	98 7f       	andi	r25, 0xF8	; 248
    14cc:	20 91 61 02 	lds	r18, 0x0261
    14d0:	24 30       	cpi	r18, 0x04	; 4
    14d2:	61 f1       	breq	.+88     	; 0x152c <__vector_39+0x92>
    14d4:	26 30       	cpi	r18, 0x06	; 6
    14d6:	21 f0       	breq	.+8      	; 0x14e0 <__vector_39+0x46>
    14d8:	23 30       	cpi	r18, 0x03	; 3
    14da:	09 f0       	breq	.+2      	; 0x14de <__vector_39+0x44>
    14dc:	4a c0       	rjmp	.+148    	; 0x1572 <__vector_39+0xd8>
    14de:	0b c0       	rjmp	.+22     	; 0x14f6 <__vector_39+0x5c>
    14e0:	80 91 60 02 	lds	r24, 0x0260
    14e4:	81 30       	cpi	r24, 0x01	; 1
    14e6:	91 f4       	brne	.+36     	; 0x150c <__vector_39+0x72>
    14e8:	90 34       	cpi	r25, 0x40	; 64
    14ea:	69 f4       	brne	.+26     	; 0x1506 <__vector_39+0x6c>
    14ec:	83 e0       	ldi	r24, 0x03	; 3
    14ee:	80 93 61 02 	sts	0x0261, r24
    14f2:	81 e0       	ldi	r24, 0x01	; 1
    14f4:	15 c0       	rjmp	.+42     	; 0x1520 <__vector_39+0x86>
    14f6:	20 91 60 02 	lds	r18, 0x0260
    14fa:	21 30       	cpi	r18, 0x01	; 1
    14fc:	69 f0       	breq	.+26     	; 0x1518 <__vector_39+0x7e>
    14fe:	98 32       	cpi	r25, 0x28	; 40
    1500:	91 f0       	breq	.+36     	; 0x1526 <__vector_39+0x8c>
    1502:	90 33       	cpi	r25, 0x30	; 48
    1504:	81 f0       	breq	.+32     	; 0x1526 <__vector_39+0x8c>
    1506:	0e 94 5f 05 	call	0xabe	; 0xabe <Atm128I2CMasterPacketP__0__i2c_abort.isra.24>
    150a:	33 c0       	rjmp	.+102    	; 0x1572 <__vector_39+0xd8>
    150c:	98 31       	cpi	r25, 0x18	; 24
    150e:	d9 f7       	brne	.-10     	; 0x1506 <__vector_39+0x6c>
    1510:	83 e0       	ldi	r24, 0x03	; 3
    1512:	80 93 61 02 	sts	0x0261, r24
    1516:	07 c0       	rjmp	.+14     	; 0x1526 <__vector_39+0x8c>
    1518:	80 7f       	andi	r24, 0xF0	; 240
    151a:	80 35       	cpi	r24, 0x50	; 80
    151c:	a1 f7       	brne	.-24     	; 0x1506 <__vector_39+0x6c>
    151e:	80 e0       	ldi	r24, 0x00	; 0
    1520:	0e 94 36 04 	call	0x86c	; 0x86c <Atm128I2CMasterPacketP__0__readNextByte>
    1524:	26 c0       	rjmp	.+76     	; 0x1572 <__vector_39+0xd8>
    1526:	0e 94 b2 04 	call	0x964	; 0x964 <Atm128I2CMasterPacketP__0__writeNextByte>
    152a:	23 c0       	rjmp	.+70     	; 0x1572 <__vector_39+0xd8>
    152c:	80 91 e6 02 	lds	r24, 0x02E6
    1530:	8e 7f       	andi	r24, 0xFE	; 254
    1532:	80 93 e6 02 	sts	0x02E6, r24
    1536:	80 91 a5 02 	lds	r24, 0x02A5
    153a:	8f 7d       	andi	r24, 0xDF	; 223
    153c:	98 30       	cpi	r25, 0x08	; 8
    153e:	29 f0       	breq	.+10     	; 0x154a <__vector_39+0xb0>
    1540:	90 31       	cpi	r25, 0x10	; 16
    1542:	19 f0       	breq	.+6      	; 0x154a <__vector_39+0xb0>
    1544:	80 93 a5 02 	sts	0x02A5, r24
    1548:	de cf       	rjmp	.-68     	; 0x1506 <__vector_39+0x6c>
    154a:	80 64       	ori	r24, 0x40	; 64
    154c:	80 93 a5 02 	sts	0x02A5, r24
    1550:	91 e0       	ldi	r25, 0x01	; 1
    1552:	80 91 60 02 	lds	r24, 0x0260
    1556:	81 30       	cpi	r24, 0x01	; 1
    1558:	09 f0       	breq	.+2      	; 0x155c <__vector_39+0xc2>
    155a:	90 e0       	ldi	r25, 0x00	; 0
    155c:	80 91 9a 02 	lds	r24, 0x029A
    1560:	88 0f       	add	r24, r24
    1562:	89 2b       	or	r24, r25
    1564:	80 93 bb 00 	sts	0x00BB, r24
    1568:	86 e0       	ldi	r24, 0x06	; 6
    156a:	80 93 61 02 	sts	0x0261, r24
    156e:	0e 94 8f 01 	call	0x31e	; 0x31e <HplAtm128I2CBusP__I2C__sendCommand>
    1572:	ff 91       	pop	r31
    1574:	ef 91       	pop	r30
    1576:	bf 91       	pop	r27
    1578:	af 91       	pop	r26
    157a:	9f 91       	pop	r25
    157c:	8f 91       	pop	r24
    157e:	7f 91       	pop	r23
    1580:	6f 91       	pop	r22
    1582:	5f 91       	pop	r21
    1584:	4f 91       	pop	r20
    1586:	3f 91       	pop	r19
    1588:	2f 91       	pop	r18
    158a:	0f 90       	pop	r0
    158c:	0b be       	out	0x3b, r0	; 59
    158e:	0f 90       	pop	r0
    1590:	0f be       	out	0x3f, r0	; 63
    1592:	0f 90       	pop	r0
    1594:	1f 90       	pop	r1
    1596:	18 95       	reti

00001598 <__vector_13>:
    1598:	1f 92       	push	r1
    159a:	0f 92       	push	r0
    159c:	0f b6       	in	r0, 0x3f	; 63
    159e:	0f 92       	push	r0
    15a0:	11 24       	eor	r1, r1
    15a2:	0b b6       	in	r0, 0x3b	; 59
    15a4:	0f 92       	push	r0
    15a6:	2f 93       	push	r18
    15a8:	3f 93       	push	r19
    15aa:	4f 93       	push	r20
    15ac:	5f 93       	push	r21
    15ae:	6f 93       	push	r22
    15b0:	7f 93       	push	r23
    15b2:	8f 93       	push	r24
    15b4:	9f 93       	push	r25
    15b6:	af 93       	push	r26
    15b8:	bf 93       	push	r27
    15ba:	ef 93       	push	r30
    15bc:	ff 93       	push	r31
    15be:	2f b7       	in	r18, 0x3f	; 63
    15c0:	f8 94       	cli
    15c2:	80 91 96 02 	lds	r24, 0x0296
    15c6:	90 91 97 02 	lds	r25, 0x0297
    15ca:	a0 91 98 02 	lds	r26, 0x0298
    15ce:	b0 91 99 02 	lds	r27, 0x0299
    15d2:	01 96       	adiw	r24, 0x01	; 1
    15d4:	a1 1d       	adc	r26, r1
    15d6:	b1 1d       	adc	r27, r1
    15d8:	80 93 96 02 	sts	0x0296, r24
    15dc:	90 93 97 02 	sts	0x0297, r25
    15e0:	a0 93 98 02 	sts	0x0298, r26
    15e4:	b0 93 99 02 	sts	0x0299, r27
    15e8:	2f bf       	out	0x3f, r18	; 63
    15ea:	78 94       	sei
    15ec:	0e 94 25 02 	call	0x44a	; 0x44a <Atm1280AlarmSyncP__0__checkAlarm>
    15f0:	ff 91       	pop	r31
    15f2:	ef 91       	pop	r30
    15f4:	bf 91       	pop	r27
    15f6:	af 91       	pop	r26
    15f8:	9f 91       	pop	r25
    15fa:	8f 91       	pop	r24
    15fc:	7f 91       	pop	r23
    15fe:	6f 91       	pop	r22
    1600:	5f 91       	pop	r21
    1602:	4f 91       	pop	r20
    1604:	3f 91       	pop	r19
    1606:	2f 91       	pop	r18
    1608:	0f 90       	pop	r0
    160a:	0b be       	out	0x3b, r0	; 59
    160c:	0f 90       	pop	r0
    160e:	0f be       	out	0x3f, r0	; 63
    1610:	0f 90       	pop	r0
    1612:	1f 90       	pop	r1
    1614:	18 95       	reti

00001616 <__vector_15>:
    1616:	1f 92       	push	r1
    1618:	0f 92       	push	r0
    161a:	0f b6       	in	r0, 0x3f	; 63
    161c:	0f 92       	push	r0
    161e:	11 24       	eor	r1, r1
    1620:	0f 90       	pop	r0
    1622:	0f be       	out	0x3f, r0	; 63
    1624:	0f 90       	pop	r0
    1626:	1f 90       	pop	r1
    1628:	18 95       	reti

0000162a <main>:
    162a:	df b7       	in	r29, 0x3f	; 63
    162c:	f8 94       	cli
    162e:	49 e0       	ldi	r20, 0x09	; 9
    1630:	50 e0       	ldi	r21, 0x00	; 0
    1632:	6f ef       	ldi	r22, 0xFF	; 255
    1634:	70 e0       	ldi	r23, 0x00	; 0
    1636:	85 e8       	ldi	r24, 0x85	; 133
    1638:	92 e0       	ldi	r25, 0x02	; 2
    163a:	0e 94 2c 0c 	call	0x1858	; 0x1858 <memset>
    163e:	8f ef       	ldi	r24, 0xFF	; 255
    1640:	80 93 e0 02 	sts	0x02E0, r24
    1644:	80 93 e5 02 	sts	0x02E5, r24
    1648:	88 ee       	ldi	r24, 0xE8	; 232
    164a:	91 e0       	ldi	r25, 0x01	; 1
    164c:	90 93 e2 02 	sts	0x02E2, r25
    1650:	80 93 e1 02 	sts	0x02E1, r24
    1654:	08 9a       	sbi	0x01, 0	; 1
    1656:	09 9a       	sbi	0x01, 1	; 1
    1658:	0a 9a       	sbi	0x01, 2	; 1
    165a:	10 98       	cbi	0x02, 0	; 2
    165c:	11 98       	cbi	0x02, 1	; 2
    165e:	12 98       	cbi	0x02, 2	; 2
    1660:	81 e0       	ldi	r24, 0x01	; 1
    1662:	83 bf       	out	0x33, r24	; 51
    1664:	0e 94 98 01 	call	0x330	; 0x330 <SchedulerBasicP__popTask>
    1668:	8f 3f       	cpi	r24, 0xFF	; 255
    166a:	19 f0       	breq	.+6      	; 0x1672 <main+0x48>
    166c:	0e 94 c2 06 	call	0xd84	; 0xd84 <SchedulerBasicP__TaskBasic__runTask>
    1670:	f9 cf       	rjmp	.-14     	; 0x1664 <main+0x3a>
    1672:	80 91 b6 00 	lds	r24, 0x00B6
    1676:	80 72       	andi	r24, 0x20	; 32
    1678:	80 93 b6 00 	sts	0x00B6, r24
    167c:	80 91 b6 00 	lds	r24, 0x00B6
    1680:	81 fd       	sbrc	r24, 1
    1682:	fc cf       	rjmp	.-8      	; 0x167c <main+0x52>
    1684:	82 e0       	ldi	r24, 0x02	; 2
    1686:	80 93 b0 00 	sts	0x00B0, r24
    168a:	80 91 b6 00 	lds	r24, 0x00B6
    168e:	80 fd       	sbrc	r24, 0
    1690:	fc cf       	rjmp	.-8      	; 0x168a <main+0x60>
    1692:	85 e0       	ldi	r24, 0x05	; 5
    1694:	80 93 b1 00 	sts	0x00B1, r24
    1698:	8c e7       	ldi	r24, 0x7C	; 124
    169a:	80 93 b3 00 	sts	0x00B3, r24
    169e:	80 91 70 00 	lds	r24, 0x0070
    16a2:	82 60       	ori	r24, 0x02	; 2
    16a4:	80 93 70 00 	sts	0x0070, r24
    16a8:	cf ef       	ldi	r28, 0xFF	; 255
    16aa:	c0 93 95 02 	sts	0x0295, r28
    16ae:	72 9a       	sbi	0x0e, 2	; 14
    16b0:	73 9a       	sbi	0x0e, 3	; 14
    16b2:	74 98       	cbi	0x0e, 4	; 14
    16b4:	75 9a       	sbi	0x0e, 5	; 14
    16b6:	0e 94 96 01 	call	0x32c	; 0x32c <HplAtm128GeneralIOPinP__38__IO__set>
    16ba:	77 9a       	sbi	0x0e, 7	; 14
    16bc:	6a 9a       	sbi	0x0d, 2	; 13
    16be:	6b 9a       	sbi	0x0d, 3	; 13
    16c0:	6c 9a       	sbi	0x0d, 4	; 13
    16c2:	6d 9a       	sbi	0x0d, 5	; 13
    16c4:	6e 9a       	sbi	0x0d, 6	; 13
    16c6:	6f 9a       	sbi	0x0d, 7	; 13
    16c8:	82 b1       	in	r24, 0x02	; 2
    16ca:	12 b8       	out	0x02, r1	; 2
    16cc:	81 b1       	in	r24, 0x01	; 1
    16ce:	c1 b9       	out	0x01, r28	; 1
    16d0:	6f e3       	ldi	r22, 0x3F	; 63
    16d2:	80 e0       	ldi	r24, 0x00	; 0
    16d4:	0e 94 e2 05 	call	0xbc4	; 0xbc4 <HplKS0108P__HplKS0108__controlWrite>
    16d8:	6f e3       	ldi	r22, 0x3F	; 63
    16da:	81 e0       	ldi	r24, 0x01	; 1
    16dc:	0e 94 e2 05 	call	0xbc4	; 0xbc4 <HplKS0108P__HplKS0108__controlWrite>
    16e0:	60 ec       	ldi	r22, 0xC0	; 192
    16e2:	80 e0       	ldi	r24, 0x00	; 0
    16e4:	0e 94 e2 05 	call	0xbc4	; 0xbc4 <HplKS0108P__HplKS0108__controlWrite>
    16e8:	60 ec       	ldi	r22, 0xC0	; 192
    16ea:	81 e0       	ldi	r24, 0x01	; 1
    16ec:	0e 94 e2 05 	call	0xbc4	; 0xbc4 <HplKS0108P__HplKS0108__controlWrite>
    16f0:	0e 94 98 01 	call	0x330	; 0x330 <SchedulerBasicP__popTask>
    16f4:	8f 3f       	cpi	r24, 0xFF	; 255
    16f6:	19 f0       	breq	.+6      	; 0x16fe <main+0xd4>
    16f8:	0e 94 c2 06 	call	0xd84	; 0xd84 <SchedulerBasicP__TaskBasic__runTask>
    16fc:	f9 cf       	rjmp	.-14     	; 0x16f0 <main+0xc6>
    16fe:	df bf       	out	0x3f, r29	; 63
    1700:	78 94       	sei
    1702:	2f b7       	in	r18, 0x3f	; 63
    1704:	f8 94       	cli
    1706:	80 91 d2 02 	lds	r24, 0x02D2
    170a:	90 91 d3 02 	lds	r25, 0x02D3
    170e:	2f bf       	out	0x3f, r18	; 63
    1710:	89 2b       	or	r24, r25
    1712:	d9 f4       	brne	.+54     	; 0x174a <main+0x120>
    1714:	8f b7       	in	r24, 0x3f	; 63
    1716:	f8 94       	cli
    1718:	21 e0       	ldi	r18, 0x01	; 1
    171a:	30 e0       	ldi	r19, 0x00	; 0
    171c:	30 93 d3 02 	sts	0x02D3, r19
    1720:	20 93 d2 02 	sts	0x02D2, r18
    1724:	10 92 d5 02 	sts	0x02D5, r1
    1728:	10 92 d4 02 	sts	0x02D4, r1
    172c:	10 92 d7 02 	sts	0x02D7, r1
    1730:	10 92 d6 02 	sts	0x02D6, r1
    1734:	10 92 d9 02 	sts	0x02D9, r1
    1738:	10 92 d8 02 	sts	0x02D8, r1
    173c:	10 92 db 02 	sts	0x02DB, r1
    1740:	10 92 da 02 	sts	0x02DA, r1
    1744:	8f bf       	out	0x3f, r24	; 63
    1746:	0e 94 cc 01 	call	0x398	; 0x398 <FMClickP___init__postTask>
    174a:	c0 e0       	ldi	r28, 0x00	; 0
    174c:	6c 2f       	mov	r22, r28
    174e:	80 e0       	ldi	r24, 0x00	; 0
    1750:	0e 94 fc 05 	call	0xbf8	; 0xbf8 <GlcdP__setAddress>
    1754:	6c 2f       	mov	r22, r28
    1756:	80 e4       	ldi	r24, 0x40	; 64
    1758:	0e 94 fc 05 	call	0xbf8	; 0xbf8 <GlcdP__setAddress>
    175c:	d0 e0       	ldi	r29, 0x00	; 0
    175e:	60 e0       	ldi	r22, 0x00	; 0
    1760:	80 e0       	ldi	r24, 0x00	; 0
    1762:	0e 94 c8 05 	call	0xb90	; 0xb90 <HplKS0108P__HplKS0108__dataWrite>
    1766:	60 e0       	ldi	r22, 0x00	; 0
    1768:	81 e0       	ldi	r24, 0x01	; 1
    176a:	0e 94 c8 05 	call	0xb90	; 0xb90 <HplKS0108P__HplKS0108__dataWrite>
    176e:	df 5f       	subi	r29, 0xFF	; 255
    1770:	d0 38       	cpi	r29, 0x80	; 128
    1772:	a9 f7       	brne	.-22     	; 0x175e <main+0x134>
    1774:	cf 5f       	subi	r28, 0xFF	; 255
    1776:	c8 30       	cpi	r28, 0x08	; 8
    1778:	49 f7       	brne	.-46     	; 0x174c <main+0x122>
    177a:	4a e0       	ldi	r20, 0x0A	; 10
    177c:	60 e0       	ldi	r22, 0x00	; 0
    177e:	88 e5       	ldi	r24, 0x58	; 88
    1780:	92 e0       	ldi	r25, 0x02	; 2
    1782:	0e 94 15 06 	call	0xc2a	; 0xc2a <GlcdP__Glcd__drawText>
    1786:	cf b7       	in	r28, 0x3f	; 63
    1788:	f8 94       	cli
    178a:	0e 94 98 01 	call	0x330	; 0x330 <SchedulerBasicP__popTask>
    178e:	8f 3f       	cpi	r24, 0xFF	; 255
    1790:	09 f0       	breq	.+2      	; 0x1794 <main+0x16a>
    1792:	58 c0       	rjmp	.+176    	; 0x1844 <main+0x21a>
    1794:	80 91 70 00 	lds	r24, 0x0070
    1798:	83 70       	andi	r24, 0x03	; 3
    179a:	89 f0       	breq	.+34     	; 0x17be <main+0x194>
    179c:	80 91 b6 00 	lds	r24, 0x00B6
    17a0:	8a 71       	andi	r24, 0x1A	; 26
    17a2:	e1 f7       	brne	.-8      	; 0x179c <main+0x172>
    17a4:	80 91 b3 00 	lds	r24, 0x00B3
    17a8:	90 91 b2 00 	lds	r25, 0x00B2
    17ac:	89 1b       	sub	r24, r25
    17ae:	88 30       	cpi	r24, 0x08	; 8
    17b0:	40 f0       	brcs	.+16     	; 0x17c2 <main+0x198>
    17b2:	80 91 b2 00 	lds	r24, 0x00B2
    17b6:	89 3f       	cpi	r24, 0xF9	; 249
    17b8:	20 f4       	brcc	.+8      	; 0x17c2 <main+0x198>
    17ba:	83 e0       	ldi	r24, 0x03	; 3
    17bc:	03 c0       	rjmp	.+6      	; 0x17c4 <main+0x19a>
    17be:	85 e0       	ldi	r24, 0x05	; 5
    17c0:	01 c0       	rjmp	.+2      	; 0x17c4 <main+0x19a>
    17c2:	82 e0       	ldi	r24, 0x02	; 2
    17c4:	e0 91 6e 00 	lds	r30, 0x006E
    17c8:	e6 70       	andi	r30, 0x06	; 6
    17ca:	29 f5       	brne	.+74     	; 0x1816 <main+0x1ec>
    17cc:	90 91 6f 00 	lds	r25, 0x006F
    17d0:	9e 72       	andi	r25, 0x2E	; 46
    17d2:	21 f5       	brne	.+72     	; 0x181c <main+0x1f2>
    17d4:	e0 91 71 00 	lds	r30, 0x0071
    17d8:	ee 72       	andi	r30, 0x2E	; 46
    17da:	e9 f4       	brne	.+58     	; 0x1816 <main+0x1ec>
    17dc:	90 91 72 00 	lds	r25, 0x0072
    17e0:	9e 72       	andi	r25, 0x2E	; 46
    17e2:	e1 f4       	brne	.+56     	; 0x181c <main+0x1f2>
    17e4:	e0 91 73 00 	lds	r30, 0x0073
    17e8:	ee 72       	andi	r30, 0x2E	; 46
    17ea:	a9 f4       	brne	.+42     	; 0x1816 <main+0x1ec>
    17ec:	0c b4       	in	r0, 0x2c	; 44
    17ee:	07 fc       	sbrc	r0, 7
    17f0:	15 c0       	rjmp	.+42     	; 0x181c <main+0x1f2>
    17f2:	90 91 c1 00 	lds	r25, 0x00C1
    17f6:	98 71       	andi	r25, 0x18	; 24
    17f8:	89 f4       	brne	.+34     	; 0x181c <main+0x1f2>
    17fa:	e0 91 c9 00 	lds	r30, 0x00C9
    17fe:	e8 71       	andi	r30, 0x18	; 24
    1800:	51 f4       	brne	.+20     	; 0x1816 <main+0x1ec>
    1802:	90 91 bc 00 	lds	r25, 0x00BC
    1806:	92 fd       	sbrc	r25, 2
    1808:	09 c0       	rjmp	.+18     	; 0x181c <main+0x1f2>
    180a:	90 91 7a 00 	lds	r25, 0x007A
    180e:	97 fd       	sbrc	r25, 7
    1810:	04 c0       	rjmp	.+8      	; 0x181a <main+0x1f0>
    1812:	e5 e0       	ldi	r30, 0x05	; 5
    1814:	03 c0       	rjmp	.+6      	; 0x181c <main+0x1f2>
    1816:	e0 e0       	ldi	r30, 0x00	; 0
    1818:	01 c0       	rjmp	.+2      	; 0x181c <main+0x1f2>
    181a:	e1 e0       	ldi	r30, 0x01	; 1
    181c:	93 b7       	in	r25, 0x33	; 51
    181e:	8e 17       	cp	r24, r30
    1820:	08 f4       	brcc	.+2      	; 0x1824 <main+0x1fa>
    1822:	e8 2f       	mov	r30, r24
    1824:	f0 e0       	ldi	r31, 0x00	; 0
    1826:	ea 50       	subi	r30, 0x0A	; 10
    1828:	ff 4f       	sbci	r31, 0xFF	; 255
    182a:	84 91       	lpm	r24, Z
    182c:	e9 2f       	mov	r30, r25
    182e:	e0 7f       	andi	r30, 0xF0	; 240
    1830:	e1 60       	ori	r30, 0x01	; 1
    1832:	e8 2b       	or	r30, r24
    1834:	e3 bf       	out	0x33, r30	; 51
    1836:	78 94       	sei
    1838:	88 95       	sleep
    183a:	f8 94       	cli
    183c:	83 b7       	in	r24, 0x33	; 51
    183e:	8e 7f       	andi	r24, 0xFE	; 254
    1840:	83 bf       	out	0x33, r24	; 51
    1842:	a3 cf       	rjmp	.-186    	; 0x178a <main+0x160>
    1844:	cf bf       	out	0x3f, r28	; 63
    1846:	0e 94 c2 06 	call	0xd84	; 0xd84 <SchedulerBasicP__TaskBasic__runTask>
    184a:	9d cf       	rjmp	.-198    	; 0x1786 <main+0x15c>

0000184c <__tablejump2__>:
    184c:	ee 0f       	add	r30, r30
    184e:	ff 1f       	adc	r31, r31

00001850 <__tablejump__>:
    1850:	05 90       	lpm	r0, Z+
    1852:	f4 91       	lpm	r31, Z
    1854:	e0 2d       	mov	r30, r0
    1856:	09 94       	ijmp

00001858 <memset>:
    1858:	dc 01       	movw	r26, r24
    185a:	01 c0       	rjmp	.+2      	; 0x185e <memset+0x6>
    185c:	6d 93       	st	X+, r22
    185e:	41 50       	subi	r20, 0x01	; 1
    1860:	50 40       	sbci	r21, 0x00	; 0
    1862:	e0 f7       	brcc	.-8      	; 0x185c <memset+0x4>
    1864:	08 95       	ret

00001866 <sprintf>:
    1866:	0f 93       	push	r16
    1868:	1f 93       	push	r17
    186a:	cf 93       	push	r28
    186c:	df 93       	push	r29
    186e:	cd b7       	in	r28, 0x3d	; 61
    1870:	de b7       	in	r29, 0x3e	; 62
    1872:	2e 97       	sbiw	r28, 0x0e	; 14
    1874:	0f b6       	in	r0, 0x3f	; 63
    1876:	f8 94       	cli
    1878:	de bf       	out	0x3e, r29	; 62
    187a:	0f be       	out	0x3f, r0	; 63
    187c:	cd bf       	out	0x3d, r28	; 61
    187e:	0d 89       	ldd	r16, Y+21	; 0x15
    1880:	1e 89       	ldd	r17, Y+22	; 0x16
    1882:	86 e0       	ldi	r24, 0x06	; 6
    1884:	8c 83       	std	Y+4, r24	; 0x04
    1886:	1a 83       	std	Y+2, r17	; 0x02
    1888:	09 83       	std	Y+1, r16	; 0x01
    188a:	8f ef       	ldi	r24, 0xFF	; 255
    188c:	9f e7       	ldi	r25, 0x7F	; 127
    188e:	9e 83       	std	Y+6, r25	; 0x06
    1890:	8d 83       	std	Y+5, r24	; 0x05
    1892:	ae 01       	movw	r20, r28
    1894:	47 5e       	subi	r20, 0xE7	; 231
    1896:	5f 4f       	sbci	r21, 0xFF	; 255
    1898:	6f 89       	ldd	r22, Y+23	; 0x17
    189a:	78 8d       	ldd	r23, Y+24	; 0x18
    189c:	ce 01       	movw	r24, r28
    189e:	01 96       	adiw	r24, 0x01	; 1
    18a0:	0e 94 63 0c 	call	0x18c6	; 0x18c6 <vfprintf>
    18a4:	2f 81       	ldd	r18, Y+7	; 0x07
    18a6:	38 85       	ldd	r19, Y+8	; 0x08
    18a8:	f8 01       	movw	r30, r16
    18aa:	e2 0f       	add	r30, r18
    18ac:	f3 1f       	adc	r31, r19
    18ae:	10 82       	st	Z, r1
    18b0:	2e 96       	adiw	r28, 0x0e	; 14
    18b2:	0f b6       	in	r0, 0x3f	; 63
    18b4:	f8 94       	cli
    18b6:	de bf       	out	0x3e, r29	; 62
    18b8:	0f be       	out	0x3f, r0	; 63
    18ba:	cd bf       	out	0x3d, r28	; 61
    18bc:	df 91       	pop	r29
    18be:	cf 91       	pop	r28
    18c0:	1f 91       	pop	r17
    18c2:	0f 91       	pop	r16
    18c4:	08 95       	ret

000018c6 <vfprintf>:
    18c6:	2f 92       	push	r2
    18c8:	3f 92       	push	r3
    18ca:	4f 92       	push	r4
    18cc:	5f 92       	push	r5
    18ce:	6f 92       	push	r6
    18d0:	7f 92       	push	r7
    18d2:	8f 92       	push	r8
    18d4:	9f 92       	push	r9
    18d6:	af 92       	push	r10
    18d8:	bf 92       	push	r11
    18da:	cf 92       	push	r12
    18dc:	df 92       	push	r13
    18de:	ef 92       	push	r14
    18e0:	ff 92       	push	r15
    18e2:	0f 93       	push	r16
    18e4:	1f 93       	push	r17
    18e6:	cf 93       	push	r28
    18e8:	df 93       	push	r29
    18ea:	cd b7       	in	r28, 0x3d	; 61
    18ec:	de b7       	in	r29, 0x3e	; 62
    18ee:	2c 97       	sbiw	r28, 0x0c	; 12
    18f0:	0f b6       	in	r0, 0x3f	; 63
    18f2:	f8 94       	cli
    18f4:	de bf       	out	0x3e, r29	; 62
    18f6:	0f be       	out	0x3f, r0	; 63
    18f8:	cd bf       	out	0x3d, r28	; 61
    18fa:	7c 01       	movw	r14, r24
    18fc:	6b 01       	movw	r12, r22
    18fe:	8a 01       	movw	r16, r20
    1900:	fc 01       	movw	r30, r24
    1902:	17 82       	std	Z+7, r1	; 0x07
    1904:	16 82       	std	Z+6, r1	; 0x06
    1906:	83 81       	ldd	r24, Z+3	; 0x03
    1908:	81 ff       	sbrs	r24, 1
    190a:	bd c1       	rjmp	.+890    	; 0x1c86 <vfprintf+0x3c0>
    190c:	ce 01       	movw	r24, r28
    190e:	01 96       	adiw	r24, 0x01	; 1
    1910:	4c 01       	movw	r8, r24
    1912:	f7 01       	movw	r30, r14
    1914:	93 81       	ldd	r25, Z+3	; 0x03
    1916:	f6 01       	movw	r30, r12
    1918:	93 fd       	sbrc	r25, 3
    191a:	85 91       	lpm	r24, Z+
    191c:	93 ff       	sbrs	r25, 3
    191e:	81 91       	ld	r24, Z+
    1920:	6f 01       	movw	r12, r30
    1922:	88 23       	and	r24, r24
    1924:	09 f4       	brne	.+2      	; 0x1928 <vfprintf+0x62>
    1926:	ab c1       	rjmp	.+854    	; 0x1c7e <vfprintf+0x3b8>
    1928:	85 32       	cpi	r24, 0x25	; 37
    192a:	39 f4       	brne	.+14     	; 0x193a <vfprintf+0x74>
    192c:	93 fd       	sbrc	r25, 3
    192e:	85 91       	lpm	r24, Z+
    1930:	93 ff       	sbrs	r25, 3
    1932:	81 91       	ld	r24, Z+
    1934:	6f 01       	movw	r12, r30
    1936:	85 32       	cpi	r24, 0x25	; 37
    1938:	29 f4       	brne	.+10     	; 0x1944 <vfprintf+0x7e>
    193a:	b7 01       	movw	r22, r14
    193c:	90 e0       	ldi	r25, 0x00	; 0
    193e:	0e 94 74 0e 	call	0x1ce8	; 0x1ce8 <fputc>
    1942:	e7 cf       	rjmp	.-50     	; 0x1912 <vfprintf+0x4c>
    1944:	51 2c       	mov	r5, r1
    1946:	31 2c       	mov	r3, r1
    1948:	20 e0       	ldi	r18, 0x00	; 0
    194a:	20 32       	cpi	r18, 0x20	; 32
    194c:	a0 f4       	brcc	.+40     	; 0x1976 <vfprintf+0xb0>
    194e:	8b 32       	cpi	r24, 0x2B	; 43
    1950:	69 f0       	breq	.+26     	; 0x196c <vfprintf+0xa6>
    1952:	30 f4       	brcc	.+12     	; 0x1960 <vfprintf+0x9a>
    1954:	80 32       	cpi	r24, 0x20	; 32
    1956:	59 f0       	breq	.+22     	; 0x196e <vfprintf+0xa8>
    1958:	83 32       	cpi	r24, 0x23	; 35
    195a:	69 f4       	brne	.+26     	; 0x1976 <vfprintf+0xb0>
    195c:	20 61       	ori	r18, 0x10	; 16
    195e:	2c c0       	rjmp	.+88     	; 0x19b8 <vfprintf+0xf2>
    1960:	8d 32       	cpi	r24, 0x2D	; 45
    1962:	39 f0       	breq	.+14     	; 0x1972 <vfprintf+0xac>
    1964:	80 33       	cpi	r24, 0x30	; 48
    1966:	39 f4       	brne	.+14     	; 0x1976 <vfprintf+0xb0>
    1968:	21 60       	ori	r18, 0x01	; 1
    196a:	26 c0       	rjmp	.+76     	; 0x19b8 <vfprintf+0xf2>
    196c:	22 60       	ori	r18, 0x02	; 2
    196e:	24 60       	ori	r18, 0x04	; 4
    1970:	23 c0       	rjmp	.+70     	; 0x19b8 <vfprintf+0xf2>
    1972:	28 60       	ori	r18, 0x08	; 8
    1974:	21 c0       	rjmp	.+66     	; 0x19b8 <vfprintf+0xf2>
    1976:	27 fd       	sbrc	r18, 7
    1978:	27 c0       	rjmp	.+78     	; 0x19c8 <vfprintf+0x102>
    197a:	30 ed       	ldi	r19, 0xD0	; 208
    197c:	38 0f       	add	r19, r24
    197e:	3a 30       	cpi	r19, 0x0A	; 10
    1980:	78 f4       	brcc	.+30     	; 0x19a0 <vfprintf+0xda>
    1982:	26 ff       	sbrs	r18, 6
    1984:	06 c0       	rjmp	.+12     	; 0x1992 <vfprintf+0xcc>
    1986:	fa e0       	ldi	r31, 0x0A	; 10
    1988:	5f 9e       	mul	r5, r31
    198a:	30 0d       	add	r19, r0
    198c:	11 24       	eor	r1, r1
    198e:	53 2e       	mov	r5, r19
    1990:	13 c0       	rjmp	.+38     	; 0x19b8 <vfprintf+0xf2>
    1992:	8a e0       	ldi	r24, 0x0A	; 10
    1994:	38 9e       	mul	r3, r24
    1996:	30 0d       	add	r19, r0
    1998:	11 24       	eor	r1, r1
    199a:	33 2e       	mov	r3, r19
    199c:	20 62       	ori	r18, 0x20	; 32
    199e:	0c c0       	rjmp	.+24     	; 0x19b8 <vfprintf+0xf2>
    19a0:	8e 32       	cpi	r24, 0x2E	; 46
    19a2:	21 f4       	brne	.+8      	; 0x19ac <vfprintf+0xe6>
    19a4:	26 fd       	sbrc	r18, 6
    19a6:	6b c1       	rjmp	.+726    	; 0x1c7e <vfprintf+0x3b8>
    19a8:	20 64       	ori	r18, 0x40	; 64
    19aa:	06 c0       	rjmp	.+12     	; 0x19b8 <vfprintf+0xf2>
    19ac:	8c 36       	cpi	r24, 0x6C	; 108
    19ae:	11 f4       	brne	.+4      	; 0x19b4 <vfprintf+0xee>
    19b0:	20 68       	ori	r18, 0x80	; 128
    19b2:	02 c0       	rjmp	.+4      	; 0x19b8 <vfprintf+0xf2>
    19b4:	88 36       	cpi	r24, 0x68	; 104
    19b6:	41 f4       	brne	.+16     	; 0x19c8 <vfprintf+0x102>
    19b8:	f6 01       	movw	r30, r12
    19ba:	93 fd       	sbrc	r25, 3
    19bc:	85 91       	lpm	r24, Z+
    19be:	93 ff       	sbrs	r25, 3
    19c0:	81 91       	ld	r24, Z+
    19c2:	6f 01       	movw	r12, r30
    19c4:	81 11       	cpse	r24, r1
    19c6:	c1 cf       	rjmp	.-126    	; 0x194a <vfprintf+0x84>
    19c8:	98 2f       	mov	r25, r24
    19ca:	9f 7d       	andi	r25, 0xDF	; 223
    19cc:	95 54       	subi	r25, 0x45	; 69
    19ce:	93 30       	cpi	r25, 0x03	; 3
    19d0:	28 f4       	brcc	.+10     	; 0x19dc <vfprintf+0x116>
    19d2:	0c 5f       	subi	r16, 0xFC	; 252
    19d4:	1f 4f       	sbci	r17, 0xFF	; 255
    19d6:	ff e3       	ldi	r31, 0x3F	; 63
    19d8:	f9 83       	std	Y+1, r31	; 0x01
    19da:	0d c0       	rjmp	.+26     	; 0x19f6 <vfprintf+0x130>
    19dc:	83 36       	cpi	r24, 0x63	; 99
    19de:	31 f0       	breq	.+12     	; 0x19ec <vfprintf+0x126>
    19e0:	83 37       	cpi	r24, 0x73	; 115
    19e2:	71 f0       	breq	.+28     	; 0x1a00 <vfprintf+0x13a>
    19e4:	83 35       	cpi	r24, 0x53	; 83
    19e6:	09 f0       	breq	.+2      	; 0x19ea <vfprintf+0x124>
    19e8:	5b c0       	rjmp	.+182    	; 0x1aa0 <vfprintf+0x1da>
    19ea:	22 c0       	rjmp	.+68     	; 0x1a30 <vfprintf+0x16a>
    19ec:	f8 01       	movw	r30, r16
    19ee:	80 81       	ld	r24, Z
    19f0:	89 83       	std	Y+1, r24	; 0x01
    19f2:	0e 5f       	subi	r16, 0xFE	; 254
    19f4:	1f 4f       	sbci	r17, 0xFF	; 255
    19f6:	44 24       	eor	r4, r4
    19f8:	43 94       	inc	r4
    19fa:	51 2c       	mov	r5, r1
    19fc:	54 01       	movw	r10, r8
    19fe:	15 c0       	rjmp	.+42     	; 0x1a2a <vfprintf+0x164>
    1a00:	38 01       	movw	r6, r16
    1a02:	f2 e0       	ldi	r31, 0x02	; 2
    1a04:	6f 0e       	add	r6, r31
    1a06:	71 1c       	adc	r7, r1
    1a08:	f8 01       	movw	r30, r16
    1a0a:	a0 80       	ld	r10, Z
    1a0c:	b1 80       	ldd	r11, Z+1	; 0x01
    1a0e:	26 ff       	sbrs	r18, 6
    1a10:	03 c0       	rjmp	.+6      	; 0x1a18 <vfprintf+0x152>
    1a12:	65 2d       	mov	r22, r5
    1a14:	70 e0       	ldi	r23, 0x00	; 0
    1a16:	02 c0       	rjmp	.+4      	; 0x1a1c <vfprintf+0x156>
    1a18:	6f ef       	ldi	r22, 0xFF	; 255
    1a1a:	7f ef       	ldi	r23, 0xFF	; 255
    1a1c:	c5 01       	movw	r24, r10
    1a1e:	2c 87       	std	Y+12, r18	; 0x0c
    1a20:	0e 94 69 0e 	call	0x1cd2	; 0x1cd2 <strnlen>
    1a24:	2c 01       	movw	r4, r24
    1a26:	83 01       	movw	r16, r6
    1a28:	2c 85       	ldd	r18, Y+12	; 0x0c
    1a2a:	2f 77       	andi	r18, 0x7F	; 127
    1a2c:	22 2e       	mov	r2, r18
    1a2e:	17 c0       	rjmp	.+46     	; 0x1a5e <vfprintf+0x198>
    1a30:	38 01       	movw	r6, r16
    1a32:	f2 e0       	ldi	r31, 0x02	; 2
    1a34:	6f 0e       	add	r6, r31
    1a36:	71 1c       	adc	r7, r1
    1a38:	f8 01       	movw	r30, r16
    1a3a:	a0 80       	ld	r10, Z
    1a3c:	b1 80       	ldd	r11, Z+1	; 0x01
    1a3e:	26 ff       	sbrs	r18, 6
    1a40:	03 c0       	rjmp	.+6      	; 0x1a48 <vfprintf+0x182>
    1a42:	65 2d       	mov	r22, r5
    1a44:	70 e0       	ldi	r23, 0x00	; 0
    1a46:	02 c0       	rjmp	.+4      	; 0x1a4c <vfprintf+0x186>
    1a48:	6f ef       	ldi	r22, 0xFF	; 255
    1a4a:	7f ef       	ldi	r23, 0xFF	; 255
    1a4c:	c5 01       	movw	r24, r10
    1a4e:	2c 87       	std	Y+12, r18	; 0x0c
    1a50:	0e 94 5e 0e 	call	0x1cbc	; 0x1cbc <strnlen_P>
    1a54:	2c 01       	movw	r4, r24
    1a56:	2c 85       	ldd	r18, Y+12	; 0x0c
    1a58:	20 68       	ori	r18, 0x80	; 128
    1a5a:	22 2e       	mov	r2, r18
    1a5c:	83 01       	movw	r16, r6
    1a5e:	23 fc       	sbrc	r2, 3
    1a60:	1b c0       	rjmp	.+54     	; 0x1a98 <vfprintf+0x1d2>
    1a62:	83 2d       	mov	r24, r3
    1a64:	90 e0       	ldi	r25, 0x00	; 0
    1a66:	48 16       	cp	r4, r24
    1a68:	59 06       	cpc	r5, r25
    1a6a:	b0 f4       	brcc	.+44     	; 0x1a98 <vfprintf+0x1d2>
    1a6c:	b7 01       	movw	r22, r14
    1a6e:	80 e2       	ldi	r24, 0x20	; 32
    1a70:	90 e0       	ldi	r25, 0x00	; 0
    1a72:	0e 94 74 0e 	call	0x1ce8	; 0x1ce8 <fputc>
    1a76:	3a 94       	dec	r3
    1a78:	f4 cf       	rjmp	.-24     	; 0x1a62 <vfprintf+0x19c>
    1a7a:	f5 01       	movw	r30, r10
    1a7c:	27 fc       	sbrc	r2, 7
    1a7e:	85 91       	lpm	r24, Z+
    1a80:	27 fe       	sbrs	r2, 7
    1a82:	81 91       	ld	r24, Z+
    1a84:	5f 01       	movw	r10, r30
    1a86:	b7 01       	movw	r22, r14
    1a88:	90 e0       	ldi	r25, 0x00	; 0
    1a8a:	0e 94 74 0e 	call	0x1ce8	; 0x1ce8 <fputc>
    1a8e:	31 10       	cpse	r3, r1
    1a90:	3a 94       	dec	r3
    1a92:	f1 e0       	ldi	r31, 0x01	; 1
    1a94:	4f 1a       	sub	r4, r31
    1a96:	51 08       	sbc	r5, r1
    1a98:	41 14       	cp	r4, r1
    1a9a:	51 04       	cpc	r5, r1
    1a9c:	71 f7       	brne	.-36     	; 0x1a7a <vfprintf+0x1b4>
    1a9e:	e5 c0       	rjmp	.+458    	; 0x1c6a <vfprintf+0x3a4>
    1aa0:	84 36       	cpi	r24, 0x64	; 100
    1aa2:	11 f0       	breq	.+4      	; 0x1aa8 <vfprintf+0x1e2>
    1aa4:	89 36       	cpi	r24, 0x69	; 105
    1aa6:	39 f5       	brne	.+78     	; 0x1af6 <vfprintf+0x230>
    1aa8:	f8 01       	movw	r30, r16
    1aaa:	27 ff       	sbrs	r18, 7
    1aac:	07 c0       	rjmp	.+14     	; 0x1abc <vfprintf+0x1f6>
    1aae:	60 81       	ld	r22, Z
    1ab0:	71 81       	ldd	r23, Z+1	; 0x01
    1ab2:	82 81       	ldd	r24, Z+2	; 0x02
    1ab4:	93 81       	ldd	r25, Z+3	; 0x03
    1ab6:	0c 5f       	subi	r16, 0xFC	; 252
    1ab8:	1f 4f       	sbci	r17, 0xFF	; 255
    1aba:	08 c0       	rjmp	.+16     	; 0x1acc <vfprintf+0x206>
    1abc:	60 81       	ld	r22, Z
    1abe:	71 81       	ldd	r23, Z+1	; 0x01
    1ac0:	88 27       	eor	r24, r24
    1ac2:	77 fd       	sbrc	r23, 7
    1ac4:	80 95       	com	r24
    1ac6:	98 2f       	mov	r25, r24
    1ac8:	0e 5f       	subi	r16, 0xFE	; 254
    1aca:	1f 4f       	sbci	r17, 0xFF	; 255
    1acc:	2f 76       	andi	r18, 0x6F	; 111
    1ace:	72 2e       	mov	r7, r18
    1ad0:	97 ff       	sbrs	r25, 7
    1ad2:	09 c0       	rjmp	.+18     	; 0x1ae6 <vfprintf+0x220>
    1ad4:	90 95       	com	r25
    1ad6:	80 95       	com	r24
    1ad8:	70 95       	com	r23
    1ada:	61 95       	neg	r22
    1adc:	7f 4f       	sbci	r23, 0xFF	; 255
    1ade:	8f 4f       	sbci	r24, 0xFF	; 255
    1ae0:	9f 4f       	sbci	r25, 0xFF	; 255
    1ae2:	20 68       	ori	r18, 0x80	; 128
    1ae4:	72 2e       	mov	r7, r18
    1ae6:	2a e0       	ldi	r18, 0x0A	; 10
    1ae8:	30 e0       	ldi	r19, 0x00	; 0
    1aea:	a4 01       	movw	r20, r8
    1aec:	0e 94 ac 0e 	call	0x1d58	; 0x1d58 <__ultoa_invert>
    1af0:	a8 2e       	mov	r10, r24
    1af2:	a8 18       	sub	r10, r8
    1af4:	44 c0       	rjmp	.+136    	; 0x1b7e <vfprintf+0x2b8>
    1af6:	85 37       	cpi	r24, 0x75	; 117
    1af8:	29 f4       	brne	.+10     	; 0x1b04 <vfprintf+0x23e>
    1afa:	2f 7e       	andi	r18, 0xEF	; 239
    1afc:	b2 2e       	mov	r11, r18
    1afe:	2a e0       	ldi	r18, 0x0A	; 10
    1b00:	30 e0       	ldi	r19, 0x00	; 0
    1b02:	25 c0       	rjmp	.+74     	; 0x1b4e <vfprintf+0x288>
    1b04:	f2 2f       	mov	r31, r18
    1b06:	f9 7f       	andi	r31, 0xF9	; 249
    1b08:	bf 2e       	mov	r11, r31
    1b0a:	8f 36       	cpi	r24, 0x6F	; 111
    1b0c:	c1 f0       	breq	.+48     	; 0x1b3e <vfprintf+0x278>
    1b0e:	18 f4       	brcc	.+6      	; 0x1b16 <vfprintf+0x250>
    1b10:	88 35       	cpi	r24, 0x58	; 88
    1b12:	79 f0       	breq	.+30     	; 0x1b32 <vfprintf+0x26c>
    1b14:	b4 c0       	rjmp	.+360    	; 0x1c7e <vfprintf+0x3b8>
    1b16:	80 37       	cpi	r24, 0x70	; 112
    1b18:	19 f0       	breq	.+6      	; 0x1b20 <vfprintf+0x25a>
    1b1a:	88 37       	cpi	r24, 0x78	; 120
    1b1c:	21 f0       	breq	.+8      	; 0x1b26 <vfprintf+0x260>
    1b1e:	af c0       	rjmp	.+350    	; 0x1c7e <vfprintf+0x3b8>
    1b20:	2f 2f       	mov	r18, r31
    1b22:	20 61       	ori	r18, 0x10	; 16
    1b24:	b2 2e       	mov	r11, r18
    1b26:	b4 fe       	sbrs	r11, 4
    1b28:	0d c0       	rjmp	.+26     	; 0x1b44 <vfprintf+0x27e>
    1b2a:	8b 2d       	mov	r24, r11
    1b2c:	84 60       	ori	r24, 0x04	; 4
    1b2e:	b8 2e       	mov	r11, r24
    1b30:	09 c0       	rjmp	.+18     	; 0x1b44 <vfprintf+0x27e>
    1b32:	24 ff       	sbrs	r18, 4
    1b34:	0a c0       	rjmp	.+20     	; 0x1b4a <vfprintf+0x284>
    1b36:	9f 2f       	mov	r25, r31
    1b38:	96 60       	ori	r25, 0x06	; 6
    1b3a:	b9 2e       	mov	r11, r25
    1b3c:	06 c0       	rjmp	.+12     	; 0x1b4a <vfprintf+0x284>
    1b3e:	28 e0       	ldi	r18, 0x08	; 8
    1b40:	30 e0       	ldi	r19, 0x00	; 0
    1b42:	05 c0       	rjmp	.+10     	; 0x1b4e <vfprintf+0x288>
    1b44:	20 e1       	ldi	r18, 0x10	; 16
    1b46:	30 e0       	ldi	r19, 0x00	; 0
    1b48:	02 c0       	rjmp	.+4      	; 0x1b4e <vfprintf+0x288>
    1b4a:	20 e1       	ldi	r18, 0x10	; 16
    1b4c:	32 e0       	ldi	r19, 0x02	; 2
    1b4e:	f8 01       	movw	r30, r16
    1b50:	b7 fe       	sbrs	r11, 7
    1b52:	07 c0       	rjmp	.+14     	; 0x1b62 <vfprintf+0x29c>
    1b54:	60 81       	ld	r22, Z
    1b56:	71 81       	ldd	r23, Z+1	; 0x01
    1b58:	82 81       	ldd	r24, Z+2	; 0x02
    1b5a:	93 81       	ldd	r25, Z+3	; 0x03
    1b5c:	0c 5f       	subi	r16, 0xFC	; 252
    1b5e:	1f 4f       	sbci	r17, 0xFF	; 255
    1b60:	06 c0       	rjmp	.+12     	; 0x1b6e <vfprintf+0x2a8>
    1b62:	60 81       	ld	r22, Z
    1b64:	71 81       	ldd	r23, Z+1	; 0x01
    1b66:	80 e0       	ldi	r24, 0x00	; 0
    1b68:	90 e0       	ldi	r25, 0x00	; 0
    1b6a:	0e 5f       	subi	r16, 0xFE	; 254
    1b6c:	1f 4f       	sbci	r17, 0xFF	; 255
    1b6e:	a4 01       	movw	r20, r8
    1b70:	0e 94 ac 0e 	call	0x1d58	; 0x1d58 <__ultoa_invert>
    1b74:	a8 2e       	mov	r10, r24
    1b76:	a8 18       	sub	r10, r8
    1b78:	fb 2d       	mov	r31, r11
    1b7a:	ff 77       	andi	r31, 0x7F	; 127
    1b7c:	7f 2e       	mov	r7, r31
    1b7e:	76 fe       	sbrs	r7, 6
    1b80:	0b c0       	rjmp	.+22     	; 0x1b98 <vfprintf+0x2d2>
    1b82:	37 2d       	mov	r19, r7
    1b84:	3e 7f       	andi	r19, 0xFE	; 254
    1b86:	a5 14       	cp	r10, r5
    1b88:	50 f4       	brcc	.+20     	; 0x1b9e <vfprintf+0x2d8>
    1b8a:	74 fe       	sbrs	r7, 4
    1b8c:	0a c0       	rjmp	.+20     	; 0x1ba2 <vfprintf+0x2dc>
    1b8e:	72 fc       	sbrc	r7, 2
    1b90:	08 c0       	rjmp	.+16     	; 0x1ba2 <vfprintf+0x2dc>
    1b92:	37 2d       	mov	r19, r7
    1b94:	3e 7e       	andi	r19, 0xEE	; 238
    1b96:	05 c0       	rjmp	.+10     	; 0x1ba2 <vfprintf+0x2dc>
    1b98:	ba 2c       	mov	r11, r10
    1b9a:	37 2d       	mov	r19, r7
    1b9c:	03 c0       	rjmp	.+6      	; 0x1ba4 <vfprintf+0x2de>
    1b9e:	ba 2c       	mov	r11, r10
    1ba0:	01 c0       	rjmp	.+2      	; 0x1ba4 <vfprintf+0x2de>
    1ba2:	b5 2c       	mov	r11, r5
    1ba4:	34 ff       	sbrs	r19, 4
    1ba6:	0d c0       	rjmp	.+26     	; 0x1bc2 <vfprintf+0x2fc>
    1ba8:	fe 01       	movw	r30, r28
    1baa:	ea 0d       	add	r30, r10
    1bac:	f1 1d       	adc	r31, r1
    1bae:	80 81       	ld	r24, Z
    1bb0:	80 33       	cpi	r24, 0x30	; 48
    1bb2:	11 f4       	brne	.+4      	; 0x1bb8 <vfprintf+0x2f2>
    1bb4:	39 7e       	andi	r19, 0xE9	; 233
    1bb6:	09 c0       	rjmp	.+18     	; 0x1bca <vfprintf+0x304>
    1bb8:	32 ff       	sbrs	r19, 2
    1bba:	06 c0       	rjmp	.+12     	; 0x1bc8 <vfprintf+0x302>
    1bbc:	b3 94       	inc	r11
    1bbe:	b3 94       	inc	r11
    1bc0:	04 c0       	rjmp	.+8      	; 0x1bca <vfprintf+0x304>
    1bc2:	83 2f       	mov	r24, r19
    1bc4:	86 78       	andi	r24, 0x86	; 134
    1bc6:	09 f0       	breq	.+2      	; 0x1bca <vfprintf+0x304>
    1bc8:	b3 94       	inc	r11
    1bca:	33 fd       	sbrc	r19, 3
    1bcc:	13 c0       	rjmp	.+38     	; 0x1bf4 <vfprintf+0x32e>
    1bce:	30 ff       	sbrs	r19, 0
    1bd0:	06 c0       	rjmp	.+12     	; 0x1bde <vfprintf+0x318>
    1bd2:	5a 2c       	mov	r5, r10
    1bd4:	b3 14       	cp	r11, r3
    1bd6:	18 f4       	brcc	.+6      	; 0x1bde <vfprintf+0x318>
    1bd8:	53 0c       	add	r5, r3
    1bda:	5b 18       	sub	r5, r11
    1bdc:	b3 2c       	mov	r11, r3
    1bde:	b3 14       	cp	r11, r3
    1be0:	68 f4       	brcc	.+26     	; 0x1bfc <vfprintf+0x336>
    1be2:	b7 01       	movw	r22, r14
    1be4:	80 e2       	ldi	r24, 0x20	; 32
    1be6:	90 e0       	ldi	r25, 0x00	; 0
    1be8:	3c 87       	std	Y+12, r19	; 0x0c
    1bea:	0e 94 74 0e 	call	0x1ce8	; 0x1ce8 <fputc>
    1bee:	b3 94       	inc	r11
    1bf0:	3c 85       	ldd	r19, Y+12	; 0x0c
    1bf2:	f5 cf       	rjmp	.-22     	; 0x1bde <vfprintf+0x318>
    1bf4:	b3 14       	cp	r11, r3
    1bf6:	10 f4       	brcc	.+4      	; 0x1bfc <vfprintf+0x336>
    1bf8:	3b 18       	sub	r3, r11
    1bfa:	01 c0       	rjmp	.+2      	; 0x1bfe <vfprintf+0x338>
    1bfc:	31 2c       	mov	r3, r1
    1bfe:	34 ff       	sbrs	r19, 4
    1c00:	12 c0       	rjmp	.+36     	; 0x1c26 <vfprintf+0x360>
    1c02:	b7 01       	movw	r22, r14
    1c04:	80 e3       	ldi	r24, 0x30	; 48
    1c06:	90 e0       	ldi	r25, 0x00	; 0
    1c08:	3c 87       	std	Y+12, r19	; 0x0c
    1c0a:	0e 94 74 0e 	call	0x1ce8	; 0x1ce8 <fputc>
    1c0e:	3c 85       	ldd	r19, Y+12	; 0x0c
    1c10:	32 ff       	sbrs	r19, 2
    1c12:	17 c0       	rjmp	.+46     	; 0x1c42 <vfprintf+0x37c>
    1c14:	31 fd       	sbrc	r19, 1
    1c16:	03 c0       	rjmp	.+6      	; 0x1c1e <vfprintf+0x358>
    1c18:	88 e7       	ldi	r24, 0x78	; 120
    1c1a:	90 e0       	ldi	r25, 0x00	; 0
    1c1c:	02 c0       	rjmp	.+4      	; 0x1c22 <vfprintf+0x35c>
    1c1e:	88 e5       	ldi	r24, 0x58	; 88
    1c20:	90 e0       	ldi	r25, 0x00	; 0
    1c22:	b7 01       	movw	r22, r14
    1c24:	0c c0       	rjmp	.+24     	; 0x1c3e <vfprintf+0x378>
    1c26:	83 2f       	mov	r24, r19
    1c28:	86 78       	andi	r24, 0x86	; 134
    1c2a:	59 f0       	breq	.+22     	; 0x1c42 <vfprintf+0x37c>
    1c2c:	31 ff       	sbrs	r19, 1
    1c2e:	02 c0       	rjmp	.+4      	; 0x1c34 <vfprintf+0x36e>
    1c30:	8b e2       	ldi	r24, 0x2B	; 43
    1c32:	01 c0       	rjmp	.+2      	; 0x1c36 <vfprintf+0x370>
    1c34:	80 e2       	ldi	r24, 0x20	; 32
    1c36:	37 fd       	sbrc	r19, 7
    1c38:	8d e2       	ldi	r24, 0x2D	; 45
    1c3a:	b7 01       	movw	r22, r14
    1c3c:	90 e0       	ldi	r25, 0x00	; 0
    1c3e:	0e 94 74 0e 	call	0x1ce8	; 0x1ce8 <fputc>
    1c42:	a5 14       	cp	r10, r5
    1c44:	38 f4       	brcc	.+14     	; 0x1c54 <vfprintf+0x38e>
    1c46:	b7 01       	movw	r22, r14
    1c48:	80 e3       	ldi	r24, 0x30	; 48
    1c4a:	90 e0       	ldi	r25, 0x00	; 0
    1c4c:	0e 94 74 0e 	call	0x1ce8	; 0x1ce8 <fputc>
    1c50:	5a 94       	dec	r5
    1c52:	f7 cf       	rjmp	.-18     	; 0x1c42 <vfprintf+0x37c>
    1c54:	aa 94       	dec	r10
    1c56:	f4 01       	movw	r30, r8
    1c58:	ea 0d       	add	r30, r10
    1c5a:	f1 1d       	adc	r31, r1
    1c5c:	80 81       	ld	r24, Z
    1c5e:	b7 01       	movw	r22, r14
    1c60:	90 e0       	ldi	r25, 0x00	; 0
    1c62:	0e 94 74 0e 	call	0x1ce8	; 0x1ce8 <fputc>
    1c66:	a1 10       	cpse	r10, r1
    1c68:	f5 cf       	rjmp	.-22     	; 0x1c54 <vfprintf+0x38e>
    1c6a:	33 20       	and	r3, r3
    1c6c:	09 f4       	brne	.+2      	; 0x1c70 <vfprintf+0x3aa>
    1c6e:	51 ce       	rjmp	.-862    	; 0x1912 <vfprintf+0x4c>
    1c70:	b7 01       	movw	r22, r14
    1c72:	80 e2       	ldi	r24, 0x20	; 32
    1c74:	90 e0       	ldi	r25, 0x00	; 0
    1c76:	0e 94 74 0e 	call	0x1ce8	; 0x1ce8 <fputc>
    1c7a:	3a 94       	dec	r3
    1c7c:	f6 cf       	rjmp	.-20     	; 0x1c6a <vfprintf+0x3a4>
    1c7e:	f7 01       	movw	r30, r14
    1c80:	86 81       	ldd	r24, Z+6	; 0x06
    1c82:	97 81       	ldd	r25, Z+7	; 0x07
    1c84:	02 c0       	rjmp	.+4      	; 0x1c8a <vfprintf+0x3c4>
    1c86:	8f ef       	ldi	r24, 0xFF	; 255
    1c88:	9f ef       	ldi	r25, 0xFF	; 255
    1c8a:	2c 96       	adiw	r28, 0x0c	; 12
    1c8c:	0f b6       	in	r0, 0x3f	; 63
    1c8e:	f8 94       	cli
    1c90:	de bf       	out	0x3e, r29	; 62
    1c92:	0f be       	out	0x3f, r0	; 63
    1c94:	cd bf       	out	0x3d, r28	; 61
    1c96:	df 91       	pop	r29
    1c98:	cf 91       	pop	r28
    1c9a:	1f 91       	pop	r17
    1c9c:	0f 91       	pop	r16
    1c9e:	ff 90       	pop	r15
    1ca0:	ef 90       	pop	r14
    1ca2:	df 90       	pop	r13
    1ca4:	cf 90       	pop	r12
    1ca6:	bf 90       	pop	r11
    1ca8:	af 90       	pop	r10
    1caa:	9f 90       	pop	r9
    1cac:	8f 90       	pop	r8
    1cae:	7f 90       	pop	r7
    1cb0:	6f 90       	pop	r6
    1cb2:	5f 90       	pop	r5
    1cb4:	4f 90       	pop	r4
    1cb6:	3f 90       	pop	r3
    1cb8:	2f 90       	pop	r2
    1cba:	08 95       	ret

00001cbc <strnlen_P>:
    1cbc:	fc 01       	movw	r30, r24
    1cbe:	05 90       	lpm	r0, Z+
    1cc0:	61 50       	subi	r22, 0x01	; 1
    1cc2:	70 40       	sbci	r23, 0x00	; 0
    1cc4:	01 10       	cpse	r0, r1
    1cc6:	d8 f7       	brcc	.-10     	; 0x1cbe <strnlen_P+0x2>
    1cc8:	80 95       	com	r24
    1cca:	90 95       	com	r25
    1ccc:	8e 0f       	add	r24, r30
    1cce:	9f 1f       	adc	r25, r31
    1cd0:	08 95       	ret

00001cd2 <strnlen>:
    1cd2:	fc 01       	movw	r30, r24
    1cd4:	61 50       	subi	r22, 0x01	; 1
    1cd6:	70 40       	sbci	r23, 0x00	; 0
    1cd8:	01 90       	ld	r0, Z+
    1cda:	01 10       	cpse	r0, r1
    1cdc:	d8 f7       	brcc	.-10     	; 0x1cd4 <strnlen+0x2>
    1cde:	80 95       	com	r24
    1ce0:	90 95       	com	r25
    1ce2:	8e 0f       	add	r24, r30
    1ce4:	9f 1f       	adc	r25, r31
    1ce6:	08 95       	ret

00001ce8 <fputc>:
    1ce8:	0f 93       	push	r16
    1cea:	1f 93       	push	r17
    1cec:	cf 93       	push	r28
    1cee:	df 93       	push	r29
    1cf0:	fb 01       	movw	r30, r22
    1cf2:	23 81       	ldd	r18, Z+3	; 0x03
    1cf4:	21 fd       	sbrc	r18, 1
    1cf6:	03 c0       	rjmp	.+6      	; 0x1cfe <fputc+0x16>
    1cf8:	8f ef       	ldi	r24, 0xFF	; 255
    1cfa:	9f ef       	ldi	r25, 0xFF	; 255
    1cfc:	28 c0       	rjmp	.+80     	; 0x1d4e <fputc+0x66>
    1cfe:	22 ff       	sbrs	r18, 2
    1d00:	16 c0       	rjmp	.+44     	; 0x1d2e <fputc+0x46>
    1d02:	46 81       	ldd	r20, Z+6	; 0x06
    1d04:	57 81       	ldd	r21, Z+7	; 0x07
    1d06:	24 81       	ldd	r18, Z+4	; 0x04
    1d08:	35 81       	ldd	r19, Z+5	; 0x05
    1d0a:	42 17       	cp	r20, r18
    1d0c:	53 07       	cpc	r21, r19
    1d0e:	44 f4       	brge	.+16     	; 0x1d20 <fputc+0x38>
    1d10:	a0 81       	ld	r26, Z
    1d12:	b1 81       	ldd	r27, Z+1	; 0x01
    1d14:	9d 01       	movw	r18, r26
    1d16:	2f 5f       	subi	r18, 0xFF	; 255
    1d18:	3f 4f       	sbci	r19, 0xFF	; 255
    1d1a:	31 83       	std	Z+1, r19	; 0x01
    1d1c:	20 83       	st	Z, r18
    1d1e:	8c 93       	st	X, r24
    1d20:	26 81       	ldd	r18, Z+6	; 0x06
    1d22:	37 81       	ldd	r19, Z+7	; 0x07
    1d24:	2f 5f       	subi	r18, 0xFF	; 255
    1d26:	3f 4f       	sbci	r19, 0xFF	; 255
    1d28:	37 83       	std	Z+7, r19	; 0x07
    1d2a:	26 83       	std	Z+6, r18	; 0x06
    1d2c:	10 c0       	rjmp	.+32     	; 0x1d4e <fputc+0x66>
    1d2e:	eb 01       	movw	r28, r22
    1d30:	09 2f       	mov	r16, r25
    1d32:	18 2f       	mov	r17, r24
    1d34:	00 84       	ldd	r0, Z+8	; 0x08
    1d36:	f1 85       	ldd	r31, Z+9	; 0x09
    1d38:	e0 2d       	mov	r30, r0
    1d3a:	09 95       	icall
    1d3c:	89 2b       	or	r24, r25
    1d3e:	e1 f6       	brne	.-72     	; 0x1cf8 <fputc+0x10>
    1d40:	8e 81       	ldd	r24, Y+6	; 0x06
    1d42:	9f 81       	ldd	r25, Y+7	; 0x07
    1d44:	01 96       	adiw	r24, 0x01	; 1
    1d46:	9f 83       	std	Y+7, r25	; 0x07
    1d48:	8e 83       	std	Y+6, r24	; 0x06
    1d4a:	81 2f       	mov	r24, r17
    1d4c:	90 2f       	mov	r25, r16
    1d4e:	df 91       	pop	r29
    1d50:	cf 91       	pop	r28
    1d52:	1f 91       	pop	r17
    1d54:	0f 91       	pop	r16
    1d56:	08 95       	ret

00001d58 <__ultoa_invert>:
    1d58:	fa 01       	movw	r30, r20
    1d5a:	aa 27       	eor	r26, r26
    1d5c:	28 30       	cpi	r18, 0x08	; 8
    1d5e:	51 f1       	breq	.+84     	; 0x1db4 <__ultoa_invert+0x5c>
    1d60:	20 31       	cpi	r18, 0x10	; 16
    1d62:	81 f1       	breq	.+96     	; 0x1dc4 <__ultoa_invert+0x6c>
    1d64:	e8 94       	clt
    1d66:	6f 93       	push	r22
    1d68:	6e 7f       	andi	r22, 0xFE	; 254
    1d6a:	6e 5f       	subi	r22, 0xFE	; 254
    1d6c:	7f 4f       	sbci	r23, 0xFF	; 255
    1d6e:	8f 4f       	sbci	r24, 0xFF	; 255
    1d70:	9f 4f       	sbci	r25, 0xFF	; 255
    1d72:	af 4f       	sbci	r26, 0xFF	; 255
    1d74:	b1 e0       	ldi	r27, 0x01	; 1
    1d76:	3e d0       	rcall	.+124    	; 0x1df4 <__ultoa_invert+0x9c>
    1d78:	b4 e0       	ldi	r27, 0x04	; 4
    1d7a:	3c d0       	rcall	.+120    	; 0x1df4 <__ultoa_invert+0x9c>
    1d7c:	67 0f       	add	r22, r23
    1d7e:	78 1f       	adc	r23, r24
    1d80:	89 1f       	adc	r24, r25
    1d82:	9a 1f       	adc	r25, r26
    1d84:	a1 1d       	adc	r26, r1
    1d86:	68 0f       	add	r22, r24
    1d88:	79 1f       	adc	r23, r25
    1d8a:	8a 1f       	adc	r24, r26
    1d8c:	91 1d       	adc	r25, r1
    1d8e:	a1 1d       	adc	r26, r1
    1d90:	6a 0f       	add	r22, r26
    1d92:	71 1d       	adc	r23, r1
    1d94:	81 1d       	adc	r24, r1
    1d96:	91 1d       	adc	r25, r1
    1d98:	a1 1d       	adc	r26, r1
    1d9a:	20 d0       	rcall	.+64     	; 0x1ddc <__ultoa_invert+0x84>
    1d9c:	09 f4       	brne	.+2      	; 0x1da0 <__ultoa_invert+0x48>
    1d9e:	68 94       	set
    1da0:	3f 91       	pop	r19
    1da2:	2a e0       	ldi	r18, 0x0A	; 10
    1da4:	26 9f       	mul	r18, r22
    1da6:	11 24       	eor	r1, r1
    1da8:	30 19       	sub	r19, r0
    1daa:	30 5d       	subi	r19, 0xD0	; 208
    1dac:	31 93       	st	Z+, r19
    1dae:	de f6       	brtc	.-74     	; 0x1d66 <__ultoa_invert+0xe>
    1db0:	cf 01       	movw	r24, r30
    1db2:	08 95       	ret
    1db4:	46 2f       	mov	r20, r22
    1db6:	47 70       	andi	r20, 0x07	; 7
    1db8:	40 5d       	subi	r20, 0xD0	; 208
    1dba:	41 93       	st	Z+, r20
    1dbc:	b3 e0       	ldi	r27, 0x03	; 3
    1dbe:	0f d0       	rcall	.+30     	; 0x1dde <__ultoa_invert+0x86>
    1dc0:	c9 f7       	brne	.-14     	; 0x1db4 <__ultoa_invert+0x5c>
    1dc2:	f6 cf       	rjmp	.-20     	; 0x1db0 <__ultoa_invert+0x58>
    1dc4:	46 2f       	mov	r20, r22
    1dc6:	4f 70       	andi	r20, 0x0F	; 15
    1dc8:	40 5d       	subi	r20, 0xD0	; 208
    1dca:	4a 33       	cpi	r20, 0x3A	; 58
    1dcc:	18 f0       	brcs	.+6      	; 0x1dd4 <__ultoa_invert+0x7c>
    1dce:	49 5d       	subi	r20, 0xD9	; 217
    1dd0:	31 fd       	sbrc	r19, 1
    1dd2:	40 52       	subi	r20, 0x20	; 32
    1dd4:	41 93       	st	Z+, r20
    1dd6:	02 d0       	rcall	.+4      	; 0x1ddc <__ultoa_invert+0x84>
    1dd8:	a9 f7       	brne	.-22     	; 0x1dc4 <__ultoa_invert+0x6c>
    1dda:	ea cf       	rjmp	.-44     	; 0x1db0 <__ultoa_invert+0x58>
    1ddc:	b4 e0       	ldi	r27, 0x04	; 4
    1dde:	a6 95       	lsr	r26
    1de0:	97 95       	ror	r25
    1de2:	87 95       	ror	r24
    1de4:	77 95       	ror	r23
    1de6:	67 95       	ror	r22
    1de8:	ba 95       	dec	r27
    1dea:	c9 f7       	brne	.-14     	; 0x1dde <__ultoa_invert+0x86>
    1dec:	00 97       	sbiw	r24, 0x00	; 0
    1dee:	61 05       	cpc	r22, r1
    1df0:	71 05       	cpc	r23, r1
    1df2:	08 95       	ret
    1df4:	9b 01       	movw	r18, r22
    1df6:	ac 01       	movw	r20, r24
    1df8:	0a 2e       	mov	r0, r26
    1dfa:	06 94       	lsr	r0
    1dfc:	57 95       	ror	r21
    1dfe:	47 95       	ror	r20
    1e00:	37 95       	ror	r19
    1e02:	27 95       	ror	r18
    1e04:	ba 95       	dec	r27
    1e06:	c9 f7       	brne	.-14     	; 0x1dfa <__ultoa_invert+0xa2>
    1e08:	62 0f       	add	r22, r18
    1e0a:	73 1f       	adc	r23, r19
    1e0c:	84 1f       	adc	r24, r20
    1e0e:	95 1f       	adc	r25, r21
    1e10:	a0 1d       	adc	r26, r0
    1e12:	08 95       	ret

00001e14 <_exit>:
    1e14:	f8 94       	cli

00001e16 <__stop_program>:
    1e16:	ff cf       	rjmp	.-2      	; 0x1e16 <__stop_program>
