
build/bigAVR6_1280/main.exe:     file format elf32-avr


Disassembly of section .text:

00000000 <__vectors>:
       0:	0c 94 09 02 	jmp	0x412	; 0x412 <__ctors_end>
       4:	0c 94 a2 1a 	jmp	0x3544	; 0x3544 <__vector_1>
       8:	0c 94 ac 1a 	jmp	0x3558	; 0x3558 <__vector_2>
       c:	0c 94 b6 1a 	jmp	0x356c	; 0x356c <__vector_3>
      10:	0c 94 df 1a 	jmp	0x35be	; 0x35be <__vector_4>
      14:	0c 94 1b 1b 	jmp	0x3636	; 0x3636 <__vector_5>
      18:	0c 94 25 1b 	jmp	0x364a	; 0x364a <__vector_6>
      1c:	0c 94 2f 1b 	jmp	0x365e	; 0x365e <__vector_7>
      20:	0c 94 39 1b 	jmp	0x3672	; 0x3672 <__vector_8>
      24:	0c 94 28 02 	jmp	0x450	; 0x450 <__bad_interrupt>
      28:	0c 94 28 02 	jmp	0x450	; 0x450 <__bad_interrupt>
      2c:	0c 94 c5 1b 	jmp	0x378a	; 0x378a <__vector_11>
      30:	0c 94 28 02 	jmp	0x450	; 0x450 <__bad_interrupt>
      34:	0c 94 b2 19 	jmp	0x3364	; 0x3364 <__vector_13>
      38:	0c 94 28 02 	jmp	0x450	; 0x450 <__bad_interrupt>
      3c:	0c 94 f1 19 	jmp	0x33e2	; 0x33e2 <__vector_15>
      40:	0c 94 28 02 	jmp	0x450	; 0x450 <__bad_interrupt>
      44:	0c 94 28 02 	jmp	0x450	; 0x450 <__bad_interrupt>
      48:	0c 94 28 02 	jmp	0x450	; 0x450 <__bad_interrupt>
      4c:	0c 94 28 02 	jmp	0x450	; 0x450 <__bad_interrupt>
      50:	0c 94 28 02 	jmp	0x450	; 0x450 <__bad_interrupt>
      54:	0c 94 28 02 	jmp	0x450	; 0x450 <__bad_interrupt>
      58:	0c 94 28 02 	jmp	0x450	; 0x450 <__bad_interrupt>
      5c:	0c 94 28 02 	jmp	0x450	; 0x450 <__bad_interrupt>
      60:	0c 94 fb 19 	jmp	0x33f6	; 0x33f6 <__vector_24>
      64:	0c 94 28 02 	jmp	0x450	; 0x450 <__bad_interrupt>
      68:	0c 94 28 02 	jmp	0x450	; 0x450 <__bad_interrupt>
      6c:	0c 94 28 02 	jmp	0x450	; 0x450 <__bad_interrupt>
      70:	0c 94 28 02 	jmp	0x450	; 0x450 <__bad_interrupt>
      74:	0c 94 73 1c 	jmp	0x38e6	; 0x38e6 <__vector_29>
      78:	0c 94 28 02 	jmp	0x450	; 0x450 <__bad_interrupt>
      7c:	0c 94 28 02 	jmp	0x450	; 0x450 <__bad_interrupt>
      80:	0c 94 28 02 	jmp	0x450	; 0x450 <__bad_interrupt>
      84:	0c 94 28 02 	jmp	0x450	; 0x450 <__bad_interrupt>
      88:	0c 94 28 02 	jmp	0x450	; 0x450 <__bad_interrupt>
      8c:	0c 94 28 02 	jmp	0x450	; 0x450 <__bad_interrupt>
      90:	0c 94 28 02 	jmp	0x450	; 0x450 <__bad_interrupt>
      94:	0c 94 28 02 	jmp	0x450	; 0x450 <__bad_interrupt>
      98:	0c 94 28 02 	jmp	0x450	; 0x450 <__bad_interrupt>
      9c:	0c 94 43 1b 	jmp	0x3686	; 0x3686 <__vector_39>
      a0:	0c 94 28 02 	jmp	0x450	; 0x450 <__bad_interrupt>
      a4:	0c 94 28 02 	jmp	0x450	; 0x450 <__bad_interrupt>
      a8:	0c 94 28 02 	jmp	0x450	; 0x450 <__bad_interrupt>
      ac:	0c 94 28 02 	jmp	0x450	; 0x450 <__bad_interrupt>
      b0:	0c 94 28 02 	jmp	0x450	; 0x450 <__bad_interrupt>
      b4:	0c 94 28 02 	jmp	0x450	; 0x450 <__bad_interrupt>
      b8:	0c 94 28 02 	jmp	0x450	; 0x450 <__bad_interrupt>
      bc:	0c 94 28 02 	jmp	0x450	; 0x450 <__bad_interrupt>
      c0:	0c 94 28 02 	jmp	0x450	; 0x450 <__bad_interrupt>
      c4:	0c 94 28 02 	jmp	0x450	; 0x450 <__bad_interrupt>
      c8:	0c 94 28 02 	jmp	0x450	; 0x450 <__bad_interrupt>
      cc:	0c 94 28 02 	jmp	0x450	; 0x450 <__bad_interrupt>
      d0:	0c 94 28 02 	jmp	0x450	; 0x450 <__bad_interrupt>
      d4:	0c 94 28 02 	jmp	0x450	; 0x450 <__bad_interrupt>
      d8:	0c 94 28 02 	jmp	0x450	; 0x450 <__bad_interrupt>
      dc:	0c 94 28 02 	jmp	0x450	; 0x450 <__bad_interrupt>
      e0:	0c 94 28 02 	jmp	0x450	; 0x450 <__bad_interrupt>
      e4:	8f 0a       	sbc	r8, r31
      e6:	04 0b       	sbc	r16, r20
      e8:	6a 0b       	sbc	r22, r26
      ea:	6c 0b       	sbc	r22, r28
      ec:	d6 0b       	sbc	r29, r22
      ee:	da 0b       	sbc	r29, r26
      f0:	27 0c       	add	r2, r7
      f2:	4f 0c       	add	r4, r15
      f4:	8c 0c       	add	r8, r12
      f6:	d1 0c       	add	r13, r1
      f8:	55 0d       	add	r21, r5
      fa:	7b 0d       	add	r23, r11
      fc:	c3 0d       	add	r28, r3
      fe:	32 0e       	add	r3, r18
     100:	5f 0e       	add	r5, r31
     102:	8b 0e       	add	r8, r27
     104:	b1 0e       	add	r11, r17
     106:	b8 0e       	add	r11, r24
     108:	cb 0e       	add	r12, r27
     10a:	a2 11       	cpse	r26, r2
     10c:	b0 11       	cpse	r27, r0
     10e:	83 12       	cpse	r8, r19
     110:	29 13       	cpse	r18, r25
     112:	fe 13       	cpse	r31, r30
     114:	f8 14       	cp	r15, r8
     116:	1b 15       	cp	r17, r11
     118:	29 15       	cp	r18, r9
     11a:	44 15       	cp	r20, r4

0000011c <McuSleepC__atm128PowerBits>:
     11c:	00 02 0e 06 0c 04                                   ......

00000122 <shifted>:
     122:	0d 09 0e 78 15 51 16 21 1a 59 1b 53 1c 41 1d 57     ...x.Q.!.Y.S.A.W
     132:	1e 22 21 43 22 58 23 44 24 45 25 78 26 23 29 20     ."!C"X#D$E%x&#) 
     142:	2a 56 2b 46 2c 54 2d 52 2e 25 31 4e 32 42 33 48     *V+F,T-R.%1N2B3H
     152:	34 47 35 5a 36 26 39 4c 3a 4d 3b 4a 3c 55 3d 2f     4G5Z6&9L:M;J<U=/
     162:	3e 28 41 3b 42 4b 43 49 44 4f 45 3d 46 29 49 3a     >(A;BKCIDOE=F)I:
     172:	4a 5f 4b 4c 4c 78 4d 50 4e 3f 52 78 54 78 55 60     J_KLLxMPN?RxTxU`
     182:	5a 0a 5b 5e 5d 2a 61 3e 66 08 69 31 6b 34 6c 37     Z.[^]*a>f.i1k4l7
     192:	70 30 71 2c 72 32 73 35 74 36 75 38 79 2b 7a 33     p0q,r2s5t6u8y+z3
     1a2:	7b 2d 7c 2a 7d 39 00 00                             {-|*}9..

000001aa <unshifted>:
     1aa:	0d 09 0e 7c 15 71 16 31 1a 79 1b 73 1c 61 1d 77     ...|.q.1.y.s.a.w
     1ba:	1e 32 21 63 22 78 23 64 24 65 25 34 26 33 29 20     .2!c"x#d$e%4&3) 
     1ca:	2a 76 2b 66 2c 74 2d 72 2e 35 31 6e 32 62 33 68     *v+f,t-r.51n2b3h
     1da:	34 67 35 7a 36 36 39 2c 3a 6d 3b 6a 3c 75 3d 37     4g5z669,:m;j<u=7
     1ea:	3e 38 41 2c 42 6b 43 69 44 6f 45 30 46 39 49 2e     >8A,BkCiDoE0F9I.
     1fa:	4a 2d 4b 6c 4c 6f 4d 70 4e 2b 52 6f 54 6f 55 5c     J-KlLoMpN+RoToU\
     20a:	5a 0a 5b 78 5d 27 61 3c 66 08 69 31 6b 34 6c 37     Z.[x]'a<f.i1k4l7
     21a:	70 30 71 2c 72 32 73 35 74 36 75 38 79 2b 7a 33     p0q,r2s5t6u8y+z3
     22a:	7b 2d 7c 2a 7d 39 00 00                             {-|*}9..

00000232 <Font5x7>:
     232:	00 00 00 00 00 00 00 5f 00 00 00 07 00 07 00 14     ......._........
     242:	7f 14 7f 14 24 2a 7f 2a 12 23 13 08 64 62 36 49     ....$*.*.#..db6I
     252:	55 22 50 00 05 03 00 00 00 1c 22 41 00 00 41 22     U"P......."A..A"
     262:	1c 00 08 2a 1c 2a 08 08 08 3e 08 08 00 50 30 00     ...*.*...>...P0.
     272:	00 08 08 08 08 08 00 60 60 00 00 20 10 08 04 02     .......``.. ....
     282:	3e 51 49 45 3e 00 42 7f 40 00 42 61 51 49 46 21     >QIE>.B.@.BaQIF!
     292:	41 45 4b 31 18 14 12 7f 10 27 45 45 45 39 3c 4a     AEK1.....'EEE9<J
     2a2:	49 49 30 01 71 09 05 03 36 49 49 49 36 06 49 49     II0.q...6III6.II
     2b2:	29 1e 00 36 36 00 00 00 56 36 00 00 00 08 14 22     )..66...V6....."
     2c2:	41 14 14 14 14 14 41 22 14 08 00 02 01 51 09 06     A.....A".....Q..
     2d2:	32 49 79 41 3e 7e 11 11 11 7e 7f 49 49 49 36 3e     2IyA>~...~.III6>
     2e2:	41 41 41 22 7f 41 41 22 1c 7f 49 49 49 41 7f 09     AAA".AA"..IIIA..
     2f2:	09 01 01 3e 41 41 51 32 7f 08 08 08 7f 00 41 7f     ...>AAQ2......A.
     302:	41 00 20 40 41 3f 01 7f 08 14 22 41 7f 40 40 40     A. @A?...."A.@@@
     312:	40 7f 02 04 02 7f 7f 04 08 10 7f 3e 41 41 41 3e     @..........>AAA>
     322:	7f 09 09 09 06 3e 41 51 21 5e 7f 09 19 29 46 46     .....>AQ!^...)FF
     332:	49 49 49 31 01 01 7f 01 01 3f 40 40 40 3f 1f 20     III1.....?@@@?. 
     342:	40 20 1f 7f 20 18 20 7f 63 14 08 14 63 03 04 78     @ .. . .c...c..x
     352:	04 03 61 51 49 45 43 00 00 7f 41 41 02 04 08 10     ..aQIEC...AA....
     362:	20 41 41 7f 00 00 04 02 01 02 04 40 40 40 40 40      AA........@@@@@
     372:	00 01 02 04 00 20 54 54 54 78 7f 48 44 44 38 38     ..... TTTx.HDD88
     382:	44 44 44 20 38 44 44 48 7f 38 54 54 54 18 08 7e     DDD 8DDH.8TTT..~
     392:	09 01 02 08 14 54 54 3c 7f 08 04 04 78 00 44 7d     .....TT<....x.D}
     3a2:	40 00 20 40 44 3d 00 00 7f 10 28 44 00 41 7f 40     @. @D=....(D.A.@
     3b2:	00 7c 04 18 04 78 7c 08 04 04 78 38 44 44 44 38     .|...x|...x8DDD8
     3c2:	7c 14 14 14 08 08 14 14 18 7c 7c 08 04 04 08 48     |........||....H
     3d2:	54 54 54 20 04 3f 44 40 20 3c 40 40 20 7c 1c 20     TTT .?D@ <@@ |. 
     3e2:	40 20 1c 3c 40 30 40 3c 44 28 10 28 44 0c 50 50     @ .<@0@<D(.(D.PP
     3f2:	50 3c 44 64 54 4c 44 00 08 36 41 00 00 00 7f 00     P<DdTLD..6A.....
     402:	00 00 41 36 08 00 08 08 2a 1c 08 08 1c 2a 08 08     ..A6....*....*..

00000412 <__ctors_end>:
     412:	11 24       	eor	r1, r1
     414:	1f be       	out	0x3f, r1	; 63
     416:	cf ef       	ldi	r28, 0xFF	; 255
     418:	d1 e2       	ldi	r29, 0x21	; 33
     41a:	de bf       	out	0x3e, r29	; 62
     41c:	cd bf       	out	0x3d, r28	; 61

0000041e <__do_copy_data>:
     41e:	13 e0       	ldi	r17, 0x03	; 3
     420:	a0 e0       	ldi	r26, 0x00	; 0
     422:	b2 e0       	ldi	r27, 0x02	; 2
     424:	e8 ea       	ldi	r30, 0xA8	; 168
     426:	fa e4       	ldi	r31, 0x4A	; 74
     428:	00 e0       	ldi	r16, 0x00	; 0
     42a:	0b bf       	out	0x3b, r16	; 59
     42c:	02 c0       	rjmp	.+4      	; 0x432 <__do_copy_data+0x14>
     42e:	07 90       	elpm	r0, Z+
     430:	0d 92       	st	X+, r0
     432:	ac 34       	cpi	r26, 0x4C	; 76
     434:	b1 07       	cpc	r27, r17
     436:	d9 f7       	brne	.-10     	; 0x42e <__do_copy_data+0x10>

00000438 <__do_clear_bss>:
     438:	13 e1       	ldi	r17, 0x13	; 19
     43a:	ac e4       	ldi	r26, 0x4C	; 76
     43c:	b3 e0       	ldi	r27, 0x03	; 3
     43e:	01 c0       	rjmp	.+2      	; 0x442 <.do_clear_bss_start>

00000440 <.do_clear_bss_loop>:
     440:	1d 92       	st	X+, r1

00000442 <.do_clear_bss_start>:
     442:	a8 3e       	cpi	r26, 0xE8	; 232
     444:	b1 07       	cpc	r27, r17
     446:	e1 f7       	brne	.-8      	; 0x440 <.do_clear_bss_loop>
     448:	0e 94 17 1d 	call	0x3a2e	; 0x3a2e <main>
     44c:	0c 94 52 25 	jmp	0x4aa4	; 0x4aa4 <_exit>

00000450 <__bad_interrupt>:
     450:	0c 94 00 00 	jmp	0	; 0x0 <__vectors>

00000454 <HplAtm128I2CBusP__I2C__sendCommand>:
     454:	80 91 44 0d 	lds	r24, 0x0D44
     458:	80 93 bc 00 	sts	0x00BC, r24
     45c:	08 95       	ret

0000045e <HplAtm128GeneralIOPinP__38__IO__clr>:
     45e:	76 98       	cbi	0x0e, 6	; 14
     460:	08 95       	ret

00000462 <HplAtm128GeneralIOPinP__8__IO__set>:
     462:	28 9a       	sbi	0x05, 0	; 5
     464:	08 95       	ret

00000466 <HplAtm128GeneralIOPinP__8__IO__clr>:
     466:	28 98       	cbi	0x05, 0	; 5
     468:	08 95       	ret

0000046a <HplAtm128GeneralIOPinP__38__IO__set>:
     46a:	76 9a       	sbi	0x0e, 6	; 14
     46c:	08 95       	ret

0000046e <SchedulerBasicP__popTask>:
     46e:	80 91 5a 13 	lds	r24, 0x135A
     472:	8f 3f       	cpi	r24, 0xFF	; 255
     474:	69 f0       	breq	.+26     	; 0x490 <SchedulerBasicP__popTask+0x22>
     476:	e8 2f       	mov	r30, r24
     478:	f0 e0       	ldi	r31, 0x00	; 0
     47a:	e9 5f       	subi	r30, 0xF9	; 249
     47c:	f7 4f       	sbci	r31, 0xF7	; 247
     47e:	90 81       	ld	r25, Z
     480:	90 93 5a 13 	sts	0x135A, r25
     484:	9f 3f       	cpi	r25, 0xFF	; 255
     486:	11 f4       	brne	.+4      	; 0x48c <SchedulerBasicP__popTask+0x1e>
     488:	90 93 ba 13 	sts	0x13BA, r25
     48c:	9f ef       	ldi	r25, 0xFF	; 255
     48e:	90 83       	st	Z, r25
     490:	08 95       	ret

00000492 <SchedulerBasicP__TaskBasic__postTask>:
     492:	9f b7       	in	r25, 0x3f	; 63
     494:	f8 94       	cli
     496:	e8 2f       	mov	r30, r24
     498:	f0 e0       	ldi	r31, 0x00	; 0
     49a:	e9 5f       	subi	r30, 0xF9	; 249
     49c:	f7 4f       	sbci	r31, 0xF7	; 247
     49e:	20 81       	ld	r18, Z
     4a0:	2f 3f       	cpi	r18, 0xFF	; 255
     4a2:	99 f4       	brne	.+38     	; 0x4ca <SchedulerBasicP__TaskBasic__postTask+0x38>
     4a4:	e0 91 ba 13 	lds	r30, 0x13BA
     4a8:	e8 17       	cp	r30, r24
     4aa:	79 f0       	breq	.+30     	; 0x4ca <SchedulerBasicP__TaskBasic__postTask+0x38>
     4ac:	20 91 5a 13 	lds	r18, 0x135A
     4b0:	2f 3f       	cpi	r18, 0xFF	; 255
     4b2:	19 f4       	brne	.+6      	; 0x4ba <SchedulerBasicP__TaskBasic__postTask+0x28>
     4b4:	80 93 5a 13 	sts	0x135A, r24
     4b8:	04 c0       	rjmp	.+8      	; 0x4c2 <SchedulerBasicP__TaskBasic__postTask+0x30>
     4ba:	f0 e0       	ldi	r31, 0x00	; 0
     4bc:	e9 5f       	subi	r30, 0xF9	; 249
     4be:	f7 4f       	sbci	r31, 0xF7	; 247
     4c0:	80 83       	st	Z, r24
     4c2:	80 93 ba 13 	sts	0x13BA, r24
     4c6:	80 e0       	ldi	r24, 0x00	; 0
     4c8:	01 c0       	rjmp	.+2      	; 0x4cc <SchedulerBasicP__TaskBasic__postTask+0x3a>
     4ca:	85 e0       	ldi	r24, 0x05	; 5
     4cc:	9f bf       	out	0x3f, r25	; 63
     4ce:	08 95       	ret

000004d0 <FMClickP__tune__postTask>:
     4d0:	85 e1       	ldi	r24, 0x15	; 21
     4d2:	0c 94 49 02 	jmp	0x492	; 0x492 <SchedulerBasicP__TaskBasic__postTask>

000004d6 <FMClickP__seek__postTask>:
     4d6:	86 e1       	ldi	r24, 0x16	; 22
     4d8:	0c 94 49 02 	jmp	0x492	; 0x492 <SchedulerBasicP__TaskBasic__postTask>

000004dc <HplAtm128I2CBusP__I2C__readCurrent>:
     4dc:	8f b7       	in	r24, 0x3f	; 63
     4de:	f8 94       	cli
     4e0:	90 91 bc 00 	lds	r25, 0x00BC
     4e4:	90 93 44 0d 	sts	0x0D44, r25
     4e8:	8f bf       	out	0x3f, r24	; 63
     4ea:	08 95       	ret

000004ec <HplAtm1280AdcP__HplAtm1280Adc__getAdmux>:
     4ec:	ec e7       	ldi	r30, 0x7C	; 124
     4ee:	f0 e0       	ldi	r31, 0x00	; 0
     4f0:	20 81       	ld	r18, Z
     4f2:	80 91 7b 00 	lds	r24, 0x007B
     4f6:	30 81       	ld	r19, Z
     4f8:	90 81       	ld	r25, Z
     4fa:	88 70       	andi	r24, 0x08	; 8
     4fc:	88 0f       	add	r24, r24
     4fe:	88 0f       	add	r24, r24
     500:	2f 71       	andi	r18, 0x1F	; 31
     502:	82 2b       	or	r24, r18
     504:	35 fb       	bst	r19, 5
     506:	22 27       	eor	r18, r18
     508:	20 f9       	bld	r18, 0
     50a:	20 fb       	bst	r18, 0
     50c:	86 f9       	bld	r24, 6
     50e:	92 95       	swap	r25
     510:	96 95       	lsr	r25
     512:	96 95       	lsr	r25
     514:	93 70       	andi	r25, 0x03	; 3
     516:	29 2f       	mov	r18, r25
     518:	27 95       	ror	r18
     51a:	22 27       	eor	r18, r18
     51c:	27 95       	ror	r18
     51e:	82 2b       	or	r24, r18
     520:	96 95       	lsr	r25
     522:	08 95       	ret

00000524 <Atm1280AlarmSyncP__0__Counter__get>:
     524:	2f b7       	in	r18, 0x3f	; 63
     526:	f8 94       	cli
     528:	60 91 5d 0a 	lds	r22, 0x0A5D
     52c:	70 91 5e 0a 	lds	r23, 0x0A5E
     530:	80 91 5f 0a 	lds	r24, 0x0A5F
     534:	90 91 60 0a 	lds	r25, 0x0A60
     538:	2f bf       	out	0x3f, r18	; 63
     53a:	08 95       	ret

0000053c <PoolP__0__Pool__put>:
     53c:	ac 01       	movw	r20, r24
     53e:	90 91 07 0b 	lds	r25, 0x0B07
     542:	9a 30       	cpi	r25, 0x0A	; 10
     544:	b8 f4       	brcc	.+46     	; 0x574 <PoolP__0__Pool__put+0x38>
     546:	80 91 68 0a 	lds	r24, 0x0A68
     54a:	29 2f       	mov	r18, r25
     54c:	30 e0       	ldi	r19, 0x00	; 0
     54e:	28 0f       	add	r18, r24
     550:	31 1d       	adc	r19, r1
     552:	2a 30       	cpi	r18, 0x0A	; 10
     554:	31 05       	cpc	r19, r1
     556:	14 f0       	brlt	.+4      	; 0x55c <PoolP__0__Pool__put+0x20>
     558:	2a 50       	subi	r18, 0x0A	; 10
     55a:	31 09       	sbc	r19, r1
     55c:	22 0f       	add	r18, r18
     55e:	33 1f       	adc	r19, r19
     560:	f9 01       	movw	r30, r18
     562:	ed 57       	subi	r30, 0x7D	; 125
     564:	f2 4f       	sbci	r31, 0xF2	; 242
     566:	51 83       	std	Z+1, r21	; 0x01
     568:	40 83       	st	Z, r20
     56a:	9f 5f       	subi	r25, 0xFF	; 255
     56c:	90 93 07 0b 	sts	0x0B07, r25
     570:	80 e0       	ldi	r24, 0x00	; 0
     572:	08 95       	ret
     574:	81 e0       	ldi	r24, 0x01	; 1
     576:	08 95       	ret

00000578 <Atm1280SpiP__SpiByte__write>:
     578:	8e bd       	out	0x2e, r24	; 46
     57a:	0d b4       	in	r0, 0x2d	; 45
     57c:	07 fe       	sbrs	r0, 7
     57e:	fd cf       	rjmp	.-6      	; 0x57a <Atm1280SpiP__SpiByte__write+0x2>
     580:	8e b5       	in	r24, 0x2e	; 46
     582:	08 95       	ret

00000584 <Enc28j60P__SpiByte__write>:
     584:	0c 94 bc 02 	jmp	0x578	; 0x578 <Atm1280SpiP__SpiByte__write>

00000588 <Enc28j60P__writeSPI>:
     588:	cf 93       	push	r28
     58a:	df 93       	push	r29
     58c:	00 d0       	rcall	.+0      	; 0x58e <Enc28j60P__writeSPI+0x6>
     58e:	cd b7       	in	r28, 0x3d	; 61
     590:	de b7       	in	r29, 0x3e	; 62
     592:	6a 83       	std	Y+2, r22	; 0x02
     594:	89 83       	std	Y+1, r24	; 0x01
     596:	0e 94 33 02 	call	0x466	; 0x466 <HplAtm128GeneralIOPinP__8__IO__clr>
     59a:	89 81       	ldd	r24, Y+1	; 0x01
     59c:	0e 94 c2 02 	call	0x584	; 0x584 <Enc28j60P__SpiByte__write>
     5a0:	6a 81       	ldd	r22, Y+2	; 0x02
     5a2:	86 2f       	mov	r24, r22
     5a4:	0e 94 c2 02 	call	0x584	; 0x584 <Enc28j60P__SpiByte__write>
     5a8:	0f 90       	pop	r0
     5aa:	0f 90       	pop	r0
     5ac:	df 91       	pop	r29
     5ae:	cf 91       	pop	r28
     5b0:	0c 94 31 02 	jmp	0x462	; 0x462 <HplAtm128GeneralIOPinP__8__IO__set>

000005b4 <Enc28j60P__readSPI>:
     5b4:	cf 93       	push	r28
     5b6:	df 93       	push	r29
     5b8:	1f 92       	push	r1
     5ba:	cd b7       	in	r28, 0x3d	; 61
     5bc:	de b7       	in	r29, 0x3e	; 62
     5be:	89 83       	std	Y+1, r24	; 0x01
     5c0:	0e 94 33 02 	call	0x466	; 0x466 <HplAtm128GeneralIOPinP__8__IO__clr>
     5c4:	89 81       	ldd	r24, Y+1	; 0x01
     5c6:	0e 94 c2 02 	call	0x584	; 0x584 <Enc28j60P__SpiByte__write>
     5ca:	80 e0       	ldi	r24, 0x00	; 0
     5cc:	0e 94 bc 02 	call	0x578	; 0x578 <Atm1280SpiP__SpiByte__write>
     5d0:	89 83       	std	Y+1, r24	; 0x01
     5d2:	0e 94 31 02 	call	0x462	; 0x462 <HplAtm128GeneralIOPinP__8__IO__set>
     5d6:	89 81       	ldd	r24, Y+1	; 0x01
     5d8:	0f 90       	pop	r0
     5da:	df 91       	pop	r29
     5dc:	cf 91       	pop	r28
     5de:	08 95       	ret

000005e0 <Enc28j60P__setBit>:
     5e0:	cf 93       	push	r28
     5e2:	df 93       	push	r29
     5e4:	00 d0       	rcall	.+0      	; 0x5e6 <Enc28j60P__setBit+0x6>
     5e6:	cd b7       	in	r28, 0x3d	; 61
     5e8:	de b7       	in	r29, 0x3e	; 62
     5ea:	6a 83       	std	Y+2, r22	; 0x02
     5ec:	89 83       	std	Y+1, r24	; 0x01
     5ee:	0e 94 33 02 	call	0x466	; 0x466 <HplAtm128GeneralIOPinP__8__IO__clr>
     5f2:	89 81       	ldd	r24, Y+1	; 0x01
     5f4:	80 68       	ori	r24, 0x80	; 128
     5f6:	0e 94 c2 02 	call	0x584	; 0x584 <Enc28j60P__SpiByte__write>
     5fa:	6a 81       	ldd	r22, Y+2	; 0x02
     5fc:	86 2f       	mov	r24, r22
     5fe:	0e 94 c2 02 	call	0x584	; 0x584 <Enc28j60P__SpiByte__write>
     602:	0f 90       	pop	r0
     604:	0f 90       	pop	r0
     606:	df 91       	pop	r29
     608:	cf 91       	pop	r28
     60a:	0c 94 31 02 	jmp	0x462	; 0x462 <HplAtm128GeneralIOPinP__8__IO__set>

0000060e <ArpP__send_packet>:
     60e:	8f 92       	push	r8
     610:	9f 92       	push	r9
     612:	af 92       	push	r10
     614:	bf 92       	push	r11
     616:	cf 92       	push	r12
     618:	df 92       	push	r13
     61a:	ef 92       	push	r14
     61c:	ff 92       	push	r15
     61e:	0f 93       	push	r16
     620:	1f 93       	push	r17
     622:	cf 93       	push	r28
     624:	df 93       	push	r29
     626:	2f ef       	ldi	r18, 0xFF	; 255
     628:	28 0f       	add	r18, r24
     62a:	9d e1       	ldi	r25, 0x1D	; 29
     62c:	29 9f       	mul	r18, r25
     62e:	90 01       	movw	r18, r0
     630:	11 24       	eor	r1, r1
     632:	89 01       	movw	r16, r18
     634:	09 56       	subi	r16, 0x69	; 105
     636:	12 4f       	sbci	r17, 0xF2	; 242
     638:	f8 01       	movw	r30, r16
     63a:	90 81       	ld	r25, Z
     63c:	91 11       	cpse	r25, r1
     63e:	40 c0       	rjmp	.+128    	; 0x6c0 <ArpP__send_packet+0xb2>
     640:	e9 01       	movw	r28, r18
     642:	c8 56       	subi	r28, 0x68	; 104
     644:	d2 4f       	sbci	r29, 0xF2	; 242
     646:	20 97       	sbiw	r28, 0x00	; 0
     648:	d9 f1       	breq	.+118    	; 0x6c0 <ArpP__send_packet+0xb2>
     64a:	7a 01       	movw	r14, r20
     64c:	51 e0       	ldi	r21, 0x01	; 1
     64e:	59 83       	std	Y+1, r21	; 0x01
     650:	18 82       	st	Y, r1
     652:	1b 82       	std	Y+3, r1	; 0x03
     654:	98 e0       	ldi	r25, 0x08	; 8
     656:	9a 83       	std	Y+2, r25	; 0x02
     658:	96 e0       	ldi	r25, 0x06	; 6
     65a:	9c 83       	std	Y+4, r25	; 0x04
     65c:	44 e0       	ldi	r20, 0x04	; 4
     65e:	4d 83       	std	Y+5, r20	; 0x05
     660:	80 90 24 02 	lds	r8, 0x0224
     664:	90 90 25 02 	lds	r9, 0x0225
     668:	a0 90 26 02 	lds	r10, 0x0226
     66c:	b0 90 27 02 	lds	r11, 0x0227
     670:	87 86       	std	Z+15, r8	; 0x0f
     672:	90 8a       	std	Z+16, r9	; 0x10
     674:	a1 8a       	std	Z+17, r10	; 0x11
     676:	b2 8a       	std	Z+18, r11	; 0x12
     678:	d9 01       	movw	r26, r18
     67a:	a0 56       	subi	r26, 0x60	; 96
     67c:	b2 4f       	sbci	r27, 0xF2	; 242
     67e:	e6 e1       	ldi	r30, 0x16	; 22
     680:	f2 e0       	ldi	r31, 0x02	; 2
     682:	49 2f       	mov	r20, r25
     684:	01 90       	ld	r0, Z+
     686:	0d 92       	st	X+, r0
     688:	4a 95       	dec	r20
     68a:	e1 f7       	brne	.-8      	; 0x684 <ArpP__send_packet+0x76>
     68c:	d9 01       	movw	r26, r18
     68e:	a6 55       	subi	r26, 0x56	; 86
     690:	b2 4f       	sbci	r27, 0xF2	; 242
     692:	fb 01       	movw	r30, r22
     694:	01 90       	ld	r0, Z+
     696:	0d 92       	st	X+, r0
     698:	9a 95       	dec	r25
     69a:	e1 f7       	brne	.-8      	; 0x694 <ArpP__send_packet+0x86>
     69c:	f7 01       	movw	r30, r14
     69e:	c0 80       	ld	r12, Z
     6a0:	d1 80       	ldd	r13, Z+1	; 0x01
     6a2:	e2 80       	ldd	r14, Z+2	; 0x02
     6a4:	f3 80       	ldd	r15, Z+3	; 0x03
     6a6:	f8 01       	movw	r30, r16
     6a8:	c1 8e       	std	Z+25, r12	; 0x19
     6aa:	d2 8e       	std	Z+26, r13	; 0x1a
     6ac:	e3 8e       	std	Z+27, r14	; 0x1b
     6ae:	f4 8e       	std	Z+28, r15	; 0x1c
     6b0:	8f 83       	std	Y+7, r24	; 0x07
     6b2:	1e 82       	std	Y+6, r1	; 0x06
     6b4:	50 83       	st	Z, r21
     6b6:	8d e0       	ldi	r24, 0x0D	; 13
     6b8:	0e 94 49 02 	call	0x492	; 0x492 <SchedulerBasicP__TaskBasic__postTask>
     6bc:	80 e0       	ldi	r24, 0x00	; 0
     6be:	01 c0       	rjmp	.+2      	; 0x6c2 <ArpP__send_packet+0xb4>
     6c0:	85 e0       	ldi	r24, 0x05	; 5
     6c2:	df 91       	pop	r29
     6c4:	cf 91       	pop	r28
     6c6:	1f 91       	pop	r17
     6c8:	0f 91       	pop	r16
     6ca:	ff 90       	pop	r15
     6cc:	ef 90       	pop	r14
     6ce:	df 90       	pop	r13
     6d0:	cf 90       	pop	r12
     6d2:	bf 90       	pop	r11
     6d4:	af 90       	pop	r10
     6d6:	9f 90       	pop	r9
     6d8:	8f 90       	pop	r8
     6da:	08 95       	ret

000006dc <PoolP__0__Pool__get>:
     6dc:	30 91 07 0b 	lds	r19, 0x0B07
     6e0:	33 23       	and	r19, r19
     6e2:	c1 f0       	breq	.+48     	; 0x714 <PoolP__0__Pool__get+0x38>
     6e4:	20 91 68 0a 	lds	r18, 0x0A68
     6e8:	e2 2f       	mov	r30, r18
     6ea:	f0 e0       	ldi	r31, 0x00	; 0
     6ec:	ee 0f       	add	r30, r30
     6ee:	ff 1f       	adc	r31, r31
     6f0:	ed 57       	subi	r30, 0x7D	; 125
     6f2:	f2 4f       	sbci	r31, 0xF2	; 242
     6f4:	80 81       	ld	r24, Z
     6f6:	91 81       	ldd	r25, Z+1	; 0x01
     6f8:	11 82       	std	Z+1, r1	; 0x01
     6fa:	10 82       	st	Z, r1
     6fc:	31 50       	subi	r19, 0x01	; 1
     6fe:	30 93 07 0b 	sts	0x0B07, r19
     702:	2f 5f       	subi	r18, 0xFF	; 255
     704:	2a 30       	cpi	r18, 0x0A	; 10
     706:	19 f0       	breq	.+6      	; 0x70e <PoolP__0__Pool__get+0x32>
     708:	20 93 68 0a 	sts	0x0A68, r18
     70c:	08 95       	ret
     70e:	10 92 68 0a 	sts	0x0A68, r1
     712:	08 95       	ret
     714:	80 e0       	ldi	r24, 0x00	; 0
     716:	90 e0       	ldi	r25, 0x00	; 0
     718:	08 95       	ret

0000071a <Atm1280AlarmSyncP__0__checkAlarm>:
     71a:	2f b7       	in	r18, 0x3f	; 63
     71c:	f8 94       	cli
     71e:	80 91 6f 03 	lds	r24, 0x036F
     722:	88 23       	and	r24, r24
     724:	09 f1       	breq	.+66     	; 0x768 <Atm1280AlarmSyncP__0__checkAlarm+0x4e>
     726:	40 91 47 0d 	lds	r20, 0x0D47
     72a:	50 91 48 0d 	lds	r21, 0x0D48
     72e:	60 91 49 0d 	lds	r22, 0x0D49
     732:	70 91 4a 0d 	lds	r23, 0x0D4A
     736:	80 91 24 08 	lds	r24, 0x0824
     73a:	90 91 25 08 	lds	r25, 0x0825
     73e:	a0 91 26 08 	lds	r26, 0x0826
     742:	b0 91 27 08 	lds	r27, 0x0827
     746:	84 0f       	add	r24, r20
     748:	95 1f       	adc	r25, r21
     74a:	a6 1f       	adc	r26, r22
     74c:	b7 1f       	adc	r27, r23
     74e:	40 91 5d 0a 	lds	r20, 0x0A5D
     752:	50 91 5e 0a 	lds	r21, 0x0A5E
     756:	60 91 5f 0a 	lds	r22, 0x0A5F
     75a:	70 91 60 0a 	lds	r23, 0x0A60
     75e:	48 17       	cp	r20, r24
     760:	59 07       	cpc	r21, r25
     762:	6a 07       	cpc	r22, r26
     764:	7b 07       	cpc	r23, r27
     766:	11 f0       	breq	.+4      	; 0x76c <Atm1280AlarmSyncP__0__checkAlarm+0x52>
     768:	2f bf       	out	0x3f, r18	; 63
     76a:	08 95       	ret
     76c:	10 92 6f 03 	sts	0x036F, r1
     770:	2f bf       	out	0x3f, r18	; 63
     772:	8b e0       	ldi	r24, 0x0B	; 11
     774:	0c 94 49 02 	jmp	0x492	; 0x492 <SchedulerBasicP__TaskBasic__postTask>

00000778 <FMClickP__FMClick__seek>:
     778:	2f b7       	in	r18, 0x3f	; 63
     77a:	f8 94       	cli
     77c:	90 91 52 13 	lds	r25, 0x1352
     780:	2f bf       	out	0x3f, r18	; 63
     782:	91 11       	cpse	r25, r1
     784:	0e c0       	rjmp	.+28     	; 0x7a2 <FMClickP__FMClick__seek+0x2a>
     786:	9f b7       	in	r25, 0x3f	; 63
     788:	f8 94       	cli
     78a:	23 e0       	ldi	r18, 0x03	; 3
     78c:	20 93 52 13 	sts	0x1352, r18
     790:	10 92 58 13 	sts	0x1358, r1
     794:	80 93 64 0a 	sts	0x0A64, r24
     798:	9f bf       	out	0x3f, r25	; 63
     79a:	0e 94 6b 02 	call	0x4d6	; 0x4d6 <FMClickP__seek__postTask>
     79e:	80 e0       	ldi	r24, 0x00	; 0
     7a0:	08 95       	ret
     7a2:	81 e0       	ldi	r24, 0x01	; 1
     7a4:	08 95       	ret

000007a6 <BusyWaitMicroC__BusyWait__wait.part.18>:
     7a6:	01 97       	sbiw	r24, 0x01	; 1
     7a8:	01 96       	adiw	r24, 0x01	; 1
     7aa:	01 97       	sbiw	r24, 0x01	; 1
     7ac:	01 96       	adiw	r24, 0x01	; 1
     7ae:	01 97       	sbiw	r24, 0x01	; 1
     7b0:	01 96       	adiw	r24, 0x01	; 1
     7b2:	01 97       	sbiw	r24, 0x01	; 1
     7b4:	c1 f7       	brne	.-16     	; 0x7a6 <BusyWaitMicroC__BusyWait__wait.part.18>
     7b6:	08 95       	ret

000007b8 <ArbiterP__0__Resource__request.constprop.171>:
     7b8:	1f 93       	push	r17
     7ba:	cf 93       	push	r28
     7bc:	df 93       	push	r29
     7be:	8f b7       	in	r24, 0x3f	; 63
     7c0:	f8 94       	cli
     7c2:	c0 91 50 03 	lds	r28, 0x0350
     7c6:	c1 11       	cpse	r28, r1
     7c8:	3d c0       	rjmp	.+122    	; 0x844 <ArbiterP__0__Resource__request.constprop.171+0x8c>
     7ca:	11 e0       	ldi	r17, 0x01	; 1
     7cc:	10 93 50 03 	sts	0x0350, r17
     7d0:	10 92 db 0d 	sts	0x0DDB, r1
     7d4:	8f bf       	out	0x3f, r24	; 63
     7d6:	df b7       	in	r29, 0x3f	; 63
     7d8:	f8 94       	cli
     7da:	80 91 4f 03 	lds	r24, 0x034F
     7de:	81 11       	cpse	r24, r1
     7e0:	17 c0       	rjmp	.+46     	; 0x810 <ArbiterP__0__Resource__request.constprop.171+0x58>
     7e2:	50 98       	cbi	0x0a, 0	; 10
     7e4:	51 98       	cbi	0x0a, 1	; 10
     7e6:	10 92 b9 00 	sts	0x00B9, r1
     7ea:	81 e4       	ldi	r24, 0x41	; 65
     7ec:	80 93 b8 00 	sts	0x00B8, r24
     7f0:	10 92 ba 00 	sts	0x00BA, r1
     7f4:	10 92 bc 00 	sts	0x00BC, r1
     7f8:	0e 94 6e 02 	call	0x4dc	; 0x4dc <HplAtm128I2CBusP__I2C__readCurrent>
     7fc:	80 91 44 0d 	lds	r24, 0x0D44
     800:	8e 7f       	andi	r24, 0xFE	; 254
     802:	84 60       	ori	r24, 0x04	; 4
     804:	80 93 44 0d 	sts	0x0D44, r24
     808:	0e 94 2a 02 	call	0x454	; 0x454 <HplAtm128I2CBusP__I2C__sendCommand>
     80c:	10 93 4f 03 	sts	0x034F, r17
     810:	df bf       	out	0x3f, r29	; 63
     812:	df b7       	in	r29, 0x3f	; 63
     814:	f8 94       	cli
     816:	80 91 0e 02 	lds	r24, 0x020E
     81a:	81 30       	cpi	r24, 0x01	; 1
     81c:	89 f4       	brne	.+34     	; 0x840 <ArbiterP__0__Resource__request.constprop.171+0x88>
     81e:	80 91 50 03 	lds	r24, 0x0350
     822:	81 30       	cpi	r24, 0x01	; 1
     824:	21 f4       	brne	.+8      	; 0x82e <ArbiterP__0__Resource__request.constprop.171+0x76>
     826:	88 e1       	ldi	r24, 0x18	; 24
     828:	0e 94 49 02 	call	0x492	; 0x492 <SchedulerBasicP__TaskBasic__postTask>
     82c:	09 c0       	rjmp	.+18     	; 0x840 <ArbiterP__0__Resource__request.constprop.171+0x88>
     82e:	82 30       	cpi	r24, 0x02	; 2
     830:	39 f4       	brne	.+14     	; 0x840 <ArbiterP__0__Resource__request.constprop.171+0x88>
     832:	80 91 db 0d 	lds	r24, 0x0DDB
     836:	80 93 0e 02 	sts	0x020E, r24
     83a:	83 e0       	ldi	r24, 0x03	; 3
     83c:	80 93 50 03 	sts	0x0350, r24
     840:	df bf       	out	0x3f, r29	; 63
     842:	1d c0       	rjmp	.+58     	; 0x87e <ArbiterP__0__Resource__request.constprop.171+0xc6>
     844:	c0 91 db 0d 	lds	r28, 0x0DDB
     848:	cc 23       	and	r28, r28
     84a:	c1 f0       	breq	.+48     	; 0x87c <ArbiterP__0__Resource__request.constprop.171+0xc4>
     84c:	90 91 69 0a 	lds	r25, 0x0A69
     850:	9f 3f       	cpi	r25, 0xFF	; 255
     852:	99 f4       	brne	.+38     	; 0x87a <ArbiterP__0__Resource__request.constprop.171+0xc2>
     854:	e0 91 0f 02 	lds	r30, 0x020F
     858:	ee 23       	and	r30, r30
     85a:	79 f0       	breq	.+30     	; 0x87a <ArbiterP__0__Resource__request.constprop.171+0xc2>
     85c:	90 91 10 02 	lds	r25, 0x0210
     860:	9f 3f       	cpi	r25, 0xFF	; 255
     862:	19 f4       	brne	.+6      	; 0x86a <ArbiterP__0__Resource__request.constprop.171+0xb2>
     864:	10 92 10 02 	sts	0x0210, r1
     868:	04 c0       	rjmp	.+8      	; 0x872 <ArbiterP__0__Resource__request.constprop.171+0xba>
     86a:	f0 e0       	ldi	r31, 0x00	; 0
     86c:	e7 59       	subi	r30, 0x97	; 151
     86e:	f5 4f       	sbci	r31, 0xF5	; 245
     870:	10 82       	st	Z, r1
     872:	10 92 0f 02 	sts	0x020F, r1
     876:	c0 e0       	ldi	r28, 0x00	; 0
     878:	01 c0       	rjmp	.+2      	; 0x87c <ArbiterP__0__Resource__request.constprop.171+0xc4>
     87a:	c5 e0       	ldi	r28, 0x05	; 5
     87c:	8f bf       	out	0x3f, r24	; 63
     87e:	8c 2f       	mov	r24, r28
     880:	df 91       	pop	r29
     882:	cf 91       	pop	r28
     884:	1f 91       	pop	r17
     886:	08 95       	ret

00000888 <FMClickP__readRegisters>:
     888:	cf 93       	push	r28
     88a:	9f b7       	in	r25, 0x3f	; 63
     88c:	f8 94       	cli
     88e:	80 91 53 13 	lds	r24, 0x1353
     892:	9f bf       	out	0x3f, r25	; 63
     894:	81 11       	cpse	r24, r1
     896:	0b c0       	rjmp	.+22     	; 0x8ae <FMClickP__readRegisters+0x26>
     898:	9f b7       	in	r25, 0x3f	; 63
     89a:	f8 94       	cli
     89c:	81 e0       	ldi	r24, 0x01	; 1
     89e:	80 93 55 13 	sts	0x1355, r24
     8a2:	80 93 53 13 	sts	0x1353, r24
     8a6:	9f bf       	out	0x3f, r25	; 63
     8a8:	cf 91       	pop	r28
     8aa:	0c 94 dc 03 	jmp	0x7b8	; 0x7b8 <ArbiterP__0__Resource__request.constprop.171>
     8ae:	81 30       	cpi	r24, 0x01	; 1
     8b0:	09 f0       	breq	.+2      	; 0x8b4 <FMClickP__readRegisters+0x2c>
     8b2:	42 c0       	rjmp	.+132    	; 0x938 <FMClickP__readRegisters+0xb0>
     8b4:	8f b7       	in	r24, 0x3f	; 63
     8b6:	f8 94       	cli
     8b8:	90 91 0d 02 	lds	r25, 0x020D
     8bc:	91 11       	cpse	r25, r1
     8be:	3a c0       	rjmp	.+116    	; 0x934 <FMClickP__readRegisters+0xac>
     8c0:	8f bf       	out	0x3f, r24	; 63
     8c2:	8f b7       	in	r24, 0x3f	; 63
     8c4:	f8 94       	cli
     8c6:	90 91 4f 03 	lds	r25, 0x034F
     8ca:	91 30       	cpi	r25, 0x01	; 1
     8cc:	99 f5       	brne	.+102    	; 0x934 <FMClickP__readRegisters+0xac>
     8ce:	22 e0       	ldi	r18, 0x02	; 2
     8d0:	20 93 4f 03 	sts	0x034F, r18
     8d4:	8f bf       	out	0x3f, r24	; 63
     8d6:	8f b7       	in	r24, 0x3f	; 63
     8d8:	f8 94       	cli
     8da:	20 e1       	ldi	r18, 0x10	; 16
     8dc:	30 e0       	ldi	r19, 0x00	; 0
     8de:	30 93 63 0a 	sts	0x0A63, r19
     8e2:	20 93 62 0a 	sts	0x0A62, r18
     8e6:	23 e6       	ldi	r18, 0x63	; 99
     8e8:	3d e0       	ldi	r19, 0x0D	; 13
     8ea:	30 93 2c 08 	sts	0x082C, r19
     8ee:	20 93 2b 08 	sts	0x082B, r18
     8f2:	20 e2       	ldi	r18, 0x20	; 32
     8f4:	20 93 6e 03 	sts	0x036E, r18
     8f8:	23 e0       	ldi	r18, 0x03	; 3
     8fa:	20 93 e5 13 	sts	0x13E5, r18
     8fe:	10 92 fb 12 	sts	0x12FB, r1
     902:	90 93 4e 03 	sts	0x034E, r25
     906:	8f bf       	out	0x3f, r24	; 63
     908:	0e 94 6e 02 	call	0x4dc	; 0x4dc <HplAtm128I2CBusP__I2C__readCurrent>
     90c:	cf b7       	in	r28, 0x3f	; 63
     90e:	f8 94       	cli
     910:	80 91 44 0d 	lds	r24, 0x0D44
     914:	8f 7a       	andi	r24, 0xAF	; 175
     916:	81 6a       	ori	r24, 0xA1	; 161
     918:	80 93 44 0d 	sts	0x0D44, r24
     91c:	84 e0       	ldi	r24, 0x04	; 4
     91e:	80 93 4f 03 	sts	0x034F, r24
     922:	0e 94 2a 02 	call	0x454	; 0x454 <HplAtm128I2CBusP__I2C__sendCommand>
     926:	cf bf       	out	0x3f, r28	; 63
     928:	8f b7       	in	r24, 0x3f	; 63
     92a:	f8 94       	cli
     92c:	10 92 53 13 	sts	0x1353, r1
     930:	8f bf       	out	0x3f, r24	; 63
     932:	02 c0       	rjmp	.+4      	; 0x938 <FMClickP__readRegisters+0xb0>
     934:	8f bf       	out	0x3f, r24	; 63
     936:	be cf       	rjmp	.-132    	; 0x8b4 <FMClickP__readRegisters+0x2c>
     938:	cf 91       	pop	r28
     93a:	08 95       	ret

0000093c <Enc28j60P__writeReg16>:
     93c:	1f 93       	push	r17
     93e:	cf 93       	push	r28
     940:	df 93       	push	r29
     942:	1f 92       	push	r1
     944:	cd b7       	in	r28, 0x3d	; 61
     946:	de b7       	in	r29, 0x3e	; 62
     948:	18 2f       	mov	r17, r24
     94a:	80 64       	ori	r24, 0x40	; 64
     94c:	79 83       	std	Y+1, r23	; 0x01
     94e:	0e 94 c4 02 	call	0x588	; 0x588 <Enc28j60P__writeSPI>
     952:	81 e0       	ldi	r24, 0x01	; 1
     954:	81 0f       	add	r24, r17
     956:	79 81       	ldd	r23, Y+1	; 0x01
     958:	67 2f       	mov	r22, r23
     95a:	80 64       	ori	r24, 0x40	; 64
     95c:	0f 90       	pop	r0
     95e:	df 91       	pop	r29
     960:	cf 91       	pop	r28
     962:	1f 91       	pop	r17
     964:	0c 94 c4 02 	jmp	0x588	; 0x588 <Enc28j60P__writeSPI>

00000968 <DatabaseP__UdpSend__sendDone.isra.65>:
     968:	90 91 56 03 	lds	r25, 0x0356
     96c:	e9 2f       	mov	r30, r25
     96e:	f0 e0       	ldi	r31, 0x00	; 0
     970:	ee 0f       	add	r30, r30
     972:	ff 1f       	adc	r31, r31
     974:	e0 51       	subi	r30, 0x10	; 16
     976:	fd 4e       	sbci	r31, 0xED	; 237
     978:	40 81       	ld	r20, Z
     97a:	51 81       	ldd	r21, Z+1	; 0x01
     97c:	20 91 54 03 	lds	r18, 0x0354
     980:	22 23       	and	r18, r18
     982:	59 f0       	breq	.+22     	; 0x99a <DatabaseP__UdpSend__sendDone.isra.65+0x32>
     984:	9f 5f       	subi	r25, 0xFF	; 255
     986:	95 30       	cpi	r25, 0x05	; 5
     988:	19 f0       	breq	.+6      	; 0x990 <DatabaseP__UdpSend__sendDone.isra.65+0x28>
     98a:	90 93 56 03 	sts	0x0356, r25
     98e:	02 c0       	rjmp	.+4      	; 0x994 <DatabaseP__UdpSend__sendDone.isra.65+0x2c>
     990:	10 92 56 03 	sts	0x0356, r1
     994:	21 50       	subi	r18, 0x01	; 1
     996:	20 93 54 03 	sts	0x0354, r18
     99a:	ca 01       	movw	r24, r20
     99c:	0e 94 9e 02 	call	0x53c	; 0x53c <PoolP__0__Pool__put>
     9a0:	80 91 54 03 	lds	r24, 0x0354
     9a4:	88 23       	and	r24, r24
     9a6:	19 f0       	breq	.+6      	; 0x9ae <DatabaseP__UdpSend__sendDone.isra.65+0x46>
     9a8:	88 e0       	ldi	r24, 0x08	; 8
     9aa:	0c 94 49 02 	jmp	0x492	; 0x492 <SchedulerBasicP__TaskBasic__postTask>
     9ae:	10 92 6a 0a 	sts	0x0A6A, r1
     9b2:	08 95       	ret

000009b4 <Atm1280SpiP__Resource__request.constprop.135>:
     9b4:	cf 93       	push	r28
     9b6:	df 93       	push	r29
     9b8:	9f b7       	in	r25, 0x3f	; 63
     9ba:	f8 94       	cli
     9bc:	80 91 59 03 	lds	r24, 0x0359
     9c0:	88 23       	and	r24, r24
     9c2:	69 f1       	breq	.+90     	; 0xa1e <Atm1280SpiP__Resource__request.constprop.135+0x6a>
     9c4:	9f bf       	out	0x3f, r25	; 63
     9c6:	df b7       	in	r29, 0x3f	; 63
     9c8:	f8 94       	cli
     9ca:	c0 91 59 03 	lds	r28, 0x0359
     9ce:	c1 11       	cpse	r28, r1
     9d0:	09 c0       	rjmp	.+18     	; 0x9e4 <Atm1280SpiP__Resource__request.constprop.135+0x30>
     9d2:	81 e0       	ldi	r24, 0x01	; 1
     9d4:	80 93 59 03 	sts	0x0359, r24
     9d8:	10 92 11 02 	sts	0x0211, r1
     9dc:	82 e1       	ldi	r24, 0x12	; 18
     9de:	0e 94 49 02 	call	0x492	; 0x492 <SchedulerBasicP__TaskBasic__postTask>
     9e2:	18 c0       	rjmp	.+48     	; 0xa14 <Atm1280SpiP__Resource__request.constprop.135+0x60>
     9e4:	80 91 2f 08 	lds	r24, 0x082F
     9e8:	8f 3f       	cpi	r24, 0xFF	; 255
     9ea:	99 f4       	brne	.+38     	; 0xa12 <Atm1280SpiP__Resource__request.constprop.135+0x5e>
     9ec:	e0 91 12 02 	lds	r30, 0x0212
     9f0:	ee 23       	and	r30, r30
     9f2:	79 f0       	breq	.+30     	; 0xa12 <Atm1280SpiP__Resource__request.constprop.135+0x5e>
     9f4:	80 91 13 02 	lds	r24, 0x0213
     9f8:	8f 3f       	cpi	r24, 0xFF	; 255
     9fa:	19 f4       	brne	.+6      	; 0xa02 <Atm1280SpiP__Resource__request.constprop.135+0x4e>
     9fc:	10 92 13 02 	sts	0x0213, r1
     a00:	04 c0       	rjmp	.+8      	; 0xa0a <Atm1280SpiP__Resource__request.constprop.135+0x56>
     a02:	f0 e0       	ldi	r31, 0x00	; 0
     a04:	e1 5d       	subi	r30, 0xD1	; 209
     a06:	f7 4f       	sbci	r31, 0xF7	; 247
     a08:	10 82       	st	Z, r1
     a0a:	10 92 12 02 	sts	0x0212, r1
     a0e:	c0 e0       	ldi	r28, 0x00	; 0
     a10:	01 c0       	rjmp	.+2      	; 0xa14 <Atm1280SpiP__Resource__request.constprop.135+0x60>
     a12:	c5 e0       	ldi	r28, 0x05	; 5
     a14:	df bf       	out	0x3f, r29	; 63
     a16:	8c 2f       	mov	r24, r28
     a18:	df 91       	pop	r29
     a1a:	cf 91       	pop	r28
     a1c:	08 95       	ret
     a1e:	8c b5       	in	r24, 0x2c	; 44
     a20:	8f 7b       	andi	r24, 0xBF	; 191
     a22:	8c bd       	out	0x2c, r24	; 44
     a24:	22 9a       	sbi	0x04, 2	; 4
     a26:	23 98       	cbi	0x04, 3	; 4
     a28:	21 9a       	sbi	0x04, 1	; 4
     a2a:	20 9a       	sbi	0x04, 0	; 4
     a2c:	8c b5       	in	r24, 0x2c	; 44
     a2e:	80 61       	ori	r24, 0x10	; 16
     a30:	8c bd       	out	0x2c, r24	; 44
     a32:	8c b5       	in	r24, 0x2c	; 44
     a34:	8f 77       	andi	r24, 0x7F	; 127
     a36:	8c bd       	out	0x2c, r24	; 44
     a38:	8d b5       	in	r24, 0x2d	; 45
     a3a:	8e 7f       	andi	r24, 0xFE	; 254
     a3c:	8d bd       	out	0x2d, r24	; 45
     a3e:	8c b5       	in	r24, 0x2c	; 44
     a40:	87 7f       	andi	r24, 0xF7	; 247
     a42:	8c bd       	out	0x2c, r24	; 44
     a44:	8c b5       	in	r24, 0x2c	; 44
     a46:	8b 7f       	andi	r24, 0xFB	; 251
     a48:	8c bd       	out	0x2c, r24	; 44
     a4a:	8c b5       	in	r24, 0x2c	; 44
     a4c:	8c 7f       	andi	r24, 0xFC	; 252
     a4e:	8c bd       	out	0x2c, r24	; 44
     a50:	8c b5       	in	r24, 0x2c	; 44
     a52:	80 64       	ori	r24, 0x40	; 64
     a54:	8c bd       	out	0x2c, r24	; 44
     a56:	b6 cf       	rjmp	.-148    	; 0x9c4 <Atm1280SpiP__Resource__request.constprop.135+0x10>

00000a58 <IpQueueP__IpQueue__sendDone.isra.86>:
     a58:	88 23       	and	r24, r24
     a5a:	19 f0       	breq	.+6      	; 0xa62 <IpQueueP__IpQueue__sendDone.isra.86+0xa>
     a5c:	81 30       	cpi	r24, 0x01	; 1
     a5e:	71 f0       	breq	.+28     	; 0xa7c <IpQueueP__IpQueue__sendDone.isra.86+0x24>
     a60:	08 95       	ret
     a62:	10 92 5e 03 	sts	0x035E, r1
     a66:	e0 91 5f 03 	lds	r30, 0x035F
     a6a:	8b e0       	ldi	r24, 0x0B	; 11
     a6c:	e8 9f       	mul	r30, r24
     a6e:	f0 01       	movw	r30, r0
     a70:	11 24       	eor	r1, r1
     a72:	e5 5b       	subi	r30, 0xB5	; 181
     a74:	f2 4f       	sbci	r31, 0xF2	; 242
     a76:	10 82       	st	Z, r1
     a78:	8f e0       	ldi	r24, 0x0F	; 15
     a7a:	10 c0       	rjmp	.+32     	; 0xa9c <IpQueueP__IpQueue__sendDone.isra.86+0x44>
     a7c:	10 92 57 03 	sts	0x0357, r1
     a80:	80 91 58 03 	lds	r24, 0x0358
     a84:	9d e0       	ldi	r25, 0x0D	; 13
     a86:	89 9f       	mul	r24, r25
     a88:	f0 01       	movw	r30, r0
     a8a:	11 24       	eor	r1, r1
     a8c:	e6 5f       	subi	r30, 0xF6	; 246
     a8e:	f4 4f       	sbci	r31, 0xF4	; 244
     a90:	10 82       	st	Z, r1
     a92:	81 11       	cpse	r24, r1
     a94:	02 c0       	rjmp	.+4      	; 0xa9a <IpQueueP__IpQueue__sendDone.isra.86+0x42>
     a96:	0e 94 b4 04 	call	0x968	; 0x968 <DatabaseP__UdpSend__sendDone.isra.65>
     a9a:	83 e1       	ldi	r24, 0x13	; 19
     a9c:	0c 94 49 02 	jmp	0x492	; 0x492 <SchedulerBasicP__TaskBasic__postTask>

00000aa0 <PacketQueueP__2__PacketSender__sendDone.isra.89>:
     aa0:	10 92 60 03 	sts	0x0360, r1
     aa4:	80 91 61 03 	lds	r24, 0x0361
     aa8:	98 e0       	ldi	r25, 0x08	; 8
     aaa:	89 9f       	mul	r24, r25
     aac:	f0 01       	movw	r30, r0
     aae:	11 24       	eor	r1, r1
     ab0:	e3 5b       	subi	r30, 0xB3	; 179
     ab2:	f5 4f       	sbci	r31, 0xF5	; 245
     ab4:	10 82       	st	Z, r1
     ab6:	0e 94 2c 05 	call	0xa58	; 0xa58 <IpQueueP__IpQueue__sendDone.isra.86>
     aba:	8e e0       	ldi	r24, 0x0E	; 14
     abc:	0c 94 49 02 	jmp	0x492	; 0x492 <SchedulerBasicP__TaskBasic__postTask>

00000ac0 <ArpP__PacketQueue__sendDone>:
     ac0:	81 11       	cpse	r24, r1
     ac2:	0f c0       	rjmp	.+30     	; 0xae2 <ArpP__PacketQueue__sendDone+0x22>
     ac4:	66 23       	and	r22, r22
     ac6:	69 f0       	breq	.+26     	; 0xae2 <ArpP__PacketQueue__sendDone+0x22>
     ac8:	80 91 64 03 	lds	r24, 0x0364
     acc:	81 30       	cpi	r24, 0x01	; 1
     ace:	49 f4       	brne	.+18     	; 0xae2 <ArpP__PacketQueue__sendDone+0x22>
     ad0:	10 92 64 03 	sts	0x0364, r1
     ad4:	80 91 28 0d 	lds	r24, 0x0D28
     ad8:	8d 7f       	andi	r24, 0xFD	; 253
     ada:	80 93 28 0d 	sts	0x0D28, r24
     ade:	0c 94 50 05 	jmp	0xaa0	; 0xaa0 <PacketQueueP__2__PacketSender__sendDone.isra.89>
     ae2:	08 95       	ret

00000ae4 <AdcP__sample>:
     ae4:	0f 93       	push	r16
     ae6:	1f 93       	push	r17
     ae8:	cf 93       	push	r28
     aea:	df 93       	push	r29
     aec:	80 91 af 13 	lds	r24, 0x13AF
     af0:	88 23       	and	r24, r24
     af2:	09 f4       	brne	.+2      	; 0xaf6 <AdcP__sample+0x12>
     af4:	3f c0       	rjmp	.+126    	; 0xb74 <AdcP__sample+0x90>
     af6:	10 e0       	ldi	r17, 0x00	; 0
     af8:	c0 e0       	ldi	r28, 0x00	; 0
     afa:	df e1       	ldi	r29, 0x1F	; 31
     afc:	0f b7       	in	r16, 0x3f	; 63
     afe:	f8 94       	cli
     b00:	80 91 b3 13 	lds	r24, 0x13B3
     b04:	8e 7f       	andi	r24, 0xFE	; 254
     b06:	80 93 b3 13 	sts	0x13B3, r24
     b0a:	0e 94 76 02 	call	0x4ec	; 0x4ec <HplAtm1280AdcP__HplAtm1280Adc__getAdmux>
     b0e:	28 2f       	mov	r18, r24
     b10:	2f 73       	andi	r18, 0x3F	; 63
     b12:	88 1f       	adc	r24, r24
     b14:	88 27       	eor	r24, r24
     b16:	88 1f       	adc	r24, r24
     b18:	91 70       	andi	r25, 0x01	; 1
     b1a:	99 0f       	add	r25, r25
     b1c:	89 2b       	or	r24, r25
     b1e:	18 13       	cpse	r17, r24
     b20:	02 c0       	rjmp	.+4      	; 0xb26 <AdcP__sample+0x42>
     b22:	91 e0       	ldi	r25, 0x01	; 1
     b24:	d2 13       	cpse	r29, r18
     b26:	90 e0       	ldi	r25, 0x00	; 0
     b28:	80 91 b3 13 	lds	r24, 0x13B3
     b2c:	90 fb       	bst	r25, 0
     b2e:	81 f9       	bld	r24, 1
     b30:	9d 2f       	mov	r25, r29
     b32:	9f 73       	andi	r25, 0x3F	; 63
     b34:	99 0f       	add	r25, r25
     b36:	99 0f       	add	r25, r25
     b38:	83 70       	andi	r24, 0x03	; 3
     b3a:	89 2b       	or	r24, r25
     b3c:	80 93 b3 13 	sts	0x13B3, r24
     b40:	11 11       	cpse	r17, r1
     b42:	d0 64       	ori	r29, 0x40	; 64
     b44:	d0 93 7c 00 	sts	0x007C, r29
     b48:	80 91 7b 00 	lds	r24, 0x007B
     b4c:	87 7f       	andi	r24, 0xF7	; 247
     b4e:	80 93 7b 00 	sts	0x007B, r24
     b52:	90 91 b3 13 	lds	r25, 0x13B3
     b56:	8c 2f       	mov	r24, r28
     b58:	88 60       	ori	r24, 0x08	; 8
     b5a:	80 61       	ori	r24, 0x10	; 16
     b5c:	90 fb       	bst	r25, 0
     b5e:	85 f9       	bld	r24, 5
     b60:	80 64       	ori	r24, 0x40	; 64
     b62:	80 68       	ori	r24, 0x80	; 128
     b64:	80 93 7a 00 	sts	0x007A, r24
     b68:	0f bf       	out	0x3f, r16	; 63
     b6a:	df 91       	pop	r29
     b6c:	cf 91       	pop	r28
     b6e:	1f 91       	pop	r17
     b70:	0f 91       	pop	r16
     b72:	08 95       	ret
     b74:	c7 e0       	ldi	r28, 0x07	; 7
     b76:	11 e0       	ldi	r17, 0x01	; 1
     b78:	d0 e0       	ldi	r29, 0x00	; 0
     b7a:	c0 cf       	rjmp	.-128    	; 0xafc <AdcP__sample+0x18>

00000b7c <FMClickP__I2CResource__release>:
     b7c:	cf 93       	push	r28
     b7e:	df 93       	push	r29
     b80:	cf b7       	in	r28, 0x3f	; 63
     b82:	f8 94       	cli
     b84:	0e 94 6e 02 	call	0x4dc	; 0x4dc <HplAtm128I2CBusP__I2C__readCurrent>
     b88:	80 91 44 0d 	lds	r24, 0x0D44
     b8c:	8e 7f       	andi	r24, 0xFE	; 254
     b8e:	80 69       	ori	r24, 0x90	; 144
     b90:	80 93 44 0d 	sts	0x0D44, r24
     b94:	0e 94 2a 02 	call	0x454	; 0x454 <HplAtm128I2CBusP__I2C__sendCommand>
     b98:	cf bf       	out	0x3f, r28	; 63
     b9a:	df b7       	in	r29, 0x3f	; 63
     b9c:	f8 94       	cli
     b9e:	80 91 50 03 	lds	r24, 0x0350
     ba2:	83 30       	cpi	r24, 0x03	; 3
     ba4:	c1 f5       	brne	.+112    	; 0xc16 <FMClickP__I2CResource__release+0x9a>
     ba6:	c0 91 0e 02 	lds	r28, 0x020E
     baa:	c1 11       	cpse	r28, r1
     bac:	34 c0       	rjmp	.+104    	; 0xc16 <FMClickP__I2CResource__release+0x9a>
     bae:	80 91 10 02 	lds	r24, 0x0210
     bb2:	8f 3f       	cpi	r24, 0xFF	; 255
     bb4:	c1 f0       	breq	.+48     	; 0xbe6 <FMClickP__I2CResource__release+0x6a>
     bb6:	e8 2f       	mov	r30, r24
     bb8:	f0 e0       	ldi	r31, 0x00	; 0
     bba:	e7 59       	subi	r30, 0x97	; 151
     bbc:	f5 4f       	sbci	r31, 0xF5	; 245
     bbe:	90 81       	ld	r25, Z
     bc0:	90 93 10 02 	sts	0x0210, r25
     bc4:	9f 3f       	cpi	r25, 0xFF	; 255
     bc6:	11 f4       	brne	.+4      	; 0xbcc <FMClickP__I2CResource__release+0x50>
     bc8:	90 93 0f 02 	sts	0x020F, r25
     bcc:	9f ef       	ldi	r25, 0xFF	; 255
     bce:	90 83       	st	Z, r25
     bd0:	80 93 db 0d 	sts	0x0DDB, r24
     bd4:	90 93 0e 02 	sts	0x020E, r25
     bd8:	81 e0       	ldi	r24, 0x01	; 1
     bda:	80 93 50 03 	sts	0x0350, r24
     bde:	88 e1       	ldi	r24, 0x18	; 24
     be0:	0e 94 49 02 	call	0x492	; 0x492 <SchedulerBasicP__TaskBasic__postTask>
     be4:	16 c0       	rjmp	.+44     	; 0xc12 <FMClickP__I2CResource__release+0x96>
     be6:	81 e0       	ldi	r24, 0x01	; 1
     be8:	80 93 0e 02 	sts	0x020E, r24
     bec:	10 92 50 03 	sts	0x0350, r1
     bf0:	80 91 4f 03 	lds	r24, 0x034F
     bf4:	81 30       	cpi	r24, 0x01	; 1
     bf6:	69 f4       	brne	.+26     	; 0xc12 <FMClickP__I2CResource__release+0x96>
     bf8:	0e 94 6e 02 	call	0x4dc	; 0x4dc <HplAtm128I2CBusP__I2C__readCurrent>
     bfc:	80 91 44 0d 	lds	r24, 0x0D44
     c00:	8a 76       	andi	r24, 0x6A	; 106
     c02:	80 93 44 0d 	sts	0x0D44, r24
     c06:	0e 94 2a 02 	call	0x454	; 0x454 <HplAtm128I2CBusP__I2C__sendCommand>
     c0a:	58 98       	cbi	0x0b, 0	; 11
     c0c:	59 98       	cbi	0x0b, 1	; 11
     c0e:	10 92 4f 03 	sts	0x034F, r1
     c12:	df bf       	out	0x3f, r29	; 63
     c14:	02 c0       	rjmp	.+4      	; 0xc1a <FMClickP__I2CResource__release+0x9e>
     c16:	df bf       	out	0x3f, r29	; 63
     c18:	c1 e0       	ldi	r28, 0x01	; 1
     c1a:	8c 2f       	mov	r24, r28
     c1c:	df 91       	pop	r29
     c1e:	cf 91       	pop	r28
     c20:	08 95       	ret

00000c22 <FMClickP__I2C__readDone.isra.103>:
     c22:	cf 93       	push	r28
     c24:	c0 91 52 13 	lds	r28, 0x1352
     c28:	81 30       	cpi	r24, 0x01	; 1
     c2a:	19 f4       	brne	.+6      	; 0xc32 <FMClickP__I2C__readDone.isra.103+0x10>
     c2c:	cf 91       	pop	r28
     c2e:	0c 94 44 04 	jmp	0x888	; 0x888 <FMClickP__readRegisters>
     c32:	0e 94 be 05 	call	0xb7c	; 0xb7c <FMClickP__I2CResource__release>
     c36:	10 92 55 13 	sts	0x1355, r1
     c3a:	40 e0       	ldi	r20, 0x00	; 0
     c3c:	50 e0       	ldi	r21, 0x00	; 0
     c3e:	2a e0       	ldi	r18, 0x0A	; 10
     c40:	da 01       	movw	r26, r20
     c42:	ad 59       	subi	r26, 0x9D	; 157
     c44:	b2 4f       	sbci	r27, 0xF2	; 242
     c46:	e2 2f       	mov	r30, r18
     c48:	f0 e0       	ldi	r31, 0x00	; 0
     c4a:	ee 0f       	add	r30, r30
     c4c:	ff 1f       	adc	r31, r31
     c4e:	ed 55       	subi	r30, 0x5D	; 93
     c50:	fa 4f       	sbci	r31, 0xFA	; 250
     c52:	8c 91       	ld	r24, X
     c54:	90 e0       	ldi	r25, 0x00	; 0
     c56:	98 2f       	mov	r25, r24
     c58:	88 27       	eor	r24, r24
     c5a:	11 96       	adiw	r26, 0x01	; 1
     c5c:	3c 91       	ld	r19, X
     c5e:	83 2b       	or	r24, r19
     c60:	91 83       	std	Z+1, r25	; 0x01
     c62:	80 83       	st	Z, r24
     c64:	2f 5f       	subi	r18, 0xFF	; 255
     c66:	2f 70       	andi	r18, 0x0F	; 15
     c68:	4e 5f       	subi	r20, 0xFE	; 254
     c6a:	5f 4f       	sbci	r21, 0xFF	; 255
     c6c:	40 32       	cpi	r20, 0x20	; 32
     c6e:	51 05       	cpc	r21, r1
     c70:	39 f7       	brne	.-50     	; 0xc40 <FMClickP__I2C__readDone.isra.103+0x1e>
     c72:	c2 30       	cpi	r28, 0x02	; 2
     c74:	59 f0       	breq	.+22     	; 0xc8c <FMClickP__I2C__readDone.isra.103+0x6a>
     c76:	20 f4       	brcc	.+8      	; 0xc80 <FMClickP__I2C__readDone.isra.103+0x5e>
     c78:	c1 30       	cpi	r28, 0x01	; 1
     c7a:	89 f4       	brne	.+34     	; 0xc9e <FMClickP__I2C__readDone.isra.103+0x7c>
     c7c:	84 e1       	ldi	r24, 0x14	; 20
     c7e:	0c c0       	rjmp	.+24     	; 0xc98 <FMClickP__I2C__readDone.isra.103+0x76>
     c80:	c3 30       	cpi	r28, 0x03	; 3
     c82:	39 f0       	breq	.+14     	; 0xc92 <FMClickP__I2C__readDone.isra.103+0x70>
     c84:	c5 30       	cpi	r28, 0x05	; 5
     c86:	59 f4       	brne	.+22     	; 0xc9e <FMClickP__I2C__readDone.isra.103+0x7c>
     c88:	87 e1       	ldi	r24, 0x17	; 23
     c8a:	06 c0       	rjmp	.+12     	; 0xc98 <FMClickP__I2C__readDone.isra.103+0x76>
     c8c:	cf 91       	pop	r28
     c8e:	0c 94 68 02 	jmp	0x4d0	; 0x4d0 <FMClickP__tune__postTask>
     c92:	cf 91       	pop	r28
     c94:	0c 94 6b 02 	jmp	0x4d6	; 0x4d6 <FMClickP__seek__postTask>
     c98:	cf 91       	pop	r28
     c9a:	0c 94 49 02 	jmp	0x492	; 0x492 <SchedulerBasicP__TaskBasic__postTask>
     c9e:	cf 91       	pop	r28
     ca0:	08 95       	ret

00000ca2 <Atm128I2CMasterPacketP__0__readNextByte>:
     ca2:	81 11       	cpse	r24, r1
     ca4:	10 c0       	rjmp	.+32     	; 0xcc6 <Atm128I2CMasterPacketP__0__readNextByte+0x24>
     ca6:	80 91 bb 00 	lds	r24, 0x00BB
     caa:	90 91 fb 12 	lds	r25, 0x12FB
     cae:	e0 91 2b 08 	lds	r30, 0x082B
     cb2:	f0 91 2c 08 	lds	r31, 0x082C
     cb6:	e9 0f       	add	r30, r25
     cb8:	f1 1d       	adc	r31, r1
     cba:	80 83       	st	Z, r24
     cbc:	80 91 fb 12 	lds	r24, 0x12FB
     cc0:	8f 5f       	subi	r24, 0xFF	; 255
     cc2:	80 93 fb 12 	sts	0x12FB, r24
     cc6:	20 91 fb 12 	lds	r18, 0x12FB
     cca:	80 91 6e 03 	lds	r24, 0x036E
     cce:	28 17       	cp	r18, r24
     cd0:	88 f4       	brcc	.+34     	; 0xcf4 <Atm128I2CMasterPacketP__0__readNextByte+0x52>
     cd2:	30 e0       	ldi	r19, 0x00	; 0
     cd4:	90 e0       	ldi	r25, 0x00	; 0
     cd6:	01 97       	sbiw	r24, 0x01	; 1
     cd8:	28 17       	cp	r18, r24
     cda:	39 07       	cpc	r19, r25
     cdc:	49 f4       	brne	.+18     	; 0xcf0 <Atm128I2CMasterPacketP__0__readNextByte+0x4e>
     cde:	80 91 e5 13 	lds	r24, 0x13E5
     ce2:	82 fd       	sbrc	r24, 2
     ce4:	05 c0       	rjmp	.+10     	; 0xcf0 <Atm128I2CMasterPacketP__0__readNextByte+0x4e>
     ce6:	80 91 44 0d 	lds	r24, 0x0D44
     cea:	8f 7b       	andi	r24, 0xBF	; 191
     cec:	80 93 44 0d 	sts	0x0D44, r24
     cf0:	0c 94 2a 02 	jmp	0x454	; 0x454 <HplAtm128I2CBusP__I2C__sendCommand>
     cf4:	80 91 44 0d 	lds	r24, 0x0D44
     cf8:	28 2f       	mov	r18, r24
     cfa:	2e 7f       	andi	r18, 0xFE	; 254
     cfc:	90 91 e5 13 	lds	r25, 0x13E5
     d00:	91 ff       	sbrs	r25, 1
     d02:	0a c0       	rjmp	.+20     	; 0xd18 <Atm128I2CMasterPacketP__0__readNextByte+0x76>
     d04:	9d 7f       	andi	r25, 0xFD	; 253
     d06:	90 93 e5 13 	sts	0x13E5, r25
     d0a:	82 2f       	mov	r24, r18
     d0c:	80 61       	ori	r24, 0x10	; 16
     d0e:	80 93 44 0d 	sts	0x0D44, r24
     d12:	80 91 b9 00 	lds	r24, 0x00B9
     d16:	03 c0       	rjmp	.+6      	; 0xd1e <Atm128I2CMasterPacketP__0__readNextByte+0x7c>
     d18:	8e 77       	andi	r24, 0x7E	; 126
     d1a:	80 93 44 0d 	sts	0x0D44, r24
     d1e:	0e 94 2a 02 	call	0x454	; 0x454 <HplAtm128I2CBusP__I2C__sendCommand>
     d22:	81 e0       	ldi	r24, 0x01	; 1
     d24:	80 93 4f 03 	sts	0x034F, r24
     d28:	80 91 0d 02 	lds	r24, 0x020D
     d2c:	81 11       	cpse	r24, r1
     d2e:	02 c0       	rjmp	.+4      	; 0xd34 <Atm128I2CMasterPacketP__0__readNextByte+0x92>
     d30:	0c 94 11 06 	jmp	0xc22	; 0xc22 <FMClickP__I2C__readDone.isra.103>
     d34:	08 95       	ret

00000d36 <Enc28j60P__setBank>:
     d36:	cf 93       	push	r28
     d38:	df 93       	push	r29
     d3a:	1f 92       	push	r1
     d3c:	cd b7       	in	r28, 0x3d	; 61
     d3e:	de b7       	in	r29, 0x3e	; 62
     d40:	89 83       	std	Y+1, r24	; 0x01
     d42:	0e 94 33 02 	call	0x466	; 0x466 <HplAtm128GeneralIOPinP__8__IO__clr>
     d46:	8f eb       	ldi	r24, 0xBF	; 191
     d48:	0e 94 c2 02 	call	0x584	; 0x584 <Enc28j60P__SpiByte__write>
     d4c:	83 e0       	ldi	r24, 0x03	; 3
     d4e:	0e 94 c2 02 	call	0x584	; 0x584 <Enc28j60P__SpiByte__write>
     d52:	0e 94 31 02 	call	0x462	; 0x462 <HplAtm128GeneralIOPinP__8__IO__set>
     d56:	69 81       	ldd	r22, Y+1	; 0x01
     d58:	8f e1       	ldi	r24, 0x1F	; 31
     d5a:	0f 90       	pop	r0
     d5c:	df 91       	pop	r29
     d5e:	cf 91       	pop	r28
     d60:	0c 94 f0 02 	jmp	0x5e0	; 0x5e0 <Enc28j60P__setBit>

00000d64 <IpTransceiverP__Arp__resolved>:
     d64:	fc 01       	movw	r30, r24
     d66:	00 97       	sbiw	r24, 0x00	; 0
     d68:	11 f4       	brne	.+4      	; 0xd6e <IpTransceiverP__Arp__resolved+0xa>
     d6a:	0c 94 50 05 	jmp	0xaa0	; 0xaa0 <PacketQueueP__2__PacketSender__sendDone.isra.89>
     d6e:	30 91 33 08 	lds	r19, 0x0833
     d72:	90 91 34 08 	lds	r25, 0x0834
     d76:	80 91 ed 07 	lds	r24, 0x07ED
     d7a:	81 11       	cpse	r24, r1
     d7c:	24 c0       	rjmp	.+72     	; 0xdc6 <IpTransceiverP__Arp__resolved+0x62>
     d7e:	4e ee       	ldi	r20, 0xEE	; 238
     d80:	57 e0       	ldi	r21, 0x07	; 7
     d82:	41 15       	cp	r20, r1
     d84:	51 05       	cpc	r21, r1
     d86:	f9 f0       	breq	.+62     	; 0xdc6 <IpTransceiverP__Arp__resolved+0x62>
     d88:	26 e0       	ldi	r18, 0x06	; 6
     d8a:	da 01       	movw	r26, r20
     d8c:	01 90       	ld	r0, Z+
     d8e:	0d 92       	st	X+, r0
     d90:	2a 95       	dec	r18
     d92:	e1 f7       	brne	.-8      	; 0xd8c <IpTransceiverP__Arp__resolved+0x28>
     d94:	40 e0       	ldi	r20, 0x00	; 0
     d96:	58 e0       	ldi	r21, 0x08	; 8
     d98:	50 93 f5 07 	sts	0x07F5, r21
     d9c:	40 93 f4 07 	sts	0x07F4, r20
     da0:	41 e3       	ldi	r20, 0x31	; 49
     da2:	58 e0       	ldi	r21, 0x08	; 8
     da4:	50 93 f7 07 	sts	0x07F7, r21
     da8:	40 93 f6 07 	sts	0x07F6, r20
     dac:	89 2f       	mov	r24, r25
     dae:	90 e0       	ldi	r25, 0x00	; 0
     db0:	93 2b       	or	r25, r19
     db2:	90 93 f9 07 	sts	0x07F9, r25
     db6:	80 93 f8 07 	sts	0x07F8, r24
     dba:	81 e0       	ldi	r24, 0x01	; 1
     dbc:	80 93 ed 07 	sts	0x07ED, r24
     dc0:	8a e0       	ldi	r24, 0x0A	; 10
     dc2:	0c 94 49 02 	jmp	0x492	; 0x492 <SchedulerBasicP__TaskBasic__postTask>
     dc6:	08 95       	ret

00000dc8 <FMClickP__writeRegisters>:
     dc8:	cf 93       	push	r28
     dca:	9f b7       	in	r25, 0x3f	; 63
     dcc:	f8 94       	cli
     dce:	80 91 54 13 	lds	r24, 0x1354
     dd2:	9f bf       	out	0x3f, r25	; 63
     dd4:	81 11       	cpse	r24, r1
     dd6:	2d c0       	rjmp	.+90     	; 0xe32 <FMClickP__writeRegisters+0x6a>
     dd8:	9f b7       	in	r25, 0x3f	; 63
     dda:	f8 94       	cli
     ddc:	80 91 fa 12 	lds	r24, 0x12FA
     de0:	88 0f       	add	r24, r24
     de2:	82 50       	subi	r24, 0x02	; 2
     de4:	9f bf       	out	0x3f, r25	; 63
     de6:	20 e0       	ldi	r18, 0x00	; 0
     de8:	92 e0       	ldi	r25, 0x02	; 2
     dea:	28 17       	cp	r18, r24
     dec:	b0 f4       	brcc	.+44     	; 0xe1a <FMClickP__writeRegisters+0x52>
     dee:	3f b7       	in	r19, 0x3f	; 63
     df0:	f8 94       	cli
     df2:	42 2f       	mov	r20, r18
     df4:	50 e0       	ldi	r21, 0x00	; 0
     df6:	e9 2f       	mov	r30, r25
     df8:	f0 e0       	ldi	r31, 0x00	; 0
     dfa:	ee 0f       	add	r30, r30
     dfc:	ff 1f       	adc	r31, r31
     dfe:	ed 55       	subi	r30, 0x5D	; 93
     e00:	fa 4f       	sbci	r31, 0xFA	; 250
     e02:	60 81       	ld	r22, Z
     e04:	71 81       	ldd	r23, Z+1	; 0x01
     e06:	fa 01       	movw	r30, r20
     e08:	ed 59       	subi	r30, 0x9D	; 157
     e0a:	f2 4f       	sbci	r31, 0xF2	; 242
     e0c:	70 83       	st	Z, r23
     e0e:	61 83       	std	Z+1, r22	; 0x01
     e10:	3f bf       	out	0x3f, r19	; 63
     e12:	9f 5f       	subi	r25, 0xFF	; 255
     e14:	9f 70       	andi	r25, 0x0F	; 15
     e16:	2e 5f       	subi	r18, 0xFE	; 254
     e18:	e8 cf       	rjmp	.-48     	; 0xdea <FMClickP__writeRegisters+0x22>
     e1a:	8f b7       	in	r24, 0x3f	; 63
     e1c:	f8 94       	cli
     e1e:	92 e0       	ldi	r25, 0x02	; 2
     e20:	90 93 55 13 	sts	0x1355, r25
     e24:	91 e0       	ldi	r25, 0x01	; 1
     e26:	90 93 54 13 	sts	0x1354, r25
     e2a:	8f bf       	out	0x3f, r24	; 63
     e2c:	cf 91       	pop	r28
     e2e:	0c 94 dc 03 	jmp	0x7b8	; 0x7b8 <ArbiterP__0__Resource__request.constprop.171>
     e32:	81 30       	cpi	r24, 0x01	; 1
     e34:	09 f0       	breq	.+2      	; 0xe38 <FMClickP__writeRegisters+0x70>
     e36:	45 c0       	rjmp	.+138    	; 0xec2 <FMClickP__writeRegisters+0xfa>
     e38:	9f b7       	in	r25, 0x3f	; 63
     e3a:	f8 94       	cli
     e3c:	80 91 fa 12 	lds	r24, 0x12FA
     e40:	9f bf       	out	0x3f, r25	; 63
     e42:	9f b7       	in	r25, 0x3f	; 63
     e44:	f8 94       	cli
     e46:	20 91 0d 02 	lds	r18, 0x020D
     e4a:	21 11       	cpse	r18, r1
     e4c:	f9 cf       	rjmp	.-14     	; 0xe40 <FMClickP__writeRegisters+0x78>
     e4e:	9f bf       	out	0x3f, r25	; 63
     e50:	9f b7       	in	r25, 0x3f	; 63
     e52:	f8 94       	cli
     e54:	20 91 4f 03 	lds	r18, 0x034F
     e58:	21 30       	cpi	r18, 0x01	; 1
     e5a:	91 f7       	brne	.-28     	; 0xe40 <FMClickP__writeRegisters+0x78>
     e5c:	22 e0       	ldi	r18, 0x02	; 2
     e5e:	20 93 4f 03 	sts	0x034F, r18
     e62:	9f bf       	out	0x3f, r25	; 63
     e64:	9f b7       	in	r25, 0x3f	; 63
     e66:	f8 94       	cli
     e68:	20 e1       	ldi	r18, 0x10	; 16
     e6a:	30 e0       	ldi	r19, 0x00	; 0
     e6c:	30 93 63 0a 	sts	0x0A63, r19
     e70:	20 93 62 0a 	sts	0x0A62, r18
     e74:	23 e6       	ldi	r18, 0x63	; 99
     e76:	3d e0       	ldi	r19, 0x0D	; 13
     e78:	30 93 2c 08 	sts	0x082C, r19
     e7c:	20 93 2b 08 	sts	0x082B, r18
     e80:	88 0f       	add	r24, r24
     e82:	82 50       	subi	r24, 0x02	; 2
     e84:	80 93 6e 03 	sts	0x036E, r24
     e88:	83 e0       	ldi	r24, 0x03	; 3
     e8a:	80 93 e5 13 	sts	0x13E5, r24
     e8e:	10 92 fb 12 	sts	0x12FB, r1
     e92:	10 92 4e 03 	sts	0x034E, r1
     e96:	9f bf       	out	0x3f, r25	; 63
     e98:	0e 94 6e 02 	call	0x4dc	; 0x4dc <HplAtm128I2CBusP__I2C__readCurrent>
     e9c:	cf b7       	in	r28, 0x3f	; 63
     e9e:	f8 94       	cli
     ea0:	80 91 44 0d 	lds	r24, 0x0D44
     ea4:	8f 7e       	andi	r24, 0xEF	; 239
     ea6:	81 6e       	ori	r24, 0xE1	; 225
     ea8:	80 93 44 0d 	sts	0x0D44, r24
     eac:	84 e0       	ldi	r24, 0x04	; 4
     eae:	80 93 4f 03 	sts	0x034F, r24
     eb2:	0e 94 2a 02 	call	0x454	; 0x454 <HplAtm128I2CBusP__I2C__sendCommand>
     eb6:	cf bf       	out	0x3f, r28	; 63
     eb8:	8f b7       	in	r24, 0x3f	; 63
     eba:	f8 94       	cli
     ebc:	10 92 54 13 	sts	0x1354, r1
     ec0:	8f bf       	out	0x3f, r24	; 63
     ec2:	cf 91       	pop	r28
     ec4:	08 95       	ret

00000ec6 <Atm128I2CMasterImplP__0__SubPacket__writeDone.isra.98>:
     ec6:	cf 93       	push	r28
     ec8:	90 91 0d 02 	lds	r25, 0x020D
     ecc:	91 11       	cpse	r25, r1
     ece:	21 c0       	rjmp	.+66     	; 0xf12 <Atm128I2CMasterImplP__0__SubPacket__writeDone.isra.98+0x4c>
     ed0:	c0 91 52 13 	lds	r28, 0x1352
     ed4:	81 30       	cpi	r24, 0x01	; 1
     ed6:	19 f4       	brne	.+6      	; 0xede <Atm128I2CMasterImplP__0__SubPacket__writeDone.isra.98+0x18>
     ed8:	cf 91       	pop	r28
     eda:	0c 94 e4 06 	jmp	0xdc8	; 0xdc8 <FMClickP__writeRegisters>
     ede:	0e 94 be 05 	call	0xb7c	; 0xb7c <FMClickP__I2CResource__release>
     ee2:	10 92 55 13 	sts	0x1355, r1
     ee6:	c2 30       	cpi	r28, 0x02	; 2
     ee8:	71 f0       	breq	.+28     	; 0xf06 <Atm128I2CMasterImplP__0__SubPacket__writeDone.isra.98+0x40>
     eea:	30 f4       	brcc	.+12     	; 0xef8 <Atm128I2CMasterImplP__0__SubPacket__writeDone.isra.98+0x32>
     eec:	c1 30       	cpi	r28, 0x01	; 1
     eee:	89 f4       	brne	.+34     	; 0xf12 <Atm128I2CMasterImplP__0__SubPacket__writeDone.isra.98+0x4c>
     ef0:	84 e1       	ldi	r24, 0x14	; 20
     ef2:	cf 91       	pop	r28
     ef4:	0c 94 49 02 	jmp	0x492	; 0x492 <SchedulerBasicP__TaskBasic__postTask>
     ef8:	c3 30       	cpi	r28, 0x03	; 3
     efa:	41 f0       	breq	.+16     	; 0xf0c <Atm128I2CMasterImplP__0__SubPacket__writeDone.isra.98+0x46>
     efc:	c4 30       	cpi	r28, 0x04	; 4
     efe:	49 f4       	brne	.+18     	; 0xf12 <Atm128I2CMasterImplP__0__SubPacket__writeDone.isra.98+0x4c>
     f00:	10 92 52 13 	sts	0x1352, r1
     f04:	06 c0       	rjmp	.+12     	; 0xf12 <Atm128I2CMasterImplP__0__SubPacket__writeDone.isra.98+0x4c>
     f06:	cf 91       	pop	r28
     f08:	0c 94 68 02 	jmp	0x4d0	; 0x4d0 <FMClickP__tune__postTask>
     f0c:	cf 91       	pop	r28
     f0e:	0c 94 6b 02 	jmp	0x4d6	; 0x4d6 <FMClickP__seek__postTask>
     f12:	cf 91       	pop	r28
     f14:	08 95       	ret

00000f16 <Atm128I2CMasterPacketP__0__writeNextByte>:
     f16:	80 91 fb 12 	lds	r24, 0x12FB
     f1a:	90 91 6e 03 	lds	r25, 0x036E
     f1e:	89 17       	cp	r24, r25
     f20:	80 f4       	brcc	.+32     	; 0xf42 <Atm128I2CMasterPacketP__0__writeNextByte+0x2c>
     f22:	e0 91 2b 08 	lds	r30, 0x082B
     f26:	f0 91 2c 08 	lds	r31, 0x082C
     f2a:	e8 0f       	add	r30, r24
     f2c:	f1 1d       	adc	r31, r1
     f2e:	80 81       	ld	r24, Z
     f30:	80 93 bb 00 	sts	0x00BB, r24
     f34:	80 91 fb 12 	lds	r24, 0x12FB
     f38:	8f 5f       	subi	r24, 0xFF	; 255
     f3a:	80 93 fb 12 	sts	0x12FB, r24
     f3e:	0c 94 2a 02 	jmp	0x454	; 0x454 <HplAtm128I2CBusP__I2C__sendCommand>
     f42:	80 91 44 0d 	lds	r24, 0x0D44
     f46:	28 2f       	mov	r18, r24
     f48:	2e 7f       	andi	r18, 0xFE	; 254
     f4a:	90 91 e5 13 	lds	r25, 0x13E5
     f4e:	91 ff       	sbrs	r25, 1
     f50:	06 c0       	rjmp	.+12     	; 0xf5e <Atm128I2CMasterPacketP__0__writeNextByte+0x48>
     f52:	9d 7f       	andi	r25, 0xFD	; 253
     f54:	90 93 e5 13 	sts	0x13E5, r25
     f58:	82 2f       	mov	r24, r18
     f5a:	80 61       	ori	r24, 0x10	; 16
     f5c:	01 c0       	rjmp	.+2      	; 0xf60 <Atm128I2CMasterPacketP__0__writeNextByte+0x4a>
     f5e:	8e 77       	andi	r24, 0x7E	; 126
     f60:	80 93 44 0d 	sts	0x0D44, r24
     f64:	0e 94 2a 02 	call	0x454	; 0x454 <HplAtm128I2CBusP__I2C__sendCommand>
     f68:	81 e0       	ldi	r24, 0x01	; 1
     f6a:	80 93 4f 03 	sts	0x034F, r24
     f6e:	80 e0       	ldi	r24, 0x00	; 0
     f70:	0c 94 63 07 	jmp	0xec6	; 0xec6 <Atm128I2CMasterImplP__0__SubPacket__writeDone.isra.98>

00000f74 <Atm128I2CMasterPacketP__0__i2c_abort>:
     f74:	cf 93       	push	r28
     f76:	df 93       	push	r29
     f78:	1f 92       	push	r1
     f7a:	cd b7       	in	r28, 0x3d	; 61
     f7c:	de b7       	in	r29, 0x3e	; 62
     f7e:	89 83       	std	Y+1, r24	; 0x01
     f80:	0e 94 6e 02 	call	0x4dc	; 0x4dc <HplAtm128I2CBusP__I2C__readCurrent>
     f84:	90 91 44 0d 	lds	r25, 0x0D44
     f88:	9a 7f       	andi	r25, 0xFA	; 250
     f8a:	90 93 44 0d 	sts	0x0D44, r25
     f8e:	0e 94 2a 02 	call	0x454	; 0x454 <HplAtm128I2CBusP__I2C__sendCommand>
     f92:	0e 94 6e 02 	call	0x4dc	; 0x4dc <HplAtm128I2CBusP__I2C__readCurrent>
     f96:	90 91 44 0d 	lds	r25, 0x0D44
     f9a:	94 60       	ori	r25, 0x04	; 4
     f9c:	90 93 44 0d 	sts	0x0D44, r25
     fa0:	0e 94 2a 02 	call	0x454	; 0x454 <HplAtm128I2CBusP__I2C__sendCommand>
     fa4:	91 e0       	ldi	r25, 0x01	; 1
     fa6:	90 93 4f 03 	sts	0x034F, r25
     faa:	90 91 4e 03 	lds	r25, 0x034E
     fae:	89 81       	ldd	r24, Y+1	; 0x01
     fb0:	99 23       	and	r25, r25
     fb2:	49 f0       	breq	.+18     	; 0xfc6 <Atm128I2CMasterPacketP__0__i2c_abort+0x52>
     fb4:	90 91 0d 02 	lds	r25, 0x020D
     fb8:	91 11       	cpse	r25, r1
     fba:	0a c0       	rjmp	.+20     	; 0xfd0 <Atm128I2CMasterPacketP__0__i2c_abort+0x5c>
     fbc:	0f 90       	pop	r0
     fbe:	df 91       	pop	r29
     fc0:	cf 91       	pop	r28
     fc2:	0c 94 11 06 	jmp	0xc22	; 0xc22 <FMClickP__I2C__readDone.isra.103>
     fc6:	0f 90       	pop	r0
     fc8:	df 91       	pop	r29
     fca:	cf 91       	pop	r28
     fcc:	0c 94 63 07 	jmp	0xec6	; 0xec6 <Atm128I2CMasterImplP__0__SubPacket__writeDone.isra.98>
     fd0:	0f 90       	pop	r0
     fd2:	df 91       	pop	r29
     fd4:	cf 91       	pop	r28
     fd6:	08 95       	ret

00000fd8 <HplKS0108P__busy_wait_controller>:
     fd8:	88 23       	and	r24, r24
     fda:	29 f0       	breq	.+10     	; 0xfe6 <HplKS0108P__busy_wait_controller+0xe>
     fdc:	81 30       	cpi	r24, 0x01	; 1
     fde:	29 f4       	brne	.+10     	; 0xfea <HplKS0108P__busy_wait_controller+0x12>
     fe0:	72 98       	cbi	0x0e, 2	; 14
     fe2:	73 9a       	sbi	0x0e, 3	; 14
     fe4:	02 c0       	rjmp	.+4      	; 0xfea <HplKS0108P__busy_wait_controller+0x12>
     fe6:	73 98       	cbi	0x0e, 3	; 14
     fe8:	72 9a       	sbi	0x0e, 2	; 14
     fea:	82 b1       	in	r24, 0x02	; 2
     fec:	82 b9       	out	0x02, r24	; 2
     fee:	81 b1       	in	r24, 0x01	; 1
     ff0:	11 b8       	out	0x01, r1	; 1
     ff2:	74 98       	cbi	0x0e, 4	; 14
     ff4:	75 9a       	sbi	0x0e, 5	; 14
     ff6:	0e 94 35 02 	call	0x46a	; 0x46a <HplAtm128GeneralIOPinP__38__IO__set>
     ffa:	82 e0       	ldi	r24, 0x02	; 2
     ffc:	90 e0       	ldi	r25, 0x00	; 0
     ffe:	0e 94 d3 03 	call	0x7a6	; 0x7a6 <BusyWaitMicroC__BusyWait__wait.part.18>
    1002:	80 b1       	in	r24, 0x00	; 0
    1004:	07 9b       	sbis	0x00, 7	; 0
    1006:	0d c0       	rjmp	.+26     	; 0x1022 <HplKS0108P__busy_wait_controller+0x4a>
    1008:	0e 94 2f 02 	call	0x45e	; 0x45e <HplAtm128GeneralIOPinP__38__IO__clr>
    100c:	82 e0       	ldi	r24, 0x02	; 2
    100e:	90 e0       	ldi	r25, 0x00	; 0
    1010:	0e 94 d3 03 	call	0x7a6	; 0x7a6 <BusyWaitMicroC__BusyWait__wait.part.18>
    1014:	0e 94 35 02 	call	0x46a	; 0x46a <HplAtm128GeneralIOPinP__38__IO__set>
    1018:	82 e0       	ldi	r24, 0x02	; 2
    101a:	90 e0       	ldi	r25, 0x00	; 0
    101c:	0e 94 d3 03 	call	0x7a6	; 0x7a6 <BusyWaitMicroC__BusyWait__wait.part.18>
    1020:	f1 cf       	rjmp	.-30     	; 0x1004 <HplKS0108P__busy_wait_controller+0x2c>
    1022:	0e 94 2f 02 	call	0x45e	; 0x45e <HplAtm128GeneralIOPinP__38__IO__clr>
    1026:	75 98       	cbi	0x0e, 5	; 14
    1028:	81 b1       	in	r24, 0x01	; 1
    102a:	8f ef       	ldi	r24, 0xFF	; 255
    102c:	81 b9       	out	0x01, r24	; 1
    102e:	08 95       	ret

00001030 <HplKS0108P__HplKS0108__dataRead>:
    1030:	cf 93       	push	r28
    1032:	df 93       	push	r29
    1034:	1f 92       	push	r1
    1036:	cd b7       	in	r28, 0x3d	; 61
    1038:	de b7       	in	r29, 0x3e	; 62
    103a:	0e 94 ec 07 	call	0xfd8	; 0xfd8 <HplKS0108P__busy_wait_controller>
    103e:	81 b1       	in	r24, 0x01	; 1
    1040:	11 b8       	out	0x01, r1	; 1
    1042:	74 9a       	sbi	0x0e, 4	; 14
    1044:	75 9a       	sbi	0x0e, 5	; 14
    1046:	0e 94 35 02 	call	0x46a	; 0x46a <HplAtm128GeneralIOPinP__38__IO__set>
    104a:	82 e0       	ldi	r24, 0x02	; 2
    104c:	90 e0       	ldi	r25, 0x00	; 0
    104e:	0e 94 d3 03 	call	0x7a6	; 0x7a6 <BusyWaitMicroC__BusyWait__wait.part.18>
    1052:	80 b1       	in	r24, 0x00	; 0
    1054:	0e 94 2f 02 	call	0x45e	; 0x45e <HplAtm128GeneralIOPinP__38__IO__clr>
    1058:	82 e0       	ldi	r24, 0x02	; 2
    105a:	90 e0       	ldi	r25, 0x00	; 0
    105c:	0e 94 d3 03 	call	0x7a6	; 0x7a6 <BusyWaitMicroC__BusyWait__wait.part.18>
    1060:	0e 94 35 02 	call	0x46a	; 0x46a <HplAtm128GeneralIOPinP__38__IO__set>
    1064:	82 e0       	ldi	r24, 0x02	; 2
    1066:	90 e0       	ldi	r25, 0x00	; 0
    1068:	0e 94 d3 03 	call	0x7a6	; 0x7a6 <BusyWaitMicroC__BusyWait__wait.part.18>
    106c:	80 b1       	in	r24, 0x00	; 0
    106e:	89 83       	std	Y+1, r24	; 0x01
    1070:	0e 94 2f 02 	call	0x45e	; 0x45e <HplAtm128GeneralIOPinP__38__IO__clr>
    1074:	89 81       	ldd	r24, Y+1	; 0x01
    1076:	0f 90       	pop	r0
    1078:	df 91       	pop	r29
    107a:	cf 91       	pop	r28
    107c:	08 95       	ret

0000107e <VirtualizeTimerC__0__Timer__startOneShot>:
    107e:	cf 92       	push	r12
    1080:	df 92       	push	r13
    1082:	ef 92       	push	r14
    1084:	ff 92       	push	r15
    1086:	cf 93       	push	r28
    1088:	c8 2f       	mov	r28, r24
    108a:	6a 01       	movw	r12, r20
    108c:	7b 01       	movw	r14, r22
    108e:	0e 94 92 02 	call	0x524	; 0x524 <Atm1280AlarmSyncP__0__Counter__get>
    1092:	29 e0       	ldi	r18, 0x09	; 9
    1094:	c2 9f       	mul	r28, r18
    1096:	f0 01       	movw	r30, r0
    1098:	11 24       	eor	r1, r1
    109a:	df 01       	movw	r26, r30
    109c:	a0 5e       	subi	r26, 0xE0	; 224
    109e:	b2 4f       	sbci	r27, 0xF2	; 242
    10a0:	6d 93       	st	X+, r22
    10a2:	7d 93       	st	X+, r23
    10a4:	8d 93       	st	X+, r24
    10a6:	9c 93       	st	X, r25
    10a8:	13 97       	sbiw	r26, 0x03	; 3
    10aa:	14 96       	adiw	r26, 0x04	; 4
    10ac:	cd 92       	st	X+, r12
    10ae:	dd 92       	st	X+, r13
    10b0:	ed 92       	st	X+, r14
    10b2:	fc 92       	st	X, r15
    10b4:	17 97       	sbiw	r26, 0x07	; 7
    10b6:	e8 5d       	subi	r30, 0xD8	; 216
    10b8:	f2 4f       	sbci	r31, 0xF2	; 242
    10ba:	80 81       	ld	r24, Z
    10bc:	81 60       	ori	r24, 0x01	; 1
    10be:	82 60       	ori	r24, 0x02	; 2
    10c0:	80 83       	st	Z, r24
    10c2:	8c e0       	ldi	r24, 0x0C	; 12
    10c4:	cf 91       	pop	r28
    10c6:	ff 90       	pop	r15
    10c8:	ef 90       	pop	r14
    10ca:	df 90       	pop	r13
    10cc:	cf 90       	pop	r12
    10ce:	0c 94 49 02 	jmp	0x492	; 0x492 <SchedulerBasicP__TaskBasic__postTask>

000010d2 <ArpP__sendRequest>:
    10d2:	81 e0       	ldi	r24, 0x01	; 1
    10d4:	80 93 64 03 	sts	0x0364, r24
    10d8:	46 eb       	ldi	r20, 0xB6	; 182
    10da:	53 e1       	ldi	r21, 0x13	; 19
    10dc:	66 e0       	ldi	r22, 0x06	; 6
    10de:	72 e0       	ldi	r23, 0x02	; 2
    10e0:	0e 94 07 03 	call	0x60e	; 0x60e <ArpP__send_packet>
    10e4:	44 e6       	ldi	r20, 0x64	; 100
    10e6:	50 e0       	ldi	r21, 0x00	; 0
    10e8:	60 e0       	ldi	r22, 0x00	; 0
    10ea:	70 e0       	ldi	r23, 0x00	; 0
    10ec:	80 e0       	ldi	r24, 0x00	; 0
    10ee:	0c 94 3f 08 	jmp	0x107e	; 0x107e <VirtualizeTimerC__0__Timer__startOneShot>

000010f2 <VirtualizeTimerC__0__fireTimers>:
    10f2:	4f 92       	push	r4
    10f4:	5f 92       	push	r5
    10f6:	6f 92       	push	r6
    10f8:	7f 92       	push	r7
    10fa:	8f 92       	push	r8
    10fc:	9f 92       	push	r9
    10fe:	af 92       	push	r10
    1100:	bf 92       	push	r11
    1102:	cf 92       	push	r12
    1104:	df 92       	push	r13
    1106:	ff 92       	push	r15
    1108:	0f 93       	push	r16
    110a:	1f 93       	push	r17
    110c:	cf 93       	push	r28
    110e:	df 93       	push	r29
    1110:	a0 e2       	ldi	r26, 0x20	; 32
    1112:	bd e0       	ldi	r27, 0x0D	; 13
    1114:	c1 2c       	mov	r12, r1
    1116:	d1 2c       	mov	r13, r1
    1118:	49 e0       	ldi	r20, 0x09	; 9
    111a:	4c 9d       	mul	r20, r12
    111c:	f0 01       	movw	r30, r0
    111e:	4d 9d       	mul	r20, r13
    1120:	f0 0d       	add	r31, r0
    1122:	11 24       	eor	r1, r1
    1124:	ef 01       	movw	r28, r30
    1126:	c0 5e       	subi	r28, 0xE0	; 224
    1128:	d2 4f       	sbci	r29, 0xF2	; 242
    112a:	f8 84       	ldd	r15, Y+8	; 0x08
    112c:	f1 fe       	sbrs	r15, 1
    112e:	a9 c0       	rjmp	.+338    	; 0x1282 <VirtualizeTimerC__0__fireTimers+0x190>
    1130:	0d 91       	ld	r16, X+
    1132:	1d 91       	ld	r17, X+
    1134:	2d 91       	ld	r18, X+
    1136:	3c 91       	ld	r19, X
    1138:	13 97       	sbiw	r26, 0x03	; 3
    113a:	14 96       	adiw	r26, 0x04	; 4
    113c:	8d 90       	ld	r8, X+
    113e:	9d 90       	ld	r9, X+
    1140:	ad 90       	ld	r10, X+
    1142:	bc 90       	ld	r11, X
    1144:	17 97       	sbiw	r26, 0x07	; 7
    1146:	2b 01       	movw	r4, r22
    1148:	3c 01       	movw	r6, r24
    114a:	40 1a       	sub	r4, r16
    114c:	51 0a       	sbc	r5, r17
    114e:	62 0a       	sbc	r6, r18
    1150:	73 0a       	sbc	r7, r19
    1152:	48 14       	cp	r4, r8
    1154:	59 04       	cpc	r5, r9
    1156:	6a 04       	cpc	r6, r10
    1158:	7b 04       	cpc	r7, r11
    115a:	08 f4       	brcc	.+2      	; 0x115e <VirtualizeTimerC__0__fireTimers+0x6c>
    115c:	92 c0       	rjmp	.+292    	; 0x1282 <VirtualizeTimerC__0__fireTimers+0x190>
    115e:	f0 fe       	sbrs	r15, 0
    1160:	06 c0       	rjmp	.+12     	; 0x116e <VirtualizeTimerC__0__fireTimers+0x7c>
    1162:	e8 5d       	subi	r30, 0xD8	; 216
    1164:	f2 4f       	sbci	r31, 0xF2	; 242
    1166:	20 81       	ld	r18, Z
    1168:	2d 7f       	andi	r18, 0xFD	; 253
    116a:	20 83       	st	Z, r18
    116c:	0a c0       	rjmp	.+20     	; 0x1182 <VirtualizeTimerC__0__fireTimers+0x90>
    116e:	b9 01       	movw	r22, r18
    1170:	a8 01       	movw	r20, r16
    1172:	48 0d       	add	r20, r8
    1174:	59 1d       	adc	r21, r9
    1176:	6a 1d       	adc	r22, r10
    1178:	7b 1d       	adc	r23, r11
    117a:	48 83       	st	Y, r20
    117c:	59 83       	std	Y+1, r21	; 0x01
    117e:	6a 83       	std	Y+2, r22	; 0x02
    1180:	7b 83       	std	Y+3, r23	; 0x03
    1182:	22 e0       	ldi	r18, 0x02	; 2
    1184:	c2 16       	cp	r12, r18
    1186:	b9 f1       	breq	.+110    	; 0x11f6 <VirtualizeTimerC__0__fireTimers+0x104>
    1188:	83 e0       	ldi	r24, 0x03	; 3
    118a:	c8 16       	cp	r12, r24
    118c:	09 f4       	brne	.+2      	; 0x1190 <VirtualizeTimerC__0__fireTimers+0x9e>
    118e:	3f c0       	rjmp	.+126    	; 0x120e <VirtualizeTimerC__0__fireTimers+0x11c>
    1190:	21 e0       	ldi	r18, 0x01	; 1
    1192:	c2 12       	cpse	r12, r18
    1194:	21 c0       	rjmp	.+66     	; 0x11d8 <VirtualizeTimerC__0__fireTimers+0xe6>
    1196:	10 92 bd 13 	sts	0x13BD, r1
    119a:	10 92 be 13 	sts	0x13BE, r1
    119e:	10 92 bf 13 	sts	0x13BF, r1
    11a2:	10 92 c0 13 	sts	0x13C0, r1
    11a6:	10 92 c7 13 	sts	0x13C7, r1
    11aa:	10 92 c8 13 	sts	0x13C8, r1
    11ae:	10 92 c9 13 	sts	0x13C9, r1
    11b2:	10 92 ca 13 	sts	0x13CA, r1
    11b6:	10 92 d1 13 	sts	0x13D1, r1
    11ba:	10 92 d2 13 	sts	0x13D2, r1
    11be:	10 92 d3 13 	sts	0x13D3, r1
    11c2:	10 92 d4 13 	sts	0x13D4, r1
    11c6:	10 92 db 13 	sts	0x13DB, r1
    11ca:	10 92 dc 13 	sts	0x13DC, r1
    11ce:	10 92 dd 13 	sts	0x13DD, r1
    11d2:	10 92 de 13 	sts	0x13DE, r1
    11d6:	5e c0       	rjmp	.+188    	; 0x1294 <VirtualizeTimerC__0__fireTimers+0x1a2>
    11d8:	10 92 64 03 	sts	0x0364, r1
    11dc:	80 91 65 03 	lds	r24, 0x0365
    11e0:	8f 5f       	subi	r24, 0xFF	; 255
    11e2:	80 93 65 03 	sts	0x0365, r24
    11e6:	83 30       	cpi	r24, 0x03	; 3
    11e8:	18 f4       	brcc	.+6      	; 0x11f0 <VirtualizeTimerC__0__fireTimers+0xfe>
    11ea:	0e 94 69 08 	call	0x10d2	; 0x10d2 <ArpP__sendRequest>
    11ee:	52 c0       	rjmp	.+164    	; 0x1294 <VirtualizeTimerC__0__fireTimers+0x1a2>
    11f0:	0e 94 50 05 	call	0xaa0	; 0xaa0 <PacketQueueP__2__PacketSender__sendDone.isra.89>
    11f4:	4f c0       	rjmp	.+158    	; 0x1294 <VirtualizeTimerC__0__fireTimers+0x1a2>
    11f6:	9f b7       	in	r25, 0x3f	; 63
    11f8:	f8 94       	cli
    11fa:	80 91 52 13 	lds	r24, 0x1352
    11fe:	9f bf       	out	0x3f, r25	; 63
    1200:	81 30       	cpi	r24, 0x01	; 1
    1202:	09 f0       	breq	.+2      	; 0x1206 <VirtualizeTimerC__0__fireTimers+0x114>
    1204:	47 c0       	rjmp	.+142    	; 0x1294 <VirtualizeTimerC__0__fireTimers+0x1a2>
    1206:	84 e1       	ldi	r24, 0x14	; 20
    1208:	0e 94 49 02 	call	0x492	; 0x492 <SchedulerBasicP__TaskBasic__postTask>
    120c:	43 c0       	rjmp	.+134    	; 0x1294 <VirtualizeTimerC__0__fireTimers+0x1a2>
    120e:	9f b7       	in	r25, 0x3f	; 63
    1210:	f8 94       	cli
    1212:	80 91 4c 03 	lds	r24, 0x034C
    1216:	81 11       	cpse	r24, r1
    1218:	27 c0       	rjmp	.+78     	; 0x1268 <VirtualizeTimerC__0__fireTimers+0x176>
    121a:	81 e0       	ldi	r24, 0x01	; 1
    121c:	80 93 4c 03 	sts	0x034C, r24
    1220:	10 92 61 0a 	sts	0x0A61, r1
    1224:	9f bf       	out	0x3f, r25	; 63
    1226:	9f b7       	in	r25, 0x3f	; 63
    1228:	f8 94       	cli
    122a:	80 91 7a 00 	lds	r24, 0x007A
    122e:	80 68       	ori	r24, 0x80	; 128
    1230:	80 93 7a 00 	sts	0x007A, r24
    1234:	9f bf       	out	0x3f, r25	; 63
    1236:	cf b7       	in	r28, 0x3f	; 63
    1238:	f8 94       	cli
    123a:	80 91 0c 02 	lds	r24, 0x020C
    123e:	81 30       	cpi	r24, 0x01	; 1
    1240:	89 f4       	brne	.+34     	; 0x1264 <VirtualizeTimerC__0__fireTimers+0x172>
    1242:	80 91 4c 03 	lds	r24, 0x034C
    1246:	81 30       	cpi	r24, 0x01	; 1
    1248:	21 f4       	brne	.+8      	; 0x1252 <VirtualizeTimerC__0__fireTimers+0x160>
    124a:	8a e1       	ldi	r24, 0x1A	; 26
    124c:	0e 94 49 02 	call	0x492	; 0x492 <SchedulerBasicP__TaskBasic__postTask>
    1250:	09 c0       	rjmp	.+18     	; 0x1264 <VirtualizeTimerC__0__fireTimers+0x172>
    1252:	82 30       	cpi	r24, 0x02	; 2
    1254:	39 f4       	brne	.+14     	; 0x1264 <VirtualizeTimerC__0__fireTimers+0x172>
    1256:	80 91 61 0a 	lds	r24, 0x0A61
    125a:	80 93 0c 02 	sts	0x020C, r24
    125e:	83 e0       	ldi	r24, 0x03	; 3
    1260:	80 93 4c 03 	sts	0x034C, r24
    1264:	cf bf       	out	0x3f, r28	; 63
    1266:	16 c0       	rjmp	.+44     	; 0x1294 <VirtualizeTimerC__0__fireTimers+0x1a2>
    1268:	80 91 61 0a 	lds	r24, 0x0A61
    126c:	88 23       	and	r24, r24
    126e:	39 f0       	breq	.+14     	; 0x127e <VirtualizeTimerC__0__fireTimers+0x18c>
    1270:	80 91 1f 0d 	lds	r24, 0x0D1F
    1274:	80 fd       	sbrc	r24, 0
    1276:	03 c0       	rjmp	.+6      	; 0x127e <VirtualizeTimerC__0__fireTimers+0x18c>
    1278:	81 60       	ori	r24, 0x01	; 1
    127a:	80 93 1f 0d 	sts	0x0D1F, r24
    127e:	9f bf       	out	0x3f, r25	; 63
    1280:	09 c0       	rjmp	.+18     	; 0x1294 <VirtualizeTimerC__0__fireTimers+0x1a2>
    1282:	2f ef       	ldi	r18, 0xFF	; 255
    1284:	c2 1a       	sub	r12, r18
    1286:	d2 0a       	sbc	r13, r18
    1288:	19 96       	adiw	r26, 0x09	; 9
    128a:	24 e0       	ldi	r18, 0x04	; 4
    128c:	c2 16       	cp	r12, r18
    128e:	d1 04       	cpc	r13, r1
    1290:	09 f0       	breq	.+2      	; 0x1294 <VirtualizeTimerC__0__fireTimers+0x1a2>
    1292:	43 cf       	rjmp	.-378    	; 0x111a <VirtualizeTimerC__0__fireTimers+0x28>
    1294:	8c e0       	ldi	r24, 0x0C	; 12
    1296:	df 91       	pop	r29
    1298:	cf 91       	pop	r28
    129a:	1f 91       	pop	r17
    129c:	0f 91       	pop	r16
    129e:	ff 90       	pop	r15
    12a0:	df 90       	pop	r13
    12a2:	cf 90       	pop	r12
    12a4:	bf 90       	pop	r11
    12a6:	af 90       	pop	r10
    12a8:	9f 90       	pop	r9
    12aa:	8f 90       	pop	r8
    12ac:	7f 90       	pop	r7
    12ae:	6f 90       	pop	r6
    12b0:	5f 90       	pop	r5
    12b2:	4f 90       	pop	r4
    12b4:	0c 94 49 02 	jmp	0x492	; 0x492 <SchedulerBasicP__TaskBasic__postTask>

000012b8 <HplKS0108P__HplKS0108__dataWrite>:
    12b8:	cf 93       	push	r28
    12ba:	df 93       	push	r29
    12bc:	1f 92       	push	r1
    12be:	cd b7       	in	r28, 0x3d	; 61
    12c0:	de b7       	in	r29, 0x3e	; 62
    12c2:	69 83       	std	Y+1, r22	; 0x01
    12c4:	0e 94 ec 07 	call	0xfd8	; 0xfd8 <HplKS0108P__busy_wait_controller>
    12c8:	69 81       	ldd	r22, Y+1	; 0x01
    12ca:	62 b9       	out	0x02, r22	; 2
    12cc:	81 b1       	in	r24, 0x01	; 1
    12ce:	8f ef       	ldi	r24, 0xFF	; 255
    12d0:	81 b9       	out	0x01, r24	; 1
    12d2:	74 9a       	sbi	0x0e, 4	; 14
    12d4:	75 98       	cbi	0x0e, 5	; 14
    12d6:	0e 94 35 02 	call	0x46a	; 0x46a <HplAtm128GeneralIOPinP__38__IO__set>
    12da:	82 e0       	ldi	r24, 0x02	; 2
    12dc:	90 e0       	ldi	r25, 0x00	; 0
    12de:	0e 94 d3 03 	call	0x7a6	; 0x7a6 <BusyWaitMicroC__BusyWait__wait.part.18>
    12e2:	0e 94 2f 02 	call	0x45e	; 0x45e <HplAtm128GeneralIOPinP__38__IO__clr>
    12e6:	80 e0       	ldi	r24, 0x00	; 0
    12e8:	0f 90       	pop	r0
    12ea:	df 91       	pop	r29
    12ec:	cf 91       	pop	r28
    12ee:	08 95       	ret

000012f0 <HplKS0108P__HplKS0108__controlWrite>:
    12f0:	cf 93       	push	r28
    12f2:	df 93       	push	r29
    12f4:	1f 92       	push	r1
    12f6:	cd b7       	in	r28, 0x3d	; 61
    12f8:	de b7       	in	r29, 0x3e	; 62
    12fa:	69 83       	std	Y+1, r22	; 0x01
    12fc:	0e 94 ec 07 	call	0xfd8	; 0xfd8 <HplKS0108P__busy_wait_controller>
    1300:	74 98       	cbi	0x0e, 4	; 14
    1302:	75 98       	cbi	0x0e, 5	; 14
    1304:	0e 94 35 02 	call	0x46a	; 0x46a <HplAtm128GeneralIOPinP__38__IO__set>
    1308:	81 b1       	in	r24, 0x01	; 1
    130a:	8f ef       	ldi	r24, 0xFF	; 255
    130c:	81 b9       	out	0x01, r24	; 1
    130e:	69 81       	ldd	r22, Y+1	; 0x01
    1310:	62 b9       	out	0x02, r22	; 2
    1312:	82 e0       	ldi	r24, 0x02	; 2
    1314:	90 e0       	ldi	r25, 0x00	; 0
    1316:	0e 94 d3 03 	call	0x7a6	; 0x7a6 <BusyWaitMicroC__BusyWait__wait.part.18>
    131a:	0e 94 2f 02 	call	0x45e	; 0x45e <HplAtm128GeneralIOPinP__38__IO__clr>
    131e:	80 e0       	ldi	r24, 0x00	; 0
    1320:	0f 90       	pop	r0
    1322:	df 91       	pop	r29
    1324:	cf 91       	pop	r28
    1326:	08 95       	ret

00001328 <GlcdP__setAddress>:
    1328:	cf 93       	push	r28
    132a:	df 93       	push	r29
    132c:	98 2f       	mov	r25, r24
    132e:	c6 2f       	mov	r28, r22
    1330:	d8 2f       	mov	r29, r24
    1332:	d2 95       	swap	r29
    1334:	d6 95       	lsr	r29
    1336:	d6 95       	lsr	r29
    1338:	d3 70       	andi	r29, 0x03	; 3
    133a:	81 e0       	ldi	r24, 0x01	; 1
    133c:	d8 27       	eor	r29, r24
    133e:	9f 73       	andi	r25, 0x3F	; 63
    1340:	69 2f       	mov	r22, r25
    1342:	60 64       	ori	r22, 0x40	; 64
    1344:	8d 2f       	mov	r24, r29
    1346:	0e 94 78 09 	call	0x12f0	; 0x12f0 <HplKS0108P__HplKS0108__controlWrite>
    134a:	6c 2f       	mov	r22, r28
    134c:	67 70       	andi	r22, 0x07	; 7
    134e:	68 6b       	ori	r22, 0xB8	; 184
    1350:	8d 2f       	mov	r24, r29
    1352:	df 91       	pop	r29
    1354:	cf 91       	pop	r28
    1356:	0c 94 78 09 	jmp	0x12f0	; 0x12f0 <HplKS0108P__HplKS0108__controlWrite>

0000135a <GlcdP__Glcd__drawText.constprop.155>:
    135a:	2f 92       	push	r2
    135c:	3f 92       	push	r3
    135e:	4f 92       	push	r4
    1360:	5f 92       	push	r5
    1362:	6f 92       	push	r6
    1364:	7f 92       	push	r7
    1366:	8f 92       	push	r8
    1368:	9f 92       	push	r9
    136a:	af 92       	push	r10
    136c:	bf 92       	push	r11
    136e:	cf 92       	push	r12
    1370:	df 92       	push	r13
    1372:	ef 92       	push	r14
    1374:	ff 92       	push	r15
    1376:	0f 93       	push	r16
    1378:	1f 93       	push	r17
    137a:	cf 93       	push	r28
    137c:	df 93       	push	r29
    137e:	8c 01       	movw	r16, r24
    1380:	d6 2f       	mov	r29, r22
    1382:	90 e0       	ldi	r25, 0x00	; 0
    1384:	55 e0       	ldi	r21, 0x05	; 5
    1386:	95 2e       	mov	r9, r21
    1388:	88 24       	eor	r8, r8
    138a:	83 94       	inc	r8
    138c:	ee 24       	eor	r14, r14
    138e:	e3 94       	inc	r14
    1390:	f1 2c       	mov	r15, r1
    1392:	f8 01       	movw	r30, r16
    1394:	21 91       	ld	r18, Z+
    1396:	8f 01       	movw	r16, r30
    1398:	22 23       	and	r18, r18
    139a:	09 f4       	brne	.+2      	; 0x139e <GlcdP__Glcd__drawText.constprop.155+0x44>
    139c:	68 c0       	rjmp	.+208    	; 0x146e <GlcdP__Glcd__drawText.constprop.155+0x114>
    139e:	2a 30       	cpi	r18, 0x0A	; 10
    13a0:	11 f0       	breq	.+4      	; 0x13a6 <GlcdP__Glcd__drawText.constprop.155+0x4c>
    13a2:	2d 30       	cpi	r18, 0x0D	; 13
    13a4:	19 f4       	brne	.+6      	; 0x13ac <GlcdP__Glcd__drawText.constprop.155+0x52>
    13a6:	d8 5f       	subi	r29, 0xF8	; 248
    13a8:	51 2c       	mov	r5, r1
    13aa:	5f c0       	rjmp	.+190    	; 0x146a <GlcdP__Glcd__drawText.constprop.155+0x110>
    13ac:	29 30       	cpi	r18, 0x09	; 9
    13ae:	21 f4       	brne	.+8      	; 0x13b8 <GlcdP__Glcd__drawText.constprop.155+0x5e>
    13b0:	4a e0       	ldi	r20, 0x0A	; 10
    13b2:	54 2e       	mov	r5, r20
    13b4:	59 0e       	add	r5, r25
    13b6:	59 c0       	rjmp	.+178    	; 0x146a <GlcdP__Glcd__drawText.constprop.155+0x110>
    13b8:	36 e0       	ldi	r19, 0x06	; 6
    13ba:	53 2e       	mov	r5, r19
    13bc:	59 0e       	add	r5, r25
    13be:	80 ee       	ldi	r24, 0xE0	; 224
    13c0:	82 0f       	add	r24, r18
    13c2:	80 36       	cpi	r24, 0x60	; 96
    13c4:	08 f0       	brcs	.+2      	; 0x13c8 <GlcdP__Glcd__drawText.constprop.155+0x6e>
    13c6:	51 c0       	rjmp	.+162    	; 0x146a <GlcdP__Glcd__drawText.constprop.155+0x110>
    13c8:	30 e0       	ldi	r19, 0x00	; 0
    13ca:	20 52       	subi	r18, 0x20	; 32
    13cc:	31 09       	sbc	r19, r1
    13ce:	92 9e       	mul	r9, r18
    13d0:	a0 01       	movw	r20, r0
    13d2:	93 9e       	mul	r9, r19
    13d4:	50 0d       	add	r21, r0
    13d6:	11 24       	eor	r1, r1
    13d8:	9a 01       	movw	r18, r20
    13da:	2e 5c       	subi	r18, 0xCE	; 206
    13dc:	3d 4f       	sbci	r19, 0xFD	; 253
    13de:	59 01       	movw	r10, r18
    13e0:	8b e0       	ldi	r24, 0x0B	; 11
    13e2:	d8 2e       	mov	r13, r24
    13e4:	d9 0e       	add	r13, r25
    13e6:	c5 2d       	mov	r28, r5
    13e8:	99 ef       	ldi	r25, 0xF9	; 249
    13ea:	49 2e       	mov	r4, r25
    13ec:	4d 0e       	add	r4, r29
    13ee:	74 2c       	mov	r7, r4
    13f0:	f5 01       	movw	r30, r10
    13f2:	24 90       	lpm	r2, Z
    13f4:	c6 fb       	bst	r28, 6
    13f6:	cc 24       	eor	r12, r12
    13f8:	c0 f8       	bld	r12, 0
    13fa:	c8 24       	eor	r12, r8
    13fc:	37 2c       	mov	r3, r7
    13fe:	36 94       	lsr	r3
    1400:	36 94       	lsr	r3
    1402:	36 94       	lsr	r3
    1404:	f7 2d       	mov	r31, r7
    1406:	f7 70       	andi	r31, 0x07	; 7
    1408:	6f 2e       	mov	r6, r31
    140a:	63 2d       	mov	r22, r3
    140c:	8c 2f       	mov	r24, r28
    140e:	20 fe       	sbrs	r2, 0
    1410:	0d c0       	rjmp	.+26     	; 0x142c <GlcdP__Glcd__drawText.constprop.155+0xd2>
    1412:	0e 94 94 09 	call	0x1328	; 0x1328 <GlcdP__setAddress>
    1416:	8c 2d       	mov	r24, r12
    1418:	0e 94 18 08 	call	0x1030	; 0x1030 <HplKS0108P__HplKS0108__dataRead>
    141c:	b7 01       	movw	r22, r14
    141e:	01 c0       	rjmp	.+2      	; 0x1422 <GlcdP__Glcd__drawText.constprop.155+0xc8>
    1420:	66 0f       	add	r22, r22
    1422:	6a 94       	dec	r6
    1424:	ea f7       	brpl	.-6      	; 0x1420 <GlcdP__Glcd__drawText.constprop.155+0xc6>
    1426:	68 2e       	mov	r6, r24
    1428:	66 2a       	or	r6, r22
    142a:	0d c0       	rjmp	.+26     	; 0x1446 <GlcdP__Glcd__drawText.constprop.155+0xec>
    142c:	0e 94 94 09 	call	0x1328	; 0x1328 <GlcdP__setAddress>
    1430:	8c 2d       	mov	r24, r12
    1432:	0e 94 18 08 	call	0x1030	; 0x1030 <HplKS0108P__HplKS0108__dataRead>
    1436:	97 01       	movw	r18, r14
    1438:	01 c0       	rjmp	.+2      	; 0x143c <GlcdP__Glcd__drawText.constprop.155+0xe2>
    143a:	22 0f       	add	r18, r18
    143c:	6a 94       	dec	r6
    143e:	ea f7       	brpl	.-6      	; 0x143a <GlcdP__Glcd__drawText.constprop.155+0xe0>
    1440:	20 95       	com	r18
    1442:	68 2e       	mov	r6, r24
    1444:	62 22       	and	r6, r18
    1446:	63 2d       	mov	r22, r3
    1448:	8c 2f       	mov	r24, r28
    144a:	0e 94 94 09 	call	0x1328	; 0x1328 <GlcdP__setAddress>
    144e:	66 2d       	mov	r22, r6
    1450:	8c 2d       	mov	r24, r12
    1452:	0e 94 5c 09 	call	0x12b8	; 0x12b8 <HplKS0108P__HplKS0108__dataWrite>
    1456:	26 94       	lsr	r2
    1458:	73 94       	inc	r7
    145a:	7d 12       	cpse	r7, r29
    145c:	cf cf       	rjmp	.-98     	; 0x13fc <GlcdP__Glcd__drawText.constprop.155+0xa2>
    145e:	cf 5f       	subi	r28, 0xFF	; 255
    1460:	2f ef       	ldi	r18, 0xFF	; 255
    1462:	a2 1a       	sub	r10, r18
    1464:	b2 0a       	sbc	r11, r18
    1466:	cd 11       	cpse	r28, r13
    1468:	c2 cf       	rjmp	.-124    	; 0x13ee <GlcdP__Glcd__drawText.constprop.155+0x94>
    146a:	95 2d       	mov	r25, r5
    146c:	92 cf       	rjmp	.-220    	; 0x1392 <GlcdP__Glcd__drawText.constprop.155+0x38>
    146e:	df 91       	pop	r29
    1470:	cf 91       	pop	r28
    1472:	1f 91       	pop	r17
    1474:	0f 91       	pop	r16
    1476:	ff 90       	pop	r15
    1478:	ef 90       	pop	r14
    147a:	df 90       	pop	r13
    147c:	cf 90       	pop	r12
    147e:	bf 90       	pop	r11
    1480:	af 90       	pop	r10
    1482:	9f 90       	pop	r9
    1484:	8f 90       	pop	r8
    1486:	7f 90       	pop	r7
    1488:	6f 90       	pop	r6
    148a:	5f 90       	pop	r5
    148c:	4f 90       	pop	r4
    148e:	3f 90       	pop	r3
    1490:	2f 90       	pop	r2
    1492:	08 95       	ret

00001494 <GlcdP__Glcd__fill.constprop.120>:
    1494:	cf 93       	push	r28
    1496:	df 93       	push	r29
    1498:	c0 e0       	ldi	r28, 0x00	; 0
    149a:	6c 2f       	mov	r22, r28
    149c:	80 e0       	ldi	r24, 0x00	; 0
    149e:	0e 94 94 09 	call	0x1328	; 0x1328 <GlcdP__setAddress>
    14a2:	6c 2f       	mov	r22, r28
    14a4:	80 e4       	ldi	r24, 0x40	; 64
    14a6:	0e 94 94 09 	call	0x1328	; 0x1328 <GlcdP__setAddress>
    14aa:	d0 e0       	ldi	r29, 0x00	; 0
    14ac:	60 e0       	ldi	r22, 0x00	; 0
    14ae:	80 e0       	ldi	r24, 0x00	; 0
    14b0:	0e 94 5c 09 	call	0x12b8	; 0x12b8 <HplKS0108P__HplKS0108__dataWrite>
    14b4:	60 e0       	ldi	r22, 0x00	; 0
    14b6:	81 e0       	ldi	r24, 0x01	; 1
    14b8:	0e 94 5c 09 	call	0x12b8	; 0x12b8 <HplKS0108P__HplKS0108__dataWrite>
    14bc:	df 5f       	subi	r29, 0xFF	; 255
    14be:	d0 38       	cpi	r29, 0x80	; 128
    14c0:	a9 f7       	brne	.-22     	; 0x14ac <GlcdP__Glcd__fill.constprop.120+0x18>
    14c2:	cf 5f       	subi	r28, 0xFF	; 255
    14c4:	c8 30       	cpi	r28, 0x08	; 8
    14c6:	49 f7       	brne	.-46     	; 0x149a <GlcdP__Glcd__fill.constprop.120+0x6>
    14c8:	80 e0       	ldi	r24, 0x00	; 0
    14ca:	df 91       	pop	r29
    14cc:	cf 91       	pop	r28
    14ce:	08 95       	ret

000014d0 <SchedulerBasicP__TaskBasic__runTask>:
    14d0:	3f 92       	push	r3
    14d2:	4f 92       	push	r4
    14d4:	5f 92       	push	r5
    14d6:	6f 92       	push	r6
    14d8:	7f 92       	push	r7
    14da:	8f 92       	push	r8
    14dc:	9f 92       	push	r9
    14de:	af 92       	push	r10
    14e0:	bf 92       	push	r11
    14e2:	cf 92       	push	r12
    14e4:	df 92       	push	r13
    14e6:	ef 92       	push	r14
    14e8:	ff 92       	push	r15
    14ea:	0f 93       	push	r16
    14ec:	1f 93       	push	r17
    14ee:	cf 93       	push	r28
    14f0:	df 93       	push	r29
    14f2:	cd b7       	in	r28, 0x3d	; 61
    14f4:	de b7       	in	r29, 0x3e	; 62
    14f6:	c5 55       	subi	r28, 0x55	; 85
    14f8:	d1 09       	sbc	r29, r1
    14fa:	0f b6       	in	r0, 0x3f	; 63
    14fc:	f8 94       	cli
    14fe:	de bf       	out	0x3e, r29	; 62
    1500:	0f be       	out	0x3f, r0	; 63
    1502:	cd bf       	out	0x3d, r28	; 61
    1504:	0d b7       	in	r16, 0x3d	; 61
    1506:	1e b7       	in	r17, 0x3e	; 62
    1508:	90 e0       	ldi	r25, 0x00	; 0
    150a:	8c 31       	cpi	r24, 0x1C	; 28
    150c:	91 05       	cpc	r25, r1
    150e:	10 f0       	brcs	.+4      	; 0x1514 <SchedulerBasicP__TaskBasic__runTask+0x44>
    1510:	0c 94 8f 19 	jmp	0x331e	; 0x331e <__stack+0x111f>
    1514:	fc 01       	movw	r30, r24
    1516:	ee 58       	subi	r30, 0x8E	; 142
    1518:	ff 4f       	sbci	r31, 0xFF	; 255
    151a:	0c 94 16 1f 	jmp	0x3e2c	; 0x3e2c <__tablejump2__>
    151e:	8f b7       	in	r24, 0x3f	; 63
    1520:	f8 94       	cli
    1522:	f0 90 6b 0a 	lds	r15, 0x0A6B
    1526:	e0 90 70 03 	lds	r14, 0x0370
    152a:	8f bf       	out	0x3f, r24	; 63
    152c:	0e 94 4a 0a 	call	0x1494	; 0x1494 <GlcdP__Glcd__fill.constprop.120>
    1530:	6a e0       	ldi	r22, 0x0A	; 10
    1532:	8b e3       	ldi	r24, 0x3B	; 59
    1534:	92 e0       	ldi	r25, 0x02	; 2
    1536:	0e 94 ad 09 	call	0x135a	; 0x135a <GlcdP__Glcd__drawText.constprop.155>
    153a:	8f 2d       	mov	r24, r15
    153c:	90 e0       	ldi	r25, 0x00	; 0
    153e:	c0 97       	sbiw	r24, 0x30	; 48
    1540:	0a 97       	sbiw	r24, 0x0a	; 10
    1542:	80 f4       	brcc	.+32     	; 0x1564 <SchedulerBasicP__TaskBasic__runTask+0x94>
    1544:	23 e0       	ldi	r18, 0x03	; 3
    1546:	2e 15       	cp	r18, r14
    1548:	68 f0       	brcs	.+26     	; 0x1564 <SchedulerBasicP__TaskBasic__runTask+0x94>
    154a:	8f b7       	in	r24, 0x3f	; 63
    154c:	f8 94       	cli
    154e:	e0 91 70 03 	lds	r30, 0x0370
    1552:	91 e0       	ldi	r25, 0x01	; 1
    1554:	9e 0f       	add	r25, r30
    1556:	90 93 70 03 	sts	0x0370, r25
    155a:	f0 e0       	ldi	r31, 0x00	; 0
    155c:	e0 59       	subi	r30, 0x90	; 144
    155e:	fc 4f       	sbci	r31, 0xFC	; 252
    1560:	f1 82       	std	Z+1, r15	; 0x01
    1562:	8f bf       	out	0x3f, r24	; 63
    1564:	48 e0       	ldi	r20, 0x08	; 8
    1566:	f4 12       	cpse	r15, r20
    1568:	0e c0       	rjmp	.+28     	; 0x1586 <SchedulerBasicP__TaskBasic__runTask+0xb6>
    156a:	ee 20       	and	r14, r14
    156c:	61 f0       	breq	.+24     	; 0x1586 <SchedulerBasicP__TaskBasic__runTask+0xb6>
    156e:	8f b7       	in	r24, 0x3f	; 63
    1570:	f8 94       	cli
    1572:	e0 91 70 03 	lds	r30, 0x0370
    1576:	e1 50       	subi	r30, 0x01	; 1
    1578:	e0 93 70 03 	sts	0x0370, r30
    157c:	f0 e0       	ldi	r31, 0x00	; 0
    157e:	e0 59       	subi	r30, 0x90	; 144
    1580:	fc 4f       	sbci	r31, 0xFC	; 252
    1582:	11 82       	std	Z+1, r1	; 0x01
    1584:	8f bf       	out	0x3f, r24	; 63
    1586:	9f b7       	in	r25, 0x3f	; 63
    1588:	f8 94       	cli
    158a:	85 e0       	ldi	r24, 0x05	; 5
    158c:	e1 e7       	ldi	r30, 0x71	; 113
    158e:	f3 e0       	ldi	r31, 0x03	; 3
    1590:	de 01       	movw	r26, r28
    1592:	11 96       	adiw	r26, 0x01	; 1
    1594:	01 90       	ld	r0, Z+
    1596:	0d 92       	st	X+, r0
    1598:	8a 95       	dec	r24
    159a:	e1 f7       	brne	.-8      	; 0x1594 <SchedulerBasicP__TaskBasic__runTask+0xc4>
    159c:	9f bf       	out	0x3f, r25	; 63
    159e:	64 e1       	ldi	r22, 0x14	; 20
    15a0:	ce 01       	movw	r24, r28
    15a2:	01 96       	adiw	r24, 0x01	; 1
    15a4:	0e 94 ad 09 	call	0x135a	; 0x135a <GlcdP__Glcd__drawText.constprop.155>
    15a8:	87 e6       	ldi	r24, 0x67	; 103
    15aa:	f8 12       	cpse	r15, r24
    15ac:	0c 94 8f 19 	jmp	0x331e	; 0x331e <__stack+0x111f>
    15b0:	4a e0       	ldi	r20, 0x0A	; 10
    15b2:	50 e0       	ldi	r21, 0x00	; 0
    15b4:	60 e0       	ldi	r22, 0x00	; 0
    15b6:	70 e0       	ldi	r23, 0x00	; 0
    15b8:	ce 01       	movw	r24, r28
    15ba:	01 96       	adiw	r24, 0x01	; 1
    15bc:	0e 94 47 20 	call	0x408e	; 0x408e <strtoul>
    15c0:	2f b7       	in	r18, 0x3f	; 63
    15c2:	f8 94       	cli
    15c4:	33 e0       	ldi	r19, 0x03	; 3
    15c6:	30 93 b2 13 	sts	0x13B2, r19
    15ca:	2f bf       	out	0x3f, r18	; 63
    15cc:	3f b7       	in	r19, 0x3f	; 63
    15ce:	f8 94       	cli
    15d0:	20 91 52 13 	lds	r18, 0x1352
    15d4:	3f bf       	out	0x3f, r19	; 63
    15d6:	21 11       	cpse	r18, r1
    15d8:	0c 94 8f 19 	jmp	0x331e	; 0x331e <__stack+0x111f>
    15dc:	9b 01       	movw	r18, r22
    15de:	2b 56       	subi	r18, 0x6B	; 107
    15e0:	33 40       	sbci	r19, 0x03	; 3
    15e2:	2e 3c       	cpi	r18, 0xCE	; 206
    15e4:	31 05       	cpc	r19, r1
    15e6:	10 f0       	brcs	.+4      	; 0x15ec <SchedulerBasicP__TaskBasic__runTask+0x11c>
    15e8:	0c 94 8f 19 	jmp	0x331e	; 0x331e <__stack+0x111f>
    15ec:	2f b7       	in	r18, 0x3f	; 63
    15ee:	f8 94       	cli
    15f0:	32 e0       	ldi	r19, 0x02	; 2
    15f2:	30 93 52 13 	sts	0x1352, r19
    15f6:	10 92 57 13 	sts	0x1357, r1
    15fa:	70 93 b5 13 	sts	0x13B5, r23
    15fe:	60 93 b4 13 	sts	0x13B4, r22
    1602:	2f bf       	out	0x3f, r18	; 63
    1604:	0c 94 26 13 	jmp	0x264c	; 0x264c <__stack+0x44d>
    1608:	2f b7       	in	r18, 0x3f	; 63
    160a:	f8 94       	cli
    160c:	80 91 6b 0a 	lds	r24, 0x0A6B
    1610:	90 91 b2 13 	lds	r25, 0x13B2
    1614:	2f bf       	out	0x3f, r18	; 63
    1616:	20 91 b2 13 	lds	r18, 0x13B2
    161a:	21 30       	cpi	r18, 0x01	; 1
    161c:	09 f0       	breq	.+2      	; 0x1620 <SchedulerBasicP__TaskBasic__runTask+0x150>
    161e:	54 c0       	rjmp	.+168    	; 0x16c8 <SchedulerBasicP__TaskBasic__runTask+0x1f8>
    1620:	8c 36       	cpi	r24, 0x6C	; 108
    1622:	99 f0       	breq	.+38     	; 0x164a <SchedulerBasicP__TaskBasic__runTask+0x17a>
    1624:	60 f4       	brcc	.+24     	; 0x163e <SchedulerBasicP__TaskBasic__runTask+0x16e>
    1626:	88 36       	cpi	r24, 0x68	; 104
    1628:	11 f0       	breq	.+4      	; 0x162e <SchedulerBasicP__TaskBasic__runTask+0x15e>
    162a:	0c 94 8f 19 	jmp	0x331e	; 0x331e <__stack+0x111f>
    162e:	8f b7       	in	r24, 0x3f	; 63
    1630:	f8 94       	cli
    1632:	94 e0       	ldi	r25, 0x04	; 4
    1634:	90 93 b2 13 	sts	0x13B2, r25
    1638:	8f bf       	out	0x3f, r24	; 63
    163a:	81 e0       	ldi	r24, 0x01	; 1
    163c:	0d c0       	rjmp	.+26     	; 0x1658 <SchedulerBasicP__TaskBasic__runTask+0x188>
    163e:	83 37       	cpi	r24, 0x73	; 115
    1640:	79 f0       	breq	.+30     	; 0x1660 <SchedulerBasicP__TaskBasic__runTask+0x190>
    1642:	84 37       	cpi	r24, 0x74	; 116
    1644:	a1 f0       	breq	.+40     	; 0x166e <SchedulerBasicP__TaskBasic__runTask+0x19e>
    1646:	0c 94 8f 19 	jmp	0x331e	; 0x331e <__stack+0x111f>
    164a:	8f b7       	in	r24, 0x3f	; 63
    164c:	f8 94       	cli
    164e:	94 e0       	ldi	r25, 0x04	; 4
    1650:	90 93 b2 13 	sts	0x13B2, r25
    1654:	8f bf       	out	0x3f, r24	; 63
    1656:	80 e0       	ldi	r24, 0x00	; 0
    1658:	0e 94 bc 03 	call	0x778	; 0x778 <FMClickP__FMClick__seek>
    165c:	0c 94 8f 19 	jmp	0x331e	; 0x331e <__stack+0x111f>
    1660:	8f b7       	in	r24, 0x3f	; 63
    1662:	f8 94       	cli
    1664:	95 e0       	ldi	r25, 0x05	; 5
    1666:	90 93 b2 13 	sts	0x13B2, r25
    166a:	8f bf       	out	0x3f, r24	; 63
    166c:	33 c0       	rjmp	.+102    	; 0x16d4 <SchedulerBasicP__TaskBasic__runTask+0x204>
    166e:	9f b7       	in	r25, 0x3f	; 63
    1670:	f8 94       	cli
    1672:	80 91 52 13 	lds	r24, 0x1352
    1676:	9f bf       	out	0x3f, r25	; 63
    1678:	88 23       	and	r24, r24
    167a:	11 f0       	breq	.+4      	; 0x1680 <SchedulerBasicP__TaskBasic__runTask+0x1b0>
    167c:	85 30       	cpi	r24, 0x05	; 5
    167e:	a1 f4       	brne	.+40     	; 0x16a8 <SchedulerBasicP__TaskBasic__runTask+0x1d8>
    1680:	eb 98       	cbi	0x1d, 3	; 29
    1682:	2f b7       	in	r18, 0x3f	; 63
    1684:	f8 94       	cli
    1686:	80 91 ab 05 	lds	r24, 0x05AB
    168a:	90 91 ac 05 	lds	r25, 0x05AC
    168e:	9f 76       	andi	r25, 0x6F	; 111
    1690:	90 93 ac 05 	sts	0x05AC, r25
    1694:	80 93 ab 05 	sts	0x05AB, r24
    1698:	84 e0       	ldi	r24, 0x04	; 4
    169a:	80 93 fa 12 	sts	0x12FA, r24
    169e:	10 92 52 13 	sts	0x1352, r1
    16a2:	2f bf       	out	0x3f, r18	; 63
    16a4:	0e 94 e4 06 	call	0xdc8	; 0xdc8 <FMClickP__writeRegisters>
    16a8:	8f b7       	in	r24, 0x3f	; 63
    16aa:	f8 94       	cli
    16ac:	10 92 70 03 	sts	0x0370, r1
    16b0:	95 e0       	ldi	r25, 0x05	; 5
    16b2:	e1 e7       	ldi	r30, 0x71	; 113
    16b4:	f3 e0       	ldi	r31, 0x03	; 3
    16b6:	df 01       	movw	r26, r30
    16b8:	1d 92       	st	X+, r1
    16ba:	9a 95       	dec	r25
    16bc:	e9 f7       	brne	.-6      	; 0x16b8 <SchedulerBasicP__TaskBasic__runTask+0x1e8>
    16be:	92 e0       	ldi	r25, 0x02	; 2
    16c0:	90 93 b2 13 	sts	0x13B2, r25
    16c4:	8f bf       	out	0x3f, r24	; 63
    16c6:	04 c0       	rjmp	.+8      	; 0x16d0 <SchedulerBasicP__TaskBasic__runTask+0x200>
    16c8:	92 30       	cpi	r25, 0x02	; 2
    16ca:	11 f0       	breq	.+4      	; 0x16d0 <SchedulerBasicP__TaskBasic__runTask+0x200>
    16cc:	0c 94 8f 19 	jmp	0x331e	; 0x331e <__stack+0x111f>
    16d0:	80 e0       	ldi	r24, 0x00	; 0
    16d2:	68 c0       	rjmp	.+208    	; 0x17a4 <SchedulerBasicP__TaskBasic__runTask+0x2d4>
    16d4:	82 e0       	ldi	r24, 0x02	; 2
    16d6:	c0 cf       	rjmp	.-128    	; 0x1658 <SchedulerBasicP__TaskBasic__runTask+0x188>
    16d8:	0e 94 4a 0a 	call	0x1494	; 0x1494 <GlcdP__Glcd__fill.constprop.120>
    16dc:	6a e0       	ldi	r22, 0x0A	; 10
    16de:	8a e4       	ldi	r24, 0x4A	; 74
    16e0:	92 e0       	ldi	r25, 0x02	; 2
    16e2:	0e 94 ad 09 	call	0x135a	; 0x135a <GlcdP__Glcd__drawText.constprop.155>
    16e6:	0e 94 6e 03 	call	0x6dc	; 0x6dc <PoolP__0__Pool__get>
    16ea:	7c 01       	movw	r14, r24
    16ec:	6c 01       	movw	r12, r24
    16ee:	b2 e0       	ldi	r27, 0x02	; 2
    16f0:	cb 0e       	add	r12, r27
    16f2:	d1 1c       	adc	r13, r1
    16f4:	80 e8       	ldi	r24, 0x80	; 128
    16f6:	f6 01       	movw	r30, r12
    16f8:	11 92       	st	Z+, r1
    16fa:	8a 95       	dec	r24
    16fc:	e9 f7       	brne	.-6      	; 0x16f8 <SchedulerBasicP__TaskBasic__runTask+0x228>
    16fe:	8d e5       	ldi	r24, 0x5D	; 93
    1700:	92 e0       	ldi	r25, 0x02	; 2
    1702:	9f 93       	push	r25
    1704:	8f 93       	push	r24
    1706:	80 e3       	ldi	r24, 0x30	; 48
    1708:	8f 93       	push	r24
    170a:	89 e3       	ldi	r24, 0x39	; 57
    170c:	8f 93       	push	r24
    170e:	84 e0       	ldi	r24, 0x04	; 4
    1710:	8f 93       	push	r24
    1712:	8e e0       	ldi	r24, 0x0E	; 14
    1714:	8f 93       	push	r24
    1716:	1f 92       	push	r1
    1718:	81 e0       	ldi	r24, 0x01	; 1
    171a:	8f 93       	push	r24
    171c:	22 e6       	ldi	r18, 0x62	; 98
    171e:	32 e0       	ldi	r19, 0x02	; 2
    1720:	3f 93       	push	r19
    1722:	2f 93       	push	r18
    1724:	1f 92       	push	r1
    1726:	8f 93       	push	r24
    1728:	8b e6       	ldi	r24, 0x6B	; 107
    172a:	92 e0       	ldi	r25, 0x02	; 2
    172c:	9f 93       	push	r25
    172e:	8f 93       	push	r24
    1730:	df 92       	push	r13
    1732:	cf 92       	push	r12
    1734:	0e 94 2c 22 	call	0x4458	; 0x4458 <sprintf>
    1738:	f7 01       	movw	r30, r14
    173a:	ef 57       	subi	r30, 0x7F	; 127
    173c:	ff 4f       	sbci	r31, 0xFF	; 255
    173e:	10 82       	st	Z, r1
    1740:	f6 01       	movw	r30, r12
    1742:	01 90       	ld	r0, Z+
    1744:	00 20       	and	r0, r0
    1746:	e9 f7       	brne	.-6      	; 0x1742 <SchedulerBasicP__TaskBasic__runTask+0x272>
    1748:	31 97       	sbiw	r30, 0x01	; 1
    174a:	ec 19       	sub	r30, r12
    174c:	fd 09       	sbc	r31, r13
    174e:	d7 01       	movw	r26, r14
    1750:	ed 93       	st	X+, r30
    1752:	fc 93       	st	X, r31
    1754:	20 91 54 03 	lds	r18, 0x0354
    1758:	ed b7       	in	r30, 0x3d	; 61
    175a:	fe b7       	in	r31, 0x3e	; 62
    175c:	70 96       	adiw	r30, 0x10	; 16
    175e:	0f b6       	in	r0, 0x3f	; 63
    1760:	f8 94       	cli
    1762:	fe bf       	out	0x3e, r31	; 62
    1764:	0f be       	out	0x3f, r0	; 63
    1766:	ed bf       	out	0x3d, r30	; 61
    1768:	25 30       	cpi	r18, 0x05	; 5
    176a:	b0 f4       	brcc	.+44     	; 0x1798 <SchedulerBasicP__TaskBasic__runTask+0x2c8>
    176c:	90 91 55 03 	lds	r25, 0x0355
    1770:	e9 2f       	mov	r30, r25
    1772:	f0 e0       	ldi	r31, 0x00	; 0
    1774:	ee 0f       	add	r30, r30
    1776:	ff 1f       	adc	r31, r31
    1778:	e0 51       	subi	r30, 0x10	; 16
    177a:	fd 4e       	sbci	r31, 0xED	; 237
    177c:	f1 82       	std	Z+1, r15	; 0x01
    177e:	e0 82       	st	Z, r14
    1780:	81 e0       	ldi	r24, 0x01	; 1
    1782:	89 0f       	add	r24, r25
    1784:	85 30       	cpi	r24, 0x05	; 5
    1786:	19 f0       	breq	.+6      	; 0x178e <SchedulerBasicP__TaskBasic__runTask+0x2be>
    1788:	80 93 55 03 	sts	0x0355, r24
    178c:	02 c0       	rjmp	.+4      	; 0x1792 <SchedulerBasicP__TaskBasic__runTask+0x2c2>
    178e:	10 92 55 03 	sts	0x0355, r1
    1792:	2f 5f       	subi	r18, 0xFF	; 255
    1794:	20 93 54 03 	sts	0x0354, r18
    1798:	80 91 6a 0a 	lds	r24, 0x0A6A
    179c:	81 11       	cpse	r24, r1
    179e:	0c 94 8f 19 	jmp	0x331e	; 0x331e <__stack+0x111f>
    17a2:	88 e0       	ldi	r24, 0x08	; 8
    17a4:	0e 94 49 02 	call	0x492	; 0x492 <SchedulerBasicP__TaskBasic__postTask>
    17a8:	0c 94 8f 19 	jmp	0x331e	; 0x331e <__stack+0x111f>
    17ac:	6a e0       	ldi	r22, 0x0A	; 10
    17ae:	81 ea       	ldi	r24, 0xA1	; 161
    17b0:	92 e0       	ldi	r25, 0x02	; 2
    17b2:	ae c0       	rjmp	.+348    	; 0x1910 <SchedulerBasicP__TaskBasic__runTask+0x440>
    17b4:	2f b7       	in	r18, 0x3f	; 63
    17b6:	f8 94       	cli
    17b8:	80 91 08 0b 	lds	r24, 0x0B08
    17bc:	90 91 09 0b 	lds	r25, 0x0B09
    17c0:	31 e0       	ldi	r19, 0x01	; 1
    17c2:	30 93 b2 13 	sts	0x13B2, r19
    17c6:	2f bf       	out	0x3f, r18	; 63
    17c8:	9f 93       	push	r25
    17ca:	8f 93       	push	r24
    17cc:	84 eb       	ldi	r24, 0xB4	; 180
    17ce:	92 e0       	ldi	r25, 0x02	; 2
    17d0:	9f 93       	push	r25
    17d2:	8f 93       	push	r24
    17d4:	ce 01       	movw	r24, r28
    17d6:	01 96       	adiw	r24, 0x01	; 1
    17d8:	7c 01       	movw	r14, r24
    17da:	ff 92       	push	r15
    17dc:	8f 93       	push	r24
    17de:	0e 94 2c 22 	call	0x4458	; 0x4458 <sprintf>
    17e2:	6a e0       	ldi	r22, 0x0A	; 10
    17e4:	87 eb       	ldi	r24, 0xB7	; 183
    17e6:	92 e0       	ldi	r25, 0x02	; 2
    17e8:	0e 94 ad 09 	call	0x135a	; 0x135a <GlcdP__Glcd__drawText.constprop.155>
    17ec:	68 e2       	ldi	r22, 0x28	; 40
    17ee:	c7 01       	movw	r24, r14
    17f0:	0e 94 ad 09 	call	0x135a	; 0x135a <GlcdP__Glcd__drawText.constprop.155>
    17f4:	9f b7       	in	r25, 0x3f	; 63
    17f6:	f8 94       	cli
    17f8:	80 91 52 13 	lds	r24, 0x1352
    17fc:	9f bf       	out	0x3f, r25	; 63
    17fe:	0f 90       	pop	r0
    1800:	0f 90       	pop	r0
    1802:	0f 90       	pop	r0
    1804:	0f 90       	pop	r0
    1806:	0f 90       	pop	r0
    1808:	0f 90       	pop	r0
    180a:	88 23       	and	r24, r24
    180c:	21 f0       	breq	.+8      	; 0x1816 <SchedulerBasicP__TaskBasic__runTask+0x346>
    180e:	85 30       	cpi	r24, 0x05	; 5
    1810:	11 f0       	breq	.+4      	; 0x1816 <SchedulerBasicP__TaskBasic__runTask+0x346>
    1812:	0c 94 8f 19 	jmp	0x331e	; 0x331e <__stack+0x111f>
    1816:	88 e0       	ldi	r24, 0x08	; 8
    1818:	8c bb       	out	0x1c, r24	; 28
    181a:	eb 9a       	sbi	0x1d, 3	; 29
    181c:	2f b7       	in	r18, 0x3f	; 63
    181e:	f8 94       	cli
    1820:	80 91 ab 05 	lds	r24, 0x05AB
    1824:	90 91 ac 05 	lds	r25, 0x05AC
    1828:	90 69       	ori	r25, 0x90	; 144
    182a:	90 93 ac 05 	sts	0x05AC, r25
    182e:	80 93 ab 05 	sts	0x05AB, r24
    1832:	10 92 5e 13 	sts	0x135E, r1
    1836:	10 92 5f 13 	sts	0x135F, r1
    183a:	10 92 60 13 	sts	0x1360, r1
    183e:	84 e0       	ldi	r24, 0x04	; 4
    1840:	80 93 fa 12 	sts	0x12FA, r24
    1844:	85 e0       	ldi	r24, 0x05	; 5
    1846:	80 93 52 13 	sts	0x1352, r24
    184a:	0c 94 88 15 	jmp	0x2b10	; 0x2b10 <__stack+0x911>
    184e:	2f b7       	in	r18, 0x3f	; 63
    1850:	f8 94       	cli
    1852:	80 91 08 0b 	lds	r24, 0x0B08
    1856:	90 91 09 0b 	lds	r25, 0x0B09
    185a:	31 e0       	ldi	r19, 0x01	; 1
    185c:	30 93 b2 13 	sts	0x13B2, r19
    1860:	2f bf       	out	0x3f, r18	; 63
    1862:	9f 93       	push	r25
    1864:	8f 93       	push	r24
    1866:	84 eb       	ldi	r24, 0xB4	; 180
    1868:	92 e0       	ldi	r25, 0x02	; 2
    186a:	9f 93       	push	r25
    186c:	8f 93       	push	r24
    186e:	de 01       	movw	r26, r28
    1870:	11 96       	adiw	r26, 0x01	; 1
    1872:	7d 01       	movw	r14, r26
    1874:	ff 92       	push	r15
    1876:	af 93       	push	r26
    1878:	0e 94 2c 22 	call	0x4458	; 0x4458 <sprintf>
    187c:	6a e0       	ldi	r22, 0x0A	; 10
    187e:	88 ec       	ldi	r24, 0xC8	; 200
    1880:	92 e0       	ldi	r25, 0x02	; 2
    1882:	0e 94 ad 09 	call	0x135a	; 0x135a <GlcdP__Glcd__drawText.constprop.155>
    1886:	68 e2       	ldi	r22, 0x28	; 40
    1888:	c7 01       	movw	r24, r14
    188a:	0e 94 ad 09 	call	0x135a	; 0x135a <GlcdP__Glcd__drawText.constprop.155>
    188e:	0f 90       	pop	r0
    1890:	0f 90       	pop	r0
    1892:	0f 90       	pop	r0
    1894:	0f 90       	pop	r0
    1896:	0f 90       	pop	r0
    1898:	0f 90       	pop	r0
    189a:	0c 94 8f 19 	jmp	0x331e	; 0x331e <__stack+0x111f>
    189e:	84 e1       	ldi	r24, 0x14	; 20
    18a0:	e5 e0       	ldi	r30, 0x05	; 5
    18a2:	f3 e1       	ldi	r31, 0x13	; 19
    18a4:	de 01       	movw	r26, r28
    18a6:	de 96       	adiw	r26, 0x3e	; 62
    18a8:	01 90       	ld	r0, Z+
    18aa:	0d 92       	st	X+, r0
    18ac:	8a 95       	dec	r24
    18ae:	e1 f7       	brne	.-8      	; 0x18a8 <SchedulerBasicP__TaskBasic__runTask+0x3d8>
    18b0:	84 e1       	ldi	r24, 0x14	; 20
    18b2:	e9 e1       	ldi	r30, 0x19	; 25
    18b4:	f3 e1       	ldi	r31, 0x13	; 19
    18b6:	de 01       	movw	r26, r28
    18b8:	99 96       	adiw	r26, 0x29	; 41
    18ba:	01 90       	ld	r0, Z+
    18bc:	0d 92       	st	X+, r0
    18be:	8a 95       	dec	r24
    18c0:	e1 f7       	brne	.-8      	; 0x18ba <SchedulerBasicP__TaskBasic__runTask+0x3ea>
    18c2:	88 e1       	ldi	r24, 0x18	; 24
    18c4:	ed e2       	ldi	r30, 0x2D	; 45
    18c6:	f3 e1       	ldi	r31, 0x13	; 19
    18c8:	de 01       	movw	r26, r28
    18ca:	11 96       	adiw	r26, 0x01	; 1
    18cc:	01 90       	ld	r0, Z+
    18ce:	0d 92       	st	X+, r0
    18d0:	8a 95       	dec	r24
    18d2:	e1 f7       	brne	.-8      	; 0x18cc <SchedulerBasicP__TaskBasic__runTask+0x3fc>
    18d4:	63 96       	adiw	r28, 0x13	; 19
    18d6:	1f ae       	std	Y+63, r1	; 0x3f
    18d8:	63 97       	sbiw	r28, 0x13	; 19
    18da:	1d ae       	std	Y+61, r1	; 0x3d
    18dc:	19 8e       	std	Y+25, r1	; 0x19
    18de:	0e 94 4a 0a 	call	0x1494	; 0x1494 <GlcdP__Glcd__fill.constprop.120>
    18e2:	64 e1       	ldi	r22, 0x14	; 20
    18e4:	8c ef       	ldi	r24, 0xFC	; 252
    18e6:	92 e1       	ldi	r25, 0x12	; 18
    18e8:	0e 94 ad 09 	call	0x135a	; 0x135a <GlcdP__Glcd__drawText.constprop.155>
    18ec:	6e e1       	ldi	r22, 0x1E	; 30
    18ee:	ce 01       	movw	r24, r28
    18f0:	ce 96       	adiw	r24, 0x3e	; 62
    18f2:	0e 94 ad 09 	call	0x135a	; 0x135a <GlcdP__Glcd__drawText.constprop.155>
    18f6:	68 e2       	ldi	r22, 0x28	; 40
    18f8:	ce 01       	movw	r24, r28
    18fa:	89 96       	adiw	r24, 0x29	; 41
    18fc:	0e 94 ad 09 	call	0x135a	; 0x135a <GlcdP__Glcd__drawText.constprop.155>
    1900:	62 e3       	ldi	r22, 0x32	; 50
    1902:	ce 01       	movw	r24, r28
    1904:	01 96       	adiw	r24, 0x01	; 1
    1906:	0e 94 ad 09 	call	0x135a	; 0x135a <GlcdP__Glcd__drawText.constprop.155>
    190a:	6c e3       	ldi	r22, 0x3C	; 60
    190c:	86 e4       	ldi	r24, 0x46	; 70
    190e:	93 e1       	ldi	r25, 0x13	; 19
    1910:	0e 94 ad 09 	call	0x135a	; 0x135a <GlcdP__Glcd__drawText.constprop.155>
    1914:	0c 94 8f 19 	jmp	0x331e	; 0x331e <__stack+0x111f>
    1918:	80 91 54 03 	lds	r24, 0x0354
    191c:	88 23       	and	r24, r24
    191e:	e9 f1       	breq	.+122    	; 0x199a <SchedulerBasicP__TaskBasic__runTask+0x4ca>
    1920:	e0 91 56 03 	lds	r30, 0x0356
    1924:	f0 e0       	ldi	r31, 0x00	; 0
    1926:	ee 0f       	add	r30, r30
    1928:	ff 1f       	adc	r31, r31
    192a:	e0 51       	subi	r30, 0x10	; 16
    192c:	fd 4e       	sbci	r31, 0xED	; 237
    192e:	01 90       	ld	r0, Z+
    1930:	f0 81       	ld	r31, Z
    1932:	e0 2d       	mov	r30, r0
    1934:	20 81       	ld	r18, Z
    1936:	31 81       	ldd	r19, Z+1	; 0x01
    1938:	80 91 0a 0b 	lds	r24, 0x0B0A
    193c:	81 11       	cpse	r24, r1
    193e:	2d c0       	rjmp	.+90     	; 0x199a <SchedulerBasicP__TaskBasic__runTask+0x4ca>
    1940:	8b e0       	ldi	r24, 0x0B	; 11
    1942:	9b e0       	ldi	r25, 0x0B	; 11
    1944:	89 2b       	or	r24, r25
    1946:	49 f1       	breq	.+82     	; 0x199a <SchedulerBasicP__TaskBasic__runTask+0x4ca>
    1948:	32 96       	adiw	r30, 0x02	; 2
    194a:	f0 93 14 0b 	sts	0x0B14, r31
    194e:	e0 93 13 0b 	sts	0x0B13, r30
    1952:	80 ec       	ldi	r24, 0xC0	; 192
    1954:	80 93 0b 0b 	sts	0x0B0B, r24
    1958:	88 ea       	ldi	r24, 0xA8	; 168
    195a:	80 93 0c 0b 	sts	0x0B0C, r24
    195e:	8a e2       	ldi	r24, 0x2A	; 42
    1960:	80 93 0d 0b 	sts	0x0B0D, r24
    1964:	ff 24       	eor	r15, r15
    1966:	f3 94       	inc	r15
    1968:	f0 92 0e 0b 	sts	0x0B0E, r15
    196c:	80 e5       	ldi	r24, 0x50	; 80
    196e:	93 ec       	ldi	r25, 0xC3	; 195
    1970:	90 93 10 0b 	sts	0x0B10, r25
    1974:	80 93 0f 0b 	sts	0x0B0F, r24
    1978:	90 93 12 0b 	sts	0x0B12, r25
    197c:	80 93 11 0b 	sts	0x0B11, r24
    1980:	30 93 16 0b 	sts	0x0B16, r19
    1984:	20 93 15 0b 	sts	0x0B15, r18
    1988:	f0 92 0a 0b 	sts	0x0B0A, r15
    198c:	83 e1       	ldi	r24, 0x13	; 19
    198e:	0e 94 49 02 	call	0x492	; 0x492 <SchedulerBasicP__TaskBasic__postTask>
    1992:	f0 92 6a 0a 	sts	0x0A6A, r15
    1996:	0c 94 8f 19 	jmp	0x331e	; 0x331e <__stack+0x111f>
    199a:	10 92 6a 0a 	sts	0x0A6A, r1
    199e:	0c 94 8f 19 	jmp	0x331e	; 0x331e <__stack+0x111f>
    19a2:	80 91 53 03 	lds	r24, 0x0353
    19a6:	e8 2f       	mov	r30, r24
    19a8:	f0 e0       	ldi	r31, 0x00	; 0
    19aa:	ee 0f       	add	r30, r30
    19ac:	ff 1f       	adc	r31, r31
    19ae:	ef 52       	subi	r30, 0x2F	; 47
    19b0:	f2 4f       	sbci	r31, 0xF2	; 242
    19b2:	e0 80       	ld	r14, Z
    19b4:	f1 80       	ldd	r15, Z+1	; 0x01
    19b6:	90 91 51 03 	lds	r25, 0x0351
    19ba:	99 23       	and	r25, r25
    19bc:	59 f0       	breq	.+22     	; 0x19d4 <SchedulerBasicP__TaskBasic__runTask+0x504>
    19be:	8f 5f       	subi	r24, 0xFF	; 255
    19c0:	85 30       	cpi	r24, 0x05	; 5
    19c2:	19 f0       	breq	.+6      	; 0x19ca <SchedulerBasicP__TaskBasic__runTask+0x4fa>
    19c4:	80 93 53 03 	sts	0x0353, r24
    19c8:	02 c0       	rjmp	.+4      	; 0x19ce <SchedulerBasicP__TaskBasic__runTask+0x4fe>
    19ca:	10 92 53 03 	sts	0x0353, r1
    19ce:	91 50       	subi	r25, 0x01	; 1
    19d0:	90 93 51 03 	sts	0x0351, r25
    19d4:	f7 01       	movw	r30, r14
    19d6:	a0 80       	ld	r10, Z
    19d8:	b1 80       	ldd	r11, Z+1	; 0x01
    19da:	f5 01       	movw	r30, r10
    19dc:	31 97       	sbiw	r30, 0x01	; 1
    19de:	ee 0d       	add	r30, r14
    19e0:	ff 1d       	adc	r31, r15
    19e2:	82 81       	ldd	r24, Z+2	; 0x02
    19e4:	8a 30       	cpi	r24, 0x0A	; 10
    19e6:	09 f0       	breq	.+2      	; 0x19ea <SchedulerBasicP__TaskBasic__runTask+0x51a>
    19e8:	53 c0       	rjmp	.+166    	; 0x1a90 <SchedulerBasicP__TaskBasic__runTask+0x5c0>
    19ea:	12 82       	std	Z+2, r1	; 0x02
    19ec:	47 01       	movw	r8, r14
    19ee:	f2 e0       	ldi	r31, 0x02	; 2
    19f0:	8f 0e       	add	r8, r31
    19f2:	91 1c       	adc	r9, r1
    19f4:	6d e0       	ldi	r22, 0x0D	; 13
    19f6:	70 e0       	ldi	r23, 0x00	; 0
    19f8:	c4 01       	movw	r24, r8
    19fa:	0e 94 97 21 	call	0x432e	; 0x432e <strchr>
    19fe:	6c 01       	movw	r12, r24
    1a00:	00 97       	sbiw	r24, 0x00	; 0
    1a02:	19 f0       	breq	.+6      	; 0x1a0a <SchedulerBasicP__TaskBasic__runTask+0x53a>
    1a04:	dc 01       	movw	r26, r24
    1a06:	1c 92       	st	X, r1
    1a08:	06 c0       	rjmp	.+12     	; 0x1a16 <SchedulerBasicP__TaskBasic__runTask+0x546>
    1a0a:	65 01       	movw	r12, r10
    1a0c:	bf ef       	ldi	r27, 0xFF	; 255
    1a0e:	cb 1a       	sub	r12, r27
    1a10:	db 0a       	sbc	r13, r27
    1a12:	ce 0c       	add	r12, r14
    1a14:	df 1c       	adc	r13, r15
    1a16:	43 e0       	ldi	r20, 0x03	; 3
    1a18:	50 e0       	ldi	r21, 0x00	; 0
    1a1a:	6f e2       	ldi	r22, 0x2F	; 47
    1a1c:	72 e0       	ldi	r23, 0x02	; 2
    1a1e:	c4 01       	movw	r24, r8
    1a20:	0e 94 ab 21 	call	0x4356	; 0x4356 <strncmp>
    1a24:	89 2b       	or	r24, r25
    1a26:	11 f0       	breq	.+4      	; 0x1a2c <SchedulerBasicP__TaskBasic__runTask+0x55c>
    1a28:	0c 94 61 16 	jmp	0x2cc2	; 0x2cc2 <__stack+0xac3>
    1a2c:	8d b6       	in	r8, 0x3d	; 61
    1a2e:	9e b6       	in	r9, 0x3e	; 62
    1a30:	f7 01       	movw	r30, r14
    1a32:	40 81       	ld	r20, Z
    1a34:	51 81       	ldd	r21, Z+1	; 0x01
    1a36:	5a 01       	movw	r10, r20
    1a38:	f2 e0       	ldi	r31, 0x02	; 2
    1a3a:	af 1a       	sub	r10, r31
    1a3c:	b1 08       	sbc	r11, r1
    1a3e:	8d b7       	in	r24, 0x3d	; 61
    1a40:	9e b7       	in	r25, 0x3e	; 62
    1a42:	8a 19       	sub	r24, r10
    1a44:	9b 09       	sbc	r25, r11
    1a46:	0f b6       	in	r0, 0x3f	; 63
    1a48:	f8 94       	cli
    1a4a:	9e bf       	out	0x3e, r25	; 62
    1a4c:	0f be       	out	0x3f, r0	; 63
    1a4e:	8d bf       	out	0x3d, r24	; 61
    1a50:	ad b7       	in	r26, 0x3d	; 61
    1a52:	be b7       	in	r27, 0x3e	; 62
    1a54:	11 96       	adiw	r26, 0x01	; 1
    1a56:	3d 01       	movw	r6, r26
    1a58:	43 50       	subi	r20, 0x03	; 3
    1a5a:	51 09       	sbc	r21, r1
    1a5c:	b6 01       	movw	r22, r12
    1a5e:	cd 01       	movw	r24, r26
    1a60:	0e 94 87 21 	call	0x430e	; 0x430e <memcpy>
    1a64:	f3 01       	movw	r30, r6
    1a66:	ea 0d       	add	r30, r10
    1a68:	fb 1d       	adc	r31, r11
    1a6a:	10 82       	st	Z, r1
    1a6c:	ae 01       	movw	r20, r28
    1a6e:	4d 5a       	subi	r20, 0xAD	; 173
    1a70:	5f 4f       	sbci	r21, 0xFF	; 255
    1a72:	65 ed       	ldi	r22, 0xD5	; 213
    1a74:	72 e0       	ldi	r23, 0x02	; 2
    1a76:	c3 01       	movw	r24, r6
    1a78:	0e 94 c8 21 	call	0x4390	; 0x4390 <strtok_r>
    1a7c:	6c 01       	movw	r12, r24
    1a7e:	00 97       	sbiw	r24, 0x00	; 0
    1a80:	11 f0       	breq	.+4      	; 0x1a86 <SchedulerBasicP__TaskBasic__runTask+0x5b6>
    1a82:	0c 94 8c 15 	jmp	0x2b18	; 0x2b18 <__stack+0x919>
    1a86:	0f b6       	in	r0, 0x3f	; 63
    1a88:	f8 94       	cli
    1a8a:	9e be       	out	0x3e, r9	; 62
    1a8c:	0f be       	out	0x3f, r0	; 63
    1a8e:	8d be       	out	0x3d, r8	; 61
    1a90:	c7 01       	movw	r24, r14
    1a92:	0e 94 9e 02 	call	0x53c	; 0x53c <PoolP__0__Pool__put>
    1a96:	80 91 51 03 	lds	r24, 0x0351
    1a9a:	88 23       	and	r24, r24
    1a9c:	11 f0       	breq	.+4      	; 0x1aa2 <SchedulerBasicP__TaskBasic__runTask+0x5d2>
    1a9e:	89 e0       	ldi	r24, 0x09	; 9
    1aa0:	81 ce       	rjmp	.-766    	; 0x17a4 <SchedulerBasicP__TaskBasic__runTask+0x2d4>
    1aa2:	10 92 65 0a 	sts	0x0A65, r1
    1aa6:	0c 94 8f 19 	jmp	0x331e	; 0x331e <__stack+0x111f>
    1aaa:	80 91 68 03 	lds	r24, 0x0368
    1aae:	81 11       	cpse	r24, r1
    1ab0:	0c 94 8f 19 	jmp	0x331e	; 0x331e <__stack+0x111f>
    1ab4:	80 91 69 03 	lds	r24, 0x0369
    1ab8:	8f 5f       	subi	r24, 0xFF	; 255
    1aba:	81 70       	andi	r24, 0x01	; 1
    1abc:	80 93 69 03 	sts	0x0369, r24
    1ac0:	ed e0       	ldi	r30, 0x0D	; 13
    1ac2:	e8 9f       	mul	r30, r24
    1ac4:	d0 01       	movw	r26, r0
    1ac6:	11 24       	eor	r1, r1
    1ac8:	a3 51       	subi	r26, 0x13	; 19
    1aca:	b8 4f       	sbci	r27, 0xF8	; 248
    1acc:	9c 91       	ld	r25, X
    1ace:	91 30       	cpi	r25, 0x01	; 1
    1ad0:	11 f4       	brne	.+4      	; 0x1ad6 <SchedulerBasicP__TaskBasic__runTask+0x606>
    1ad2:	0c 94 d0 16 	jmp	0x2da0	; 0x2da0 <__stack+0xba1>
    1ad6:	8f 5f       	subi	r24, 0xFF	; 255
    1ad8:	81 70       	andi	r24, 0x01	; 1
    1ada:	80 93 69 03 	sts	0x0369, r24
    1ade:	e8 9f       	mul	r30, r24
    1ae0:	f0 01       	movw	r30, r0
    1ae2:	11 24       	eor	r1, r1
    1ae4:	e3 51       	subi	r30, 0x13	; 19
    1ae6:	f8 4f       	sbci	r31, 0xF8	; 248
    1ae8:	80 81       	ld	r24, Z
    1aea:	81 30       	cpi	r24, 0x01	; 1
    1aec:	11 f0       	breq	.+4      	; 0x1af2 <SchedulerBasicP__TaskBasic__runTask+0x622>
    1aee:	0c 94 8f 19 	jmp	0x331e	; 0x331e <__stack+0x111f>
    1af2:	0c 94 d0 16 	jmp	0x2da0	; 0x2da0 <__stack+0xba1>
    1af6:	80 91 2a 08 	lds	r24, 0x082A
    1afa:	81 11       	cpse	r24, r1
    1afc:	41 c0       	rjmp	.+130    	; 0x1b80 <SchedulerBasicP__TaskBasic__runTask+0x6b0>
    1afe:	40 91 4c 13 	lds	r20, 0x134C
    1b02:	50 91 4d 13 	lds	r21, 0x134D
    1b06:	60 91 4e 13 	lds	r22, 0x134E
    1b0a:	70 91 4f 13 	lds	r23, 0x134F
    1b0e:	2f b7       	in	r18, 0x3f	; 63
    1b10:	f8 94       	cli
    1b12:	c0 90 47 0d 	lds	r12, 0x0D47
    1b16:	d0 90 48 0d 	lds	r13, 0x0D48
    1b1a:	e0 90 49 0d 	lds	r14, 0x0D49
    1b1e:	f0 90 4a 0d 	lds	r15, 0x0D4A
    1b22:	80 91 24 08 	lds	r24, 0x0824
    1b26:	90 91 25 08 	lds	r25, 0x0825
    1b2a:	a0 91 26 08 	lds	r26, 0x0826
    1b2e:	b0 91 27 08 	lds	r27, 0x0827
    1b32:	8c 0d       	add	r24, r12
    1b34:	9d 1d       	adc	r25, r13
    1b36:	ae 1d       	adc	r26, r14
    1b38:	bf 1d       	adc	r27, r15
    1b3a:	2f bf       	out	0x3f, r18	; 63
    1b3c:	40 93 4c 13 	sts	0x134C, r20
    1b40:	50 93 4d 13 	sts	0x134D, r21
    1b44:	60 93 4e 13 	sts	0x134E, r22
    1b48:	70 93 4f 13 	sts	0x134F, r23
    1b4c:	10 92 2a 08 	sts	0x082A, r1
    1b50:	2f b7       	in	r18, 0x3f	; 63
    1b52:	f8 94       	cli
    1b54:	31 e0       	ldi	r19, 0x01	; 1
    1b56:	30 93 6f 03 	sts	0x036F, r19
    1b5a:	80 93 24 08 	sts	0x0824, r24
    1b5e:	90 93 25 08 	sts	0x0825, r25
    1b62:	a0 93 26 08 	sts	0x0826, r26
    1b66:	b0 93 27 08 	sts	0x0827, r27
    1b6a:	40 93 47 0d 	sts	0x0D47, r20
    1b6e:	50 93 48 0d 	sts	0x0D48, r21
    1b72:	60 93 49 0d 	sts	0x0D49, r22
    1b76:	70 93 4a 0d 	sts	0x0D4A, r23
    1b7a:	2f bf       	out	0x3f, r18	; 63
    1b7c:	0e 94 8d 03 	call	0x71a	; 0x71a <Atm1280AlarmSyncP__0__checkAlarm>
    1b80:	0e 94 92 02 	call	0x524	; 0x524 <Atm1280AlarmSyncP__0__Counter__get>
    1b84:	47 c0       	rjmp	.+142    	; 0x1c14 <SchedulerBasicP__TaskBasic__runTask+0x744>
    1b86:	0e 94 92 02 	call	0x524	; 0x524 <Atm1280AlarmSyncP__0__Counter__get>
    1b8a:	2f b7       	in	r18, 0x3f	; 63
    1b8c:	f8 94       	cli
    1b8e:	10 92 6f 03 	sts	0x036F, r1
    1b92:	2f bf       	out	0x3f, r18	; 63
    1b94:	e0 e2       	ldi	r30, 0x20	; 32
    1b96:	fd e0       	ldi	r31, 0x0D	; 13
    1b98:	40 e0       	ldi	r20, 0x00	; 0
    1b9a:	88 24       	eor	r8, r8
    1b9c:	8a 94       	dec	r8
    1b9e:	98 2c       	mov	r9, r8
    1ba0:	a8 2c       	mov	r10, r8
    1ba2:	2f e7       	ldi	r18, 0x7F	; 127
    1ba4:	b2 2e       	mov	r11, r18
    1ba6:	20 e0       	ldi	r18, 0x00	; 0
    1ba8:	30 e0       	ldi	r19, 0x00	; 0
    1baa:	59 e0       	ldi	r21, 0x09	; 9
    1bac:	52 9f       	mul	r21, r18
    1bae:	d0 01       	movw	r26, r0
    1bb0:	53 9f       	mul	r21, r19
    1bb2:	b0 0d       	add	r27, r0
    1bb4:	11 24       	eor	r1, r1
    1bb6:	a0 5e       	subi	r26, 0xE0	; 224
    1bb8:	b2 4f       	sbci	r27, 0xF2	; 242
    1bba:	18 96       	adiw	r26, 0x08	; 8
    1bbc:	ac 91       	ld	r26, X
    1bbe:	a1 ff       	sbrs	r26, 1
    1bc0:	1a c0       	rjmp	.+52     	; 0x1bf6 <SchedulerBasicP__TaskBasic__runTask+0x726>
    1bc2:	c0 80       	ld	r12, Z
    1bc4:	d1 80       	ldd	r13, Z+1	; 0x01
    1bc6:	e2 80       	ldd	r14, Z+2	; 0x02
    1bc8:	f3 80       	ldd	r15, Z+3	; 0x03
    1bca:	2b 01       	movw	r4, r22
    1bcc:	3c 01       	movw	r6, r24
    1bce:	4c 18       	sub	r4, r12
    1bd0:	5d 08       	sbc	r5, r13
    1bd2:	6e 08       	sbc	r6, r14
    1bd4:	7f 08       	sbc	r7, r15
    1bd6:	c4 80       	ldd	r12, Z+4	; 0x04
    1bd8:	d5 80       	ldd	r13, Z+5	; 0x05
    1bda:	e6 80       	ldd	r14, Z+6	; 0x06
    1bdc:	f7 80       	ldd	r15, Z+7	; 0x07
    1bde:	c4 18       	sub	r12, r4
    1be0:	d5 08       	sbc	r13, r5
    1be2:	e6 08       	sbc	r14, r6
    1be4:	f7 08       	sbc	r15, r7
    1be6:	c8 14       	cp	r12, r8
    1be8:	d9 04       	cpc	r13, r9
    1bea:	ea 04       	cpc	r14, r10
    1bec:	fb 04       	cpc	r15, r11
    1bee:	1c f4       	brge	.+6      	; 0x1bf6 <SchedulerBasicP__TaskBasic__runTask+0x726>
    1bf0:	46 01       	movw	r8, r12
    1bf2:	57 01       	movw	r10, r14
    1bf4:	41 e0       	ldi	r20, 0x01	; 1
    1bf6:	2f 5f       	subi	r18, 0xFF	; 255
    1bf8:	3f 4f       	sbci	r19, 0xFF	; 255
    1bfa:	39 96       	adiw	r30, 0x09	; 9
    1bfc:	24 30       	cpi	r18, 0x04	; 4
    1bfe:	31 05       	cpc	r19, r1
    1c00:	a9 f6       	brne	.-86     	; 0x1bac <SchedulerBasicP__TaskBasic__runTask+0x6dc>
    1c02:	44 23       	and	r20, r20
    1c04:	11 f4       	brne	.+4      	; 0x1c0a <SchedulerBasicP__TaskBasic__runTask+0x73a>
    1c06:	0c 94 8f 19 	jmp	0x331e	; 0x331e <__stack+0x111f>
    1c0a:	18 14       	cp	r1, r8
    1c0c:	19 04       	cpc	r1, r9
    1c0e:	1a 04       	cpc	r1, r10
    1c10:	1b 04       	cpc	r1, r11
    1c12:	24 f0       	brlt	.+8      	; 0x1c1c <SchedulerBasicP__TaskBasic__runTask+0x74c>
    1c14:	0e 94 79 08 	call	0x10f2	; 0x10f2 <VirtualizeTimerC__0__fireTimers>
    1c18:	0c 94 8f 19 	jmp	0x331e	; 0x331e <__stack+0x111f>
    1c1c:	80 92 4c 13 	sts	0x134C, r8
    1c20:	90 92 4d 13 	sts	0x134D, r9
    1c24:	a0 92 4e 13 	sts	0x134E, r10
    1c28:	b0 92 4f 13 	sts	0x134F, r11
    1c2c:	21 e0       	ldi	r18, 0x01	; 1
    1c2e:	20 93 2a 08 	sts	0x082A, r18
    1c32:	3f b7       	in	r19, 0x3f	; 63
    1c34:	f8 94       	cli
    1c36:	20 93 6f 03 	sts	0x036F, r18
    1c3a:	60 93 24 08 	sts	0x0824, r22
    1c3e:	70 93 25 08 	sts	0x0825, r23
    1c42:	80 93 26 08 	sts	0x0826, r24
    1c46:	90 93 27 08 	sts	0x0827, r25
    1c4a:	80 92 47 0d 	sts	0x0D47, r8
    1c4e:	90 92 48 0d 	sts	0x0D48, r9
    1c52:	a0 92 49 0d 	sts	0x0D49, r10
    1c56:	b0 92 4a 0d 	sts	0x0D4A, r11
    1c5a:	3f bf       	out	0x3f, r19	; 63
    1c5c:	0e 94 8d 03 	call	0x71a	; 0x71a <Atm1280AlarmSyncP__0__checkAlarm>
    1c60:	0c 94 8f 19 	jmp	0x331e	; 0x331e <__stack+0x111f>
    1c64:	80 91 62 03 	lds	r24, 0x0362
    1c68:	81 11       	cpse	r24, r1
    1c6a:	0c 94 8f 19 	jmp	0x331e	; 0x331e <__stack+0x111f>
    1c6e:	80 91 63 03 	lds	r24, 0x0363
    1c72:	90 e0       	ldi	r25, 0x00	; 0
    1c74:	01 96       	adiw	r24, 0x01	; 1
    1c76:	81 70       	andi	r24, 0x01	; 1
    1c78:	99 27       	eor	r25, r25
    1c7a:	80 93 63 03 	sts	0x0363, r24
    1c7e:	2d e1       	ldi	r18, 0x1D	; 29
    1c80:	28 9f       	mul	r18, r24
    1c82:	f0 01       	movw	r30, r0
    1c84:	29 9f       	mul	r18, r25
    1c86:	f0 0d       	add	r31, r0
    1c88:	11 24       	eor	r1, r1
    1c8a:	e9 56       	subi	r30, 0x69	; 105
    1c8c:	f2 4f       	sbci	r31, 0xF2	; 242
    1c8e:	30 81       	ld	r19, Z
    1c90:	31 30       	cpi	r19, 0x01	; 1
    1c92:	11 f4       	brne	.+4      	; 0x1c98 <SchedulerBasicP__TaskBasic__runTask+0x7c8>
    1c94:	0c 94 31 17 	jmp	0x2e62	; 0x2e62 <__stack+0xc63>
    1c98:	01 96       	adiw	r24, 0x01	; 1
    1c9a:	81 70       	andi	r24, 0x01	; 1
    1c9c:	99 27       	eor	r25, r25
    1c9e:	80 93 63 03 	sts	0x0363, r24
    1ca2:	28 9f       	mul	r18, r24
    1ca4:	f0 01       	movw	r30, r0
    1ca6:	29 9f       	mul	r18, r25
    1ca8:	f0 0d       	add	r31, r0
    1caa:	11 24       	eor	r1, r1
    1cac:	e9 56       	subi	r30, 0x69	; 105
    1cae:	f2 4f       	sbci	r31, 0xF2	; 242
    1cb0:	80 81       	ld	r24, Z
    1cb2:	81 30       	cpi	r24, 0x01	; 1
    1cb4:	11 f0       	breq	.+4      	; 0x1cba <SchedulerBasicP__TaskBasic__runTask+0x7ea>
    1cb6:	0c 94 8f 19 	jmp	0x331e	; 0x331e <__stack+0x111f>
    1cba:	0c 94 31 17 	jmp	0x2e62	; 0x2e62 <__stack+0xc63>
    1cbe:	80 91 60 03 	lds	r24, 0x0360
    1cc2:	81 11       	cpse	r24, r1
    1cc4:	0c 94 8f 19 	jmp	0x331e	; 0x331e <__stack+0x111f>
    1cc8:	e0 91 61 03 	lds	r30, 0x0361
    1ccc:	ef 5f       	subi	r30, 0xFF	; 255
    1cce:	e1 70       	andi	r30, 0x01	; 1
    1cd0:	e0 93 61 03 	sts	0x0361, r30
    1cd4:	ae 2f       	mov	r26, r30
    1cd6:	b0 e0       	ldi	r27, 0x00	; 0
    1cd8:	93 e0       	ldi	r25, 0x03	; 3
    1cda:	aa 0f       	add	r26, r26
    1cdc:	bb 1f       	adc	r27, r27
    1cde:	9a 95       	dec	r25
    1ce0:	e1 f7       	brne	.-8      	; 0x1cda <SchedulerBasicP__TaskBasic__runTask+0x80a>
    1ce2:	a3 5b       	subi	r26, 0xB3	; 179
    1ce4:	b5 4f       	sbci	r27, 0xF5	; 245
    1ce6:	8c 91       	ld	r24, X
    1ce8:	81 30       	cpi	r24, 0x01	; 1
    1cea:	11 f4       	brne	.+4      	; 0x1cf0 <SchedulerBasicP__TaskBasic__runTask+0x820>
    1cec:	0c 94 74 17 	jmp	0x2ee8	; 0x2ee8 <__stack+0xce9>
    1cf0:	ef 5f       	subi	r30, 0xFF	; 255
    1cf2:	e1 70       	andi	r30, 0x01	; 1
    1cf4:	e0 93 61 03 	sts	0x0361, r30
    1cf8:	f0 e0       	ldi	r31, 0x00	; 0
    1cfa:	83 e0       	ldi	r24, 0x03	; 3
    1cfc:	ee 0f       	add	r30, r30
    1cfe:	ff 1f       	adc	r31, r31
    1d00:	8a 95       	dec	r24
    1d02:	e1 f7       	brne	.-8      	; 0x1cfc <SchedulerBasicP__TaskBasic__runTask+0x82c>
    1d04:	e3 5b       	subi	r30, 0xB3	; 179
    1d06:	f5 4f       	sbci	r31, 0xF5	; 245
    1d08:	80 81       	ld	r24, Z
    1d0a:	81 30       	cpi	r24, 0x01	; 1
    1d0c:	11 f0       	breq	.+4      	; 0x1d12 <SchedulerBasicP__TaskBasic__runTask+0x842>
    1d0e:	0c 94 8f 19 	jmp	0x331e	; 0x331e <__stack+0x111f>
    1d12:	0c 94 74 17 	jmp	0x2ee8	; 0x2ee8 <__stack+0xce9>
    1d16:	80 91 5e 03 	lds	r24, 0x035E
    1d1a:	81 11       	cpse	r24, r1
    1d1c:	0c 94 8f 19 	jmp	0x331e	; 0x331e <__stack+0x111f>
    1d20:	80 91 5f 03 	lds	r24, 0x035F
    1d24:	8f 5f       	subi	r24, 0xFF	; 255
    1d26:	81 70       	andi	r24, 0x01	; 1
    1d28:	80 93 5f 03 	sts	0x035F, r24
    1d2c:	eb e0       	ldi	r30, 0x0B	; 11
    1d2e:	e8 9f       	mul	r30, r24
    1d30:	d0 01       	movw	r26, r0
    1d32:	11 24       	eor	r1, r1
    1d34:	a5 5b       	subi	r26, 0xB5	; 181
    1d36:	b2 4f       	sbci	r27, 0xF2	; 242
    1d38:	9c 91       	ld	r25, X
    1d3a:	91 30       	cpi	r25, 0x01	; 1
    1d3c:	11 f4       	brne	.+4      	; 0x1d42 <SchedulerBasicP__TaskBasic__runTask+0x872>
    1d3e:	0c 94 80 18 	jmp	0x3100	; 0x3100 <__stack+0xf01>
    1d42:	8f 5f       	subi	r24, 0xFF	; 255
    1d44:	81 70       	andi	r24, 0x01	; 1
    1d46:	80 93 5f 03 	sts	0x035F, r24
    1d4a:	e8 9f       	mul	r30, r24
    1d4c:	f0 01       	movw	r30, r0
    1d4e:	11 24       	eor	r1, r1
    1d50:	e5 5b       	subi	r30, 0xB5	; 181
    1d52:	f2 4f       	sbci	r31, 0xF2	; 242
    1d54:	80 81       	ld	r24, Z
    1d56:	81 30       	cpi	r24, 0x01	; 1
    1d58:	11 f0       	breq	.+4      	; 0x1d5e <SchedulerBasicP__TaskBasic__runTask+0x88e>
    1d5a:	0c 94 8f 19 	jmp	0x331e	; 0x331e <__stack+0x111f>
    1d5e:	0c 94 80 18 	jmp	0x3100	; 0x3100 <__stack+0xf01>
    1d62:	81 e0       	ldi	r24, 0x01	; 1
    1d64:	80 93 5a 03 	sts	0x035A, r24
    1d68:	0e 94 da 04 	call	0x9b4	; 0x9b4 <Atm1280SpiP__Resource__request.constprop.135>
    1d6c:	0c 94 8f 19 	jmp	0x331e	; 0x331e <__stack+0x111f>
    1d70:	8f b7       	in	r24, 0x3f	; 63
    1d72:	f8 94       	cli
    1d74:	10 92 77 03 	sts	0x0377, r1
    1d78:	10 92 76 03 	sts	0x0376, r1
    1d7c:	10 92 29 08 	sts	0x0829, r1
    1d80:	10 92 28 08 	sts	0x0828, r1
    1d84:	10 92 b1 13 	sts	0x13B1, r1
    1d88:	10 92 b0 13 	sts	0x13B0, r1
    1d8c:	10 92 67 0a 	sts	0x0A67, r1
    1d90:	10 92 66 0a 	sts	0x0A66, r1
    1d94:	2b c6       	rjmp	.+3158   	; 0x29ec <__stack+0x7ed>
    1d96:	8f b7       	in	r24, 0x3f	; 63
    1d98:	f8 94       	cli
    1d9a:	92 e0       	ldi	r25, 0x02	; 2
    1d9c:	90 93 59 03 	sts	0x0359, r25
    1da0:	8f bf       	out	0x3f, r24	; 63
    1da2:	80 91 11 02 	lds	r24, 0x0211
    1da6:	81 11       	cpse	r24, r1
    1da8:	0c 94 8f 19 	jmp	0x331e	; 0x331e <__stack+0x111f>
    1dac:	0e 94 31 02 	call	0x462	; 0x462 <HplAtm128GeneralIOPinP__8__IO__set>
    1db0:	80 91 5d 03 	lds	r24, 0x035D
    1db4:	81 30       	cpi	r24, 0x01	; 1
    1db6:	21 f0       	breq	.+8      	; 0x1dc0 <SchedulerBasicP__TaskBasic__runTask+0x8f0>
    1db8:	82 30       	cpi	r24, 0x02	; 2
    1dba:	09 f4       	brne	.+2      	; 0x1dbe <SchedulerBasicP__TaskBasic__runTask+0x8ee>
    1dbc:	98 c0       	rjmp	.+304    	; 0x1eee <SchedulerBasicP__TaskBasic__runTask+0xa1e>
    1dbe:	89 c2       	rjmp	.+1298   	; 0x22d2 <__stack+0xd3>
    1dc0:	6f ef       	ldi	r22, 0xFF	; 255
    1dc2:	8f ef       	ldi	r24, 0xFF	; 255
    1dc4:	0e 94 c4 02 	call	0x588	; 0x588 <Enc28j60P__writeSPI>
    1dc8:	8d e1       	ldi	r24, 0x1D	; 29
    1dca:	0e 94 da 02 	call	0x5b4	; 0x5b4 <Enc28j60P__readSPI>
    1dce:	80 ff       	sbrs	r24, 0
    1dd0:	fb cf       	rjmp	.-10     	; 0x1dc8 <SchedulerBasicP__TaskBasic__runTask+0x8f8>
    1dd2:	80 e0       	ldi	r24, 0x00	; 0
    1dd4:	0e 94 9b 06 	call	0xd36	; 0xd36 <Enc28j60P__setBank>
    1dd8:	60 e0       	ldi	r22, 0x00	; 0
    1dda:	76 e0       	ldi	r23, 0x06	; 6
    1ddc:	88 e0       	ldi	r24, 0x08	; 8
    1dde:	0e 94 9e 04 	call	0x93c	; 0x93c <Enc28j60P__writeReg16>
    1de2:	80 e0       	ldi	r24, 0x00	; 0
    1de4:	96 e0       	ldi	r25, 0x06	; 6
    1de6:	90 93 15 02 	sts	0x0215, r25
    1dea:	80 93 14 02 	sts	0x0214, r24
    1dee:	60 e0       	ldi	r22, 0x00	; 0
    1df0:	76 e0       	ldi	r23, 0x06	; 6
    1df2:	8c e0       	ldi	r24, 0x0C	; 12
    1df4:	0e 94 9e 04 	call	0x93c	; 0x93c <Enc28j60P__writeReg16>
    1df8:	6f ef       	ldi	r22, 0xFF	; 255
    1dfa:	7f e1       	ldi	r23, 0x1F	; 31
    1dfc:	8a e0       	ldi	r24, 0x0A	; 10
    1dfe:	0e 94 9e 04 	call	0x93c	; 0x93c <Enc28j60P__writeReg16>
    1e02:	60 e0       	ldi	r22, 0x00	; 0
    1e04:	70 e0       	ldi	r23, 0x00	; 0
    1e06:	84 e0       	ldi	r24, 0x04	; 4
    1e08:	0e 94 9e 04 	call	0x93c	; 0x93c <Enc28j60P__writeReg16>
    1e0c:	60 e8       	ldi	r22, 0x80	; 128
    1e0e:	8e e5       	ldi	r24, 0x5E	; 94
    1e10:	0e 94 c4 02 	call	0x588	; 0x588 <Enc28j60P__writeSPI>
    1e14:	81 e0       	ldi	r24, 0x01	; 1
    1e16:	0e 94 9b 06 	call	0xd36	; 0xd36 <Enc28j60P__setBank>
    1e1a:	61 ea       	ldi	r22, 0xA1	; 161
    1e1c:	88 e5       	ldi	r24, 0x58	; 88
    1e1e:	0e 94 c4 02 	call	0x588	; 0x588 <Enc28j60P__writeSPI>
    1e22:	82 e0       	ldi	r24, 0x02	; 2
    1e24:	0e 94 9b 06 	call	0xd36	; 0xd36 <Enc28j60P__setBank>
    1e28:	60 e0       	ldi	r22, 0x00	; 0
    1e2a:	81 e4       	ldi	r24, 0x41	; 65
    1e2c:	0e 94 c4 02 	call	0x588	; 0x588 <Enc28j60P__writeSPI>
    1e30:	61 e0       	ldi	r22, 0x01	; 1
    1e32:	80 e4       	ldi	r24, 0x40	; 64
    1e34:	0e 94 c4 02 	call	0x588	; 0x588 <Enc28j60P__writeSPI>
    1e38:	63 e3       	ldi	r22, 0x33	; 51
    1e3a:	82 e4       	ldi	r24, 0x42	; 66
    1e3c:	0e 94 c4 02 	call	0x588	; 0x588 <Enc28j60P__writeSPI>
    1e40:	60 e0       	ldi	r22, 0x00	; 0
    1e42:	83 e4       	ldi	r24, 0x43	; 67
    1e44:	0e 94 c4 02 	call	0x588	; 0x588 <Enc28j60P__writeSPI>
    1e48:	6a e2       	ldi	r22, 0x2A	; 42
    1e4a:	72 e0       	ldi	r23, 0x02	; 2
    1e4c:	8a e0       	ldi	r24, 0x0A	; 10
    1e4e:	0e 94 9e 04 	call	0x93c	; 0x93c <Enc28j60P__writeReg16>
    1e52:	65 e1       	ldi	r22, 0x15	; 21
    1e54:	84 e4       	ldi	r24, 0x44	; 68
    1e56:	0e 94 c4 02 	call	0x588	; 0x588 <Enc28j60P__writeSPI>
    1e5a:	90 91 28 02 	lds	r25, 0x0228
    1e5e:	80 91 29 02 	lds	r24, 0x0229
    1e62:	90 93 1b 02 	sts	0x021B, r25
    1e66:	80 93 1a 02 	sts	0x021A, r24
    1e6a:	83 e0       	ldi	r24, 0x03	; 3
    1e6c:	0e 94 9b 06 	call	0xd36	; 0xd36 <Enc28j60P__setBank>
    1e70:	60 91 1b 02 	lds	r22, 0x021B
    1e74:	81 e4       	ldi	r24, 0x41	; 65
    1e76:	0e 94 c4 02 	call	0x588	; 0x588 <Enc28j60P__writeSPI>
    1e7a:	60 91 1a 02 	lds	r22, 0x021A
    1e7e:	80 e4       	ldi	r24, 0x40	; 64
    1e80:	0e 94 c4 02 	call	0x588	; 0x588 <Enc28j60P__writeSPI>
    1e84:	60 91 19 02 	lds	r22, 0x0219
    1e88:	83 e4       	ldi	r24, 0x43	; 67
    1e8a:	0e 94 c4 02 	call	0x588	; 0x588 <Enc28j60P__writeSPI>
    1e8e:	60 91 18 02 	lds	r22, 0x0218
    1e92:	82 e4       	ldi	r24, 0x42	; 66
    1e94:	0e 94 c4 02 	call	0x588	; 0x588 <Enc28j60P__writeSPI>
    1e98:	60 91 17 02 	lds	r22, 0x0217
    1e9c:	85 e4       	ldi	r24, 0x45	; 69
    1e9e:	0e 94 c4 02 	call	0x588	; 0x588 <Enc28j60P__writeSPI>
    1ea2:	60 91 16 02 	lds	r22, 0x0216
    1ea6:	84 e4       	ldi	r24, 0x44	; 68
    1ea8:	0e 94 c4 02 	call	0x588	; 0x588 <Enc28j60P__writeSPI>
    1eac:	82 e0       	ldi	r24, 0x02	; 2
    1eae:	0e 94 9b 06 	call	0xd36	; 0xd36 <Enc28j60P__setBank>
    1eb2:	64 e1       	ldi	r22, 0x14	; 20
    1eb4:	84 e5       	ldi	r24, 0x54	; 84
    1eb6:	0e 94 c4 02 	call	0x588	; 0x588 <Enc28j60P__writeSPI>
    1eba:	60 e4       	ldi	r22, 0x40	; 64
    1ebc:	71 e0       	ldi	r23, 0x01	; 1
    1ebe:	86 e1       	ldi	r24, 0x16	; 22
    1ec0:	0e 94 9e 04 	call	0x93c	; 0x93c <Enc28j60P__writeReg16>
    1ec4:	62 e1       	ldi	r22, 0x12	; 18
    1ec6:	84 e5       	ldi	r24, 0x54	; 84
    1ec8:	0e 94 c4 02 	call	0x588	; 0x588 <Enc28j60P__writeSPI>
    1ecc:	62 e1       	ldi	r22, 0x12	; 18
    1ece:	70 e0       	ldi	r23, 0x00	; 0
    1ed0:	86 e1       	ldi	r24, 0x16	; 22
    1ed2:	0e 94 9e 04 	call	0x93c	; 0x93c <Enc28j60P__writeReg16>
    1ed6:	60 ed       	ldi	r22, 0xD0	; 208
    1ed8:	8b e5       	ldi	r24, 0x5B	; 91
    1eda:	0e 94 c4 02 	call	0x588	; 0x588 <Enc28j60P__writeSPI>
    1ede:	64 e0       	ldi	r22, 0x04	; 4
    1ee0:	8f e1       	ldi	r24, 0x1F	; 31
    1ee2:	0e 94 f0 02 	call	0x5e0	; 0x5e0 <Enc28j60P__setBit>
    1ee6:	82 e0       	ldi	r24, 0x02	; 2
    1ee8:	80 93 5d 03 	sts	0x035D, r24
    1eec:	f2 c1       	rjmp	.+996    	; 0x22d2 <__stack+0xd3>
    1eee:	80 91 5a 03 	lds	r24, 0x035A
    1ef2:	88 23       	and	r24, r24
    1ef4:	09 f4       	brne	.+2      	; 0x1ef8 <SchedulerBasicP__TaskBasic__runTask+0xa28>
    1ef6:	3f c0       	rjmp	.+126    	; 0x1f76 <SchedulerBasicP__TaskBasic__runTask+0xaa6>
    1ef8:	10 92 5a 03 	sts	0x035A, r1
    1efc:	8c e1       	ldi	r24, 0x1C	; 28
    1efe:	0e 94 da 02 	call	0x5b4	; 0x5b4 <Enc28j60P__readSPI>
    1f02:	f8 2e       	mov	r15, r24
    1f04:	84 ff       	sbrs	r24, 4
    1f06:	20 c0       	rjmp	.+64     	; 0x1f48 <SchedulerBasicP__TaskBasic__runTask+0xa78>
    1f08:	82 e0       	ldi	r24, 0x02	; 2
    1f0a:	0e 94 9b 06 	call	0xd36	; 0xd36 <Enc28j60P__setBank>
    1f0e:	63 e1       	ldi	r22, 0x13	; 19
    1f10:	84 e5       	ldi	r24, 0x54	; 84
    1f12:	0e 94 c4 02 	call	0x588	; 0x588 <Enc28j60P__writeSPI>
    1f16:	61 e0       	ldi	r22, 0x01	; 1
    1f18:	82 e5       	ldi	r24, 0x52	; 82
    1f1a:	0e 94 c4 02 	call	0x588	; 0x588 <Enc28j60P__writeSPI>
    1f1e:	83 e0       	ldi	r24, 0x03	; 3
    1f20:	0e 94 9b 06 	call	0xd36	; 0xd36 <Enc28j60P__setBank>
    1f24:	8a e0       	ldi	r24, 0x0A	; 10
    1f26:	0e 94 ed 1c 	call	0x39da	; 0x39da <Enc28j60P__readRegM>
    1f2a:	80 fd       	sbrc	r24, 0
    1f2c:	fb cf       	rjmp	.-10     	; 0x1f24 <SchedulerBasicP__TaskBasic__runTask+0xa54>
    1f2e:	82 e0       	ldi	r24, 0x02	; 2
    1f30:	0e 94 9b 06 	call	0xd36	; 0xd36 <Enc28j60P__setBank>
    1f34:	60 e0       	ldi	r22, 0x00	; 0
    1f36:	82 e5       	ldi	r24, 0x52	; 82
    1f38:	0e 94 c4 02 	call	0x588	; 0x588 <Enc28j60P__writeSPI>
    1f3c:	88 e1       	ldi	r24, 0x18	; 24
    1f3e:	0e 94 ed 1c 	call	0x39da	; 0x39da <Enc28j60P__readRegM>
    1f42:	89 e1       	ldi	r24, 0x19	; 25
    1f44:	0e 94 ed 1c 	call	0x39da	; 0x39da <Enc28j60P__readRegM>
    1f48:	81 e0       	ldi	r24, 0x01	; 1
    1f4a:	0e 94 9b 06 	call	0xd36	; 0xd36 <Enc28j60P__setBank>
    1f4e:	89 e1       	ldi	r24, 0x19	; 25
    1f50:	0e 94 da 02 	call	0x5b4	; 0x5b4 <Enc28j60P__readSPI>
    1f54:	88 23       	and	r24, r24
    1f56:	19 f0       	breq	.+6      	; 0x1f5e <SchedulerBasicP__TaskBasic__runTask+0xa8e>
    1f58:	81 e0       	ldi	r24, 0x01	; 1
    1f5a:	80 93 5b 03 	sts	0x035B, r24
    1f5e:	f0 fe       	sbrs	r15, 0
    1f60:	0a c0       	rjmp	.+20     	; 0x1f76 <SchedulerBasicP__TaskBasic__runTask+0xaa6>
    1f62:	0e 94 33 02 	call	0x466	; 0x466 <HplAtm128GeneralIOPinP__8__IO__clr>
    1f66:	8c eb       	ldi	r24, 0xBC	; 188
    1f68:	0e 94 c2 02 	call	0x584	; 0x584 <Enc28j60P__SpiByte__write>
    1f6c:	81 e0       	ldi	r24, 0x01	; 1
    1f6e:	0e 94 c2 02 	call	0x584	; 0x584 <Enc28j60P__SpiByte__write>
    1f72:	0e 94 31 02 	call	0x462	; 0x462 <HplAtm128GeneralIOPinP__8__IO__set>
    1f76:	80 91 5c 03 	lds	r24, 0x035C
    1f7a:	81 30       	cpi	r24, 0x01	; 1
    1f7c:	09 f0       	breq	.+2      	; 0x1f80 <SchedulerBasicP__TaskBasic__runTask+0xab0>
    1f7e:	44 c0       	rjmp	.+136    	; 0x2008 <SchedulerBasicP__TaskBasic__runTask+0xb38>
    1f80:	80 e0       	ldi	r24, 0x00	; 0
    1f82:	0e 94 9b 06 	call	0xd36	; 0xd36 <Enc28j60P__setBank>
    1f86:	60 e0       	ldi	r22, 0x00	; 0
    1f88:	70 e0       	ldi	r23, 0x00	; 0
    1f8a:	82 e0       	ldi	r24, 0x02	; 2
    1f8c:	0e 94 9e 04 	call	0x93c	; 0x93c <Enc28j60P__writeReg16>
    1f90:	60 e0       	ldi	r22, 0x00	; 0
    1f92:	8a e7       	ldi	r24, 0x7A	; 122
    1f94:	0e 94 c4 02 	call	0x588	; 0x588 <Enc28j60P__writeSPI>
    1f98:	e1 2c       	mov	r14, r1
    1f9a:	f1 2c       	mov	r15, r1
    1f9c:	60 91 2d 08 	lds	r22, 0x082D
    1fa0:	70 91 2e 08 	lds	r23, 0x082E
    1fa4:	e6 16       	cp	r14, r22
    1fa6:	f7 06       	cpc	r15, r23
    1fa8:	70 f4       	brcc	.+28     	; 0x1fc6 <SchedulerBasicP__TaskBasic__runTask+0xaf6>
    1faa:	e0 91 61 0d 	lds	r30, 0x0D61
    1fae:	f0 91 62 0d 	lds	r31, 0x0D62
    1fb2:	ee 0d       	add	r30, r14
    1fb4:	ff 1d       	adc	r31, r15
    1fb6:	60 81       	ld	r22, Z
    1fb8:	8a e7       	ldi	r24, 0x7A	; 122
    1fba:	0e 94 c4 02 	call	0x588	; 0x588 <Enc28j60P__writeSPI>
    1fbe:	bf ef       	ldi	r27, 0xFF	; 255
    1fc0:	eb 1a       	sub	r14, r27
    1fc2:	fb 0a       	sbc	r15, r27
    1fc4:	eb cf       	rjmp	.-42     	; 0x1f9c <SchedulerBasicP__TaskBasic__runTask+0xacc>
    1fc6:	86 e0       	ldi	r24, 0x06	; 6
    1fc8:	0e 94 9e 04 	call	0x93c	; 0x93c <Enc28j60P__writeReg16>
    1fcc:	68 e0       	ldi	r22, 0x08	; 8
    1fce:	8f e1       	ldi	r24, 0x1F	; 31
    1fd0:	0e 94 f0 02 	call	0x5e0	; 0x5e0 <Enc28j60P__setBit>
    1fd4:	10 92 5c 03 	sts	0x035C, r1
    1fd8:	10 92 68 03 	sts	0x0368, r1
    1fdc:	80 91 69 03 	lds	r24, 0x0369
    1fe0:	2d e0       	ldi	r18, 0x0D	; 13
    1fe2:	82 9f       	mul	r24, r18
    1fe4:	f0 01       	movw	r30, r0
    1fe6:	11 24       	eor	r1, r1
    1fe8:	e3 51       	subi	r30, 0x13	; 19
    1fea:	f8 4f       	sbci	r31, 0xF8	; 248
    1fec:	10 82       	st	Z, r1
    1fee:	88 23       	and	r24, r24
    1ff0:	31 f0       	breq	.+12     	; 0x1ffe <SchedulerBasicP__TaskBasic__runTask+0xb2e>
    1ff2:	81 30       	cpi	r24, 0x01	; 1
    1ff4:	31 f4       	brne	.+12     	; 0x2002 <SchedulerBasicP__TaskBasic__runTask+0xb32>
    1ff6:	80 e0       	ldi	r24, 0x00	; 0
    1ff8:	0e 94 06 1d 	call	0x3a0c	; 0x3a0c <PacketQueueP__1__PacketSender__sendDone>
    1ffc:	02 c0       	rjmp	.+4      	; 0x2002 <SchedulerBasicP__TaskBasic__runTask+0xb32>
    1ffe:	0e 94 50 05 	call	0xaa0	; 0xaa0 <PacketQueueP__2__PacketSender__sendDone.isra.89>
    2002:	8a e0       	ldi	r24, 0x0A	; 10
    2004:	0e 94 49 02 	call	0x492	; 0x492 <SchedulerBasicP__TaskBasic__postTask>
    2008:	80 91 5b 03 	lds	r24, 0x035B
    200c:	81 30       	cpi	r24, 0x01	; 1
    200e:	09 f0       	breq	.+2      	; 0x2012 <SchedulerBasicP__TaskBasic__runTask+0xb42>
    2010:	60 c1       	rjmp	.+704    	; 0x22d2 <__stack+0xd3>
    2012:	80 e0       	ldi	r24, 0x00	; 0
    2014:	0e 94 9b 06 	call	0xd36	; 0xd36 <Enc28j60P__setBank>
    2018:	60 91 14 02 	lds	r22, 0x0214
    201c:	70 91 15 02 	lds	r23, 0x0215
    2020:	80 e0       	ldi	r24, 0x00	; 0
    2022:	0e 94 9e 04 	call	0x93c	; 0x93c <Enc28j60P__writeReg16>
    2026:	8a e3       	ldi	r24, 0x3A	; 58
    2028:	0e 94 da 02 	call	0x5b4	; 0x5b4 <Enc28j60P__readSPI>
    202c:	90 e0       	ldi	r25, 0x00	; 0
    202e:	90 93 15 02 	sts	0x0215, r25
    2032:	80 93 14 02 	sts	0x0214, r24
    2036:	8a e3       	ldi	r24, 0x3A	; 58
    2038:	0e 94 da 02 	call	0x5b4	; 0x5b4 <Enc28j60P__readSPI>
    203c:	20 91 14 02 	lds	r18, 0x0214
    2040:	30 91 15 02 	lds	r19, 0x0215
    2044:	38 2b       	or	r19, r24
    2046:	30 93 15 02 	sts	0x0215, r19
    204a:	20 93 14 02 	sts	0x0214, r18
    204e:	8a e3       	ldi	r24, 0x3A	; 58
    2050:	0e 94 da 02 	call	0x5b4	; 0x5b4 <Enc28j60P__readSPI>
    2054:	e8 2e       	mov	r14, r24
    2056:	f1 2c       	mov	r15, r1
    2058:	8a e3       	ldi	r24, 0x3A	; 58
    205a:	0e 94 da 02 	call	0x5b4	; 0x5b4 <Enc28j60P__readSPI>
    205e:	f8 2a       	or	r15, r24
    2060:	8a e3       	ldi	r24, 0x3A	; 58
    2062:	0e 94 da 02 	call	0x5b4	; 0x5b4 <Enc28j60P__readSPI>
    2066:	8a e3       	ldi	r24, 0x3A	; 58
    2068:	0e 94 da 02 	call	0x5b4	; 0x5b4 <Enc28j60P__readSPI>
    206c:	c7 01       	movw	r24, r14
    206e:	0f 97       	sbiw	r24, 0x0f	; 15
    2070:	8b 31       	cpi	r24, 0x1B	; 27
    2072:	92 40       	sbci	r25, 0x02	; 2
    2074:	90 f4       	brcc	.+36     	; 0x209a <SchedulerBasicP__TaskBasic__runTask+0xbca>
    2076:	f8 e7       	ldi	r31, 0x78	; 120
    2078:	cf 2e       	mov	r12, r31
    207a:	f3 e0       	ldi	r31, 0x03	; 3
    207c:	df 2e       	mov	r13, r31
    207e:	8a e3       	ldi	r24, 0x3A	; 58
    2080:	0e 94 da 02 	call	0x5b4	; 0x5b4 <Enc28j60P__readSPI>
    2084:	d6 01       	movw	r26, r12
    2086:	8d 93       	st	X+, r24
    2088:	6d 01       	movw	r12, r26
    208a:	cd 01       	movw	r24, r26
    208c:	88 57       	subi	r24, 0x78	; 120
    208e:	93 40       	sbci	r25, 0x03	; 3
    2090:	8e 15       	cp	r24, r14
    2092:	9f 05       	cpc	r25, r15
    2094:	a0 f3       	brcs	.-24     	; 0x207e <SchedulerBasicP__TaskBasic__runTask+0xbae>
    2096:	f1 2c       	mov	r15, r1
    2098:	02 c0       	rjmp	.+4      	; 0x209e <SchedulerBasicP__TaskBasic__runTask+0xbce>
    209a:	ff 24       	eor	r15, r15
    209c:	f3 94       	inc	r15
    209e:	60 91 14 02 	lds	r22, 0x0214
    20a2:	70 91 15 02 	lds	r23, 0x0215
    20a6:	8c e0       	ldi	r24, 0x0C	; 12
    20a8:	0e 94 9e 04 	call	0x93c	; 0x93c <Enc28j60P__writeReg16>
    20ac:	60 e4       	ldi	r22, 0x40	; 64
    20ae:	8e e1       	ldi	r24, 0x1E	; 30
    20b0:	0e 94 f0 02 	call	0x5e0	; 0x5e0 <Enc28j60P__setBit>
    20b4:	10 92 5b 03 	sts	0x035B, r1
    20b8:	f1 10       	cpse	r15, r1
    20ba:	0b c1       	rjmp	.+534    	; 0x22d2 <__stack+0xd3>
    20bc:	80 91 84 03 	lds	r24, 0x0384
    20c0:	90 e0       	ldi	r25, 0x00	; 0
    20c2:	98 2f       	mov	r25, r24
    20c4:	88 27       	eor	r24, r24
    20c6:	20 91 85 03 	lds	r18, 0x0385
    20ca:	82 2b       	or	r24, r18
    20cc:	81 15       	cp	r24, r1
    20ce:	b8 e0       	ldi	r27, 0x08	; 8
    20d0:	9b 07       	cpc	r25, r27
    20d2:	29 f0       	breq	.+10     	; 0x20de <SchedulerBasicP__TaskBasic__runTask+0xc0e>
    20d4:	86 30       	cpi	r24, 0x06	; 6
    20d6:	98 40       	sbci	r25, 0x08	; 8
    20d8:	09 f4       	brne	.+2      	; 0x20dc <SchedulerBasicP__TaskBasic__runTask+0xc0c>
    20da:	9a c0       	rjmp	.+308    	; 0x2210 <__stack+0x11>
    20dc:	fa c0       	rjmp	.+500    	; 0x22d2 <__stack+0xd3>
    20de:	86 e8       	ldi	r24, 0x86	; 134
    20e0:	93 e0       	ldi	r25, 0x03	; 3
    20e2:	90 93 51 13 	sts	0x1351, r25
    20e6:	80 93 50 13 	sts	0x1350, r24
    20ea:	80 91 96 03 	lds	r24, 0x0396
    20ee:	90 91 97 03 	lds	r25, 0x0397
    20f2:	a0 91 98 03 	lds	r26, 0x0398
    20f6:	b0 91 99 03 	lds	r27, 0x0399
    20fa:	c0 90 24 02 	lds	r12, 0x0224
    20fe:	d0 90 25 02 	lds	r13, 0x0225
    2102:	e0 90 26 02 	lds	r14, 0x0226
    2106:	f0 90 27 02 	lds	r15, 0x0227
    210a:	8c 15       	cp	r24, r12
    210c:	9d 05       	cpc	r25, r13
    210e:	ae 05       	cpc	r26, r14
    2110:	bf 05       	cpc	r27, r15
    2112:	39 f1       	breq	.+78     	; 0x2162 <SchedulerBasicP__TaskBasic__runTask+0xc92>
    2114:	40 91 1c 02 	lds	r20, 0x021C
    2118:	50 91 1d 02 	lds	r21, 0x021D
    211c:	60 91 1e 02 	lds	r22, 0x021E
    2120:	70 91 1f 02 	lds	r23, 0x021F
    2124:	4a 01       	movw	r8, r20
    2126:	5b 01       	movw	r10, r22
    2128:	80 94       	com	r8
    212a:	90 94       	com	r9
    212c:	a0 94       	com	r10
    212e:	b0 94       	com	r11
    2130:	24 01       	movw	r4, r8
    2132:	35 01       	movw	r6, r10
    2134:	48 22       	and	r4, r24
    2136:	59 22       	and	r5, r25
    2138:	6a 22       	and	r6, r26
    213a:	7b 22       	and	r7, r27
    213c:	48 14       	cp	r4, r8
    213e:	59 04       	cpc	r5, r9
    2140:	6a 04       	cpc	r6, r10
    2142:	7b 04       	cpc	r7, r11
    2144:	09 f0       	breq	.+2      	; 0x2148 <SchedulerBasicP__TaskBasic__runTask+0xc78>
    2146:	c5 c0       	rjmp	.+394    	; 0x22d2 <__stack+0xd3>
    2148:	8c 25       	eor	r24, r12
    214a:	9d 25       	eor	r25, r13
    214c:	ae 25       	eor	r26, r14
    214e:	bf 25       	eor	r27, r15
    2150:	84 23       	and	r24, r20
    2152:	95 23       	and	r25, r21
    2154:	a6 23       	and	r26, r22
    2156:	b7 23       	and	r27, r23
    2158:	89 2b       	or	r24, r25
    215a:	8a 2b       	or	r24, r26
    215c:	8b 2b       	or	r24, r27
    215e:	09 f0       	breq	.+2      	; 0x2162 <SchedulerBasicP__TaskBasic__runTask+0xc92>
    2160:	b8 c0       	rjmp	.+368    	; 0x22d2 <__stack+0xd3>
    2162:	80 91 8f 03 	lds	r24, 0x038F
    2166:	81 31       	cpi	r24, 0x11	; 17
    2168:	09 f0       	breq	.+2      	; 0x216c <SchedulerBasicP__TaskBasic__runTask+0xc9c>
    216a:	b3 c0       	rjmp	.+358    	; 0x22d2 <__stack+0xd3>
    216c:	40 91 9e 03 	lds	r20, 0x039E
    2170:	50 e0       	ldi	r21, 0x00	; 0
    2172:	54 2f       	mov	r21, r20
    2174:	44 27       	eor	r20, r20
    2176:	80 91 9f 03 	lds	r24, 0x039F
    217a:	48 2b       	or	r20, r24
    217c:	7a 01       	movw	r14, r20
    217e:	f8 e0       	ldi	r31, 0x08	; 8
    2180:	ef 1a       	sub	r14, r31
    2182:	f1 08       	sbc	r15, r1
    2184:	80 91 9c 03 	lds	r24, 0x039C
    2188:	90 e0       	ldi	r25, 0x00	; 0
    218a:	98 2f       	mov	r25, r24
    218c:	88 27       	eor	r24, r24
    218e:	20 91 9d 03 	lds	r18, 0x039D
    2192:	82 2b       	or	r24, r18
    2194:	80 35       	cpi	r24, 0x50	; 80
    2196:	93 4c       	sbci	r25, 0xC3	; 195
    2198:	09 f0       	breq	.+2      	; 0x219c <SchedulerBasicP__TaskBasic__runTask+0xccc>
    219a:	9b c0       	rjmp	.+310    	; 0x22d2 <__stack+0xd3>
    219c:	0e 94 6e 03 	call	0x6dc	; 0x6dc <PoolP__0__Pool__get>
    21a0:	6c 01       	movw	r12, r24
    21a2:	62 e3       	ldi	r22, 0x32	; 50
    21a4:	82 ea       	ldi	r24, 0xA2	; 162
    21a6:	93 e0       	ldi	r25, 0x03	; 3
    21a8:	0e 94 ad 09 	call	0x135a	; 0x135a <GlcdP__Glcd__drawText.constprop.155>
    21ac:	41 e8       	ldi	r20, 0x81	; 129
    21ae:	e4 16       	cp	r14, r20
    21b0:	f1 04       	cpc	r15, r1
    21b2:	18 f0       	brcs	.+6      	; 0x21ba <SchedulerBasicP__TaskBasic__runTask+0xcea>
    21b4:	40 e8       	ldi	r20, 0x80	; 128
    21b6:	e4 2e       	mov	r14, r20
    21b8:	f1 2c       	mov	r15, r1
    21ba:	a7 01       	movw	r20, r14
    21bc:	62 ea       	ldi	r22, 0xA2	; 162
    21be:	73 e0       	ldi	r23, 0x03	; 3
    21c0:	c6 01       	movw	r24, r12
    21c2:	02 96       	adiw	r24, 0x02	; 2
    21c4:	0e 94 87 21 	call	0x430e	; 0x430e <memcpy>
    21c8:	d6 01       	movw	r26, r12
    21ca:	ed 92       	st	X+, r14
    21cc:	fc 92       	st	X, r15
    21ce:	20 91 51 03 	lds	r18, 0x0351
    21d2:	25 30       	cpi	r18, 0x05	; 5
    21d4:	a8 f4       	brcc	.+42     	; 0x2200 <__stack+0x1>
    21d6:	90 91 52 03 	lds	r25, 0x0352
    21da:	e9 2f       	mov	r30, r25
    21dc:	f0 e0       	ldi	r31, 0x00	; 0
    21de:	ee 0f       	add	r30, r30
    21e0:	ff 1f       	adc	r31, r31
    21e2:	ef 52       	subi	r30, 0x2F	; 47
    21e4:	f2 4f       	sbci	r31, 0xF2	; 242
    21e6:	d1 82       	std	Z+1, r13	; 0x01
    21e8:	c0 82       	st	Z, r12
    21ea:	81 e0       	ldi	r24, 0x01	; 1
    21ec:	89 0f       	add	r24, r25
    21ee:	80 93 52 03 	sts	0x0352, r24
    21f2:	85 30       	cpi	r24, 0x05	; 5
    21f4:	11 f4       	brne	.+4      	; 0x21fa <SchedulerBasicP__TaskBasic__runTask+0xd2a>
    21f6:	10 92 52 03 	sts	0x0352, r1
    21fa:	2f 5f       	subi	r18, 0xFF	; 255
    21fc:	20 93 51 03 	sts	0x0351, r18
    2200:	80 91 65 0a 	lds	r24, 0x0A65
    2204:	81 11       	cpse	r24, r1
    2206:	65 c0       	rjmp	.+202    	; 0x22d2 <__stack+0xd3>
    2208:	89 e0       	ldi	r24, 0x09	; 9
    220a:	0e 94 49 02 	call	0x492	; 0x492 <SchedulerBasicP__TaskBasic__postTask>
    220e:	61 c0       	rjmp	.+194    	; 0x22d2 <__stack+0xd3>
    2210:	80 91 8c 03 	lds	r24, 0x038C
    2214:	90 e0       	ldi	r25, 0x00	; 0
    2216:	98 2f       	mov	r25, r24
    2218:	88 27       	eor	r24, r24
    221a:	20 91 8d 03 	lds	r18, 0x038D
    221e:	82 2b       	or	r24, r18
    2220:	81 30       	cpi	r24, 0x01	; 1
    2222:	91 05       	cpc	r25, r1
    2224:	19 f0       	breq	.+6      	; 0x222c <__stack+0x2d>
    2226:	02 97       	sbiw	r24, 0x02	; 2
    2228:	f1 f0       	breq	.+60     	; 0x2266 <__stack+0x67>
    222a:	53 c0       	rjmp	.+166    	; 0x22d2 <__stack+0xd3>
    222c:	40 91 24 02 	lds	r20, 0x0224
    2230:	50 91 25 02 	lds	r21, 0x0225
    2234:	60 91 26 02 	lds	r22, 0x0226
    2238:	70 91 27 02 	lds	r23, 0x0227
    223c:	80 91 9e 03 	lds	r24, 0x039E
    2240:	90 91 9f 03 	lds	r25, 0x039F
    2244:	a0 91 a0 03 	lds	r26, 0x03A0
    2248:	b0 91 a1 03 	lds	r27, 0x03A1
    224c:	48 17       	cp	r20, r24
    224e:	59 07       	cpc	r21, r25
    2250:	6a 07       	cpc	r22, r26
    2252:	7b 07       	cpc	r23, r27
    2254:	f1 f5       	brne	.+124    	; 0x22d2 <__stack+0xd3>
    2256:	44 e9       	ldi	r20, 0x94	; 148
    2258:	53 e0       	ldi	r21, 0x03	; 3
    225a:	6e e8       	ldi	r22, 0x8E	; 142
    225c:	73 e0       	ldi	r23, 0x03	; 3
    225e:	82 e0       	ldi	r24, 0x02	; 2
    2260:	0e 94 07 03 	call	0x60e	; 0x60e <ArpP__send_packet>
    2264:	36 c0       	rjmp	.+108    	; 0x22d2 <__stack+0xd3>
    2266:	80 91 64 03 	lds	r24, 0x0364
    226a:	81 30       	cpi	r24, 0x01	; 1
    226c:	91 f5       	brne	.+100    	; 0x22d2 <__stack+0xd3>
    226e:	80 91 66 03 	lds	r24, 0x0366
    2272:	ba e0       	ldi	r27, 0x0A	; 10
    2274:	8b 9f       	mul	r24, r27
    2276:	c0 01       	movw	r24, r0
    2278:	11 24       	eor	r1, r1
    227a:	fc 01       	movw	r30, r24
    227c:	e3 54       	subi	r30, 0x43	; 67
    227e:	fc 4e       	sbci	r31, 0xEC	; 236
    2280:	40 91 94 03 	lds	r20, 0x0394
    2284:	50 91 95 03 	lds	r21, 0x0395
    2288:	60 91 96 03 	lds	r22, 0x0396
    228c:	70 91 97 03 	lds	r23, 0x0397
    2290:	40 83       	st	Z, r20
    2292:	51 83       	std	Z+1, r21	; 0x01
    2294:	62 83       	std	Z+2, r22	; 0x02
    2296:	73 83       	std	Z+3, r23	; 0x03
    2298:	dc 01       	movw	r26, r24
    229a:	af 53       	subi	r26, 0x3F	; 63
    229c:	bc 4e       	sbci	r27, 0xEC	; 236
    229e:	26 e0       	ldi	r18, 0x06	; 6
    22a0:	ee e8       	ldi	r30, 0x8E	; 142
    22a2:	f3 e0       	ldi	r31, 0x03	; 3
    22a4:	01 90       	ld	r0, Z+
    22a6:	0d 92       	st	X+, r0
    22a8:	2a 95       	dec	r18
    22aa:	e1 f7       	brne	.-8      	; 0x22a4 <__stack+0xa5>
    22ac:	20 91 28 0d 	lds	r18, 0x0D28
    22b0:	2d 7f       	andi	r18, 0xFD	; 253
    22b2:	20 93 28 0d 	sts	0x0D28, r18
    22b6:	10 92 64 03 	sts	0x0364, r1
    22ba:	8f 53       	subi	r24, 0x3F	; 63
    22bc:	9c 4e       	sbci	r25, 0xEC	; 236
    22be:	0e 94 b2 06 	call	0xd64	; 0xd64 <IpTransceiverP__Arp__resolved>
    22c2:	80 91 66 03 	lds	r24, 0x0366
    22c6:	90 e0       	ldi	r25, 0x00	; 0
    22c8:	01 96       	adiw	r24, 0x01	; 1
    22ca:	83 70       	andi	r24, 0x03	; 3
    22cc:	99 27       	eor	r25, r25
    22ce:	80 93 66 03 	sts	0x0366, r24
    22d2:	ff b6       	in	r15, 0x3f	; 63
    22d4:	f8 94       	cli
    22d6:	80 91 59 03 	lds	r24, 0x0359
    22da:	82 30       	cpi	r24, 0x02	; 2
    22dc:	11 f5       	brne	.+68     	; 0x2322 <__stack+0x123>
    22de:	80 91 11 02 	lds	r24, 0x0211
    22e2:	81 11       	cpse	r24, r1
    22e4:	1e c0       	rjmp	.+60     	; 0x2322 <__stack+0x123>
    22e6:	80 91 13 02 	lds	r24, 0x0213
    22ea:	8f 3f       	cpi	r24, 0xFF	; 255
    22ec:	b1 f0       	breq	.+44     	; 0x231a <__stack+0x11b>
    22ee:	e8 2f       	mov	r30, r24
    22f0:	f0 e0       	ldi	r31, 0x00	; 0
    22f2:	e1 5d       	subi	r30, 0xD1	; 209
    22f4:	f7 4f       	sbci	r31, 0xF7	; 247
    22f6:	90 81       	ld	r25, Z
    22f8:	90 93 13 02 	sts	0x0213, r25
    22fc:	9f 3f       	cpi	r25, 0xFF	; 255
    22fe:	11 f4       	brne	.+4      	; 0x2304 <__stack+0x105>
    2300:	90 93 12 02 	sts	0x0212, r25
    2304:	9f ef       	ldi	r25, 0xFF	; 255
    2306:	90 83       	st	Z, r25
    2308:	80 93 11 02 	sts	0x0211, r24
    230c:	81 e0       	ldi	r24, 0x01	; 1
    230e:	80 93 59 03 	sts	0x0359, r24
    2312:	82 e1       	ldi	r24, 0x12	; 18
    2314:	0e 94 49 02 	call	0x492	; 0x492 <SchedulerBasicP__TaskBasic__postTask>
    2318:	04 c0       	rjmp	.+8      	; 0x2322 <__stack+0x123>
    231a:	80 93 11 02 	sts	0x0211, r24
    231e:	10 92 59 03 	sts	0x0359, r1
    2322:	ff be       	out	0x3f, r15	; 63
    2324:	9f b7       	in	r25, 0x3f	; 63
    2326:	f8 94       	cli
    2328:	80 91 59 03 	lds	r24, 0x0359
    232c:	88 23       	and	r24, r24
    232e:	09 f4       	brne	.+2      	; 0x2332 <__stack+0x133>
    2330:	68 c7       	rjmp	.+3792   	; 0x3202 <__stack+0x1003>
    2332:	9f bf       	out	0x3f, r25	; 63
    2334:	ff b6       	in	r15, 0x3f	; 63
    2336:	f8 94       	cli
    2338:	4a 99       	sbic	0x09, 2	; 9
    233a:	89 c3       	rjmp	.+1810   	; 0x2a4e <__stack+0x84f>
    233c:	80 e1       	ldi	r24, 0x10	; 16
    233e:	0e 94 49 02 	call	0x492	; 0x492 <SchedulerBasicP__TaskBasic__postTask>
    2342:	85 c3       	rjmp	.+1802   	; 0x2a4e <__stack+0x84f>
    2344:	80 91 57 03 	lds	r24, 0x0357
    2348:	81 11       	cpse	r24, r1
    234a:	0c 94 8f 19 	jmp	0x331e	; 0x331e <__stack+0x111f>
    234e:	10 92 58 03 	sts	0x0358, r1
    2352:	d0 90 0a 0b 	lds	r13, 0x0B0A
    2356:	e1 e0       	ldi	r30, 0x01	; 1
    2358:	de 12       	cpse	r13, r30
    235a:	0c 94 8f 19 	jmp	0x331e	; 0x331e <__stack+0x111f>
    235e:	55 c7       	rjmp	.+3754   	; 0x320a <__stack+0x100b>
    2360:	9f b7       	in	r25, 0x3f	; 63
    2362:	f8 94       	cli
    2364:	80 91 56 13 	lds	r24, 0x1356
    2368:	9f bf       	out	0x3f, r25	; 63
    236a:	81 11       	cpse	r24, r1
    236c:	0e c0       	rjmp	.+28     	; 0x238a <__stack+0x18b>
    236e:	5a 9a       	sbi	0x0b, 2	; 11
    2370:	48 ee       	ldi	r20, 0xE8	; 232
    2372:	53 e0       	ldi	r21, 0x03	; 3
    2374:	60 e0       	ldi	r22, 0x00	; 0
    2376:	70 e0       	ldi	r23, 0x00	; 0
    2378:	82 e0       	ldi	r24, 0x02	; 2
    237a:	0e 94 3f 08 	call	0x107e	; 0x107e <VirtualizeTimerC__0__Timer__startOneShot>
    237e:	8f b7       	in	r24, 0x3f	; 63
    2380:	f8 94       	cli
    2382:	91 e0       	ldi	r25, 0x01	; 1
    2384:	90 93 56 13 	sts	0x1356, r25
    2388:	31 c3       	rjmp	.+1634   	; 0x29ec <__stack+0x7ed>
    238a:	81 30       	cpi	r24, 0x01	; 1
    238c:	21 f4       	brne	.+8      	; 0x2396 <__stack+0x197>
    238e:	8f b7       	in	r24, 0x3f	; 63
    2390:	f8 94       	cli
    2392:	92 e0       	ldi	r25, 0x02	; 2
    2394:	4f c0       	rjmp	.+158    	; 0x2434 <__stack+0x235>
    2396:	82 30       	cpi	r24, 0x02	; 2
    2398:	a1 f4       	brne	.+40     	; 0x23c2 <__stack+0x1c3>
    239a:	2f b7       	in	r18, 0x3f	; 63
    239c:	f8 94       	cli
    239e:	80 91 b1 05 	lds	r24, 0x05B1
    23a2:	90 91 b2 05 	lds	r25, 0x05B2
    23a6:	90 68       	ori	r25, 0x80	; 128
    23a8:	90 93 b2 05 	sts	0x05B2, r25
    23ac:	80 93 b1 05 	sts	0x05B1, r24
    23b0:	10 92 c2 05 	sts	0x05C2, r1
    23b4:	10 92 c1 05 	sts	0x05C1, r1
    23b8:	8f e0       	ldi	r24, 0x0F	; 15
    23ba:	80 93 fa 12 	sts	0x12FA, r24
    23be:	83 e0       	ldi	r24, 0x03	; 3
    23c0:	21 c0       	rjmp	.+66     	; 0x2404 <__stack+0x205>
    23c2:	83 30       	cpi	r24, 0x03	; 3
    23c4:	59 f4       	brne	.+22     	; 0x23dc <__stack+0x1dd>
    23c6:	8f b7       	in	r24, 0x3f	; 63
    23c8:	f8 94       	cli
    23ca:	94 e0       	ldi	r25, 0x04	; 4
    23cc:	90 93 56 13 	sts	0x1356, r25
    23d0:	8f bf       	out	0x3f, r24	; 63
    23d2:	48 e5       	ldi	r20, 0x58	; 88
    23d4:	52 e0       	ldi	r21, 0x02	; 2
    23d6:	60 e0       	ldi	r22, 0x00	; 0
    23d8:	70 e0       	ldi	r23, 0x00	; 0
    23da:	23 c0       	rjmp	.+70     	; 0x2422 <__stack+0x223>
    23dc:	84 30       	cpi	r24, 0x04	; 4
    23de:	a9 f4       	brne	.+42     	; 0x240a <__stack+0x20b>
    23e0:	2f b7       	in	r18, 0x3f	; 63
    23e2:	f8 94       	cli
    23e4:	80 91 a7 05 	lds	r24, 0x05A7
    23e8:	90 91 a8 05 	lds	r25, 0x05A8
    23ec:	8e 7b       	andi	r24, 0xBE	; 190
    23ee:	9f 7b       	andi	r25, 0xBF	; 191
    23f0:	81 60       	ori	r24, 0x01	; 1
    23f2:	90 64       	ori	r25, 0x40	; 64
    23f4:	90 93 a8 05 	sts	0x05A8, r25
    23f8:	80 93 a7 05 	sts	0x05A7, r24
    23fc:	82 e0       	ldi	r24, 0x02	; 2
    23fe:	80 93 fa 12 	sts	0x12FA, r24
    2402:	85 e0       	ldi	r24, 0x05	; 5
    2404:	80 93 56 13 	sts	0x1356, r24
    2408:	83 c3       	rjmp	.+1798   	; 0x2b10 <__stack+0x911>
    240a:	85 30       	cpi	r24, 0x05	; 5
    240c:	71 f4       	brne	.+28     	; 0x242a <__stack+0x22b>
    240e:	8f b7       	in	r24, 0x3f	; 63
    2410:	f8 94       	cli
    2412:	96 e0       	ldi	r25, 0x06	; 6
    2414:	90 93 56 13 	sts	0x1356, r25
    2418:	8f bf       	out	0x3f, r24	; 63
    241a:	46 e9       	ldi	r20, 0x96	; 150
    241c:	50 e0       	ldi	r21, 0x00	; 0
    241e:	60 e0       	ldi	r22, 0x00	; 0
    2420:	70 e0       	ldi	r23, 0x00	; 0
    2422:	82 e0       	ldi	r24, 0x02	; 2
    2424:	0e 94 3f 08 	call	0x107e	; 0x107e <VirtualizeTimerC__0__Timer__startOneShot>
    2428:	7a c7       	rjmp	.+3828   	; 0x331e <__stack+0x111f>
    242a:	86 30       	cpi	r24, 0x06	; 6
    242c:	31 f4       	brne	.+12     	; 0x243a <__stack+0x23b>
    242e:	8f b7       	in	r24, 0x3f	; 63
    2430:	f8 94       	cli
    2432:	97 e0       	ldi	r25, 0x07	; 7
    2434:	90 93 56 13 	sts	0x1356, r25
    2438:	ed c1       	rjmp	.+986    	; 0x2814 <__stack+0x615>
    243a:	87 30       	cpi	r24, 0x07	; 7
    243c:	a9 f5       	brne	.+106    	; 0x24a8 <__stack+0x2a9>
    243e:	2f b7       	in	r18, 0x3f	; 63
    2440:	f8 94       	cli
    2442:	80 91 a5 05 	lds	r24, 0x05A5
    2446:	90 91 a6 05 	lds	r25, 0x05A6
    244a:	2f bf       	out	0x3f, r18	; 63
    244c:	83 35       	cpi	r24, 0x53	; 83
    244e:	92 41       	sbci	r25, 0x12	; 18
    2450:	39 f0       	breq	.+14     	; 0x2460 <__stack+0x261>
    2452:	8f b7       	in	r24, 0x3f	; 63
    2454:	f8 94       	cli
    2456:	10 92 52 13 	sts	0x1352, r1
    245a:	8f bf       	out	0x3f, r24	; 63
    245c:	84 e0       	ldi	r24, 0x04	; 4
    245e:	a2 c9       	rjmp	.-3260   	; 0x17a4 <SchedulerBasicP__TaskBasic__runTask+0x2d4>
    2460:	2f b7       	in	r18, 0x3f	; 63
    2462:	f8 94       	cli
    2464:	80 91 ab 05 	lds	r24, 0x05AB
    2468:	90 91 ac 05 	lds	r25, 0x05AC
    246c:	83 73       	andi	r24, 0x33	; 51
    246e:	97 7b       	andi	r25, 0xB7	; 183
    2470:	84 60       	ori	r24, 0x04	; 4
    2472:	98 64       	ori	r25, 0x48	; 72
    2474:	90 93 ac 05 	sts	0x05AC, r25
    2478:	80 93 ab 05 	sts	0x05AB, r24
    247c:	80 e1       	ldi	r24, 0x10	; 16
    247e:	99 e1       	ldi	r25, 0x19	; 25
    2480:	90 93 ae 05 	sts	0x05AE, r25
    2484:	80 93 ad 05 	sts	0x05AD, r24
    2488:	80 91 af 05 	lds	r24, 0x05AF
    248c:	90 91 b0 05 	lds	r25, 0x05B0
    2490:	88 27       	eor	r24, r24
    2492:	9e 7f       	andi	r25, 0xFE	; 254
    2494:	8f 64       	ori	r24, 0x4F	; 79
    2496:	90 93 b0 05 	sts	0x05B0, r25
    249a:	80 93 af 05 	sts	0x05AF, r24
    249e:	86 e0       	ldi	r24, 0x06	; 6
    24a0:	80 93 fa 12 	sts	0x12FA, r24
    24a4:	88 e0       	ldi	r24, 0x08	; 8
    24a6:	ae cf       	rjmp	.-164    	; 0x2404 <__stack+0x205>
    24a8:	88 30       	cpi	r24, 0x08	; 8
    24aa:	09 f0       	breq	.+2      	; 0x24ae <__stack+0x2af>
    24ac:	38 c7       	rjmp	.+3696   	; 0x331e <__stack+0x111f>
    24ae:	8f b7       	in	r24, 0x3f	; 63
    24b0:	f8 94       	cli
    24b2:	10 92 52 13 	sts	0x1352, r1
    24b6:	8f bf       	out	0x3f, r24	; 63
    24b8:	0e 94 92 02 	call	0x524	; 0x524 <Atm1280AlarmSyncP__0__Counter__get>
    24bc:	60 93 3b 0d 	sts	0x0D3B, r22
    24c0:	70 93 3c 0d 	sts	0x0D3C, r23
    24c4:	80 93 3d 0d 	sts	0x0D3D, r24
    24c8:	90 93 3e 0d 	sts	0x0D3E, r25
    24cc:	8c e2       	ldi	r24, 0x2C	; 44
    24ce:	91 e0       	ldi	r25, 0x01	; 1
    24d0:	a0 e0       	ldi	r26, 0x00	; 0
    24d2:	b0 e0       	ldi	r27, 0x00	; 0
    24d4:	80 93 3f 0d 	sts	0x0D3F, r24
    24d8:	90 93 40 0d 	sts	0x0D40, r25
    24dc:	a0 93 41 0d 	sts	0x0D41, r26
    24e0:	b0 93 42 0d 	sts	0x0D42, r27
    24e4:	80 91 43 0d 	lds	r24, 0x0D43
    24e8:	8e 7f       	andi	r24, 0xFE	; 254
    24ea:	82 60       	ori	r24, 0x02	; 2
    24ec:	80 93 43 0d 	sts	0x0D43, r24
    24f0:	8c e0       	ldi	r24, 0x0C	; 12
    24f2:	0e 94 49 02 	call	0x492	; 0x492 <SchedulerBasicP__TaskBasic__postTask>
    24f6:	8f b7       	in	r24, 0x3f	; 63
    24f8:	f8 94       	cli
    24fa:	91 e0       	ldi	r25, 0x01	; 1
    24fc:	90 93 b2 13 	sts	0x13B2, r25
    2500:	8f bf       	out	0x3f, r24	; 63
    2502:	83 e0       	ldi	r24, 0x03	; 3
    2504:	4f c9       	rjmp	.-3426   	; 0x17a4 <SchedulerBasicP__TaskBasic__runTask+0x2d4>
    2506:	8f b7       	in	r24, 0x3f	; 63
    2508:	f8 94       	cli
    250a:	20 91 57 13 	lds	r18, 0x1357
    250e:	8f bf       	out	0x3f, r24	; 63
    2510:	21 11       	cpse	r18, r1
    2512:	1a c0       	rjmp	.+52     	; 0x2548 <__stack+0x349>
    2514:	6e e1       	ldi	r22, 0x1E	; 30
    2516:	80 e1       	ldi	r24, 0x10	; 16
    2518:	93 e0       	ldi	r25, 0x03	; 3
    251a:	0e 94 ad 09 	call	0x135a	; 0x135a <GlcdP__Glcd__drawText.constprop.155>
    251e:	2f b7       	in	r18, 0x3f	; 63
    2520:	f8 94       	cli
    2522:	80 91 b4 13 	lds	r24, 0x13B4
    2526:	90 91 b5 13 	lds	r25, 0x13B5
    252a:	8b 56       	subi	r24, 0x6B	; 107
    252c:	93 40       	sbci	r25, 0x03	; 3
    252e:	93 70       	andi	r25, 0x03	; 3
    2530:	90 68       	ori	r25, 0x80	; 128
    2532:	90 93 aa 05 	sts	0x05AA, r25
    2536:	80 93 a9 05 	sts	0x05A9, r24
    253a:	83 e0       	ldi	r24, 0x03	; 3
    253c:	80 93 fa 12 	sts	0x12FA, r24
    2540:	81 e0       	ldi	r24, 0x01	; 1
    2542:	80 93 57 13 	sts	0x1357, r24
    2546:	e4 c2       	rjmp	.+1480   	; 0x2b10 <__stack+0x911>
    2548:	21 30       	cpi	r18, 0x01	; 1
    254a:	59 f4       	brne	.+22     	; 0x2562 <__stack+0x363>
    254c:	6e e1       	ldi	r22, 0x1E	; 30
    254e:	82 e1       	ldi	r24, 0x12	; 18
    2550:	93 e0       	ldi	r25, 0x03	; 3
    2552:	0e 94 ad 09 	call	0x135a	; 0x135a <GlcdP__Glcd__drawText.constprop.155>
    2556:	8f b7       	in	r24, 0x3f	; 63
    2558:	f8 94       	cli
    255a:	92 e0       	ldi	r25, 0x02	; 2
    255c:	90 93 57 13 	sts	0x1357, r25
    2560:	c6 c0       	rjmp	.+396    	; 0x26ee <__stack+0x4ef>
    2562:	22 30       	cpi	r18, 0x02	; 2
    2564:	49 f4       	brne	.+18     	; 0x2578 <__stack+0x379>
    2566:	6e e1       	ldi	r22, 0x1E	; 30
    2568:	84 e1       	ldi	r24, 0x14	; 20
    256a:	93 e0       	ldi	r25, 0x03	; 3
    256c:	0e 94 ad 09 	call	0x135a	; 0x135a <GlcdP__Glcd__drawText.constprop.155>
    2570:	8f b7       	in	r24, 0x3f	; 63
    2572:	f8 94       	cli
    2574:	93 e0       	ldi	r25, 0x03	; 3
    2576:	34 c0       	rjmp	.+104    	; 0x25e0 <__stack+0x3e1>
    2578:	23 30       	cpi	r18, 0x03	; 3
    257a:	41 f5       	brne	.+80     	; 0x25cc <__stack+0x3cd>
    257c:	6e e1       	ldi	r22, 0x1E	; 30
    257e:	86 e1       	ldi	r24, 0x16	; 22
    2580:	93 e0       	ldi	r25, 0x03	; 3
    2582:	66 96       	adiw	r28, 0x16	; 22
    2584:	2f af       	std	Y+63, r18	; 0x3f
    2586:	66 97       	sbiw	r28, 0x16	; 22
    2588:	0e 94 ad 09 	call	0x135a	; 0x135a <GlcdP__Glcd__drawText.constprop.155>
    258c:	3f b7       	in	r19, 0x3f	; 63
    258e:	f8 94       	cli
    2590:	80 91 b9 05 	lds	r24, 0x05B9
    2594:	90 91 ba 05 	lds	r25, 0x05BA
    2598:	93 70       	andi	r25, 0x03	; 3
    259a:	85 59       	subi	r24, 0x95	; 149
    259c:	9c 4f       	sbci	r25, 0xFC	; 252
    259e:	90 93 bc 13 	sts	0x13BC, r25
    25a2:	80 93 bb 13 	sts	0x13BB, r24
    25a6:	80 91 a9 05 	lds	r24, 0x05A9
    25aa:	90 91 aa 05 	lds	r25, 0x05AA
    25ae:	9f 77       	andi	r25, 0x7F	; 127
    25b0:	90 93 aa 05 	sts	0x05AA, r25
    25b4:	80 93 a9 05 	sts	0x05A9, r24
    25b8:	66 96       	adiw	r28, 0x16	; 22
    25ba:	2f ad       	ldd	r18, Y+63	; 0x3f
    25bc:	66 97       	sbiw	r28, 0x16	; 22
    25be:	20 93 fa 12 	sts	0x12FA, r18
    25c2:	84 e0       	ldi	r24, 0x04	; 4
    25c4:	80 93 57 13 	sts	0x1357, r24
    25c8:	3f bf       	out	0x3f, r19	; 63
    25ca:	a3 c2       	rjmp	.+1350   	; 0x2b12 <__stack+0x913>
    25cc:	24 30       	cpi	r18, 0x04	; 4
    25ce:	59 f4       	brne	.+22     	; 0x25e6 <__stack+0x3e7>
    25d0:	6e e1       	ldi	r22, 0x1E	; 30
    25d2:	88 e1       	ldi	r24, 0x18	; 24
    25d4:	93 e0       	ldi	r25, 0x03	; 3
    25d6:	0e 94 ad 09 	call	0x135a	; 0x135a <GlcdP__Glcd__drawText.constprop.155>
    25da:	8f b7       	in	r24, 0x3f	; 63
    25dc:	f8 94       	cli
    25de:	95 e0       	ldi	r25, 0x05	; 5
    25e0:	90 93 57 13 	sts	0x1357, r25
    25e4:	17 c1       	rjmp	.+558    	; 0x2814 <__stack+0x615>
    25e6:	25 30       	cpi	r18, 0x05	; 5
    25e8:	09 f0       	breq	.+2      	; 0x25ec <__stack+0x3ed>
    25ea:	99 c6       	rjmp	.+3378   	; 0x331e <__stack+0x111f>
    25ec:	8f b7       	in	r24, 0x3f	; 63
    25ee:	f8 94       	cli
    25f0:	e0 90 b7 05 	lds	r14, 0x05B7
    25f4:	f0 90 b8 05 	lds	r15, 0x05B8
    25f8:	ee 24       	eor	r14, r14
    25fa:	20 e4       	ldi	r18, 0x40	; 64
    25fc:	f2 22       	and	r15, r18
    25fe:	ef 2c       	mov	r14, r15
    2600:	ff 24       	eor	r15, r15
    2602:	8f bf       	out	0x3f, r24	; 63
    2604:	6e e1       	ldi	r22, 0x1E	; 30
    2606:	8a e1       	ldi	r24, 0x1A	; 26
    2608:	93 e0       	ldi	r25, 0x03	; 3
    260a:	0e 94 ad 09 	call	0x135a	; 0x135a <GlcdP__Glcd__drawText.constprop.155>
    260e:	8f b7       	in	r24, 0x3f	; 63
    2610:	ef 28       	or	r14, r15
    2612:	b9 f4       	brne	.+46     	; 0x2642 <__stack+0x443>
    2614:	f8 94       	cli
    2616:	10 92 52 13 	sts	0x1352, r1
    261a:	8f bf       	out	0x3f, r24	; 63
    261c:	20 91 bb 13 	lds	r18, 0x13BB
    2620:	30 91 bc 13 	lds	r19, 0x13BC
    2624:	9f b7       	in	r25, 0x3f	; 63
    2626:	f8 94       	cli
    2628:	30 93 09 0b 	sts	0x0B09, r19
    262c:	20 93 08 0b 	sts	0x0B08, r18
    2630:	80 91 b2 13 	lds	r24, 0x13B2
    2634:	9f bf       	out	0x3f, r25	; 63
    2636:	85 30       	cpi	r24, 0x05	; 5
    2638:	11 f4       	brne	.+4      	; 0x263e <__stack+0x43f>
    263a:	82 e0       	ldi	r24, 0x02	; 2
    263c:	b3 c8       	rjmp	.-3738   	; 0x17a4 <SchedulerBasicP__TaskBasic__runTask+0x2d4>
    263e:	85 e0       	ldi	r24, 0x05	; 5
    2640:	b1 c8       	rjmp	.-3742   	; 0x17a4 <SchedulerBasicP__TaskBasic__runTask+0x2d4>
    2642:	f8 94       	cli
    2644:	94 e0       	ldi	r25, 0x04	; 4
    2646:	90 93 57 13 	sts	0x1357, r25
    264a:	8f bf       	out	0x3f, r24	; 63
    264c:	0e 94 68 02 	call	0x4d0	; 0x4d0 <FMClickP__tune__postTask>
    2650:	66 c6       	rjmp	.+3276   	; 0x331e <__stack+0x111f>
    2652:	9f b7       	in	r25, 0x3f	; 63
    2654:	f8 94       	cli
    2656:	d0 90 64 0a 	lds	r13, 0x0A64
    265a:	80 91 58 13 	lds	r24, 0x1358
    265e:	9f bf       	out	0x3f, r25	; 63
    2660:	81 11       	cpse	r24, r1
    2662:	39 c0       	rjmp	.+114    	; 0x26d6 <__stack+0x4d7>
    2664:	6e e1       	ldi	r22, 0x1E	; 30
    2666:	8c e1       	ldi	r24, 0x1C	; 28
    2668:	93 e0       	ldi	r25, 0x03	; 3
    266a:	0e 94 ad 09 	call	0x135a	; 0x135a <GlcdP__Glcd__drawText.constprop.155>
    266e:	42 e0       	ldi	r20, 0x02	; 2
    2670:	2f b7       	in	r18, 0x3f	; 63
    2672:	d4 12       	cpse	r13, r20
    2674:	0c c0       	rjmp	.+24     	; 0x268e <__stack+0x48f>
    2676:	f8 94       	cli
    2678:	80 91 a7 05 	lds	r24, 0x05A7
    267c:	90 91 a8 05 	lds	r25, 0x05A8
    2680:	95 60       	ori	r25, 0x05	; 5
    2682:	90 93 a8 05 	sts	0x05A8, r25
    2686:	80 93 a7 05 	sts	0x05A7, r24
    268a:	2f bf       	out	0x3f, r18	; 63
    268c:	0e c0       	rjmp	.+28     	; 0x26aa <__stack+0x4ab>
    268e:	f8 94       	cli
    2690:	80 91 a7 05 	lds	r24, 0x05A7
    2694:	90 91 a8 05 	lds	r25, 0x05A8
    2698:	9a 7f       	andi	r25, 0xFA	; 250
    269a:	91 60       	ori	r25, 0x01	; 1
    269c:	90 93 a8 05 	sts	0x05A8, r25
    26a0:	80 93 a7 05 	sts	0x05A7, r24
    26a4:	2f bf       	out	0x3f, r18	; 63
    26a6:	d1 10       	cpse	r13, r1
    26a8:	32 c6       	rjmp	.+3172   	; 0x330e <__stack+0x110f>
    26aa:	2f b7       	in	r18, 0x3f	; 63
    26ac:	f8 94       	cli
    26ae:	80 91 a7 05 	lds	r24, 0x05A7
    26b2:	90 91 a8 05 	lds	r25, 0x05A8
    26b6:	92 60       	ori	r25, 0x02	; 2
    26b8:	90 93 a8 05 	sts	0x05A8, r25
    26bc:	80 93 a7 05 	sts	0x05A7, r24
    26c0:	2f bf       	out	0x3f, r18	; 63
    26c2:	8f b7       	in	r24, 0x3f	; 63
    26c4:	f8 94       	cli
    26c6:	92 e0       	ldi	r25, 0x02	; 2
    26c8:	90 93 fa 12 	sts	0x12FA, r25
    26cc:	91 e0       	ldi	r25, 0x01	; 1
    26ce:	90 93 58 13 	sts	0x1358, r25
    26d2:	8f bf       	out	0x3f, r24	; 63
    26d4:	1e c2       	rjmp	.+1084   	; 0x2b12 <__stack+0x913>
    26d6:	81 30       	cpi	r24, 0x01	; 1
    26d8:	79 f4       	brne	.+30     	; 0x26f8 <__stack+0x4f9>
    26da:	6e e1       	ldi	r22, 0x1E	; 30
    26dc:	8e e1       	ldi	r24, 0x1E	; 30
    26de:	93 e0       	ldi	r25, 0x03	; 3
    26e0:	0e 94 ad 09 	call	0x135a	; 0x135a <GlcdP__Glcd__drawText.constprop.155>
    26e4:	8f b7       	in	r24, 0x3f	; 63
    26e6:	f8 94       	cli
    26e8:	92 e0       	ldi	r25, 0x02	; 2
    26ea:	90 93 58 13 	sts	0x1358, r25
    26ee:	8f bf       	out	0x3f, r24	; 63
    26f0:	88 e0       	ldi	r24, 0x08	; 8
    26f2:	8c bb       	out	0x1c, r24	; 28
    26f4:	eb 9a       	sbi	0x1d, 3	; 29
    26f6:	13 c6       	rjmp	.+3110   	; 0x331e <__stack+0x111f>
    26f8:	82 30       	cpi	r24, 0x02	; 2
    26fa:	49 f4       	brne	.+18     	; 0x270e <__stack+0x50f>
    26fc:	6e e1       	ldi	r22, 0x1E	; 30
    26fe:	80 e2       	ldi	r24, 0x20	; 32
    2700:	93 e0       	ldi	r25, 0x03	; 3
    2702:	0e 94 ad 09 	call	0x135a	; 0x135a <GlcdP__Glcd__drawText.constprop.155>
    2706:	8f b7       	in	r24, 0x3f	; 63
    2708:	f8 94       	cli
    270a:	93 e0       	ldi	r25, 0x03	; 3
    270c:	36 c0       	rjmp	.+108    	; 0x277a <__stack+0x57b>
    270e:	83 30       	cpi	r24, 0x03	; 3
    2710:	51 f5       	brne	.+84     	; 0x2766 <__stack+0x567>
    2712:	6e e1       	ldi	r22, 0x1E	; 30
    2714:	8c e2       	ldi	r24, 0x2C	; 44
    2716:	93 e0       	ldi	r25, 0x03	; 3
    2718:	0e 94 ad 09 	call	0x135a	; 0x135a <GlcdP__Glcd__drawText.constprop.155>
    271c:	2f b7       	in	r18, 0x3f	; 63
    271e:	f8 94       	cli
    2720:	80 91 b7 05 	lds	r24, 0x05B7
    2724:	90 91 b8 05 	lds	r25, 0x05B8
    2728:	88 27       	eor	r24, r24
    272a:	90 72       	andi	r25, 0x20	; 32
    272c:	90 93 6b 03 	sts	0x036B, r25
    2730:	80 91 b9 05 	lds	r24, 0x05B9
    2734:	90 91 ba 05 	lds	r25, 0x05BA
    2738:	93 70       	andi	r25, 0x03	; 3
    273a:	85 59       	subi	r24, 0x95	; 149
    273c:	9c 4f       	sbci	r25, 0xFC	; 252
    273e:	90 93 bc 13 	sts	0x13BC, r25
    2742:	80 93 bb 13 	sts	0x13BB, r24
    2746:	80 91 a7 05 	lds	r24, 0x05A7
    274a:	90 91 a8 05 	lds	r25, 0x05A8
    274e:	9e 7f       	andi	r25, 0xFE	; 254
    2750:	90 93 a8 05 	sts	0x05A8, r25
    2754:	80 93 a7 05 	sts	0x05A7, r24
    2758:	82 e0       	ldi	r24, 0x02	; 2
    275a:	80 93 fa 12 	sts	0x12FA, r24
    275e:	84 e0       	ldi	r24, 0x04	; 4
    2760:	80 93 58 13 	sts	0x1358, r24
    2764:	d5 c1       	rjmp	.+938    	; 0x2b10 <__stack+0x911>
    2766:	84 30       	cpi	r24, 0x04	; 4
    2768:	59 f4       	brne	.+22     	; 0x2780 <__stack+0x581>
    276a:	6e e1       	ldi	r22, 0x1E	; 30
    276c:	8a ee       	ldi	r24, 0xEA	; 234
    276e:	92 e0       	ldi	r25, 0x02	; 2
    2770:	0e 94 ad 09 	call	0x135a	; 0x135a <GlcdP__Glcd__drawText.constprop.155>
    2774:	8f b7       	in	r24, 0x3f	; 63
    2776:	f8 94       	cli
    2778:	95 e0       	ldi	r25, 0x05	; 5
    277a:	90 93 58 13 	sts	0x1358, r25
    277e:	4a c0       	rjmp	.+148    	; 0x2814 <__stack+0x615>
    2780:	85 30       	cpi	r24, 0x05	; 5
    2782:	09 f0       	breq	.+2      	; 0x2786 <__stack+0x587>
    2784:	cc c5       	rjmp	.+2968   	; 0x331e <__stack+0x111f>
    2786:	8f b7       	in	r24, 0x3f	; 63
    2788:	f8 94       	cli
    278a:	e0 90 b7 05 	lds	r14, 0x05B7
    278e:	f0 90 b8 05 	lds	r15, 0x05B8
    2792:	ee 24       	eor	r14, r14
    2794:	90 e4       	ldi	r25, 0x40	; 64
    2796:	f9 22       	and	r15, r25
    2798:	ef 2c       	mov	r14, r15
    279a:	ff 24       	eor	r15, r15
    279c:	8f bf       	out	0x3f, r24	; 63
    279e:	6e e1       	ldi	r22, 0x1E	; 30
    27a0:	82 e2       	ldi	r24, 0x22	; 34
    27a2:	93 e0       	ldi	r25, 0x03	; 3
    27a4:	0e 94 ad 09 	call	0x135a	; 0x135a <GlcdP__Glcd__drawText.constprop.155>
    27a8:	ef 28       	or	r14, r15
    27aa:	f9 f4       	brne	.+62     	; 0x27ea <__stack+0x5eb>
    27ac:	80 91 6b 03 	lds	r24, 0x036B
    27b0:	81 11       	cpse	r24, r1
    27b2:	16 c0       	rjmp	.+44     	; 0x27e0 <__stack+0x5e1>
    27b4:	20 91 bb 13 	lds	r18, 0x13BB
    27b8:	30 91 bc 13 	lds	r19, 0x13BC
    27bc:	8f b7       	in	r24, 0x3f	; 63
    27be:	f8 94       	cli
    27c0:	30 93 09 0b 	sts	0x0B09, r19
    27c4:	20 93 08 0b 	sts	0x0B08, r18
    27c8:	8f bf       	out	0x3f, r24	; 63
    27ca:	86 e0       	ldi	r24, 0x06	; 6
    27cc:	0e 94 49 02 	call	0x492	; 0x492 <SchedulerBasicP__TaskBasic__postTask>
    27d0:	a2 e0       	ldi	r26, 0x02	; 2
    27d2:	8f b7       	in	r24, 0x3f	; 63
    27d4:	da 12       	cpse	r13, r26
    27d6:	05 c0       	rjmp	.+10     	; 0x27e2 <__stack+0x5e3>
    27d8:	f8 94       	cli
    27da:	10 92 58 13 	sts	0x1358, r1
    27de:	0a c0       	rjmp	.+20     	; 0x27f4 <__stack+0x5f5>
    27e0:	8f b7       	in	r24, 0x3f	; 63
    27e2:	f8 94       	cli
    27e4:	10 92 52 13 	sts	0x1352, r1
    27e8:	01 c1       	rjmp	.+514    	; 0x29ec <__stack+0x7ed>
    27ea:	8f b7       	in	r24, 0x3f	; 63
    27ec:	f8 94       	cli
    27ee:	94 e0       	ldi	r25, 0x04	; 4
    27f0:	90 93 58 13 	sts	0x1358, r25
    27f4:	8f bf       	out	0x3f, r24	; 63
    27f6:	0e 94 6b 02 	call	0x4d6	; 0x4d6 <FMClickP__seek__postTask>
    27fa:	91 c5       	rjmp	.+2850   	; 0x331e <__stack+0x111f>
    27fc:	9f b7       	in	r25, 0x3f	; 63
    27fe:	f8 94       	cli
    2800:	80 91 59 13 	lds	r24, 0x1359
    2804:	9f bf       	out	0x3f, r25	; 63
    2806:	81 11       	cpse	r24, r1
    2808:	07 c0       	rjmp	.+14     	; 0x2818 <__stack+0x619>
    280a:	8f b7       	in	r24, 0x3f	; 63
    280c:	f8 94       	cli
    280e:	91 e0       	ldi	r25, 0x01	; 1
    2810:	90 93 59 13 	sts	0x1359, r25
    2814:	8f bf       	out	0x3f, r24	; 63
    2816:	0c c1       	rjmp	.+536    	; 0x2a30 <__stack+0x831>
    2818:	81 30       	cpi	r24, 0x01	; 1
    281a:	09 f0       	breq	.+2      	; 0x281e <__stack+0x61f>
    281c:	80 c5       	rjmp	.+2816   	; 0x331e <__stack+0x111f>
    281e:	4f b7       	in	r20, 0x3f	; 63
    2820:	f8 94       	cli
    2822:	e0 91 bd 05 	lds	r30, 0x05BD
    2826:	30 91 be 05 	lds	r19, 0x05BE
    282a:	20 91 bf 05 	lds	r18, 0x05BF
    282e:	60 91 c0 05 	lds	r22, 0x05C0
    2832:	80 91 c1 05 	lds	r24, 0x05C1
    2836:	90 91 c2 05 	lds	r25, 0x05C2
    283a:	4f bf       	out	0x3f, r20	; 63
    283c:	43 2f       	mov	r20, r19
    283e:	46 95       	lsr	r20
    2840:	46 95       	lsr	r20
    2842:	46 95       	lsr	r20
    2844:	50 e0       	ldi	r21, 0x00	; 0
    2846:	44 30       	cpi	r20, 0x04	; 4
    2848:	51 05       	cpc	r21, r1
    284a:	b9 f1       	breq	.+110    	; 0x28ba <__stack+0x6bb>
    284c:	24 f4       	brge	.+8      	; 0x2856 <__stack+0x657>
    284e:	42 30       	cpi	r20, 0x02	; 2
    2850:	51 05       	cpc	r21, r1
    2852:	50 f0       	brcs	.+20     	; 0x2868 <__stack+0x669>
    2854:	c7 c0       	rjmp	.+398    	; 0x29e4 <__stack+0x7e5>
    2856:	45 30       	cpi	r20, 0x05	; 5
    2858:	51 05       	cpc	r21, r1
    285a:	09 f4       	brne	.+2      	; 0x285e <__stack+0x65f>
    285c:	44 c0       	rjmp	.+136    	; 0x28e6 <__stack+0x6e7>
    285e:	48 30       	cpi	r20, 0x08	; 8
    2860:	51 05       	cpc	r21, r1
    2862:	09 f4       	brne	.+2      	; 0x2866 <__stack+0x667>
    2864:	72 c0       	rjmp	.+228    	; 0x294a <__stack+0x74b>
    2866:	be c0       	rjmp	.+380    	; 0x29e4 <__stack+0x7e5>
    2868:	2f b7       	in	r18, 0x3f	; 63
    286a:	f8 94       	cli
    286c:	e3 70       	andi	r30, 0x03	; 3
    286e:	f0 e0       	ldi	r31, 0x00	; 0
    2870:	ee 0f       	add	r30, r30
    2872:	ff 1f       	adc	r31, r31
    2874:	e2 5a       	subi	r30, 0xA2	; 162
    2876:	fc 4e       	sbci	r31, 0xEC	; 236
    2878:	93 83       	std	Z+3, r25	; 0x03
    287a:	84 83       	std	Z+4, r24	; 0x04
    287c:	90 91 5e 13 	lds	r25, 0x135E
    2880:	81 e0       	ldi	r24, 0x01	; 1
    2882:	89 0f       	add	r24, r25
    2884:	83 70       	andi	r24, 0x03	; 3
    2886:	80 93 5e 13 	sts	0x135E, r24
    288a:	2f bf       	out	0x3f, r18	; 63
    288c:	93 30       	cpi	r25, 0x03	; 3
    288e:	09 f0       	breq	.+2      	; 0x2892 <__stack+0x693>
    2890:	a9 c0       	rjmp	.+338    	; 0x29e4 <__stack+0x7e5>
    2892:	89 e0       	ldi	r24, 0x09	; 9
    2894:	ec ef       	ldi	r30, 0xFC	; 252
    2896:	f2 e1       	ldi	r31, 0x12	; 18
    2898:	df 01       	movw	r26, r30
    289a:	1d 92       	st	X+, r1
    289c:	8a 95       	dec	r24
    289e:	e9 f7       	brne	.-6      	; 0x289a <__stack+0x69b>
    28a0:	88 e0       	ldi	r24, 0x08	; 8
    28a2:	e1 e6       	ldi	r30, 0x61	; 97
    28a4:	f3 e1       	ldi	r31, 0x13	; 19
    28a6:	ac ef       	ldi	r26, 0xFC	; 252
    28a8:	b2 e1       	ldi	r27, 0x12	; 18
    28aa:	01 90       	ld	r0, Z+
    28ac:	0d 92       	st	X+, r0
    28ae:	8a 95       	dec	r24
    28b0:	e1 f7       	brne	.-8      	; 0x28aa <__stack+0x6ab>
    28b2:	87 e0       	ldi	r24, 0x07	; 7
    28b4:	0e 94 49 02 	call	0x492	; 0x492 <SchedulerBasicP__TaskBasic__postTask>
    28b8:	95 c0       	rjmp	.+298    	; 0x29e4 <__stack+0x7e5>
    28ba:	3f b7       	in	r19, 0x3f	; 63
    28bc:	f8 94       	cli
    28be:	ef 70       	andi	r30, 0x0F	; 15
    28c0:	b4 e0       	ldi	r27, 0x04	; 4
    28c2:	eb 9f       	mul	r30, r27
    28c4:	f0 01       	movw	r30, r0
    28c6:	11 24       	eor	r1, r1
    28c8:	e2 5a       	subi	r30, 0xA2	; 162
    28ca:	fc 4e       	sbci	r31, 0xEC	; 236
    28cc:	63 87       	std	Z+11, r22	; 0x0b
    28ce:	24 87       	std	Z+12, r18	; 0x0c
    28d0:	95 87       	std	Z+13, r25	; 0x0d
    28d2:	86 87       	std	Z+14, r24	; 0x0e
    28d4:	90 91 5f 13 	lds	r25, 0x135F
    28d8:	81 e0       	ldi	r24, 0x01	; 1
    28da:	89 0f       	add	r24, r25
    28dc:	8f 70       	andi	r24, 0x0F	; 15
    28de:	80 93 5f 13 	sts	0x135F, r24
    28e2:	3f bf       	out	0x3f, r19	; 63
    28e4:	12 c0       	rjmp	.+36     	; 0x290a <__stack+0x70b>
    28e6:	2f b7       	in	r18, 0x3f	; 63
    28e8:	f8 94       	cli
    28ea:	ef 70       	andi	r30, 0x0F	; 15
    28ec:	f0 e0       	ldi	r31, 0x00	; 0
    28ee:	ee 0f       	add	r30, r30
    28f0:	ff 1f       	adc	r31, r31
    28f2:	e2 5a       	subi	r30, 0xA2	; 162
    28f4:	fc 4e       	sbci	r31, 0xEC	; 236
    28f6:	93 87       	std	Z+11, r25	; 0x0b
    28f8:	84 87       	std	Z+12, r24	; 0x0c
    28fa:	90 91 5f 13 	lds	r25, 0x135F
    28fe:	81 e0       	ldi	r24, 0x01	; 1
    2900:	89 0f       	add	r24, r25
    2902:	8f 70       	andi	r24, 0x0F	; 15
    2904:	80 93 5f 13 	sts	0x135F, r24
    2908:	2f bf       	out	0x3f, r18	; 63
    290a:	9f 30       	cpi	r25, 0x0F	; 15
    290c:	09 f0       	breq	.+2      	; 0x2910 <__stack+0x711>
    290e:	6a c0       	rjmp	.+212    	; 0x29e4 <__stack+0x7e5>
    2910:	81 e4       	ldi	r24, 0x41	; 65
    2912:	e5 e0       	ldi	r30, 0x05	; 5
    2914:	f3 e1       	ldi	r31, 0x13	; 19
    2916:	df 01       	movw	r26, r30
    2918:	1d 92       	st	X+, r1
    291a:	8a 95       	dec	r24
    291c:	e9 f7       	brne	.-6      	; 0x2918 <__stack+0x719>
    291e:	80 e4       	ldi	r24, 0x40	; 64
    2920:	e9 e6       	ldi	r30, 0x69	; 105
    2922:	f3 e1       	ldi	r31, 0x13	; 19
    2924:	a5 e0       	ldi	r26, 0x05	; 5
    2926:	b3 e1       	ldi	r27, 0x13	; 19
    2928:	01 90       	ld	r0, Z+
    292a:	0d 92       	st	X+, r0
    292c:	8a 95       	dec	r24
    292e:	e1 f7       	brne	.-8      	; 0x2928 <__stack+0x729>
    2930:	87 e0       	ldi	r24, 0x07	; 7
    2932:	0e 94 49 02 	call	0x492	; 0x492 <SchedulerBasicP__TaskBasic__postTask>
    2936:	80 e4       	ldi	r24, 0x40	; 64
    2938:	e9 e6       	ldi	r30, 0x69	; 105
    293a:	f3 e1       	ldi	r31, 0x13	; 19
    293c:	df 01       	movw	r26, r30
    293e:	1d 92       	st	X+, r1
    2940:	8a 95       	dec	r24
    2942:	e9 f7       	brne	.-6      	; 0x293e <__stack+0x73f>
    2944:	10 92 5f 13 	sts	0x135F, r1
    2948:	4d c0       	rjmp	.+154    	; 0x29e4 <__stack+0x7e5>
    294a:	22 95       	swap	r18
    294c:	20 71       	andi	r18, 0x10	; 16
    294e:	39 2f       	mov	r19, r25
    2950:	32 95       	swap	r19
    2952:	3f 70       	andi	r19, 0x0F	; 15
    2954:	23 2b       	or	r18, r19
    2956:	ac 01       	movw	r20, r24
    2958:	66 e0       	ldi	r22, 0x06	; 6
    295a:	56 95       	lsr	r21
    295c:	47 95       	ror	r20
    295e:	6a 95       	dec	r22
    2960:	e1 f7       	brne	.-8      	; 0x295a <__stack+0x75b>
    2962:	4f 73       	andi	r20, 0x3F	; 63
    2964:	98 2f       	mov	r25, r24
    2966:	9f 71       	andi	r25, 0x1F	; 31
    2968:	96 95       	lsr	r25
    296a:	38 2f       	mov	r19, r24
    296c:	31 70       	andi	r19, 0x01	; 1
    296e:	85 ff       	sbrs	r24, 5
    2970:	04 c0       	rjmp	.+8      	; 0x297a <__stack+0x77b>
    2972:	82 2f       	mov	r24, r18
    2974:	89 1b       	sub	r24, r25
    2976:	43 1b       	sub	r20, r19
    2978:	03 c0       	rjmp	.+6      	; 0x2980 <__stack+0x781>
    297a:	82 2f       	mov	r24, r18
    297c:	89 0f       	add	r24, r25
    297e:	43 0f       	add	r20, r19
    2980:	ef b6       	in	r14, 0x3f	; 63
    2982:	f8 94       	cli
    2984:	e9 ea       	ldi	r30, 0xA9	; 169
    2986:	f3 e1       	ldi	r31, 0x13	; 19
    2988:	56 e0       	ldi	r21, 0x06	; 6
    298a:	f5 2e       	mov	r15, r21
    298c:	df 01       	movw	r26, r30
    298e:	2f 2d       	mov	r18, r15
    2990:	1d 92       	st	X+, r1
    2992:	2a 95       	dec	r18
    2994:	e9 f7       	brne	.-6      	; 0x2990 <__stack+0x791>
    2996:	1f 92       	push	r1
    2998:	4f 93       	push	r20
    299a:	1f 92       	push	r1
    299c:	8f 93       	push	r24
    299e:	84 e2       	ldi	r24, 0x24	; 36
    29a0:	93 e0       	ldi	r25, 0x03	; 3
    29a2:	9f 93       	push	r25
    29a4:	8f 93       	push	r24
    29a6:	ff 93       	push	r31
    29a8:	ef 93       	push	r30
    29aa:	0e 94 2c 22 	call	0x4458	; 0x4458 <sprintf>
    29ae:	ef be       	out	0x3f, r14	; 63
    29b0:	e6 e4       	ldi	r30, 0x46	; 70
    29b2:	f3 e1       	ldi	r31, 0x13	; 19
    29b4:	df 01       	movw	r26, r30
    29b6:	2f 2d       	mov	r18, r15
    29b8:	1d 92       	st	X+, r1
    29ba:	2a 95       	dec	r18
    29bc:	e9 f7       	brne	.-6      	; 0x29b8 <__stack+0x7b9>
    29be:	e9 ea       	ldi	r30, 0xA9	; 169
    29c0:	f3 e1       	ldi	r31, 0x13	; 19
    29c2:	a6 e4       	ldi	r26, 0x46	; 70
    29c4:	b3 e1       	ldi	r27, 0x13	; 19
    29c6:	01 90       	ld	r0, Z+
    29c8:	0d 92       	st	X+, r0
    29ca:	fa 94       	dec	r15
    29cc:	e1 f7       	brne	.-8      	; 0x29c6 <__stack+0x7c7>
    29ce:	87 e0       	ldi	r24, 0x07	; 7
    29d0:	0e 94 49 02 	call	0x492	; 0x492 <SchedulerBasicP__TaskBasic__postTask>
    29d4:	8d b7       	in	r24, 0x3d	; 61
    29d6:	9e b7       	in	r25, 0x3e	; 62
    29d8:	08 96       	adiw	r24, 0x08	; 8
    29da:	0f b6       	in	r0, 0x3f	; 63
    29dc:	f8 94       	cli
    29de:	9e bf       	out	0x3e, r25	; 62
    29e0:	0f be       	out	0x3f, r0	; 63
    29e2:	8d bf       	out	0x3d, r24	; 61
    29e4:	8f b7       	in	r24, 0x3f	; 63
    29e6:	f8 94       	cli
    29e8:	10 92 59 13 	sts	0x1359, r1
    29ec:	8f bf       	out	0x3f, r24	; 63
    29ee:	97 c4       	rjmp	.+2350   	; 0x331e <__stack+0x111f>
    29f0:	8f b7       	in	r24, 0x3f	; 63
    29f2:	f8 94       	cli
    29f4:	90 91 db 0d 	lds	r25, 0x0DDB
    29f8:	90 93 0e 02 	sts	0x020E, r25
    29fc:	93 e0       	ldi	r25, 0x03	; 3
    29fe:	90 93 50 03 	sts	0x0350, r25
    2a02:	8f bf       	out	0x3f, r24	; 63
    2a04:	80 91 0e 02 	lds	r24, 0x020E
    2a08:	9f b7       	in	r25, 0x3f	; 63
    2a0a:	f8 94       	cli
    2a0c:	80 93 0d 02 	sts	0x020D, r24
    2a10:	9f bf       	out	0x3f, r25	; 63
    2a12:	81 11       	cpse	r24, r1
    2a14:	84 c4       	rjmp	.+2312   	; 0x331e <__stack+0x111f>
    2a16:	9f b7       	in	r25, 0x3f	; 63
    2a18:	f8 94       	cli
    2a1a:	80 91 55 13 	lds	r24, 0x1355
    2a1e:	9f bf       	out	0x3f, r25	; 63
    2a20:	81 30       	cpi	r24, 0x01	; 1
    2a22:	31 f0       	breq	.+12     	; 0x2a30 <__stack+0x831>
    2a24:	82 30       	cpi	r24, 0x02	; 2
    2a26:	09 f4       	brne	.+2      	; 0x2a2a <__stack+0x82b>
    2a28:	74 c0       	rjmp	.+232    	; 0x2b12 <__stack+0x913>
    2a2a:	0e 94 be 05 	call	0xb7c	; 0xb7c <FMClickP__I2CResource__release>
    2a2e:	77 c4       	rjmp	.+2286   	; 0x331e <__stack+0x111f>
    2a30:	0e 94 44 04 	call	0x888	; 0x888 <FMClickP__readRegisters>
    2a34:	74 c4       	rjmp	.+2280   	; 0x331e <__stack+0x111f>
    2a36:	ff b6       	in	r15, 0x3f	; 63
    2a38:	f8 94       	cli
    2a3a:	80 91 4e 03 	lds	r24, 0x034E
    2a3e:	88 23       	and	r24, r24
    2a40:	21 f0       	breq	.+8      	; 0x2a4a <__stack+0x84b>
    2a42:	81 e0       	ldi	r24, 0x01	; 1
    2a44:	0e 94 51 06 	call	0xca2	; 0xca2 <Atm128I2CMasterPacketP__0__readNextByte>
    2a48:	02 c0       	rjmp	.+4      	; 0x2a4e <__stack+0x84f>
    2a4a:	0e 94 8b 07 	call	0xf16	; 0xf16 <Atm128I2CMasterPacketP__0__writeNextByte>
    2a4e:	ff be       	out	0x3f, r15	; 63
    2a50:	66 c4       	rjmp	.+2252   	; 0x331e <__stack+0x111f>
    2a52:	8f b7       	in	r24, 0x3f	; 63
    2a54:	f8 94       	cli
    2a56:	90 91 61 0a 	lds	r25, 0x0A61
    2a5a:	90 93 0c 02 	sts	0x020C, r25
    2a5e:	93 e0       	ldi	r25, 0x03	; 3
    2a60:	90 93 4c 03 	sts	0x034C, r25
    2a64:	8f bf       	out	0x3f, r24	; 63
    2a66:	80 91 0c 02 	lds	r24, 0x020C
    2a6a:	81 11       	cpse	r24, r1
    2a6c:	01 c0       	rjmp	.+2      	; 0x2a70 <__stack+0x871>
    2a6e:	80 98       	cbi	0x10, 0	; 16
    2a70:	80 91 0c 02 	lds	r24, 0x020C
    2a74:	81 11       	cpse	r24, r1
    2a76:	53 c4       	rjmp	.+2214   	; 0x331e <__stack+0x111f>
    2a78:	81 e0       	ldi	r24, 0x01	; 1
    2a7a:	80 93 06 0b 	sts	0x0B06, r24
    2a7e:	10 92 af 13 	sts	0x13AF, r1
    2a82:	0e 94 72 05 	call	0xae4	; 0xae4 <AdcP__sample>
    2a86:	4b c4       	rjmp	.+2198   	; 0x331e <__stack+0x111f>
    2a88:	10 92 06 0b 	sts	0x0B06, r1
    2a8c:	e0 90 45 0d 	lds	r14, 0x0D45
    2a90:	f0 90 46 0d 	lds	r15, 0x0D46
    2a94:	80 91 af 13 	lds	r24, 0x13AF
    2a98:	81 11       	cpse	r24, r1
    2a9a:	41 c4       	rjmp	.+2178   	; 0x331e <__stack+0x111f>
    2a9c:	df b6       	in	r13, 0x3f	; 63
    2a9e:	f8 94       	cli
    2aa0:	80 91 4c 03 	lds	r24, 0x034C
    2aa4:	83 30       	cpi	r24, 0x03	; 3
    2aa6:	91 f4       	brne	.+36     	; 0x2acc <__stack+0x8cd>
    2aa8:	80 91 0c 02 	lds	r24, 0x020C
    2aac:	81 11       	cpse	r24, r1
    2aae:	0e c0       	rjmp	.+28     	; 0x2acc <__stack+0x8cd>
    2ab0:	80 91 1f 0d 	lds	r24, 0x0D1F
    2ab4:	81 11       	cpse	r24, r1
    2ab6:	f5 c3       	rjmp	.+2026   	; 0x32a2 <__stack+0x10a3>
    2ab8:	81 e0       	ldi	r24, 0x01	; 1
    2aba:	80 93 0c 02 	sts	0x020C, r24
    2abe:	10 92 4c 03 	sts	0x034C, r1
    2ac2:	80 91 7a 00 	lds	r24, 0x007A
    2ac6:	8f 77       	andi	r24, 0x7F	; 127
    2ac8:	80 93 7a 00 	sts	0x007A, r24
    2acc:	df be       	out	0x3f, r13	; 63
    2ace:	9f b7       	in	r25, 0x3f	; 63
    2ad0:	f8 94       	cli
    2ad2:	80 91 52 13 	lds	r24, 0x1352
    2ad6:	9f bf       	out	0x3f, r25	; 63
    2ad8:	81 11       	cpse	r24, r1
    2ada:	21 c4       	rjmp	.+2114   	; 0x331e <__stack+0x111f>
    2adc:	2f b7       	in	r18, 0x3f	; 63
    2ade:	f8 94       	cli
    2ae0:	84 e0       	ldi	r24, 0x04	; 4
    2ae2:	80 93 52 13 	sts	0x1352, r24
    2ae6:	c7 01       	movw	r24, r14
    2ae8:	36 e0       	ldi	r19, 0x06	; 6
    2aea:	96 95       	lsr	r25
    2aec:	87 95       	ror	r24
    2aee:	3a 95       	dec	r19
    2af0:	e1 f7       	brne	.-8      	; 0x2aea <__stack+0x8eb>
    2af2:	38 2f       	mov	r19, r24
    2af4:	3f 70       	andi	r19, 0x0F	; 15
    2af6:	80 91 ad 05 	lds	r24, 0x05AD
    2afa:	90 91 ae 05 	lds	r25, 0x05AE
    2afe:	80 7f       	andi	r24, 0xF0	; 240
    2b00:	83 2b       	or	r24, r19
    2b02:	90 93 ae 05 	sts	0x05AE, r25
    2b06:	80 93 ad 05 	sts	0x05AD, r24
    2b0a:	85 e0       	ldi	r24, 0x05	; 5
    2b0c:	80 93 fa 12 	sts	0x12FA, r24
    2b10:	2f bf       	out	0x3f, r18	; 63
    2b12:	0e 94 e4 06 	call	0xdc8	; 0xdc8 <FMClickP__writeRegisters>
    2b16:	03 c4       	rjmp	.+2054   	; 0x331e <__stack+0x111f>
    2b18:	bc 01       	movw	r22, r24
    2b1a:	87 ed       	ldi	r24, 0xD7	; 215
    2b1c:	92 e0       	ldi	r25, 0x02	; 2
    2b1e:	0e 94 a2 21 	call	0x4344	; 0x4344 <strcmp>
    2b22:	89 2b       	or	r24, r25
    2b24:	11 f0       	breq	.+4      	; 0x2b2a <__stack+0x92b>
    2b26:	0c 94 43 0d 	jmp	0x1a86	; 0x1a86 <SchedulerBasicP__TaskBasic__runTask+0x5b6>
    2b2a:	4a e0       	ldi	r20, 0x0A	; 10
    2b2c:	50 e0       	ldi	r21, 0x00	; 0
    2b2e:	60 e0       	ldi	r22, 0x00	; 0
    2b30:	70 e0       	ldi	r23, 0x00	; 0
    2b32:	65 96       	adiw	r28, 0x15	; 21
    2b34:	8e ad       	ldd	r24, Y+62	; 0x3e
    2b36:	9f ad       	ldd	r25, Y+63	; 0x3f
    2b38:	65 97       	sbiw	r28, 0x15	; 21
    2b3a:	0e 94 1c 1f 	call	0x3e38	; 0x3e38 <strtol>
    2b3e:	60 31       	cpi	r22, 0x10	; 16
    2b40:	10 f0       	brcs	.+4      	; 0x2b46 <__stack+0x947>
    2b42:	0c 94 43 0d 	jmp	0x1a86	; 0x1a86 <SchedulerBasicP__TaskBasic__runTask+0x5b6>
    2b46:	6c e2       	ldi	r22, 0x2C	; 44
    2b48:	70 e0       	ldi	r23, 0x00	; 0
    2b4a:	65 96       	adiw	r28, 0x15	; 21
    2b4c:	8e ad       	ldd	r24, Y+62	; 0x3e
    2b4e:	9f ad       	ldd	r25, Y+63	; 0x3f
    2b50:	65 97       	sbiw	r28, 0x15	; 21
    2b52:	0e 94 97 21 	call	0x432e	; 0x432e <strchr>
    2b56:	89 2b       	or	r24, r25
    2b58:	39 f4       	brne	.+14     	; 0x2b68 <__stack+0x969>
    2b5a:	68 e2       	ldi	r22, 0x28	; 40
    2b5c:	8a ed       	ldi	r24, 0xDA	; 218
    2b5e:	92 e0       	ldi	r25, 0x02	; 2
    2b60:	0e 94 ad 09 	call	0x135a	; 0x135a <GlcdP__Glcd__drawText.constprop.155>
    2b64:	0c 94 43 0d 	jmp	0x1a86	; 0x1a86 <SchedulerBasicP__TaskBasic__runTask+0x5b6>
    2b68:	ae 01       	movw	r20, r28
    2b6a:	42 5c       	subi	r20, 0xC2	; 194
    2b6c:	5f 4f       	sbci	r21, 0xFF	; 255
    2b6e:	65 ed       	ldi	r22, 0xD5	; 213
    2b70:	72 e0       	ldi	r23, 0x02	; 2
    2b72:	c6 01       	movw	r24, r12
    2b74:	0e 94 c8 21 	call	0x4390	; 0x4390 <strtok_r>
    2b78:	3c 01       	movw	r6, r24
    2b7a:	00 97       	sbiw	r24, 0x00	; 0
    2b7c:	11 f4       	brne	.+4      	; 0x2b82 <__stack+0x983>
    2b7e:	0c 94 43 0d 	jmp	0x1a86	; 0x1a86 <SchedulerBasicP__TaskBasic__runTask+0x5b6>
    2b82:	37 ef       	ldi	r19, 0xF7	; 247
    2b84:	c3 2e       	mov	r12, r19
    2b86:	32 e0       	ldi	r19, 0x02	; 2
    2b88:	d3 2e       	mov	r13, r19
    2b8a:	49 e0       	ldi	r20, 0x09	; 9
    2b8c:	54 2e       	mov	r5, r20
    2b8e:	5e 01       	movw	r10, r28
    2b90:	b9 e2       	ldi	r27, 0x29	; 41
    2b92:	ab 0e       	add	r10, r27
    2b94:	b1 1c       	adc	r11, r1
    2b96:	3e ac       	ldd	r3, Y+62	; 0x3e
    2b98:	4f ac       	ldd	r4, Y+63	; 0x3f
    2b9a:	b3 01       	movw	r22, r6
    2b9c:	80 ee       	ldi	r24, 0xE0	; 224
    2b9e:	92 e0       	ldi	r25, 0x02	; 2
    2ba0:	0e 94 a2 21 	call	0x4344	; 0x4344 <strcmp>
    2ba4:	89 2b       	or	r24, r25
    2ba6:	81 f4       	brne	.+32     	; 0x2bc8 <__stack+0x9c9>
    2ba8:	4a e0       	ldi	r20, 0x0A	; 10
    2baa:	50 e0       	ldi	r21, 0x00	; 0
    2bac:	60 e0       	ldi	r22, 0x00	; 0
    2bae:	70 e0       	ldi	r23, 0x00	; 0
    2bb0:	83 2d       	mov	r24, r3
    2bb2:	94 2d       	mov	r25, r4
    2bb4:	0e 94 1c 1f 	call	0x3e38	; 0x3e38 <strtol>
    2bb8:	6b 56       	subi	r22, 0x6B	; 107
    2bba:	73 40       	sbci	r23, 0x03	; 3
    2bbc:	6e 3c       	cpi	r22, 0xCE	; 206
    2bbe:	71 05       	cpc	r23, r1
    2bc0:	08 f4       	brcc	.+2      	; 0x2bc4 <__stack+0x9c5>
    2bc2:	70 c0       	rjmp	.+224    	; 0x2ca4 <__stack+0xaa5>
    2bc4:	0c 94 43 0d 	jmp	0x1a86	; 0x1a86 <SchedulerBasicP__TaskBasic__runTask+0x5b6>
    2bc8:	b3 01       	movw	r22, r6
    2bca:	85 ee       	ldi	r24, 0xE5	; 229
    2bcc:	92 e0       	ldi	r25, 0x02	; 2
    2bce:	0e 94 a2 21 	call	0x4344	; 0x4344 <strcmp>
    2bd2:	89 2b       	or	r24, r25
    2bd4:	49 f4       	brne	.+18     	; 0x2be8 <__stack+0x9e9>
    2bd6:	4a e0       	ldi	r20, 0x0A	; 10
    2bd8:	50 e0       	ldi	r21, 0x00	; 0
    2bda:	60 e0       	ldi	r22, 0x00	; 0
    2bdc:	70 e0       	ldi	r23, 0x00	; 0
    2bde:	83 2d       	mov	r24, r3
    2be0:	94 2d       	mov	r25, r4
    2be2:	0e 94 1c 1f 	call	0x3e38	; 0x3e38 <strtol>
    2be6:	5e c0       	rjmp	.+188    	; 0x2ca4 <__stack+0xaa5>
    2be8:	b3 01       	movw	r22, r6
    2bea:	8c ee       	ldi	r24, 0xEC	; 236
    2bec:	92 e0       	ldi	r25, 0x02	; 2
    2bee:	0e 94 a2 21 	call	0x4344	; 0x4344 <strcmp>
    2bf2:	89 2b       	or	r24, r25
    2bf4:	71 f4       	brne	.+28     	; 0x2c12 <__stack+0xa13>
    2bf6:	4a e0       	ldi	r20, 0x0A	; 10
    2bf8:	50 e0       	ldi	r21, 0x00	; 0
    2bfa:	60 e0       	ldi	r22, 0x00	; 0
    2bfc:	70 e0       	ldi	r23, 0x00	; 0
    2bfe:	83 2d       	mov	r24, r3
    2c00:	94 2d       	mov	r25, r4
    2c02:	0e 94 1c 1f 	call	0x3e38	; 0x3e38 <strtol>
    2c06:	61 50       	subi	r22, 0x01	; 1
    2c08:	69 30       	cpi	r22, 0x09	; 9
    2c0a:	08 f4       	brcc	.+2      	; 0x2c0e <__stack+0xa0f>
    2c0c:	4b c0       	rjmp	.+150    	; 0x2ca4 <__stack+0xaa5>
    2c0e:	0c 94 43 0d 	jmp	0x1a86	; 0x1a86 <SchedulerBasicP__TaskBasic__runTask+0x5b6>
    2c12:	b3 01       	movw	r22, r6
    2c14:	82 ef       	ldi	r24, 0xF2	; 242
    2c16:	92 e0       	ldi	r25, 0x02	; 2
    2c18:	0e 94 a2 21 	call	0x4344	; 0x4344 <strcmp>
    2c1c:	89 2b       	or	r24, r25
    2c1e:	71 f5       	brne	.+92     	; 0x2c7c <__stack+0xa7d>
    2c20:	4f 92       	push	r4
    2c22:	3f 92       	push	r3
    2c24:	df 92       	push	r13
    2c26:	cf 92       	push	r12
    2c28:	1f 92       	push	r1
    2c2a:	5f 92       	push	r5
    2c2c:	bf 92       	push	r11
    2c2e:	af 92       	push	r10
    2c30:	0e 94 ef 21 	call	0x43de	; 0x43de <snprintf>
    2c34:	19 aa       	std	Y+49, r1	; 0x31
    2c36:	ee ad       	ldd	r30, Y+62	; 0x3e
    2c38:	ff ad       	ldd	r31, Y+63	; 0x3f
    2c3a:	cf 01       	movw	r24, r30
    2c3c:	08 96       	adiw	r24, 0x08	; 8
    2c3e:	9f af       	std	Y+63, r25	; 0x3f
    2c40:	8e af       	std	Y+62, r24	; 0x3e
    2c42:	8d b7       	in	r24, 0x3d	; 61
    2c44:	9e b7       	in	r25, 0x3e	; 62
    2c46:	08 96       	adiw	r24, 0x08	; 8
    2c48:	0f b6       	in	r0, 0x3f	; 63
    2c4a:	f8 94       	cli
    2c4c:	9e bf       	out	0x3e, r25	; 62
    2c4e:	0f be       	out	0x3f, r0	; 63
    2c50:	8d bf       	out	0x3d, r24	; 61
    2c52:	80 85       	ldd	r24, Z+8	; 0x08
    2c54:	8c 32       	cpi	r24, 0x2C	; 44
    2c56:	11 f0       	breq	.+4      	; 0x2c5c <__stack+0xa5d>
    2c58:	0c 94 43 0d 	jmp	0x1a86	; 0x1a86 <SchedulerBasicP__TaskBasic__runTask+0x5b6>
    2c5c:	cf 01       	movw	r24, r30
    2c5e:	09 96       	adiw	r24, 0x09	; 9
    2c60:	9f af       	std	Y+63, r25	; 0x3f
    2c62:	8e af       	std	Y+62, r24	; 0x3e
    2c64:	6c e2       	ldi	r22, 0x2C	; 44
    2c66:	70 e0       	ldi	r23, 0x00	; 0
    2c68:	0e 94 97 21 	call	0x432e	; 0x432e <strchr>
    2c6c:	00 97       	sbiw	r24, 0x00	; 0
    2c6e:	11 f4       	brne	.+4      	; 0x2c74 <__stack+0xa75>
    2c70:	0c 94 43 0d 	jmp	0x1a86	; 0x1a86 <SchedulerBasicP__TaskBasic__runTask+0x5b6>
    2c74:	01 96       	adiw	r24, 0x01	; 1
    2c76:	9f af       	std	Y+63, r25	; 0x3f
    2c78:	8e af       	std	Y+62, r24	; 0x3e
    2c7a:	14 c0       	rjmp	.+40     	; 0x2ca4 <__stack+0xaa5>
    2c7c:	b3 01       	movw	r22, r6
    2c7e:	8c ef       	ldi	r24, 0xFC	; 252
    2c80:	92 e0       	ldi	r25, 0x02	; 2
    2c82:	0e 94 a2 21 	call	0x4344	; 0x4344 <strcmp>
    2c86:	89 2b       	or	r24, r25
    2c88:	69 f4       	brne	.+26     	; 0x2ca4 <__stack+0xaa5>
    2c8a:	48 e2       	ldi	r20, 0x28	; 40
    2c8c:	50 e0       	ldi	r21, 0x00	; 0
    2c8e:	63 2d       	mov	r22, r3
    2c90:	74 2d       	mov	r23, r4
    2c92:	ce 01       	movw	r24, r28
    2c94:	01 96       	adiw	r24, 0x01	; 1
    2c96:	0e 94 b9 21 	call	0x4372	; 0x4372 <strncpy>
    2c9a:	62 96       	adiw	r28, 0x12	; 18
    2c9c:	1f ae       	std	Y+63, r1	; 0x3f
    2c9e:	62 97       	sbiw	r28, 0x12	; 18
    2ca0:	0c 94 43 0d 	jmp	0x1a86	; 0x1a86 <SchedulerBasicP__TaskBasic__runTask+0x5b6>
    2ca4:	ae 01       	movw	r20, r28
    2ca6:	42 5c       	subi	r20, 0xC2	; 194
    2ca8:	5f 4f       	sbci	r21, 0xFF	; 255
    2caa:	65 ed       	ldi	r22, 0xD5	; 213
    2cac:	72 e0       	ldi	r23, 0x02	; 2
    2cae:	80 e0       	ldi	r24, 0x00	; 0
    2cb0:	90 e0       	ldi	r25, 0x00	; 0
    2cb2:	0e 94 c8 21 	call	0x4390	; 0x4390 <strtok_r>
    2cb6:	3c 01       	movw	r6, r24
    2cb8:	00 97       	sbiw	r24, 0x00	; 0
    2cba:	09 f0       	breq	.+2      	; 0x2cbe <__stack+0xabf>
    2cbc:	6c cf       	rjmp	.-296    	; 0x2b96 <__stack+0x997>
    2cbe:	0c 94 43 0d 	jmp	0x1a86	; 0x1a86 <SchedulerBasicP__TaskBasic__runTask+0x5b6>
    2cc2:	44 e0       	ldi	r20, 0x04	; 4
    2cc4:	50 e0       	ldi	r21, 0x00	; 0
    2cc6:	6a e2       	ldi	r22, 0x2A	; 42
    2cc8:	72 e0       	ldi	r23, 0x02	; 2
    2cca:	c4 01       	movw	r24, r8
    2ccc:	0e 94 ab 21 	call	0x4356	; 0x4356 <strncmp>
    2cd0:	89 2b       	or	r24, r25
    2cd2:	11 f0       	breq	.+4      	; 0x2cd8 <__stack+0xad9>
    2cd4:	0c 94 48 0d 	jmp	0x1a90	; 0x1a90 <SchedulerBasicP__TaskBasic__runTask+0x5c0>
    2cd8:	ad b6       	in	r10, 0x3d	; 61
    2cda:	be b6       	in	r11, 0x3e	; 62
    2cdc:	d7 01       	movw	r26, r14
    2cde:	4d 91       	ld	r20, X+
    2ce0:	5c 91       	ld	r21, X
    2ce2:	4a 01       	movw	r8, r20
    2ce4:	b3 e0       	ldi	r27, 0x03	; 3
    2ce6:	8b 1a       	sub	r8, r27
    2ce8:	91 08       	sbc	r9, r1
    2cea:	ed b7       	in	r30, 0x3d	; 61
    2cec:	fe b7       	in	r31, 0x3e	; 62
    2cee:	e8 19       	sub	r30, r8
    2cf0:	f9 09       	sbc	r31, r9
    2cf2:	0f b6       	in	r0, 0x3f	; 63
    2cf4:	f8 94       	cli
    2cf6:	fe bf       	out	0x3e, r31	; 62
    2cf8:	0f be       	out	0x3f, r0	; 63
    2cfa:	ed bf       	out	0x3d, r30	; 61
    2cfc:	8d b7       	in	r24, 0x3d	; 61
    2cfe:	9e b7       	in	r25, 0x3e	; 62
    2d00:	01 96       	adiw	r24, 0x01	; 1
    2d02:	3c 01       	movw	r6, r24
    2d04:	44 50       	subi	r20, 0x04	; 4
    2d06:	51 09       	sbc	r21, r1
    2d08:	b6 01       	movw	r22, r12
    2d0a:	0e 94 87 21 	call	0x430e	; 0x430e <memcpy>
    2d0e:	f3 01       	movw	r30, r6
    2d10:	e8 0d       	add	r30, r8
    2d12:	f9 1d       	adc	r31, r9
    2d14:	10 82       	st	Z, r1
    2d16:	ae 01       	movw	r20, r28
    2d18:	4f 5f       	subi	r20, 0xFF	; 255
    2d1a:	5f 4f       	sbci	r21, 0xFF	; 255
    2d1c:	65 ed       	ldi	r22, 0xD5	; 213
    2d1e:	72 e0       	ldi	r23, 0x02	; 2
    2d20:	c3 01       	movw	r24, r6
    2d22:	0e 94 c8 21 	call	0x4390	; 0x4390 <strtok_r>
    2d26:	00 97       	sbiw	r24, 0x00	; 0
    2d28:	a1 f1       	breq	.+104    	; 0x2d92 <__stack+0xb93>
    2d2a:	d1 2c       	mov	r13, r1
    2d2c:	89 80       	ldd	r8, Y+1	; 0x01
    2d2e:	9a 80       	ldd	r9, Y+2	; 0x02
    2d30:	bc 01       	movw	r22, r24
    2d32:	81 e0       	ldi	r24, 0x01	; 1
    2d34:	93 e0       	ldi	r25, 0x03	; 3
    2d36:	0e 94 a2 21 	call	0x4344	; 0x4344 <strcmp>
    2d3a:	89 2b       	or	r24, r25
    2d3c:	81 f4       	brne	.+32     	; 0x2d5e <__stack+0xb5f>
    2d3e:	b4 01       	movw	r22, r8
    2d40:	85 e0       	ldi	r24, 0x05	; 5
    2d42:	93 e0       	ldi	r25, 0x03	; 3
    2d44:	0e 94 a2 21 	call	0x4344	; 0x4344 <strcmp>
    2d48:	89 2b       	or	r24, r25
    2d4a:	39 f0       	breq	.+14     	; 0x2d5a <__stack+0xb5b>
    2d4c:	b4 01       	movw	r22, r8
    2d4e:	89 e0       	ldi	r24, 0x09	; 9
    2d50:	93 e0       	ldi	r25, 0x03	; 3
    2d52:	0e 94 a2 21 	call	0x4344	; 0x4344 <strcmp>
    2d56:	89 2b       	or	r24, r25
    2d58:	e1 f4       	brne	.+56     	; 0x2d92 <__stack+0xb93>
    2d5a:	dd 24       	eor	r13, r13
    2d5c:	d3 94       	inc	r13
    2d5e:	6c e2       	ldi	r22, 0x2C	; 44
    2d60:	70 e0       	ldi	r23, 0x00	; 0
    2d62:	c4 01       	movw	r24, r8
    2d64:	0e 94 97 21 	call	0x432e	; 0x432e <strchr>
    2d68:	01 96       	adiw	r24, 0x01	; 1
    2d6a:	9a 83       	std	Y+2, r25	; 0x02
    2d6c:	89 83       	std	Y+1, r24	; 0x01
    2d6e:	ae 01       	movw	r20, r28
    2d70:	4f 5f       	subi	r20, 0xFF	; 255
    2d72:	5f 4f       	sbci	r21, 0xFF	; 255
    2d74:	65 ed       	ldi	r22, 0xD5	; 213
    2d76:	72 e0       	ldi	r23, 0x02	; 2
    2d78:	80 e0       	ldi	r24, 0x00	; 0
    2d7a:	90 e0       	ldi	r25, 0x00	; 0
    2d7c:	0e 94 c8 21 	call	0x4390	; 0x4390 <strtok_r>
    2d80:	00 97       	sbiw	r24, 0x00	; 0
    2d82:	a1 f6       	brne	.-88     	; 0x2d2c <__stack+0xb2d>
    2d84:	dd 20       	and	r13, r13
    2d86:	29 f0       	breq	.+10     	; 0x2d92 <__stack+0xb93>
    2d88:	68 e2       	ldi	r22, 0x28	; 40
    2d8a:	8a ed       	ldi	r24, 0xDA	; 218
    2d8c:	92 e0       	ldi	r25, 0x02	; 2
    2d8e:	0e 94 ad 09 	call	0x135a	; 0x135a <GlcdP__Glcd__drawText.constprop.155>
    2d92:	0f b6       	in	r0, 0x3f	; 63
    2d94:	f8 94       	cli
    2d96:	be be       	out	0x3e, r11	; 62
    2d98:	0f be       	out	0x3f, r0	; 63
    2d9a:	ad be       	out	0x3d, r10	; 61
    2d9c:	0c 94 48 0d 	jmp	0x1a90	; 0x1a90 <SchedulerBasicP__TaskBasic__runTask+0x5c0>
    2da0:	e0 91 69 03 	lds	r30, 0x0369
    2da4:	ad e0       	ldi	r26, 0x0D	; 13
    2da6:	ea 9f       	mul	r30, r26
    2da8:	c0 01       	movw	r24, r0
    2daa:	11 24       	eor	r1, r1
    2dac:	fc 01       	movw	r30, r24
    2dae:	e2 51       	subi	r30, 0x12	; 18
    2db0:	f8 4f       	sbci	r31, 0xF8	; 248
    2db2:	26 e0       	ldi	r18, 0x06	; 6
    2db4:	a3 ec       	ldi	r26, 0xC3	; 195
    2db6:	b5 e0       	ldi	r27, 0x05	; 5
    2db8:	01 90       	ld	r0, Z+
    2dba:	0d 92       	st	X+, r0
    2dbc:	2a 95       	dec	r18
    2dbe:	e1 f7       	brne	.-8      	; 0x2db8 <__stack+0xbb9>
    2dc0:	26 e0       	ldi	r18, 0x06	; 6
    2dc2:	e6 e1       	ldi	r30, 0x16	; 22
    2dc4:	f2 e0       	ldi	r31, 0x02	; 2
    2dc6:	a9 ec       	ldi	r26, 0xC9	; 201
    2dc8:	b5 e0       	ldi	r27, 0x05	; 5
    2dca:	01 90       	ld	r0, Z+
    2dcc:	0d 92       	st	X+, r0
    2dce:	2a 95       	dec	r18
    2dd0:	e1 f7       	brne	.-8      	; 0x2dca <__stack+0xbcb>
    2dd2:	fc 01       	movw	r30, r24
    2dd4:	e3 51       	subi	r30, 0x13	; 19
    2dd6:	f8 4f       	sbci	r31, 0xF8	; 248
    2dd8:	97 81       	ldd	r25, Z+7	; 0x07
    2dda:	80 85       	ldd	r24, Z+8	; 0x08
    2ddc:	90 93 d0 05 	sts	0x05D0, r25
    2de0:	80 93 cf 05 	sts	0x05CF, r24
    2de4:	e3 84       	ldd	r14, Z+11	; 0x0b
    2de6:	f4 84       	ldd	r15, Z+12	; 0x0c
    2de8:	61 85       	ldd	r22, Z+9	; 0x09
    2dea:	72 85       	ldd	r23, Z+10	; 0x0a
    2dec:	a7 01       	movw	r20, r14
    2dee:	81 ed       	ldi	r24, 0xD1	; 209
    2df0:	95 e0       	ldi	r25, 0x05	; 5
    2df2:	0e 94 87 21 	call	0x430e	; 0x430e <memcpy>
    2df6:	80 91 5c 03 	lds	r24, 0x035C
    2dfa:	81 11       	cpse	r24, r1
    2dfc:	1b c0       	rjmp	.+54     	; 0x2e34 <__stack+0xc35>
    2dfe:	80 91 5d 03 	lds	r24, 0x035D
    2e02:	82 30       	cpi	r24, 0x02	; 2
    2e04:	b9 f4       	brne	.+46     	; 0x2e34 <__stack+0xc35>
    2e06:	0e 94 da 04 	call	0x9b4	; 0x9b4 <Atm1280SpiP__Resource__request.constprop.135>
    2e0a:	81 11       	cpse	r24, r1
    2e0c:	15 c0       	rjmp	.+42     	; 0x2e38 <__stack+0xc39>
    2e0e:	83 ec       	ldi	r24, 0xC3	; 195
    2e10:	95 e0       	ldi	r25, 0x05	; 5
    2e12:	90 93 62 0d 	sts	0x0D62, r25
    2e16:	80 93 61 0d 	sts	0x0D61, r24
    2e1a:	9e e0       	ldi	r25, 0x0E	; 14
    2e1c:	e9 0e       	add	r14, r25
    2e1e:	f1 1c       	adc	r15, r1
    2e20:	f0 92 2e 08 	sts	0x082E, r15
    2e24:	e0 92 2d 08 	sts	0x082D, r14
    2e28:	81 e0       	ldi	r24, 0x01	; 1
    2e2a:	80 93 5c 03 	sts	0x035C, r24
    2e2e:	80 93 68 03 	sts	0x0368, r24
    2e32:	75 c2       	rjmp	.+1258   	; 0x331e <__stack+0x111f>
    2e34:	85 e0       	ldi	r24, 0x05	; 5
    2e36:	01 c0       	rjmp	.+2      	; 0x2e3a <__stack+0xc3b>
    2e38:	87 e0       	ldi	r24, 0x07	; 7
    2e3a:	90 91 69 03 	lds	r25, 0x0369
    2e3e:	bd e0       	ldi	r27, 0x0D	; 13
    2e40:	9b 9f       	mul	r25, r27
    2e42:	f0 01       	movw	r30, r0
    2e44:	11 24       	eor	r1, r1
    2e46:	e3 51       	subi	r30, 0x13	; 19
    2e48:	f8 4f       	sbci	r31, 0xF8	; 248
    2e4a:	10 82       	st	Z, r1
    2e4c:	91 11       	cpse	r25, r1
    2e4e:	03 c0       	rjmp	.+6      	; 0x2e56 <__stack+0xc57>
    2e50:	0e 94 50 05 	call	0xaa0	; 0xaa0 <PacketQueueP__2__PacketSender__sendDone.isra.89>
    2e54:	64 c2       	rjmp	.+1224   	; 0x331e <__stack+0x111f>
    2e56:	91 30       	cpi	r25, 0x01	; 1
    2e58:	09 f0       	breq	.+2      	; 0x2e5c <__stack+0xc5d>
    2e5a:	61 c2       	rjmp	.+1218   	; 0x331e <__stack+0x111f>
    2e5c:	0e 94 06 1d 	call	0x3a0c	; 0x3a0c <PacketQueueP__1__PacketSender__sendDone>
    2e60:	5e c2       	rjmp	.+1212   	; 0x331e <__stack+0x111f>
    2e62:	80 91 63 03 	lds	r24, 0x0363
    2e66:	28 2f       	mov	r18, r24
    2e68:	30 e0       	ldi	r19, 0x00	; 0
    2e6a:	4d e1       	ldi	r20, 0x1D	; 29
    2e6c:	84 9f       	mul	r24, r20
    2e6e:	f0 01       	movw	r30, r0
    2e70:	11 24       	eor	r1, r1
    2e72:	af 01       	movw	r20, r30
    2e74:	48 56       	subi	r20, 0x68	; 104
    2e76:	52 4f       	sbci	r21, 0xF2	; 242
    2e78:	90 91 fa 07 	lds	r25, 0x07FA
    2e7c:	91 11       	cpse	r25, r1
    2e7e:	27 c0       	rjmp	.+78     	; 0x2ece <__stack+0xccf>
    2e80:	6b ef       	ldi	r22, 0xFB	; 251
    2e82:	77 e0       	ldi	r23, 0x07	; 7
    2e84:	61 15       	cp	r22, r1
    2e86:	71 05       	cpc	r23, r1
    2e88:	11 f1       	breq	.+68     	; 0x2ece <__stack+0xccf>
    2e8a:	e6 55       	subi	r30, 0x56	; 86
    2e8c:	f2 4f       	sbci	r31, 0xF2	; 242
    2e8e:	86 e0       	ldi	r24, 0x06	; 6
    2e90:	db 01       	movw	r26, r22
    2e92:	01 90       	ld	r0, Z+
    2e94:	0d 92       	st	X+, r0
    2e96:	8a 95       	dec	r24
    2e98:	e1 f7       	brne	.-8      	; 0x2e92 <__stack+0xc93>
    2e9a:	86 e0       	ldi	r24, 0x06	; 6
    2e9c:	98 e0       	ldi	r25, 0x08	; 8
    2e9e:	90 93 02 08 	sts	0x0802, r25
    2ea2:	80 93 01 08 	sts	0x0801, r24
    2ea6:	50 93 04 08 	sts	0x0804, r21
    2eaa:	40 93 03 08 	sts	0x0803, r20
    2eae:	8c e1       	ldi	r24, 0x1C	; 28
    2eb0:	90 e0       	ldi	r25, 0x00	; 0
    2eb2:	90 93 06 08 	sts	0x0806, r25
    2eb6:	80 93 05 08 	sts	0x0805, r24
    2eba:	ff 24       	eor	r15, r15
    2ebc:	f3 94       	inc	r15
    2ebe:	f0 92 fa 07 	sts	0x07FA, r15
    2ec2:	8a e0       	ldi	r24, 0x0A	; 10
    2ec4:	0e 94 49 02 	call	0x492	; 0x492 <SchedulerBasicP__TaskBasic__postTask>
    2ec8:	f0 92 62 03 	sts	0x0362, r15
    2ecc:	28 c2       	rjmp	.+1104   	; 0x331e <__stack+0x111f>
    2ece:	9d e1       	ldi	r25, 0x1D	; 29
    2ed0:	92 9f       	mul	r25, r18
    2ed2:	f0 01       	movw	r30, r0
    2ed4:	93 9f       	mul	r25, r19
    2ed6:	f0 0d       	add	r31, r0
    2ed8:	11 24       	eor	r1, r1
    2eda:	e9 56       	subi	r30, 0x69	; 105
    2edc:	f2 4f       	sbci	r31, 0xF2	; 242
    2ede:	10 82       	st	Z, r1
    2ee0:	65 e0       	ldi	r22, 0x05	; 5
    2ee2:	0e 94 60 05 	call	0xac0	; 0xac0 <ArpP__PacketQueue__sendDone>
    2ee6:	1b c2       	rjmp	.+1078   	; 0x331e <__stack+0x111f>
    2ee8:	d0 90 61 03 	lds	r13, 0x0361
    2eec:	85 e4       	ldi	r24, 0x45	; 69
    2eee:	80 93 31 08 	sts	0x0831, r24
    2ef2:	10 92 32 08 	sts	0x0832, r1
    2ef6:	86 e6       	ldi	r24, 0x66	; 102
    2ef8:	80 93 36 08 	sts	0x0836, r24
    2efc:	80 93 35 08 	sts	0x0835, r24
    2f00:	10 92 38 08 	sts	0x0838, r1
    2f04:	10 92 37 08 	sts	0x0837, r1
    2f08:	8f ef       	ldi	r24, 0xFF	; 255
    2f0a:	80 93 39 08 	sts	0x0839, r24
    2f0e:	88 e0       	ldi	r24, 0x08	; 8
    2f10:	d8 9e       	mul	r13, r24
    2f12:	70 01       	movw	r14, r0
    2f14:	11 24       	eor	r1, r1
    2f16:	d7 01       	movw	r26, r14
    2f18:	a3 5b       	subi	r26, 0xB3	; 179
    2f1a:	b5 4f       	sbci	r27, 0xF5	; 245
    2f1c:	5d 01       	movw	r10, r26
    2f1e:	16 96       	adiw	r26, 0x06	; 6
    2f20:	4d 91       	ld	r20, X+
    2f22:	5c 91       	ld	r21, X
    2f24:	17 97       	sbiw	r26, 0x07	; 7
    2f26:	ca 01       	movw	r24, r20
    2f28:	44 96       	adiw	r24, 0x14	; 20
    2f2a:	80 93 34 08 	sts	0x0834, r24
    2f2e:	90 93 33 08 	sts	0x0833, r25
    2f32:	11 96       	adiw	r26, 0x01	; 1
    2f34:	ed 91       	ld	r30, X+
    2f36:	fc 91       	ld	r31, X
    2f38:	12 97       	sbiw	r26, 0x02	; 2
    2f3a:	80 81       	ld	r24, Z
    2f3c:	91 81       	ldd	r25, Z+1	; 0x01
    2f3e:	a2 81       	ldd	r26, Z+2	; 0x02
    2f40:	b3 81       	ldd	r27, Z+3	; 0x03
    2f42:	80 93 41 08 	sts	0x0841, r24
    2f46:	90 93 42 08 	sts	0x0842, r25
    2f4a:	a0 93 43 08 	sts	0x0843, r26
    2f4e:	b0 93 44 08 	sts	0x0844, r27
    2f52:	80 91 24 02 	lds	r24, 0x0224
    2f56:	90 91 25 02 	lds	r25, 0x0225
    2f5a:	a0 91 26 02 	lds	r26, 0x0226
    2f5e:	b0 91 27 02 	lds	r27, 0x0227
    2f62:	80 93 3d 08 	sts	0x083D, r24
    2f66:	90 93 3e 08 	sts	0x083E, r25
    2f6a:	a0 93 3f 08 	sts	0x083F, r26
    2f6e:	b0 93 40 08 	sts	0x0840, r27
    2f72:	f5 01       	movw	r30, r10
    2f74:	64 81       	ldd	r22, Z+4	; 0x04
    2f76:	75 81       	ldd	r23, Z+5	; 0x05
    2f78:	85 e4       	ldi	r24, 0x45	; 69
    2f7a:	98 e0       	ldi	r25, 0x08	; 8
    2f7c:	0e 94 87 21 	call	0x430e	; 0x430e <memcpy>
    2f80:	d5 01       	movw	r26, r10
    2f82:	13 96       	adiw	r26, 0x03	; 3
    2f84:	8c 91       	ld	r24, X
    2f86:	80 93 3a 08 	sts	0x083A, r24
    2f8a:	10 92 3c 08 	sts	0x083C, r1
    2f8e:	10 92 3b 08 	sts	0x083B, r1
    2f92:	e1 e3       	ldi	r30, 0x31	; 49
    2f94:	f8 e0       	ldi	r31, 0x08	; 8
    2f96:	40 e0       	ldi	r20, 0x00	; 0
    2f98:	50 e0       	ldi	r21, 0x00	; 0
    2f9a:	ba 01       	movw	r22, r20
    2f9c:	81 91       	ld	r24, Z+
    2f9e:	91 91       	ld	r25, Z+
    2fa0:	48 0f       	add	r20, r24
    2fa2:	59 1f       	adc	r21, r25
    2fa4:	61 1d       	adc	r22, r1
    2fa6:	71 1d       	adc	r23, r1
    2fa8:	a8 e0       	ldi	r26, 0x08	; 8
    2faa:	e5 34       	cpi	r30, 0x45	; 69
    2fac:	fa 07       	cpc	r31, r26
    2fae:	b1 f7       	brne	.-20     	; 0x2f9c <__stack+0xd9d>
    2fb0:	cb 01       	movw	r24, r22
    2fb2:	aa 27       	eor	r26, r26
    2fb4:	bb 27       	eor	r27, r27
    2fb6:	00 97       	sbiw	r24, 0x00	; 0
    2fb8:	a1 05       	cpc	r26, r1
    2fba:	b1 05       	cpc	r27, r1
    2fbc:	39 f0       	breq	.+14     	; 0x2fcc <__stack+0xdcd>
    2fbe:	66 27       	eor	r22, r22
    2fc0:	77 27       	eor	r23, r23
    2fc2:	48 0f       	add	r20, r24
    2fc4:	59 1f       	adc	r21, r25
    2fc6:	6a 1f       	adc	r22, r26
    2fc8:	7b 1f       	adc	r23, r27
    2fca:	f2 cf       	rjmp	.-28     	; 0x2fb0 <__stack+0xdb1>
    2fcc:	40 95       	com	r20
    2fce:	50 95       	com	r21
    2fd0:	60 95       	com	r22
    2fd2:	70 95       	com	r23
    2fd4:	50 93 3c 08 	sts	0x083C, r21
    2fd8:	40 93 3b 08 	sts	0x083B, r20
    2fdc:	80 91 1c 02 	lds	r24, 0x021C
    2fe0:	90 91 1d 02 	lds	r25, 0x021D
    2fe4:	a0 91 1e 02 	lds	r26, 0x021E
    2fe8:	b0 91 1f 02 	lds	r27, 0x021F
    2fec:	80 90 41 08 	lds	r8, 0x0841
    2ff0:	90 90 42 08 	lds	r9, 0x0842
    2ff4:	a0 90 43 08 	lds	r10, 0x0843
    2ff8:	b0 90 44 08 	lds	r11, 0x0844
    2ffc:	40 91 3d 08 	lds	r20, 0x083D
    3000:	50 91 3e 08 	lds	r21, 0x083E
    3004:	60 91 3f 08 	lds	r22, 0x083F
    3008:	70 91 40 08 	lds	r23, 0x0840
    300c:	48 25       	eor	r20, r8
    300e:	59 25       	eor	r21, r9
    3010:	6a 25       	eor	r22, r10
    3012:	7b 25       	eor	r23, r11
    3014:	48 23       	and	r20, r24
    3016:	59 23       	and	r21, r25
    3018:	6a 23       	and	r22, r26
    301a:	7b 23       	and	r23, r27
    301c:	45 2b       	or	r20, r21
    301e:	46 2b       	or	r20, r22
    3020:	47 2b       	or	r20, r23
    3022:	19 f4       	brne	.+6      	; 0x302a <__stack+0xe2b>
    3024:	e1 e4       	ldi	r30, 0x41	; 65
    3026:	f8 e0       	ldi	r31, 0x08	; 8
    3028:	02 c0       	rjmp	.+4      	; 0x302e <__stack+0xe2f>
    302a:	e0 e2       	ldi	r30, 0x20	; 32
    302c:	f2 e0       	ldi	r31, 0x02	; 2
    302e:	40 81       	ld	r20, Z
    3030:	51 81       	ldd	r21, Z+1	; 0x01
    3032:	62 81       	ldd	r22, Z+2	; 0x02
    3034:	73 81       	ldd	r23, Z+3	; 0x03
    3036:	80 95       	com	r24
    3038:	90 95       	com	r25
    303a:	a0 95       	com	r26
    303c:	b0 95       	com	r27
    303e:	4c 01       	movw	r8, r24
    3040:	5d 01       	movw	r10, r26
    3042:	84 22       	and	r8, r20
    3044:	95 22       	and	r9, r21
    3046:	a6 22       	and	r10, r22
    3048:	b7 22       	and	r11, r23
    304a:	88 16       	cp	r8, r24
    304c:	99 06       	cpc	r9, r25
    304e:	aa 06       	cpc	r10, r26
    3050:	bb 06       	cpc	r11, r27
    3052:	19 f4       	brne	.+6      	; 0x305a <__stack+0xe5b>
    3054:	80 e0       	ldi	r24, 0x00	; 0
    3056:	92 e0       	ldi	r25, 0x02	; 2
    3058:	30 c0       	rjmp	.+96     	; 0x30ba <__stack+0xebb>
    305a:	b0 90 67 03 	lds	r11, 0x0367
    305e:	34 e0       	ldi	r19, 0x04	; 4
    3060:	c3 2e       	mov	r12, r19
    3062:	aa e0       	ldi	r26, 0x0A	; 10
    3064:	aa 2e       	mov	r10, r26
    3066:	8b 2d       	mov	r24, r11
    3068:	90 e0       	ldi	r25, 0x00	; 0
    306a:	a8 9e       	mul	r10, r24
    306c:	90 01       	movw	r18, r0
    306e:	a9 9e       	mul	r10, r25
    3070:	30 0d       	add	r19, r0
    3072:	11 24       	eor	r1, r1
    3074:	d9 01       	movw	r26, r18
    3076:	a3 54       	subi	r26, 0x43	; 67
    3078:	bc 4e       	sbci	r27, 0xEC	; 236
    307a:	4d 90       	ld	r4, X+
    307c:	5d 90       	ld	r5, X+
    307e:	6d 90       	ld	r6, X+
    3080:	7c 90       	ld	r7, X
    3082:	44 16       	cp	r4, r20
    3084:	55 06       	cpc	r5, r21
    3086:	66 06       	cpc	r6, r22
    3088:	77 06       	cpc	r7, r23
    308a:	31 f4       	brne	.+12     	; 0x3098 <__stack+0xe99>
    308c:	b0 92 67 03 	sts	0x0367, r11
    3090:	c9 01       	movw	r24, r18
    3092:	8f 53       	subi	r24, 0x3F	; 63
    3094:	9c 4e       	sbci	r25, 0xEC	; 236
    3096:	0b c0       	rjmp	.+22     	; 0x30ae <__stack+0xeaf>
    3098:	01 96       	adiw	r24, 0x01	; 1
    309a:	83 70       	andi	r24, 0x03	; 3
    309c:	99 27       	eor	r25, r25
    309e:	b8 2e       	mov	r11, r24
    30a0:	ca 94       	dec	r12
    30a2:	c1 10       	cpse	r12, r1
    30a4:	e0 cf       	rjmp	.-64     	; 0x3066 <__stack+0xe67>
    30a6:	80 93 67 03 	sts	0x0367, r24
    30aa:	80 e0       	ldi	r24, 0x00	; 0
    30ac:	90 e0       	ldi	r25, 0x00	; 0
    30ae:	90 93 6d 03 	sts	0x036D, r25
    30b2:	80 93 6c 03 	sts	0x036C, r24
    30b6:	00 97       	sbiw	r24, 0x00	; 0
    30b8:	19 f0       	breq	.+6      	; 0x30c0 <__stack+0xec1>
    30ba:	0e 94 b2 06 	call	0xd64	; 0xd64 <IpTransceiverP__Arp__resolved>
    30be:	14 c0       	rjmp	.+40     	; 0x30e8 <__stack+0xee9>
    30c0:	80 91 64 03 	lds	r24, 0x0364
    30c4:	81 11       	cpse	r24, r1
    30c6:	14 c0       	rjmp	.+40     	; 0x30f0 <__stack+0xef1>
    30c8:	80 81       	ld	r24, Z
    30ca:	91 81       	ldd	r25, Z+1	; 0x01
    30cc:	a2 81       	ldd	r26, Z+2	; 0x02
    30ce:	b3 81       	ldd	r27, Z+3	; 0x03
    30d0:	80 93 b6 13 	sts	0x13B6, r24
    30d4:	90 93 b7 13 	sts	0x13B7, r25
    30d8:	a0 93 b8 13 	sts	0x13B8, r26
    30dc:	b0 93 b9 13 	sts	0x13B9, r27
    30e0:	10 92 65 03 	sts	0x0365, r1
    30e4:	0e 94 69 08 	call	0x10d2	; 0x10d2 <ArpP__sendRequest>
    30e8:	81 e0       	ldi	r24, 0x01	; 1
    30ea:	80 93 60 03 	sts	0x0360, r24
    30ee:	17 c1       	rjmp	.+558    	; 0x331e <__stack+0x111f>
    30f0:	f7 01       	movw	r30, r14
    30f2:	e3 5b       	subi	r30, 0xB3	; 179
    30f4:	f5 4f       	sbci	r31, 0xF5	; 245
    30f6:	10 82       	st	Z, r1
    30f8:	8d 2d       	mov	r24, r13
    30fa:	0e 94 2c 05 	call	0xa58	; 0xa58 <IpQueueP__IpQueue__sendDone.isra.86>
    30fe:	0f c1       	rjmp	.+542    	; 0x331e <__stack+0x111f>
    3100:	e0 91 5f 03 	lds	r30, 0x035F
    3104:	ce 2e       	mov	r12, r30
    3106:	d1 2c       	mov	r13, r1
    3108:	bb e0       	ldi	r27, 0x0B	; 11
    310a:	eb 9f       	mul	r30, r27
    310c:	f0 01       	movw	r30, r0
    310e:	11 24       	eor	r1, r1
    3110:	e5 5b       	subi	r30, 0xB5	; 181
    3112:	f2 4f       	sbci	r31, 0xF2	; 242
    3114:	41 85       	ldd	r20, Z+9	; 0x09
    3116:	52 85       	ldd	r21, Z+10	; 0x0a
    3118:	7a 01       	movw	r14, r20
    311a:	24 e0       	ldi	r18, 0x04	; 4
    311c:	e2 0e       	add	r14, r18
    311e:	f1 1c       	adc	r15, r1
    3120:	85 81       	ldd	r24, Z+5	; 0x05
    3122:	80 93 6c 0a 	sts	0x0A6C, r24
    3126:	86 81       	ldd	r24, Z+6	; 0x06
    3128:	80 93 6d 0a 	sts	0x0A6D, r24
    312c:	67 81       	ldd	r22, Z+7	; 0x07
    312e:	70 85       	ldd	r23, Z+8	; 0x08
    3130:	80 e7       	ldi	r24, 0x70	; 112
    3132:	9a e0       	ldi	r25, 0x0A	; 10
    3134:	0e 94 87 21 	call	0x430e	; 0x430e <memcpy>
    3138:	10 92 6f 0a 	sts	0x0A6F, r1
    313c:	10 92 6e 0a 	sts	0x0A6E, r1
    3140:	a7 01       	movw	r20, r14
    3142:	56 95       	lsr	r21
    3144:	47 95       	ror	r20
    3146:	ec e6       	ldi	r30, 0x6C	; 108
    3148:	fa e0       	ldi	r31, 0x0A	; 10
    314a:	20 e0       	ldi	r18, 0x00	; 0
    314c:	30 e0       	ldi	r19, 0x00	; 0
    314e:	80 e0       	ldi	r24, 0x00	; 0
    3150:	90 e0       	ldi	r25, 0x00	; 0
    3152:	dc 01       	movw	r26, r24
    3154:	24 17       	cp	r18, r20
    3156:	35 07       	cpc	r19, r21
    3158:	49 f0       	breq	.+18     	; 0x316c <__stack+0xf6d>
    315a:	61 91       	ld	r22, Z+
    315c:	71 91       	ld	r23, Z+
    315e:	86 0f       	add	r24, r22
    3160:	97 1f       	adc	r25, r23
    3162:	a1 1d       	adc	r26, r1
    3164:	b1 1d       	adc	r27, r1
    3166:	2f 5f       	subi	r18, 0xFF	; 255
    3168:	3f 4f       	sbci	r19, 0xFF	; 255
    316a:	f4 cf       	rjmp	.-24     	; 0x3154 <__stack+0xf55>
    316c:	ad 01       	movw	r20, r26
    316e:	66 27       	eor	r22, r22
    3170:	77 27       	eor	r23, r23
    3172:	41 15       	cp	r20, r1
    3174:	51 05       	cpc	r21, r1
    3176:	61 05       	cpc	r22, r1
    3178:	71 05       	cpc	r23, r1
    317a:	39 f0       	breq	.+14     	; 0x318a <__stack+0xf8b>
    317c:	aa 27       	eor	r26, r26
    317e:	bb 27       	eor	r27, r27
    3180:	84 0f       	add	r24, r20
    3182:	95 1f       	adc	r25, r21
    3184:	a6 1f       	adc	r26, r22
    3186:	b7 1f       	adc	r27, r23
    3188:	f1 cf       	rjmp	.-30     	; 0x316c <__stack+0xf6d>
    318a:	80 95       	com	r24
    318c:	90 95       	com	r25
    318e:	a0 95       	com	r26
    3190:	b0 95       	com	r27
    3192:	90 93 6f 0a 	sts	0x0A6F, r25
    3196:	80 93 6e 0a 	sts	0x0A6E, r24
    319a:	80 91 4d 0a 	lds	r24, 0x0A4D
    319e:	81 11       	cpse	r24, r1
    31a0:	26 c0       	rjmp	.+76     	; 0x31ee <__stack+0xfef>
    31a2:	8e e4       	ldi	r24, 0x4E	; 78
    31a4:	9a e0       	ldi	r25, 0x0A	; 10
    31a6:	89 2b       	or	r24, r25
    31a8:	11 f1       	breq	.+68     	; 0x31ee <__stack+0xfef>
    31aa:	2b e0       	ldi	r18, 0x0B	; 11
    31ac:	2c 9d       	mul	r18, r12
    31ae:	c0 01       	movw	r24, r0
    31b0:	2d 9d       	mul	r18, r13
    31b2:	90 0d       	add	r25, r0
    31b4:	11 24       	eor	r1, r1
    31b6:	84 5b       	subi	r24, 0xB4	; 180
    31b8:	92 4f       	sbci	r25, 0xF2	; 242
    31ba:	90 93 4f 0a 	sts	0x0A4F, r25
    31be:	80 93 4e 0a 	sts	0x0A4E, r24
    31c2:	dd 24       	eor	r13, r13
    31c4:	d3 94       	inc	r13
    31c6:	d0 92 50 0a 	sts	0x0A50, r13
    31ca:	8c e6       	ldi	r24, 0x6C	; 108
    31cc:	9a e0       	ldi	r25, 0x0A	; 10
    31ce:	90 93 52 0a 	sts	0x0A52, r25
    31d2:	80 93 51 0a 	sts	0x0A51, r24
    31d6:	f0 92 54 0a 	sts	0x0A54, r15
    31da:	e0 92 53 0a 	sts	0x0A53, r14
    31de:	d0 92 4d 0a 	sts	0x0A4D, r13
    31e2:	8e e0       	ldi	r24, 0x0E	; 14
    31e4:	0e 94 49 02 	call	0x492	; 0x492 <SchedulerBasicP__TaskBasic__postTask>
    31e8:	d0 92 5e 03 	sts	0x035E, r13
    31ec:	98 c0       	rjmp	.+304    	; 0x331e <__stack+0x111f>
    31ee:	8b e0       	ldi	r24, 0x0B	; 11
    31f0:	8c 9d       	mul	r24, r12
    31f2:	f0 01       	movw	r30, r0
    31f4:	8d 9d       	mul	r24, r13
    31f6:	f0 0d       	add	r31, r0
    31f8:	11 24       	eor	r1, r1
    31fa:	e5 5b       	subi	r30, 0xB5	; 181
    31fc:	f2 4f       	sbci	r31, 0xF2	; 242
    31fe:	10 82       	st	Z, r1
    3200:	8e c0       	rjmp	.+284    	; 0x331e <__stack+0x111f>
    3202:	8c b5       	in	r24, 0x2c	; 44
    3204:	8f 7b       	andi	r24, 0xBF	; 191
    3206:	8c bd       	out	0x2c, r24	; 44
    3208:	94 c8       	rjmp	.-3800   	; 0x2332 <__stack+0x133>
    320a:	90 91 0f 0b 	lds	r25, 0x0B0F
    320e:	80 91 10 0b 	lds	r24, 0x0B10
    3212:	90 93 18 0b 	sts	0x0B18, r25
    3216:	80 93 17 0b 	sts	0x0B17, r24
    321a:	90 91 11 0b 	lds	r25, 0x0B11
    321e:	80 91 12 0b 	lds	r24, 0x0B12
    3222:	90 93 1a 0b 	sts	0x0B1A, r25
    3226:	80 93 19 0b 	sts	0x0B19, r24
    322a:	40 91 15 0b 	lds	r20, 0x0B15
    322e:	50 91 16 0b 	lds	r21, 0x0B16
    3232:	7a 01       	movw	r14, r20
    3234:	88 e0       	ldi	r24, 0x08	; 8
    3236:	e8 0e       	add	r14, r24
    3238:	f1 1c       	adc	r15, r1
    323a:	e0 92 1c 0b 	sts	0x0B1C, r14
    323e:	f0 92 1b 0b 	sts	0x0B1B, r15
    3242:	60 91 13 0b 	lds	r22, 0x0B13
    3246:	70 91 14 0b 	lds	r23, 0x0B14
    324a:	8f e1       	ldi	r24, 0x1F	; 31
    324c:	9b e0       	ldi	r25, 0x0B	; 11
    324e:	0e 94 87 21 	call	0x430e	; 0x430e <memcpy>
    3252:	80 91 55 0a 	lds	r24, 0x0A55
    3256:	81 11       	cpse	r24, r1
    3258:	1f c0       	rjmp	.+62     	; 0x3298 <__stack+0x1099>
    325a:	86 e5       	ldi	r24, 0x56	; 86
    325c:	9a e0       	ldi	r25, 0x0A	; 10
    325e:	89 2b       	or	r24, r25
    3260:	d9 f0       	breq	.+54     	; 0x3298 <__stack+0x1099>
    3262:	8b e0       	ldi	r24, 0x0B	; 11
    3264:	9b e0       	ldi	r25, 0x0B	; 11
    3266:	90 93 57 0a 	sts	0x0A57, r25
    326a:	80 93 56 0a 	sts	0x0A56, r24
    326e:	81 e1       	ldi	r24, 0x11	; 17
    3270:	80 93 58 0a 	sts	0x0A58, r24
    3274:	87 e1       	ldi	r24, 0x17	; 23
    3276:	9b e0       	ldi	r25, 0x0B	; 11
    3278:	90 93 5a 0a 	sts	0x0A5A, r25
    327c:	80 93 59 0a 	sts	0x0A59, r24
    3280:	f0 92 5c 0a 	sts	0x0A5C, r15
    3284:	e0 92 5b 0a 	sts	0x0A5B, r14
    3288:	d0 92 55 0a 	sts	0x0A55, r13
    328c:	8e e0       	ldi	r24, 0x0E	; 14
    328e:	0e 94 49 02 	call	0x492	; 0x492 <SchedulerBasicP__TaskBasic__postTask>
    3292:	d0 92 57 03 	sts	0x0357, r13
    3296:	43 c0       	rjmp	.+134    	; 0x331e <__stack+0x111f>
    3298:	10 92 0a 0b 	sts	0x0B0A, r1
    329c:	0e 94 b4 04 	call	0x968	; 0x968 <DatabaseP__UdpSend__sendDone.isra.65>
    32a0:	3e c0       	rjmp	.+124    	; 0x331e <__stack+0x111f>
    32a2:	60 91 4d 03 	lds	r22, 0x034D
    32a6:	70 e0       	ldi	r23, 0x00	; 0
    32a8:	cb 01       	movw	r24, r22
    32aa:	01 96       	adiw	r24, 0x01	; 1
    32ac:	a1 e0       	ldi	r26, 0x01	; 1
    32ae:	b0 e0       	ldi	r27, 0x00	; 0
    32b0:	81 30       	cpi	r24, 0x01	; 1
    32b2:	91 05       	cpc	r25, r1
    32b4:	11 f4       	brne	.+4      	; 0x32ba <__stack+0x10bb>
    32b6:	80 e0       	ldi	r24, 0x00	; 0
    32b8:	90 e0       	ldi	r25, 0x00	; 0
    32ba:	e8 2f       	mov	r30, r24
    32bc:	e6 95       	lsr	r30
    32be:	e6 95       	lsr	r30
    32c0:	e6 95       	lsr	r30
    32c2:	f0 e0       	ldi	r31, 0x00	; 0
    32c4:	e1 5e       	subi	r30, 0xE1	; 225
    32c6:	f2 4f       	sbci	r31, 0xF2	; 242
    32c8:	20 81       	ld	r18, Z
    32ca:	38 2f       	mov	r19, r24
    32cc:	37 70       	andi	r19, 0x07	; 7
    32ce:	ad 01       	movw	r20, r26
    32d0:	01 c0       	rjmp	.+2      	; 0x32d4 <__stack+0x10d5>
    32d2:	44 0f       	add	r20, r20
    32d4:	3a 95       	dec	r19
    32d6:	ea f7       	brpl	.-6      	; 0x32d2 <__stack+0x10d3>
    32d8:	32 2f       	mov	r19, r18
    32da:	34 23       	and	r19, r20
    32dc:	31 f0       	breq	.+12     	; 0x32ea <__stack+0x10eb>
    32de:	40 95       	com	r20
    32e0:	24 23       	and	r18, r20
    32e2:	20 83       	st	Z, r18
    32e4:	80 93 4d 03 	sts	0x034D, r24
    32e8:	06 c0       	rjmp	.+12     	; 0x32f6 <__stack+0x10f7>
    32ea:	86 17       	cp	r24, r22
    32ec:	97 07       	cpc	r25, r23
    32ee:	11 f0       	breq	.+4      	; 0x32f4 <__stack+0x10f5>
    32f0:	01 96       	adiw	r24, 0x01	; 1
    32f2:	de cf       	rjmp	.-68     	; 0x32b0 <__stack+0x10b1>
    32f4:	8f ef       	ldi	r24, 0xFF	; 255
    32f6:	80 93 61 0a 	sts	0x0A61, r24
    32fa:	8f ef       	ldi	r24, 0xFF	; 255
    32fc:	80 93 0c 02 	sts	0x020C, r24
    3300:	81 e0       	ldi	r24, 0x01	; 1
    3302:	80 93 4c 03 	sts	0x034C, r24
    3306:	8a e1       	ldi	r24, 0x1A	; 26
    3308:	0e 94 49 02 	call	0x492	; 0x492 <SchedulerBasicP__TaskBasic__postTask>
    330c:	df cb       	rjmp	.-2114   	; 0x2acc <__stack+0x8cd>
    330e:	2f b7       	in	r18, 0x3f	; 63
    3310:	f8 94       	cli
    3312:	80 91 a7 05 	lds	r24, 0x05A7
    3316:	90 91 a8 05 	lds	r25, 0x05A8
    331a:	9d 7f       	andi	r25, 0xFD	; 253
    331c:	cd c9       	rjmp	.-3174   	; 0x26b8 <__stack+0x4b9>
    331e:	0f b6       	in	r0, 0x3f	; 63
    3320:	f8 94       	cli
    3322:	1e bf       	out	0x3e, r17	; 62
    3324:	0f be       	out	0x3f, r0	; 63
    3326:	0d bf       	out	0x3d, r16	; 61
    3328:	cb 5a       	subi	r28, 0xAB	; 171
    332a:	df 4f       	sbci	r29, 0xFF	; 255
    332c:	0f b6       	in	r0, 0x3f	; 63
    332e:	f8 94       	cli
    3330:	de bf       	out	0x3e, r29	; 62
    3332:	0f be       	out	0x3f, r0	; 63
    3334:	cd bf       	out	0x3d, r28	; 61
    3336:	df 91       	pop	r29
    3338:	cf 91       	pop	r28
    333a:	1f 91       	pop	r17
    333c:	0f 91       	pop	r16
    333e:	ff 90       	pop	r15
    3340:	ef 90       	pop	r14
    3342:	df 90       	pop	r13
    3344:	cf 90       	pop	r12
    3346:	bf 90       	pop	r11
    3348:	af 90       	pop	r10
    334a:	9f 90       	pop	r9
    334c:	8f 90       	pop	r8
    334e:	7f 90       	pop	r7
    3350:	6f 90       	pop	r6
    3352:	5f 90       	pop	r5
    3354:	4f 90       	pop	r4
    3356:	3f 90       	pop	r3
    3358:	08 95       	ret

0000335a <__nesc_atomic_start>:
    335a:	8f b7       	in	r24, 0x3f	; 63
    335c:	f8 94       	cli
    335e:	08 95       	ret

00003360 <__nesc_atomic_end>:
    3360:	8f bf       	out	0x3f, r24	; 63
    3362:	08 95       	ret

00003364 <__vector_13>:
    3364:	1f 92       	push	r1
    3366:	0f 92       	push	r0
    3368:	0f b6       	in	r0, 0x3f	; 63
    336a:	0f 92       	push	r0
    336c:	11 24       	eor	r1, r1
    336e:	0b b6       	in	r0, 0x3b	; 59
    3370:	0f 92       	push	r0
    3372:	2f 93       	push	r18
    3374:	3f 93       	push	r19
    3376:	4f 93       	push	r20
    3378:	5f 93       	push	r21
    337a:	6f 93       	push	r22
    337c:	7f 93       	push	r23
    337e:	8f 93       	push	r24
    3380:	9f 93       	push	r25
    3382:	af 93       	push	r26
    3384:	bf 93       	push	r27
    3386:	ef 93       	push	r30
    3388:	ff 93       	push	r31
    338a:	2f b7       	in	r18, 0x3f	; 63
    338c:	f8 94       	cli
    338e:	80 91 5d 0a 	lds	r24, 0x0A5D
    3392:	90 91 5e 0a 	lds	r25, 0x0A5E
    3396:	a0 91 5f 0a 	lds	r26, 0x0A5F
    339a:	b0 91 60 0a 	lds	r27, 0x0A60
    339e:	01 96       	adiw	r24, 0x01	; 1
    33a0:	a1 1d       	adc	r26, r1
    33a2:	b1 1d       	adc	r27, r1
    33a4:	80 93 5d 0a 	sts	0x0A5D, r24
    33a8:	90 93 5e 0a 	sts	0x0A5E, r25
    33ac:	a0 93 5f 0a 	sts	0x0A5F, r26
    33b0:	b0 93 60 0a 	sts	0x0A60, r27
    33b4:	2f bf       	out	0x3f, r18	; 63
    33b6:	78 94       	sei
    33b8:	0e 94 8d 03 	call	0x71a	; 0x71a <Atm1280AlarmSyncP__0__checkAlarm>
    33bc:	ff 91       	pop	r31
    33be:	ef 91       	pop	r30
    33c0:	bf 91       	pop	r27
    33c2:	af 91       	pop	r26
    33c4:	9f 91       	pop	r25
    33c6:	8f 91       	pop	r24
    33c8:	7f 91       	pop	r23
    33ca:	6f 91       	pop	r22
    33cc:	5f 91       	pop	r21
    33ce:	4f 91       	pop	r20
    33d0:	3f 91       	pop	r19
    33d2:	2f 91       	pop	r18
    33d4:	0f 90       	pop	r0
    33d6:	0b be       	out	0x3b, r0	; 59
    33d8:	0f 90       	pop	r0
    33da:	0f be       	out	0x3f, r0	; 63
    33dc:	0f 90       	pop	r0
    33de:	1f 90       	pop	r1
    33e0:	18 95       	reti

000033e2 <__vector_15>:
    33e2:	1f 92       	push	r1
    33e4:	0f 92       	push	r0
    33e6:	0f b6       	in	r0, 0x3f	; 63
    33e8:	0f 92       	push	r0
    33ea:	11 24       	eor	r1, r1
    33ec:	0f 90       	pop	r0
    33ee:	0f be       	out	0x3f, r0	; 63
    33f0:	0f 90       	pop	r0
    33f2:	1f 90       	pop	r1
    33f4:	18 95       	reti

000033f6 <__vector_24>:
    33f6:	1f 92       	push	r1
    33f8:	0f 92       	push	r0
    33fa:	0f b6       	in	r0, 0x3f	; 63
    33fc:	0f 92       	push	r0
    33fe:	11 24       	eor	r1, r1
    3400:	0b b6       	in	r0, 0x3b	; 59
    3402:	0f 92       	push	r0
    3404:	cf 92       	push	r12
    3406:	df 92       	push	r13
    3408:	ef 92       	push	r14
    340a:	ff 92       	push	r15
    340c:	0f 93       	push	r16
    340e:	1f 93       	push	r17
    3410:	2f 93       	push	r18
    3412:	3f 93       	push	r19
    3414:	4f 93       	push	r20
    3416:	5f 93       	push	r21
    3418:	6f 93       	push	r22
    341a:	7f 93       	push	r23
    341c:	8f 93       	push	r24
    341e:	9f 93       	push	r25
    3420:	af 93       	push	r26
    3422:	bf 93       	push	r27
    3424:	cf 93       	push	r28
    3426:	df 93       	push	r29
    3428:	ef 93       	push	r30
    342a:	ff 93       	push	r31
    342c:	2e b5       	in	r18, 0x2e	; 46
    342e:	e0 91 76 03 	lds	r30, 0x0376
    3432:	f0 91 77 03 	lds	r31, 0x0377
    3436:	30 97       	sbiw	r30, 0x00	; 0
    3438:	39 f0       	breq	.+14     	; 0x3448 <__vector_24+0x52>
    343a:	80 91 66 0a 	lds	r24, 0x0A66
    343e:	90 91 67 0a 	lds	r25, 0x0A67
    3442:	e8 0f       	add	r30, r24
    3444:	f9 1f       	adc	r31, r25
    3446:	20 83       	st	Z, r18
    3448:	80 91 66 0a 	lds	r24, 0x0A66
    344c:	90 91 67 0a 	lds	r25, 0x0A67
    3450:	01 96       	adiw	r24, 0x01	; 1
    3452:	90 93 67 0a 	sts	0x0A67, r25
    3456:	80 93 66 0a 	sts	0x0A66, r24
    345a:	8c b5       	in	r24, 0x2c	; 44
    345c:	8f 77       	andi	r24, 0x7F	; 127
    345e:	8c bd       	out	0x2c, r24	; 44
    3460:	c0 91 66 0a 	lds	r28, 0x0A66
    3464:	d0 91 67 0a 	lds	r29, 0x0A67
    3468:	20 91 b0 13 	lds	r18, 0x13B0
    346c:	30 91 b1 13 	lds	r19, 0x13B1
    3470:	c2 17       	cp	r28, r18
    3472:	d3 07       	cpc	r29, r19
    3474:	d8 f5       	brcc	.+118    	; 0x34ec <__vector_24+0xf6>
    3476:	00 91 28 08 	lds	r16, 0x0828
    347a:	10 91 29 08 	lds	r17, 0x0829
    347e:	c0 90 76 03 	lds	r12, 0x0376
    3482:	d0 90 77 03 	lds	r13, 0x0377
    3486:	ce 01       	movw	r24, r28
    3488:	0a 96       	adiw	r24, 0x0a	; 10
    348a:	28 17       	cp	r18, r24
    348c:	39 07       	cpc	r19, r25
    348e:	08 f4       	brcc	.+2      	; 0x3492 <__vector_24+0x9c>
    3490:	c9 01       	movw	r24, r18
    3492:	7c 01       	movw	r14, r24
    3494:	21 e0       	ldi	r18, 0x01	; 1
    3496:	e2 1a       	sub	r14, r18
    3498:	f1 08       	sbc	r15, r1
    349a:	ce 15       	cp	r28, r14
    349c:	df 05       	cpc	r29, r15
    349e:	a0 f4       	brcc	.+40     	; 0x34c8 <__vector_24+0xd2>
    34a0:	01 15       	cp	r16, r1
    34a2:	11 05       	cpc	r17, r1
    34a4:	29 f0       	breq	.+10     	; 0x34b0 <__vector_24+0xba>
    34a6:	f8 01       	movw	r30, r16
    34a8:	ec 0f       	add	r30, r28
    34aa:	fd 1f       	adc	r31, r29
    34ac:	80 81       	ld	r24, Z
    34ae:	01 c0       	rjmp	.+2      	; 0x34b2 <__vector_24+0xbc>
    34b0:	80 e0       	ldi	r24, 0x00	; 0
    34b2:	0e 94 bc 02 	call	0x578	; 0x578 <Atm1280SpiP__SpiByte__write>
    34b6:	c1 14       	cp	r12, r1
    34b8:	d1 04       	cpc	r13, r1
    34ba:	21 f0       	breq	.+8      	; 0x34c4 <__vector_24+0xce>
    34bc:	f6 01       	movw	r30, r12
    34be:	ec 0f       	add	r30, r28
    34c0:	fd 1f       	adc	r31, r29
    34c2:	80 83       	st	Z, r24
    34c4:	21 96       	adiw	r28, 0x01	; 1
    34c6:	e9 cf       	rjmp	.-46     	; 0x349a <__vector_24+0xa4>
    34c8:	8c b5       	in	r24, 0x2c	; 44
    34ca:	80 68       	ori	r24, 0x80	; 128
    34cc:	8c bd       	out	0x2c, r24	; 44
    34ce:	01 15       	cp	r16, r1
    34d0:	11 05       	cpc	r17, r1
    34d2:	31 f0       	breq	.+12     	; 0x34e0 <__vector_24+0xea>
    34d4:	f8 01       	movw	r30, r16
    34d6:	ec 0f       	add	r30, r28
    34d8:	fd 1f       	adc	r31, r29
    34da:	80 81       	ld	r24, Z
    34dc:	8e bd       	out	0x2e, r24	; 46
    34de:	01 c0       	rjmp	.+2      	; 0x34e2 <__vector_24+0xec>
    34e0:	1e bc       	out	0x2e, r1	; 46
    34e2:	d0 93 67 0a 	sts	0x0A67, r29
    34e6:	c0 93 66 0a 	sts	0x0A66, r28
    34ea:	11 c0       	rjmp	.+34     	; 0x350e <__vector_24+0x118>
    34ec:	10 92 77 03 	sts	0x0377, r1
    34f0:	10 92 76 03 	sts	0x0376, r1
    34f4:	10 92 29 08 	sts	0x0829, r1
    34f8:	10 92 28 08 	sts	0x0828, r1
    34fc:	10 92 b1 13 	sts	0x13B1, r1
    3500:	10 92 b0 13 	sts	0x13B0, r1
    3504:	10 92 67 0a 	sts	0x0A67, r1
    3508:	10 92 66 0a 	sts	0x0A66, r1
    350c:	8e b5       	in	r24, 0x2e	; 46
    350e:	ff 91       	pop	r31
    3510:	ef 91       	pop	r30
    3512:	df 91       	pop	r29
    3514:	cf 91       	pop	r28
    3516:	bf 91       	pop	r27
    3518:	af 91       	pop	r26
    351a:	9f 91       	pop	r25
    351c:	8f 91       	pop	r24
    351e:	7f 91       	pop	r23
    3520:	6f 91       	pop	r22
    3522:	5f 91       	pop	r21
    3524:	4f 91       	pop	r20
    3526:	3f 91       	pop	r19
    3528:	2f 91       	pop	r18
    352a:	1f 91       	pop	r17
    352c:	0f 91       	pop	r16
    352e:	ff 90       	pop	r15
    3530:	ef 90       	pop	r14
    3532:	df 90       	pop	r13
    3534:	cf 90       	pop	r12
    3536:	0f 90       	pop	r0
    3538:	0b be       	out	0x3b, r0	; 59
    353a:	0f 90       	pop	r0
    353c:	0f be       	out	0x3f, r0	; 63
    353e:	0f 90       	pop	r0
    3540:	1f 90       	pop	r1
    3542:	18 95       	reti

00003544 <__vector_1>:
    3544:	1f 92       	push	r1
    3546:	0f 92       	push	r0
    3548:	0f b6       	in	r0, 0x3f	; 63
    354a:	0f 92       	push	r0
    354c:	11 24       	eor	r1, r1
    354e:	0f 90       	pop	r0
    3550:	0f be       	out	0x3f, r0	; 63
    3552:	0f 90       	pop	r0
    3554:	1f 90       	pop	r1
    3556:	18 95       	reti

00003558 <__vector_2>:
    3558:	1f 92       	push	r1
    355a:	0f 92       	push	r0
    355c:	0f b6       	in	r0, 0x3f	; 63
    355e:	0f 92       	push	r0
    3560:	11 24       	eor	r1, r1
    3562:	0f 90       	pop	r0
    3564:	0f be       	out	0x3f, r0	; 63
    3566:	0f 90       	pop	r0
    3568:	1f 90       	pop	r1
    356a:	18 95       	reti

0000356c <__vector_3>:
    356c:	1f 92       	push	r1
    356e:	0f 92       	push	r0
    3570:	0f b6       	in	r0, 0x3f	; 63
    3572:	0f 92       	push	r0
    3574:	11 24       	eor	r1, r1
    3576:	0b b6       	in	r0, 0x3b	; 59
    3578:	0f 92       	push	r0
    357a:	2f 93       	push	r18
    357c:	3f 93       	push	r19
    357e:	4f 93       	push	r20
    3580:	5f 93       	push	r21
    3582:	6f 93       	push	r22
    3584:	7f 93       	push	r23
    3586:	8f 93       	push	r24
    3588:	9f 93       	push	r25
    358a:	af 93       	push	r26
    358c:	bf 93       	push	r27
    358e:	ef 93       	push	r30
    3590:	ff 93       	push	r31
    3592:	80 e1       	ldi	r24, 0x10	; 16
    3594:	0e 94 49 02 	call	0x492	; 0x492 <SchedulerBasicP__TaskBasic__postTask>
    3598:	ff 91       	pop	r31
    359a:	ef 91       	pop	r30
    359c:	bf 91       	pop	r27
    359e:	af 91       	pop	r26
    35a0:	9f 91       	pop	r25
    35a2:	8f 91       	pop	r24
    35a4:	7f 91       	pop	r23
    35a6:	6f 91       	pop	r22
    35a8:	5f 91       	pop	r21
    35aa:	4f 91       	pop	r20
    35ac:	3f 91       	pop	r19
    35ae:	2f 91       	pop	r18
    35b0:	0f 90       	pop	r0
    35b2:	0b be       	out	0x3b, r0	; 59
    35b4:	0f 90       	pop	r0
    35b6:	0f be       	out	0x3f, r0	; 63
    35b8:	0f 90       	pop	r0
    35ba:	1f 90       	pop	r1
    35bc:	18 95       	reti

000035be <__vector_4>:
    35be:	1f 92       	push	r1
    35c0:	0f 92       	push	r0
    35c2:	0f b6       	in	r0, 0x3f	; 63
    35c4:	0f 92       	push	r0
    35c6:	11 24       	eor	r1, r1
    35c8:	0b b6       	in	r0, 0x3b	; 59
    35ca:	0f 92       	push	r0
    35cc:	2f 93       	push	r18
    35ce:	3f 93       	push	r19
    35d0:	4f 93       	push	r20
    35d2:	5f 93       	push	r21
    35d4:	6f 93       	push	r22
    35d6:	7f 93       	push	r23
    35d8:	8f 93       	push	r24
    35da:	9f 93       	push	r25
    35dc:	af 93       	push	r26
    35de:	bf 93       	push	r27
    35e0:	ef 93       	push	r30
    35e2:	ff 93       	push	r31
    35e4:	80 91 52 13 	lds	r24, 0x1352
    35e8:	9e ef       	ldi	r25, 0xFE	; 254
    35ea:	98 0f       	add	r25, r24
    35ec:	92 30       	cpi	r25, 0x02	; 2
    35ee:	08 f4       	brcc	.+2      	; 0x35f2 <__vector_4+0x34>
    35f0:	eb 98       	cbi	0x1d, 3	; 29
    35f2:	83 30       	cpi	r24, 0x03	; 3
    35f4:	39 f0       	breq	.+14     	; 0x3604 <__vector_4+0x46>
    35f6:	85 30       	cpi	r24, 0x05	; 5
    35f8:	41 f0       	breq	.+16     	; 0x360a <__vector_4+0x4c>
    35fa:	82 30       	cpi	r24, 0x02	; 2
    35fc:	49 f4       	brne	.+18     	; 0x3610 <__vector_4+0x52>
    35fe:	0e 94 68 02 	call	0x4d0	; 0x4d0 <FMClickP__tune__postTask>
    3602:	06 c0       	rjmp	.+12     	; 0x3610 <__vector_4+0x52>
    3604:	0e 94 6b 02 	call	0x4d6	; 0x4d6 <FMClickP__seek__postTask>
    3608:	03 c0       	rjmp	.+6      	; 0x3610 <__vector_4+0x52>
    360a:	87 e1       	ldi	r24, 0x17	; 23
    360c:	0e 94 49 02 	call	0x492	; 0x492 <SchedulerBasicP__TaskBasic__postTask>
    3610:	ff 91       	pop	r31
    3612:	ef 91       	pop	r30
    3614:	bf 91       	pop	r27
    3616:	af 91       	pop	r26
    3618:	9f 91       	pop	r25
    361a:	8f 91       	pop	r24
    361c:	7f 91       	pop	r23
    361e:	6f 91       	pop	r22
    3620:	5f 91       	pop	r21
    3622:	4f 91       	pop	r20
    3624:	3f 91       	pop	r19
    3626:	2f 91       	pop	r18
    3628:	0f 90       	pop	r0
    362a:	0b be       	out	0x3b, r0	; 59
    362c:	0f 90       	pop	r0
    362e:	0f be       	out	0x3f, r0	; 63
    3630:	0f 90       	pop	r0
    3632:	1f 90       	pop	r1
    3634:	18 95       	reti

00003636 <__vector_5>:
    3636:	1f 92       	push	r1
    3638:	0f 92       	push	r0
    363a:	0f b6       	in	r0, 0x3f	; 63
    363c:	0f 92       	push	r0
    363e:	11 24       	eor	r1, r1
    3640:	0f 90       	pop	r0
    3642:	0f be       	out	0x3f, r0	; 63
    3644:	0f 90       	pop	r0
    3646:	1f 90       	pop	r1
    3648:	18 95       	reti

0000364a <__vector_6>:
    364a:	1f 92       	push	r1
    364c:	0f 92       	push	r0
    364e:	0f b6       	in	r0, 0x3f	; 63
    3650:	0f 92       	push	r0
    3652:	11 24       	eor	r1, r1
    3654:	0f 90       	pop	r0
    3656:	0f be       	out	0x3f, r0	; 63
    3658:	0f 90       	pop	r0
    365a:	1f 90       	pop	r1
    365c:	18 95       	reti

0000365e <__vector_7>:
    365e:	1f 92       	push	r1
    3660:	0f 92       	push	r0
    3662:	0f b6       	in	r0, 0x3f	; 63
    3664:	0f 92       	push	r0
    3666:	11 24       	eor	r1, r1
    3668:	0f 90       	pop	r0
    366a:	0f be       	out	0x3f, r0	; 63
    366c:	0f 90       	pop	r0
    366e:	1f 90       	pop	r1
    3670:	18 95       	reti

00003672 <__vector_8>:
    3672:	1f 92       	push	r1
    3674:	0f 92       	push	r0
    3676:	0f b6       	in	r0, 0x3f	; 63
    3678:	0f 92       	push	r0
    367a:	11 24       	eor	r1, r1
    367c:	0f 90       	pop	r0
    367e:	0f be       	out	0x3f, r0	; 63
    3680:	0f 90       	pop	r0
    3682:	1f 90       	pop	r1
    3684:	18 95       	reti

00003686 <__vector_39>:
    3686:	1f 92       	push	r1
    3688:	0f 92       	push	r0
    368a:	0f b6       	in	r0, 0x3f	; 63
    368c:	0f 92       	push	r0
    368e:	11 24       	eor	r1, r1
    3690:	0b b6       	in	r0, 0x3b	; 59
    3692:	0f 92       	push	r0
    3694:	2f 93       	push	r18
    3696:	3f 93       	push	r19
    3698:	4f 93       	push	r20
    369a:	5f 93       	push	r21
    369c:	6f 93       	push	r22
    369e:	7f 93       	push	r23
    36a0:	8f 93       	push	r24
    36a2:	9f 93       	push	r25
    36a4:	af 93       	push	r26
    36a6:	bf 93       	push	r27
    36a8:	ef 93       	push	r30
    36aa:	ff 93       	push	r31
    36ac:	0e 94 6e 02 	call	0x4dc	; 0x4dc <HplAtm128I2CBusP__I2C__readCurrent>
    36b0:	80 91 b9 00 	lds	r24, 0x00B9
    36b4:	98 2f       	mov	r25, r24
    36b6:	98 7f       	andi	r25, 0xF8	; 248
    36b8:	20 91 4f 03 	lds	r18, 0x034F
    36bc:	24 30       	cpi	r18, 0x04	; 4
    36be:	79 f1       	breq	.+94     	; 0x371e <__vector_39+0x98>
    36c0:	26 30       	cpi	r18, 0x06	; 6
    36c2:	21 f0       	breq	.+8      	; 0x36cc <__vector_39+0x46>
    36c4:	23 30       	cpi	r18, 0x03	; 3
    36c6:	09 f0       	breq	.+2      	; 0x36ca <__vector_39+0x44>
    36c8:	4d c0       	rjmp	.+154    	; 0x3764 <__vector_39+0xde>
    36ca:	13 c0       	rjmp	.+38     	; 0x36f2 <__vector_39+0x6c>
    36cc:	80 91 4e 03 	lds	r24, 0x034E
    36d0:	81 30       	cpi	r24, 0x01	; 1
    36d2:	49 f4       	brne	.+18     	; 0x36e6 <__vector_39+0x60>
    36d4:	90 34       	cpi	r25, 0x40	; 64
    36d6:	29 f4       	brne	.+10     	; 0x36e2 <__vector_39+0x5c>
    36d8:	83 e0       	ldi	r24, 0x03	; 3
    36da:	80 93 4f 03 	sts	0x034F, r24
    36de:	81 e0       	ldi	r24, 0x01	; 1
    36e0:	10 c0       	rjmp	.+32     	; 0x3702 <__vector_39+0x7c>
    36e2:	84 e0       	ldi	r24, 0x04	; 4
    36e4:	16 c0       	rjmp	.+44     	; 0x3712 <__vector_39+0x8c>
    36e6:	98 31       	cpi	r25, 0x18	; 24
    36e8:	e1 f7       	brne	.-8      	; 0x36e2 <__vector_39+0x5c>
    36ea:	83 e0       	ldi	r24, 0x03	; 3
    36ec:	80 93 4f 03 	sts	0x034F, r24
    36f0:	13 c0       	rjmp	.+38     	; 0x3718 <__vector_39+0x92>
    36f2:	20 91 4e 03 	lds	r18, 0x034E
    36f6:	21 30       	cpi	r18, 0x01	; 1
    36f8:	39 f4       	brne	.+14     	; 0x3708 <__vector_39+0x82>
    36fa:	80 7f       	andi	r24, 0xF0	; 240
    36fc:	80 35       	cpi	r24, 0x50	; 80
    36fe:	41 f4       	brne	.+16     	; 0x3710 <__vector_39+0x8a>
    3700:	80 e0       	ldi	r24, 0x00	; 0
    3702:	0e 94 51 06 	call	0xca2	; 0xca2 <Atm128I2CMasterPacketP__0__readNextByte>
    3706:	2e c0       	rjmp	.+92     	; 0x3764 <__vector_39+0xde>
    3708:	98 32       	cpi	r25, 0x28	; 40
    370a:	31 f0       	breq	.+12     	; 0x3718 <__vector_39+0x92>
    370c:	90 33       	cpi	r25, 0x30	; 48
    370e:	21 f0       	breq	.+8      	; 0x3718 <__vector_39+0x92>
    3710:	81 e0       	ldi	r24, 0x01	; 1
    3712:	0e 94 ba 07 	call	0xf74	; 0xf74 <Atm128I2CMasterPacketP__0__i2c_abort>
    3716:	26 c0       	rjmp	.+76     	; 0x3764 <__vector_39+0xde>
    3718:	0e 94 8b 07 	call	0xf16	; 0xf16 <Atm128I2CMasterPacketP__0__writeNextByte>
    371c:	23 c0       	rjmp	.+70     	; 0x3764 <__vector_39+0xde>
    371e:	80 91 e5 13 	lds	r24, 0x13E5
    3722:	8e 7f       	andi	r24, 0xFE	; 254
    3724:	80 93 e5 13 	sts	0x13E5, r24
    3728:	80 91 44 0d 	lds	r24, 0x0D44
    372c:	8f 7d       	andi	r24, 0xDF	; 223
    372e:	98 30       	cpi	r25, 0x08	; 8
    3730:	29 f0       	breq	.+10     	; 0x373c <__vector_39+0xb6>
    3732:	90 31       	cpi	r25, 0x10	; 16
    3734:	19 f0       	breq	.+6      	; 0x373c <__vector_39+0xb6>
    3736:	80 93 44 0d 	sts	0x0D44, r24
    373a:	ea cf       	rjmp	.-44     	; 0x3710 <__vector_39+0x8a>
    373c:	80 64       	ori	r24, 0x40	; 64
    373e:	80 93 44 0d 	sts	0x0D44, r24
    3742:	91 e0       	ldi	r25, 0x01	; 1
    3744:	80 91 4e 03 	lds	r24, 0x034E
    3748:	81 30       	cpi	r24, 0x01	; 1
    374a:	09 f0       	breq	.+2      	; 0x374e <__vector_39+0xc8>
    374c:	90 e0       	ldi	r25, 0x00	; 0
    374e:	80 91 62 0a 	lds	r24, 0x0A62
    3752:	88 0f       	add	r24, r24
    3754:	89 2b       	or	r24, r25
    3756:	80 93 bb 00 	sts	0x00BB, r24
    375a:	86 e0       	ldi	r24, 0x06	; 6
    375c:	80 93 4f 03 	sts	0x034F, r24
    3760:	0e 94 2a 02 	call	0x454	; 0x454 <HplAtm128I2CBusP__I2C__sendCommand>
    3764:	ff 91       	pop	r31
    3766:	ef 91       	pop	r30
    3768:	bf 91       	pop	r27
    376a:	af 91       	pop	r26
    376c:	9f 91       	pop	r25
    376e:	8f 91       	pop	r24
    3770:	7f 91       	pop	r23
    3772:	6f 91       	pop	r22
    3774:	5f 91       	pop	r21
    3776:	4f 91       	pop	r20
    3778:	3f 91       	pop	r19
    377a:	2f 91       	pop	r18
    377c:	0f 90       	pop	r0
    377e:	0b be       	out	0x3b, r0	; 59
    3780:	0f 90       	pop	r0
    3782:	0f be       	out	0x3f, r0	; 63
    3784:	0f 90       	pop	r0
    3786:	1f 90       	pop	r1
    3788:	18 95       	reti

0000378a <__vector_11>:
    378a:	1f 92       	push	r1
    378c:	0f 92       	push	r0
    378e:	0f b6       	in	r0, 0x3f	; 63
    3790:	0f 92       	push	r0
    3792:	11 24       	eor	r1, r1
    3794:	0b b6       	in	r0, 0x3b	; 59
    3796:	0f 92       	push	r0
    3798:	2f 93       	push	r18
    379a:	3f 93       	push	r19
    379c:	4f 93       	push	r20
    379e:	5f 93       	push	r21
    37a0:	6f 93       	push	r22
    37a2:	7f 93       	push	r23
    37a4:	8f 93       	push	r24
    37a6:	9f 93       	push	r25
    37a8:	af 93       	push	r26
    37aa:	bf 93       	push	r27
    37ac:	ef 93       	push	r30
    37ae:	ff 93       	push	r31
    37b0:	90 91 06 01 	lds	r25, 0x0106
    37b4:	80 91 30 08 	lds	r24, 0x0830
    37b8:	97 fd       	sbrc	r25, 7
    37ba:	11 c0       	rjmp	.+34     	; 0x37de <__vector_11+0x54>
    37bc:	83 50       	subi	r24, 0x03	; 3
    37be:	88 30       	cpi	r24, 0x08	; 8
    37c0:	08 f0       	brcs	.+2      	; 0x37c4 <__vector_11+0x3a>
    37c2:	7e c0       	rjmp	.+252    	; 0x38c0 <__vector_11+0x136>
    37c4:	80 91 6a 03 	lds	r24, 0x036A
    37c8:	86 95       	lsr	r24
    37ca:	80 93 6a 03 	sts	0x036A, r24
    37ce:	90 91 06 01 	lds	r25, 0x0106
    37d2:	96 ff       	sbrs	r25, 6
    37d4:	75 c0       	rjmp	.+234    	; 0x38c0 <__vector_11+0x136>
    37d6:	80 68       	ori	r24, 0x80	; 128
    37d8:	80 93 6a 03 	sts	0x036A, r24
    37dc:	71 c0       	rjmp	.+226    	; 0x38c0 <__vector_11+0x136>
    37de:	81 50       	subi	r24, 0x01	; 1
    37e0:	80 93 30 08 	sts	0x0830, r24
    37e4:	81 11       	cpse	r24, r1
    37e6:	6c c0       	rjmp	.+216    	; 0x38c0 <__vector_11+0x136>
    37e8:	80 91 6a 03 	lds	r24, 0x036A
    37ec:	80 3e       	cpi	r24, 0xE0	; 224
    37ee:	09 f4       	brne	.+2      	; 0x37f2 <__vector_11+0x68>
    37f0:	64 c0       	rjmp	.+200    	; 0x38ba <__vector_11+0x130>
    37f2:	90 91 5d 13 	lds	r25, 0x135D
    37f6:	91 11       	cpse	r25, r1
    37f8:	58 c0       	rjmp	.+176    	; 0x38aa <__vector_11+0x120>
    37fa:	89 35       	cpi	r24, 0x59	; 89
    37fc:	49 f0       	breq	.+18     	; 0x3810 <__vector_11+0x86>
    37fe:	80 3f       	cpi	r24, 0xF0	; 240
    3800:	19 f0       	breq	.+6      	; 0x3808 <__vector_11+0x7e>
    3802:	82 31       	cpi	r24, 0x12	; 18
    3804:	49 f4       	brne	.+18     	; 0x3818 <__vector_11+0x8e>
    3806:	04 c0       	rjmp	.+8      	; 0x3810 <__vector_11+0x86>
    3808:	81 e0       	ldi	r24, 0x01	; 1
    380a:	80 93 5d 13 	sts	0x135D, r24
    380e:	55 c0       	rjmp	.+170    	; 0x38ba <__vector_11+0x130>
    3810:	81 e0       	ldi	r24, 0x01	; 1
    3812:	80 93 23 08 	sts	0x0823, r24
    3816:	51 c0       	rjmp	.+162    	; 0x38ba <__vector_11+0x130>
    3818:	90 91 23 08 	lds	r25, 0x0823
    381c:	60 e0       	ldi	r22, 0x00	; 0
    381e:	91 11       	cpse	r25, r1
    3820:	1f c0       	rjmp	.+62     	; 0x3860 <__vector_11+0xd6>
    3822:	91 e4       	ldi	r25, 0x41	; 65
    3824:	26 2f       	mov	r18, r22
    3826:	30 e0       	ldi	r19, 0x00	; 0
    3828:	29 0f       	add	r18, r25
    382a:	31 1d       	adc	r19, r1
    382c:	35 95       	asr	r19
    382e:	27 95       	ror	r18
    3830:	a9 01       	movw	r20, r18
    3832:	44 0f       	add	r20, r20
    3834:	55 1f       	adc	r21, r21
    3836:	fa 01       	movw	r30, r20
    3838:	e6 55       	subi	r30, 0x56	; 86
    383a:	fe 4f       	sbci	r31, 0xFE	; 254
    383c:	e4 91       	lpm	r30, Z
    383e:	e8 17       	cp	r30, r24
    3840:	18 f4       	brcc	.+6      	; 0x3848 <__vector_11+0xbe>
    3842:	61 e0       	ldi	r22, 0x01	; 1
    3844:	62 0f       	add	r22, r18
    3846:	09 c0       	rjmp	.+18     	; 0x385a <__vector_11+0xd0>
    3848:	8e 17       	cp	r24, r30
    384a:	18 f4       	brcc	.+6      	; 0x3852 <__vector_11+0xc8>
    384c:	9f ef       	ldi	r25, 0xFF	; 255
    384e:	92 0f       	add	r25, r18
    3850:	04 c0       	rjmp	.+8      	; 0x385a <__vector_11+0xd0>
    3852:	fa 01       	movw	r30, r20
    3854:	e5 55       	subi	r30, 0x55	; 85
    3856:	fe 4f       	sbci	r31, 0xFE	; 254
    3858:	1e c0       	rjmp	.+60     	; 0x3896 <__vector_11+0x10c>
    385a:	96 17       	cp	r25, r22
    385c:	18 f7       	brcc	.-58     	; 0x3824 <__vector_11+0x9a>
    385e:	2d c0       	rjmp	.+90     	; 0x38ba <__vector_11+0x130>
    3860:	91 e4       	ldi	r25, 0x41	; 65
    3862:	26 2f       	mov	r18, r22
    3864:	30 e0       	ldi	r19, 0x00	; 0
    3866:	29 0f       	add	r18, r25
    3868:	31 1d       	adc	r19, r1
    386a:	35 95       	asr	r19
    386c:	27 95       	ror	r18
    386e:	a9 01       	movw	r20, r18
    3870:	44 0f       	add	r20, r20
    3872:	55 1f       	adc	r21, r21
    3874:	fa 01       	movw	r30, r20
    3876:	ee 5d       	subi	r30, 0xDE	; 222
    3878:	fe 4f       	sbci	r31, 0xFE	; 254
    387a:	e4 91       	lpm	r30, Z
    387c:	e8 17       	cp	r30, r24
    387e:	18 f4       	brcc	.+6      	; 0x3886 <__vector_11+0xfc>
    3880:	61 e0       	ldi	r22, 0x01	; 1
    3882:	62 0f       	add	r22, r18
    3884:	0f c0       	rjmp	.+30     	; 0x38a4 <__vector_11+0x11a>
    3886:	8e 17       	cp	r24, r30
    3888:	18 f4       	brcc	.+6      	; 0x3890 <__vector_11+0x106>
    388a:	9f ef       	ldi	r25, 0xFF	; 255
    388c:	92 0f       	add	r25, r18
    388e:	0a c0       	rjmp	.+20     	; 0x38a4 <__vector_11+0x11a>
    3890:	fa 01       	movw	r30, r20
    3892:	ed 5d       	subi	r30, 0xDD	; 221
    3894:	fe 4f       	sbci	r31, 0xFE	; 254
    3896:	e4 91       	lpm	r30, Z
    3898:	e0 93 6b 0a 	sts	0x0A6B, r30
    389c:	81 e0       	ldi	r24, 0x01	; 1
    389e:	0e 94 49 02 	call	0x492	; 0x492 <SchedulerBasicP__TaskBasic__postTask>
    38a2:	0b c0       	rjmp	.+22     	; 0x38ba <__vector_11+0x130>
    38a4:	96 17       	cp	r25, r22
    38a6:	e8 f6       	brcc	.-70     	; 0x3862 <__vector_11+0xd8>
    38a8:	08 c0       	rjmp	.+16     	; 0x38ba <__vector_11+0x130>
    38aa:	10 92 5d 13 	sts	0x135D, r1
    38ae:	82 31       	cpi	r24, 0x12	; 18
    38b0:	11 f0       	breq	.+4      	; 0x38b6 <__vector_11+0x12c>
    38b2:	89 35       	cpi	r24, 0x59	; 89
    38b4:	11 f4       	brne	.+4      	; 0x38ba <__vector_11+0x130>
    38b6:	10 92 23 08 	sts	0x0823, r1
    38ba:	8b e0       	ldi	r24, 0x0B	; 11
    38bc:	80 93 30 08 	sts	0x0830, r24
    38c0:	ff 91       	pop	r31
    38c2:	ef 91       	pop	r30
    38c4:	bf 91       	pop	r27
    38c6:	af 91       	pop	r26
    38c8:	9f 91       	pop	r25
    38ca:	8f 91       	pop	r24
    38cc:	7f 91       	pop	r23
    38ce:	6f 91       	pop	r22
    38d0:	5f 91       	pop	r21
    38d2:	4f 91       	pop	r20
    38d4:	3f 91       	pop	r19
    38d6:	2f 91       	pop	r18
    38d8:	0f 90       	pop	r0
    38da:	0b be       	out	0x3b, r0	; 59
    38dc:	0f 90       	pop	r0
    38de:	0f be       	out	0x3f, r0	; 63
    38e0:	0f 90       	pop	r0
    38e2:	1f 90       	pop	r1
    38e4:	18 95       	reti

000038e6 <__vector_29>:
    38e6:	1f 92       	push	r1
    38e8:	0f 92       	push	r0
    38ea:	0f b6       	in	r0, 0x3f	; 63
    38ec:	0f 92       	push	r0
    38ee:	11 24       	eor	r1, r1
    38f0:	0b b6       	in	r0, 0x3b	; 59
    38f2:	0f 92       	push	r0
    38f4:	2f 93       	push	r18
    38f6:	3f 93       	push	r19
    38f8:	4f 93       	push	r20
    38fa:	5f 93       	push	r21
    38fc:	6f 93       	push	r22
    38fe:	7f 93       	push	r23
    3900:	8f 93       	push	r24
    3902:	9f 93       	push	r25
    3904:	af 93       	push	r26
    3906:	bf 93       	push	r27
    3908:	cf 93       	push	r28
    390a:	ef 93       	push	r30
    390c:	ff 93       	push	r31
    390e:	20 91 78 00 	lds	r18, 0x0078
    3912:	30 91 79 00 	lds	r19, 0x0079
    3916:	78 94       	sei
    3918:	4f b7       	in	r20, 0x3f	; 63
    391a:	f8 94       	cli
    391c:	80 91 b3 13 	lds	r24, 0x13B3
    3920:	81 fb       	bst	r24, 1
    3922:	99 27       	eor	r25, r25
    3924:	90 f9       	bld	r25, 0
    3926:	81 70       	andi	r24, 0x01	; 1
    3928:	4f bf       	out	0x3f, r20	; 63
    392a:	81 11       	cpse	r24, r1
    392c:	22 c0       	rjmp	.+68     	; 0x3972 <__vector_29+0x8c>
    392e:	80 91 7a 00 	lds	r24, 0x007A
    3932:	87 7f       	andi	r24, 0xF7	; 247
    3934:	80 93 7a 00 	sts	0x007A, r24
    3938:	80 91 06 0b 	lds	r24, 0x0B06
    393c:	81 30       	cpi	r24, 0x01	; 1
    393e:	19 f0       	breq	.+6      	; 0x3946 <__vector_29+0x60>
    3940:	82 30       	cpi	r24, 0x02	; 2
    3942:	91 f0       	breq	.+36     	; 0x3968 <__vector_29+0x82>
    3944:	36 c0       	rjmp	.+108    	; 0x39b2 <__vector_29+0xcc>
    3946:	91 11       	cpse	r25, r1
    3948:	07 c0       	rjmp	.+14     	; 0x3958 <__vector_29+0x72>
    394a:	8d e7       	ldi	r24, 0x7D	; 125
    394c:	90 e0       	ldi	r25, 0x00	; 0
    394e:	0e 94 d3 03 	call	0x7a6	; 0x7a6 <BusyWaitMicroC__BusyWait__wait.part.18>
    3952:	0e 94 72 05 	call	0xae4	; 0xae4 <AdcP__sample>
    3956:	2d c0       	rjmp	.+90     	; 0x39b2 <__vector_29+0xcc>
    3958:	30 93 46 0d 	sts	0x0D46, r19
    395c:	20 93 45 0d 	sts	0x0D45, r18
    3960:	8b e1       	ldi	r24, 0x1B	; 27
    3962:	0e 94 49 02 	call	0x492	; 0x492 <SchedulerBasicP__TaskBasic__postTask>
    3966:	25 c0       	rjmp	.+74     	; 0x39b2 <__vector_29+0xcc>
    3968:	99 23       	and	r25, r25
    396a:	79 f3       	breq	.-34     	; 0x394a <__vector_29+0x64>
    396c:	10 92 06 0b 	sts	0x0B06, r1
    3970:	20 c0       	rjmp	.+64     	; 0x39b2 <__vector_29+0xcc>
    3972:	cf b7       	in	r28, 0x3f	; 63
    3974:	f8 94       	cli
    3976:	0e 94 76 02 	call	0x4ec	; 0x4ec <HplAtm1280AdcP__HplAtm1280Adc__getAdmux>
    397a:	cf bf       	out	0x3f, r28	; 63
    397c:	2f b7       	in	r18, 0x3f	; 63
    397e:	f8 94       	cli
    3980:	80 91 7a 00 	lds	r24, 0x007A
    3984:	86 fb       	bst	r24, 6
    3986:	99 27       	eor	r25, r25
    3988:	90 f9       	bld	r25, 0
    398a:	87 7f       	andi	r24, 0xF7	; 247
    398c:	80 61       	ori	r24, 0x10	; 16
    398e:	90 fb       	bst	r25, 0
    3990:	86 f9       	bld	r24, 6
    3992:	8f 77       	andi	r24, 0x7F	; 127
    3994:	80 93 7a 00 	sts	0x007A, r24
    3998:	87 7f       	andi	r24, 0xF7	; 247
    399a:	80 61       	ori	r24, 0x10	; 16
    399c:	8f 7b       	andi	r24, 0xBF	; 191
    399e:	8f 77       	andi	r24, 0x7F	; 127
    39a0:	80 93 7a 00 	sts	0x007A, r24
    39a4:	87 7f       	andi	r24, 0xF7	; 247
    39a6:	80 61       	ori	r24, 0x10	; 16
    39a8:	8f 7b       	andi	r24, 0xBF	; 191
    39aa:	80 68       	ori	r24, 0x80	; 128
    39ac:	80 93 7a 00 	sts	0x007A, r24
    39b0:	2f bf       	out	0x3f, r18	; 63
    39b2:	ff 91       	pop	r31
    39b4:	ef 91       	pop	r30
    39b6:	cf 91       	pop	r28
    39b8:	bf 91       	pop	r27
    39ba:	af 91       	pop	r26
    39bc:	9f 91       	pop	r25
    39be:	8f 91       	pop	r24
    39c0:	7f 91       	pop	r23
    39c2:	6f 91       	pop	r22
    39c4:	5f 91       	pop	r21
    39c6:	4f 91       	pop	r20
    39c8:	3f 91       	pop	r19
    39ca:	2f 91       	pop	r18
    39cc:	0f 90       	pop	r0
    39ce:	0b be       	out	0x3b, r0	; 59
    39d0:	0f 90       	pop	r0
    39d2:	0f be       	out	0x3f, r0	; 63
    39d4:	0f 90       	pop	r0
    39d6:	1f 90       	pop	r1
    39d8:	18 95       	reti

000039da <Enc28j60P__readRegM>:
    39da:	cf 93       	push	r28
    39dc:	df 93       	push	r29
    39de:	1f 92       	push	r1
    39e0:	cd b7       	in	r28, 0x3d	; 61
    39e2:	de b7       	in	r29, 0x3e	; 62
    39e4:	89 83       	std	Y+1, r24	; 0x01
    39e6:	0e 94 33 02 	call	0x466	; 0x466 <HplAtm128GeneralIOPinP__8__IO__clr>
    39ea:	89 81       	ldd	r24, Y+1	; 0x01
    39ec:	0e 94 c2 02 	call	0x584	; 0x584 <Enc28j60P__SpiByte__write>
    39f0:	8f ef       	ldi	r24, 0xFF	; 255
    39f2:	0e 94 c2 02 	call	0x584	; 0x584 <Enc28j60P__SpiByte__write>
    39f6:	8f ef       	ldi	r24, 0xFF	; 255
    39f8:	0e 94 bc 02 	call	0x578	; 0x578 <Atm1280SpiP__SpiByte__write>
    39fc:	89 83       	std	Y+1, r24	; 0x01
    39fe:	0e 94 31 02 	call	0x462	; 0x462 <HplAtm128GeneralIOPinP__8__IO__set>
    3a02:	89 81       	ldd	r24, Y+1	; 0x01
    3a04:	0f 90       	pop	r0
    3a06:	df 91       	pop	r29
    3a08:	cf 91       	pop	r28
    3a0a:	08 95       	ret

00003a0c <PacketQueueP__1__PacketSender__sendDone>:
    3a0c:	68 2f       	mov	r22, r24
    3a0e:	10 92 62 03 	sts	0x0362, r1
    3a12:	80 91 63 03 	lds	r24, 0x0363
    3a16:	9d e1       	ldi	r25, 0x1D	; 29
    3a18:	89 9f       	mul	r24, r25
    3a1a:	f0 01       	movw	r30, r0
    3a1c:	11 24       	eor	r1, r1
    3a1e:	e9 56       	subi	r30, 0x69	; 105
    3a20:	f2 4f       	sbci	r31, 0xF2	; 242
    3a22:	10 82       	st	Z, r1
    3a24:	0e 94 60 05 	call	0xac0	; 0xac0 <ArpP__PacketQueue__sendDone>
    3a28:	8d e0       	ldi	r24, 0x0D	; 13
    3a2a:	0c 94 49 02 	jmp	0x492	; 0x492 <SchedulerBasicP__TaskBasic__postTask>

00003a2e <main>:
    3a2e:	cf 93       	push	r28
    3a30:	df 93       	push	r29
    3a32:	cd b7       	in	r28, 0x3d	; 61
    3a34:	de b7       	in	r29, 0x3e	; 62
    3a36:	63 97       	sbiw	r28, 0x13	; 19
    3a38:	0f b6       	in	r0, 0x3f	; 63
    3a3a:	f8 94       	cli
    3a3c:	de bf       	out	0x3e, r29	; 62
    3a3e:	0f be       	out	0x3f, r0	; 63
    3a40:	cd bf       	out	0x3d, r28	; 61
    3a42:	0f b7       	in	r16, 0x3f	; 63
    3a44:	f8 94       	cli
    3a46:	4c e1       	ldi	r20, 0x1C	; 28
    3a48:	50 e0       	ldi	r21, 0x00	; 0
    3a4a:	6f ef       	ldi	r22, 0xFF	; 255
    3a4c:	70 e0       	ldi	r23, 0x00	; 0
    3a4e:	87 e0       	ldi	r24, 0x07	; 7
    3a50:	98 e0       	ldi	r25, 0x08	; 8
    3a52:	0e 94 90 21 	call	0x4320	; 0x4320 <memset>
    3a56:	8f ef       	ldi	r24, 0xFF	; 255
    3a58:	80 93 5a 13 	sts	0x135A, r24
    3a5c:	80 93 ba 13 	sts	0x13BA, r24
    3a60:	88 ee       	ldi	r24, 0xE8	; 232
    3a62:	91 e0       	ldi	r25, 0x01	; 1
    3a64:	90 93 5c 13 	sts	0x135C, r25
    3a68:	80 93 5b 13 	sts	0x135B, r24
    3a6c:	08 9a       	sbi	0x01, 0	; 1
    3a6e:	09 9a       	sbi	0x01, 1	; 1
    3a70:	0a 9a       	sbi	0x01, 2	; 1
    3a72:	10 98       	cbi	0x02, 0	; 2
    3a74:	11 98       	cbi	0x02, 1	; 2
    3a76:	12 98       	cbi	0x02, 2	; 2
    3a78:	80 e0       	ldi	r24, 0x00	; 0
    3a7a:	87 7f       	andi	r24, 0xF7	; 247
    3a7c:	8f 7e       	andi	r24, 0xEF	; 239
    3a7e:	8f 7d       	andi	r24, 0xDF	; 223
    3a80:	8f 7b       	andi	r24, 0xBF	; 191
    3a82:	8f 77       	andi	r24, 0x7F	; 127
    3a84:	80 93 7a 00 	sts	0x007A, r24
    3a88:	81 e0       	ldi	r24, 0x01	; 1
    3a8a:	83 bf       	out	0x33, r24	; 51
    3a8c:	0e 94 37 02 	call	0x46e	; 0x46e <SchedulerBasicP__popTask>
    3a90:	8f 3f       	cpi	r24, 0xFF	; 255
    3a92:	19 f0       	breq	.+6      	; 0x3a9a <main+0x6c>
    3a94:	0e 94 68 0a 	call	0x14d0	; 0x14d0 <SchedulerBasicP__TaskBasic__runTask>
    3a98:	f9 cf       	rjmp	.-14     	; 0x3a8c <main+0x5e>
    3a9a:	10 92 1f 0d 	sts	0x0D1F, r1
    3a9e:	80 93 69 0a 	sts	0x0A69, r24
    3aa2:	8c ed       	ldi	r24, 0xDC	; 220
    3aa4:	9d e0       	ldi	r25, 0x0D	; 13
    3aa6:	e3 e8       	ldi	r30, 0x83	; 131
    3aa8:	fd e0       	ldi	r31, 0x0D	; 13
    3aaa:	81 93       	st	Z+, r24
    3aac:	91 93       	st	Z+, r25
    3aae:	8e 57       	subi	r24, 0x7E	; 126
    3ab0:	9f 4f       	sbci	r25, 0xFF	; 255
    3ab2:	2d e0       	ldi	r18, 0x0D	; 13
    3ab4:	e7 39       	cpi	r30, 0x97	; 151
    3ab6:	f2 07       	cpc	r31, r18
    3ab8:	c1 f7       	brne	.-16     	; 0x3aaa <main+0x7c>
    3aba:	8a e0       	ldi	r24, 0x0A	; 10
    3abc:	80 93 07 0b 	sts	0x0B07, r24
    3ac0:	10 92 68 0a 	sts	0x0A68, r1
    3ac4:	1f ef       	ldi	r17, 0xFF	; 255
    3ac6:	10 93 2f 08 	sts	0x082F, r17
    3aca:	72 9a       	sbi	0x0e, 2	; 14
    3acc:	73 9a       	sbi	0x0e, 3	; 14
    3ace:	74 98       	cbi	0x0e, 4	; 14
    3ad0:	75 9a       	sbi	0x0e, 5	; 14
    3ad2:	0e 94 35 02 	call	0x46a	; 0x46a <HplAtm128GeneralIOPinP__38__IO__set>
    3ad6:	77 9a       	sbi	0x0e, 7	; 14
    3ad8:	6a 9a       	sbi	0x0d, 2	; 13
    3ada:	6b 9a       	sbi	0x0d, 3	; 13
    3adc:	6c 9a       	sbi	0x0d, 4	; 13
    3ade:	6d 9a       	sbi	0x0d, 5	; 13
    3ae0:	6e 9a       	sbi	0x0d, 6	; 13
    3ae2:	6f 9a       	sbi	0x0d, 7	; 13
    3ae4:	82 b1       	in	r24, 0x02	; 2
    3ae6:	12 b8       	out	0x02, r1	; 2
    3ae8:	81 b1       	in	r24, 0x01	; 1
    3aea:	11 b9       	out	0x01, r17	; 1
    3aec:	6f e3       	ldi	r22, 0x3F	; 63
    3aee:	80 e0       	ldi	r24, 0x00	; 0
    3af0:	0e 94 78 09 	call	0x12f0	; 0x12f0 <HplKS0108P__HplKS0108__controlWrite>
    3af4:	6f e3       	ldi	r22, 0x3F	; 63
    3af6:	81 e0       	ldi	r24, 0x01	; 1
    3af8:	0e 94 78 09 	call	0x12f0	; 0x12f0 <HplKS0108P__HplKS0108__controlWrite>
    3afc:	60 ec       	ldi	r22, 0xC0	; 192
    3afe:	80 e0       	ldi	r24, 0x00	; 0
    3b00:	0e 94 78 09 	call	0x12f0	; 0x12f0 <HplKS0108P__HplKS0108__controlWrite>
    3b04:	60 ec       	ldi	r22, 0xC0	; 192
    3b06:	81 e0       	ldi	r24, 0x01	; 1
    3b08:	0e 94 78 09 	call	0x12f0	; 0x12f0 <HplKS0108P__HplKS0108__controlWrite>
    3b0c:	80 91 b6 00 	lds	r24, 0x00B6
    3b10:	80 72       	andi	r24, 0x20	; 32
    3b12:	80 93 b6 00 	sts	0x00B6, r24
    3b16:	80 91 b6 00 	lds	r24, 0x00B6
    3b1a:	81 fd       	sbrc	r24, 1
    3b1c:	fc cf       	rjmp	.-8      	; 0x3b16 <main+0xe8>
    3b1e:	82 e0       	ldi	r24, 0x02	; 2
    3b20:	80 93 b0 00 	sts	0x00B0, r24
    3b24:	80 91 b6 00 	lds	r24, 0x00B6
    3b28:	80 fd       	sbrc	r24, 0
    3b2a:	fc cf       	rjmp	.-8      	; 0x3b24 <main+0xf6>
    3b2c:	85 e0       	ldi	r24, 0x05	; 5
    3b2e:	80 93 b1 00 	sts	0x00B1, r24
    3b32:	8c e7       	ldi	r24, 0x7C	; 124
    3b34:	80 93 b3 00 	sts	0x00B3, r24
    3b38:	80 91 70 00 	lds	r24, 0x0070
    3b3c:	82 60       	ori	r24, 0x02	; 2
    3b3e:	80 93 70 00 	sts	0x0070, r24
    3b42:	0e 94 92 02 	call	0x524	; 0x524 <Atm1280AlarmSyncP__0__Counter__get>
    3b46:	60 93 29 0d 	sts	0x0D29, r22
    3b4a:	70 93 2a 0d 	sts	0x0D2A, r23
    3b4e:	80 93 2b 0d 	sts	0x0D2B, r24
    3b52:	90 93 2c 0d 	sts	0x0D2C, r25
    3b56:	80 e3       	ldi	r24, 0x30	; 48
    3b58:	95 e7       	ldi	r25, 0x75	; 117
    3b5a:	a0 e0       	ldi	r26, 0x00	; 0
    3b5c:	b0 e0       	ldi	r27, 0x00	; 0
    3b5e:	80 93 2d 0d 	sts	0x0D2D, r24
    3b62:	90 93 2e 0d 	sts	0x0D2E, r25
    3b66:	a0 93 2f 0d 	sts	0x0D2F, r26
    3b6a:	b0 93 30 0d 	sts	0x0D30, r27
    3b6e:	80 91 31 0d 	lds	r24, 0x0D31
    3b72:	8e 7f       	andi	r24, 0xFE	; 254
    3b74:	82 60       	ori	r24, 0x02	; 2
    3b76:	80 93 31 0d 	sts	0x0D31, r24
    3b7a:	8c e0       	ldi	r24, 0x0C	; 12
    3b7c:	0e 94 49 02 	call	0x492	; 0x492 <SchedulerBasicP__TaskBasic__postTask>
    3b80:	80 91 28 02 	lds	r24, 0x0228
    3b84:	90 91 29 02 	lds	r25, 0x0229
    3b88:	90 93 26 02 	sts	0x0226, r25
    3b8c:	80 93 27 02 	sts	0x0227, r24
    3b90:	0e 94 37 02 	call	0x46e	; 0x46e <SchedulerBasicP__popTask>
    3b94:	8f 3f       	cpi	r24, 0xFF	; 255
    3b96:	19 f0       	breq	.+6      	; 0x3b9e <main+0x170>
    3b98:	0e 94 68 0a 	call	0x14d0	; 0x14d0 <SchedulerBasicP__TaskBasic__runTask>
    3b9c:	f9 cf       	rjmp	.-14     	; 0x3b90 <main+0x162>
    3b9e:	0f bf       	out	0x3f, r16	; 63
    3ba0:	78 94       	sei
    3ba2:	8f b7       	in	r24, 0x3f	; 63
    3ba4:	f8 94       	cli
    3ba6:	10 92 b2 13 	sts	0x13B2, r1
    3baa:	8f bf       	out	0x3f, r24	; 63
    3bac:	0e 94 4a 0a 	call	0x1494	; 0x1494 <GlcdP__Glcd__fill.constprop.120>
    3bb0:	9f b7       	in	r25, 0x3f	; 63
    3bb2:	f8 94       	cli
    3bb4:	80 91 07 01 	lds	r24, 0x0107
    3bb8:	8f 77       	andi	r24, 0x7F	; 127
    3bba:	80 93 07 01 	sts	0x0107, r24
    3bbe:	9f bf       	out	0x3f, r25	; 63
    3bc0:	9f b7       	in	r25, 0x3f	; 63
    3bc2:	f8 94       	cli
    3bc4:	80 91 07 01 	lds	r24, 0x0107
    3bc8:	8f 7b       	andi	r24, 0xBF	; 191
    3bca:	80 93 07 01 	sts	0x0107, r24
    3bce:	9f bf       	out	0x3f, r25	; 63
    3bd0:	80 91 6d 00 	lds	r24, 0x006D
    3bd4:	80 68       	ori	r24, 0x80	; 128
    3bd6:	80 93 6d 00 	sts	0x006D, r24
    3bda:	8f b7       	in	r24, 0x3f	; 63
    3bdc:	f8 94       	cli
    3bde:	9b e0       	ldi	r25, 0x0B	; 11
    3be0:	90 93 30 08 	sts	0x0830, r25
    3be4:	10 92 23 08 	sts	0x0823, r1
    3be8:	10 92 5d 13 	sts	0x135D, r1
    3bec:	8f bf       	out	0x3f, r24	; 63
    3bee:	80 91 68 00 	lds	r24, 0x0068
    3bf2:	84 60       	ori	r24, 0x04	; 4
    3bf4:	80 93 68 00 	sts	0x0068, r24
    3bf8:	9f b7       	in	r25, 0x3f	; 63
    3bfa:	f8 94       	cli
    3bfc:	80 91 52 13 	lds	r24, 0x1352
    3c00:	9f bf       	out	0x3f, r25	; 63
    3c02:	81 11       	cpse	r24, r1
    3c04:	33 c0       	rjmp	.+102    	; 0x3c6c <main+0x23e>
    3c06:	9f b7       	in	r25, 0x3f	; 63
    3c08:	f8 94       	cli
    3c0a:	81 e0       	ldi	r24, 0x01	; 1
    3c0c:	80 93 52 13 	sts	0x1352, r24
    3c10:	10 92 53 13 	sts	0x1353, r1
    3c14:	10 92 54 13 	sts	0x1354, r1
    3c18:	10 92 55 13 	sts	0x1355, r1
    3c1c:	10 92 56 13 	sts	0x1356, r1
    3c20:	80 e2       	ldi	r24, 0x20	; 32
    3c22:	e3 ea       	ldi	r30, 0xA3	; 163
    3c24:	f5 e0       	ldi	r31, 0x05	; 5
    3c26:	df 01       	movw	r26, r30
    3c28:	28 2f       	mov	r18, r24
    3c2a:	1d 92       	st	X+, r1
    3c2c:	2a 95       	dec	r18
    3c2e:	e9 f7       	brne	.-6      	; 0x3c2a <main+0x1fc>
    3c30:	e3 e6       	ldi	r30, 0x63	; 99
    3c32:	fd e0       	ldi	r31, 0x0D	; 13
    3c34:	df 01       	movw	r26, r30
    3c36:	1d 92       	st	X+, r1
    3c38:	8a 95       	dec	r24
    3c3a:	e9 f7       	brne	.-6      	; 0x3c36 <main+0x208>
    3c3c:	9f bf       	out	0x3f, r25	; 63
    3c3e:	52 9a       	sbi	0x0a, 2	; 10
    3c40:	5a 98       	cbi	0x0b, 2	; 11
    3c42:	51 9a       	sbi	0x0a, 1	; 10
    3c44:	59 98       	cbi	0x0b, 1	; 11
    3c46:	53 98       	cbi	0x0a, 3	; 10
    3c48:	5b 98       	cbi	0x0b, 3	; 11
    3c4a:	80 91 69 00 	lds	r24, 0x0069
    3c4e:	80 68       	ori	r24, 0x80	; 128
    3c50:	80 93 69 00 	sts	0x0069, r24
    3c54:	80 91 69 00 	lds	r24, 0x0069
    3c58:	8f 7b       	andi	r24, 0xBF	; 191
    3c5a:	80 93 69 00 	sts	0x0069, r24
    3c5e:	4a e0       	ldi	r20, 0x0A	; 10
    3c60:	50 e0       	ldi	r21, 0x00	; 0
    3c62:	60 e0       	ldi	r22, 0x00	; 0
    3c64:	70 e0       	ldi	r23, 0x00	; 0
    3c66:	82 e0       	ldi	r24, 0x02	; 2
    3c68:	0e 94 3f 08 	call	0x107e	; 0x107e <VirtualizeTimerC__0__Timer__startOneShot>
    3c6c:	80 ec       	ldi	r24, 0xC0	; 192
    3c6e:	80 93 24 02 	sts	0x0224, r24
    3c72:	98 ea       	ldi	r25, 0xA8	; 168
    3c74:	90 93 25 02 	sts	0x0225, r25
    3c78:	2a e2       	ldi	r18, 0x2A	; 42
    3c7a:	20 93 26 02 	sts	0x0226, r18
    3c7e:	42 e0       	ldi	r20, 0x02	; 2
    3c80:	40 93 27 02 	sts	0x0227, r20
    3c84:	3f ef       	ldi	r19, 0xFF	; 255
    3c86:	30 93 1c 02 	sts	0x021C, r19
    3c8a:	30 93 1d 02 	sts	0x021D, r19
    3c8e:	30 93 1e 02 	sts	0x021E, r19
    3c92:	10 92 1f 02 	sts	0x021F, r1
    3c96:	80 93 20 02 	sts	0x0220, r24
    3c9a:	90 93 21 02 	sts	0x0221, r25
    3c9e:	20 93 22 02 	sts	0x0222, r18
    3ca2:	31 e0       	ldi	r19, 0x01	; 1
    3ca4:	30 93 23 02 	sts	0x0223, r19
    3ca8:	1f 92       	push	r1
    3caa:	4f 93       	push	r20
    3cac:	1f 92       	push	r1
    3cae:	2f 93       	push	r18
    3cb0:	1f 92       	push	r1
    3cb2:	9f 93       	push	r25
    3cb4:	1f 92       	push	r1
    3cb6:	8f 93       	push	r24
    3cb8:	8e e2       	ldi	r24, 0x2E	; 46
    3cba:	93 e0       	ldi	r25, 0x03	; 3
    3cbc:	9f 93       	push	r25
    3cbe:	8f 93       	push	r24
    3cc0:	8e 01       	movw	r16, r28
    3cc2:	0f 5f       	subi	r16, 0xFF	; 255
    3cc4:	1f 4f       	sbci	r17, 0xFF	; 255
    3cc6:	1f 93       	push	r17
    3cc8:	0f 93       	push	r16
    3cca:	0e 94 2c 22 	call	0x4458	; 0x4458 <sprintf>
    3cce:	6c e3       	ldi	r22, 0x3C	; 60
    3cd0:	c8 01       	movw	r24, r16
    3cd2:	0e 94 ad 09 	call	0x135a	; 0x135a <GlcdP__Glcd__drawText.constprop.155>
    3cd6:	10 92 6a 0a 	sts	0x0A6A, r1
    3cda:	10 92 65 0a 	sts	0x0A65, r1
    3cde:	0f b6       	in	r0, 0x3f	; 63
    3ce0:	f8 94       	cli
    3ce2:	de bf       	out	0x3e, r29	; 62
    3ce4:	0f be       	out	0x3f, r0	; 63
    3ce6:	cd bf       	out	0x3d, r28	; 61
    3ce8:	80 91 5d 03 	lds	r24, 0x035D
    3cec:	81 11       	cpse	r24, r1
    3cee:	36 c0       	rjmp	.+108    	; 0x3d5c <main+0x32e>
    3cf0:	20 9a       	sbi	0x04, 0	; 4
    3cf2:	0e 94 31 02 	call	0x462	; 0x462 <HplAtm128GeneralIOPinP__8__IO__set>
    3cf6:	24 9a       	sbi	0x04, 4	; 4
    3cf8:	2c 98       	cbi	0x05, 4	; 5
    3cfa:	1b 8a       	std	Y+19, r1	; 0x13
    3cfc:	1a 8a       	std	Y+18, r1	; 0x12
    3cfe:	8a 89       	ldd	r24, Y+18	; 0x12
    3d00:	9b 89       	ldd	r25, Y+19	; 0x13
    3d02:	80 32       	cpi	r24, 0x20	; 32
    3d04:	9e 44       	sbci	r25, 0x4E	; 78
    3d06:	30 f4       	brcc	.+12     	; 0x3d14 <main+0x2e6>
    3d08:	8a 89       	ldd	r24, Y+18	; 0x12
    3d0a:	9b 89       	ldd	r25, Y+19	; 0x13
    3d0c:	01 96       	adiw	r24, 0x01	; 1
    3d0e:	9b 8b       	std	Y+19, r25	; 0x13
    3d10:	8a 8b       	std	Y+18, r24	; 0x12
    3d12:	f5 cf       	rjmp	.-22     	; 0x3cfe <main+0x2d0>
    3d14:	2c 9a       	sbi	0x05, 4	; 5
    3d16:	1b 8a       	std	Y+19, r1	; 0x13
    3d18:	1a 8a       	std	Y+18, r1	; 0x12
    3d1a:	8a 89       	ldd	r24, Y+18	; 0x12
    3d1c:	9b 89       	ldd	r25, Y+19	; 0x13
    3d1e:	80 32       	cpi	r24, 0x20	; 32
    3d20:	9e 44       	sbci	r25, 0x4E	; 78
    3d22:	30 f4       	brcc	.+12     	; 0x3d30 <main+0x302>
    3d24:	8a 89       	ldd	r24, Y+18	; 0x12
    3d26:	9b 89       	ldd	r25, Y+19	; 0x13
    3d28:	01 96       	adiw	r24, 0x01	; 1
    3d2a:	9b 8b       	std	Y+19, r25	; 0x13
    3d2c:	8a 8b       	std	Y+18, r24	; 0x12
    3d2e:	f5 cf       	rjmp	.-22     	; 0x3d1a <main+0x2ec>
    3d30:	52 98       	cbi	0x0a, 2	; 10
    3d32:	5a 9a       	sbi	0x0b, 2	; 11
    3d34:	84 e0       	ldi	r24, 0x04	; 4
    3d36:	8c bb       	out	0x1c, r24	; 28
    3d38:	80 91 69 00 	lds	r24, 0x0069
    3d3c:	80 62       	ori	r24, 0x20	; 32
    3d3e:	80 93 69 00 	sts	0x0069, r24
    3d42:	80 91 69 00 	lds	r24, 0x0069
    3d46:	8f 7e       	andi	r24, 0xEF	; 239
    3d48:	80 93 69 00 	sts	0x0069, r24
    3d4c:	ea 9a       	sbi	0x1d, 2	; 29
    3d4e:	0e 94 da 04 	call	0x9b4	; 0x9b4 <Atm1280SpiP__Resource__request.constprop.135>
    3d52:	81 11       	cpse	r24, r1
    3d54:	03 c0       	rjmp	.+6      	; 0x3d5c <main+0x32e>
    3d56:	81 e0       	ldi	r24, 0x01	; 1
    3d58:	80 93 5d 03 	sts	0x035D, r24
    3d5c:	6a e0       	ldi	r22, 0x0A	; 10
    3d5e:	83 e4       	ldi	r24, 0x43	; 67
    3d60:	93 e0       	ldi	r25, 0x03	; 3
    3d62:	0e 94 ad 09 	call	0x135a	; 0x135a <GlcdP__Glcd__drawText.constprop.155>
    3d66:	1f b7       	in	r17, 0x3f	; 63
    3d68:	f8 94       	cli
    3d6a:	0e 94 37 02 	call	0x46e	; 0x46e <SchedulerBasicP__popTask>
    3d6e:	8f 3f       	cpi	r24, 0xFF	; 255
    3d70:	09 f0       	breq	.+2      	; 0x3d74 <main+0x346>
    3d72:	58 c0       	rjmp	.+176    	; 0x3e24 <main+0x3f6>
    3d74:	80 91 70 00 	lds	r24, 0x0070
    3d78:	83 70       	andi	r24, 0x03	; 3
    3d7a:	89 f0       	breq	.+34     	; 0x3d9e <main+0x370>
    3d7c:	80 91 b6 00 	lds	r24, 0x00B6
    3d80:	8a 71       	andi	r24, 0x1A	; 26
    3d82:	e1 f7       	brne	.-8      	; 0x3d7c <main+0x34e>
    3d84:	80 91 b3 00 	lds	r24, 0x00B3
    3d88:	90 91 b2 00 	lds	r25, 0x00B2
    3d8c:	89 1b       	sub	r24, r25
    3d8e:	88 30       	cpi	r24, 0x08	; 8
    3d90:	40 f0       	brcs	.+16     	; 0x3da2 <main+0x374>
    3d92:	80 91 b2 00 	lds	r24, 0x00B2
    3d96:	89 3f       	cpi	r24, 0xF9	; 249
    3d98:	20 f4       	brcc	.+8      	; 0x3da2 <main+0x374>
    3d9a:	83 e0       	ldi	r24, 0x03	; 3
    3d9c:	03 c0       	rjmp	.+6      	; 0x3da4 <main+0x376>
    3d9e:	85 e0       	ldi	r24, 0x05	; 5
    3da0:	01 c0       	rjmp	.+2      	; 0x3da4 <main+0x376>
    3da2:	82 e0       	ldi	r24, 0x02	; 2
    3da4:	e0 91 6e 00 	lds	r30, 0x006E
    3da8:	e6 70       	andi	r30, 0x06	; 6
    3daa:	29 f5       	brne	.+74     	; 0x3df6 <main+0x3c8>
    3dac:	90 91 6f 00 	lds	r25, 0x006F
    3db0:	9e 72       	andi	r25, 0x2E	; 46
    3db2:	21 f5       	brne	.+72     	; 0x3dfc <main+0x3ce>
    3db4:	e0 91 71 00 	lds	r30, 0x0071
    3db8:	ee 72       	andi	r30, 0x2E	; 46
    3dba:	e9 f4       	brne	.+58     	; 0x3df6 <main+0x3c8>
    3dbc:	90 91 72 00 	lds	r25, 0x0072
    3dc0:	9e 72       	andi	r25, 0x2E	; 46
    3dc2:	e1 f4       	brne	.+56     	; 0x3dfc <main+0x3ce>
    3dc4:	e0 91 73 00 	lds	r30, 0x0073
    3dc8:	ee 72       	andi	r30, 0x2E	; 46
    3dca:	a9 f4       	brne	.+42     	; 0x3df6 <main+0x3c8>
    3dcc:	0c b4       	in	r0, 0x2c	; 44
    3dce:	07 fc       	sbrc	r0, 7
    3dd0:	15 c0       	rjmp	.+42     	; 0x3dfc <main+0x3ce>
    3dd2:	90 91 c1 00 	lds	r25, 0x00C1
    3dd6:	98 71       	andi	r25, 0x18	; 24
    3dd8:	89 f4       	brne	.+34     	; 0x3dfc <main+0x3ce>
    3dda:	e0 91 c9 00 	lds	r30, 0x00C9
    3dde:	e8 71       	andi	r30, 0x18	; 24
    3de0:	51 f4       	brne	.+20     	; 0x3df6 <main+0x3c8>
    3de2:	90 91 bc 00 	lds	r25, 0x00BC
    3de6:	92 fd       	sbrc	r25, 2
    3de8:	09 c0       	rjmp	.+18     	; 0x3dfc <main+0x3ce>
    3dea:	90 91 7a 00 	lds	r25, 0x007A
    3dee:	97 fd       	sbrc	r25, 7
    3df0:	04 c0       	rjmp	.+8      	; 0x3dfa <main+0x3cc>
    3df2:	e5 e0       	ldi	r30, 0x05	; 5
    3df4:	03 c0       	rjmp	.+6      	; 0x3dfc <main+0x3ce>
    3df6:	e0 e0       	ldi	r30, 0x00	; 0
    3df8:	01 c0       	rjmp	.+2      	; 0x3dfc <main+0x3ce>
    3dfa:	e1 e0       	ldi	r30, 0x01	; 1
    3dfc:	93 b7       	in	r25, 0x33	; 51
    3dfe:	8e 17       	cp	r24, r30
    3e00:	08 f4       	brcc	.+2      	; 0x3e04 <main+0x3d6>
    3e02:	e8 2f       	mov	r30, r24
    3e04:	f0 e0       	ldi	r31, 0x00	; 0
    3e06:	e4 5e       	subi	r30, 0xE4	; 228
    3e08:	fe 4f       	sbci	r31, 0xFE	; 254
    3e0a:	84 91       	lpm	r24, Z
    3e0c:	e9 2f       	mov	r30, r25
    3e0e:	e0 7f       	andi	r30, 0xF0	; 240
    3e10:	e1 60       	ori	r30, 0x01	; 1
    3e12:	e8 2b       	or	r30, r24
    3e14:	e3 bf       	out	0x33, r30	; 51
    3e16:	78 94       	sei
    3e18:	88 95       	sleep
    3e1a:	f8 94       	cli
    3e1c:	83 b7       	in	r24, 0x33	; 51
    3e1e:	8e 7f       	andi	r24, 0xFE	; 254
    3e20:	83 bf       	out	0x33, r24	; 51
    3e22:	a3 cf       	rjmp	.-186    	; 0x3d6a <main+0x33c>
    3e24:	1f bf       	out	0x3f, r17	; 63
    3e26:	0e 94 68 0a 	call	0x14d0	; 0x14d0 <SchedulerBasicP__TaskBasic__runTask>
    3e2a:	9d cf       	rjmp	.-198    	; 0x3d66 <main+0x338>

00003e2c <__tablejump2__>:
    3e2c:	ee 0f       	add	r30, r30
    3e2e:	ff 1f       	adc	r31, r31

00003e30 <__tablejump__>:
    3e30:	05 90       	lpm	r0, Z+
    3e32:	f4 91       	lpm	r31, Z
    3e34:	e0 2d       	mov	r30, r0
    3e36:	09 94       	ijmp

00003e38 <strtol>:
    3e38:	2f 92       	push	r2
    3e3a:	3f 92       	push	r3
    3e3c:	4f 92       	push	r4
    3e3e:	5f 92       	push	r5
    3e40:	6f 92       	push	r6
    3e42:	7f 92       	push	r7
    3e44:	8f 92       	push	r8
    3e46:	9f 92       	push	r9
    3e48:	af 92       	push	r10
    3e4a:	bf 92       	push	r11
    3e4c:	cf 92       	push	r12
    3e4e:	df 92       	push	r13
    3e50:	ef 92       	push	r14
    3e52:	ff 92       	push	r15
    3e54:	0f 93       	push	r16
    3e56:	1f 93       	push	r17
    3e58:	cf 93       	push	r28
    3e5a:	df 93       	push	r29
    3e5c:	5c 01       	movw	r10, r24
    3e5e:	6b 01       	movw	r12, r22
    3e60:	7a 01       	movw	r14, r20
    3e62:	61 15       	cp	r22, r1
    3e64:	71 05       	cpc	r23, r1
    3e66:	19 f0       	breq	.+6      	; 0x3e6e <strtol+0x36>
    3e68:	fb 01       	movw	r30, r22
    3e6a:	91 83       	std	Z+1, r25	; 0x01
    3e6c:	80 83       	st	Z, r24
    3e6e:	e1 14       	cp	r14, r1
    3e70:	f1 04       	cpc	r15, r1
    3e72:	29 f0       	breq	.+10     	; 0x3e7e <strtol+0x46>
    3e74:	c7 01       	movw	r24, r14
    3e76:	02 97       	sbiw	r24, 0x02	; 2
    3e78:	83 97       	sbiw	r24, 0x23	; 35
    3e7a:	08 f0       	brcs	.+2      	; 0x3e7e <strtol+0x46>
    3e7c:	f1 c0       	rjmp	.+482    	; 0x4060 <strtol+0x228>
    3e7e:	e5 01       	movw	r28, r10
    3e80:	21 96       	adiw	r28, 0x01	; 1
    3e82:	f5 01       	movw	r30, r10
    3e84:	10 81       	ld	r17, Z
    3e86:	81 2f       	mov	r24, r17
    3e88:	90 e0       	ldi	r25, 0x00	; 0
    3e8a:	0e 94 7f 21 	call	0x42fe	; 0x42fe <isspace>
    3e8e:	89 2b       	or	r24, r25
    3e90:	11 f0       	breq	.+4      	; 0x3e96 <strtol+0x5e>
    3e92:	5e 01       	movw	r10, r28
    3e94:	f4 cf       	rjmp	.-24     	; 0x3e7e <strtol+0x46>
    3e96:	1d 32       	cpi	r17, 0x2D	; 45
    3e98:	29 f4       	brne	.+10     	; 0x3ea4 <strtol+0x6c>
    3e9a:	21 96       	adiw	r28, 0x01	; 1
    3e9c:	f5 01       	movw	r30, r10
    3e9e:	11 81       	ldd	r17, Z+1	; 0x01
    3ea0:	01 e0       	ldi	r16, 0x01	; 1
    3ea2:	07 c0       	rjmp	.+14     	; 0x3eb2 <strtol+0x7a>
    3ea4:	1b 32       	cpi	r17, 0x2B	; 43
    3ea6:	21 f4       	brne	.+8      	; 0x3eb0 <strtol+0x78>
    3ea8:	e5 01       	movw	r28, r10
    3eaa:	22 96       	adiw	r28, 0x02	; 2
    3eac:	f5 01       	movw	r30, r10
    3eae:	11 81       	ldd	r17, Z+1	; 0x01
    3eb0:	00 e0       	ldi	r16, 0x00	; 0
    3eb2:	e1 14       	cp	r14, r1
    3eb4:	f1 04       	cpc	r15, r1
    3eb6:	59 f1       	breq	.+86     	; 0x3f0e <strtol+0xd6>
    3eb8:	f0 e1       	ldi	r31, 0x10	; 16
    3eba:	ef 16       	cp	r14, r31
    3ebc:	f1 04       	cpc	r15, r1
    3ebe:	61 f4       	brne	.+24     	; 0x3ed8 <strtol+0xa0>
    3ec0:	10 33       	cpi	r17, 0x30	; 48
    3ec2:	e1 f4       	brne	.+56     	; 0x3efc <strtol+0xc4>
    3ec4:	88 81       	ld	r24, Y
    3ec6:	8f 7d       	andi	r24, 0xDF	; 223
    3ec8:	88 35       	cpi	r24, 0x58	; 88
    3eca:	69 f5       	brne	.+90     	; 0x3f26 <strtol+0xee>
    3ecc:	19 81       	ldd	r17, Y+1	; 0x01
    3ece:	22 96       	adiw	r28, 0x02	; 2
    3ed0:	02 60       	ori	r16, 0x02	; 2
    3ed2:	70 e1       	ldi	r23, 0x10	; 16
    3ed4:	e7 2e       	mov	r14, r23
    3ed6:	f1 2c       	mov	r15, r1
    3ed8:	88 e0       	ldi	r24, 0x08	; 8
    3eda:	e8 16       	cp	r14, r24
    3edc:	f1 04       	cpc	r15, r1
    3ede:	39 f1       	breq	.+78     	; 0x3f2e <strtol+0xf6>
    3ee0:	2c f4       	brge	.+10     	; 0x3eec <strtol+0xb4>
    3ee2:	f2 e0       	ldi	r31, 0x02	; 2
    3ee4:	ef 16       	cp	r14, r31
    3ee6:	f1 04       	cpc	r15, r1
    3ee8:	c9 f1       	breq	.+114    	; 0x3f5c <strtol+0x124>
    3eea:	2a c0       	rjmp	.+84     	; 0x3f40 <strtol+0x108>
    3eec:	8a e0       	ldi	r24, 0x0A	; 10
    3eee:	e8 16       	cp	r14, r24
    3ef0:	f1 04       	cpc	r15, r1
    3ef2:	79 f0       	breq	.+30     	; 0x3f12 <strtol+0xda>
    3ef4:	e0 e1       	ldi	r30, 0x10	; 16
    3ef6:	ee 16       	cp	r14, r30
    3ef8:	f1 04       	cpc	r15, r1
    3efa:	11 f5       	brne	.+68     	; 0x3f40 <strtol+0x108>
    3efc:	50 e1       	ldi	r21, 0x10	; 16
    3efe:	e5 2e       	mov	r14, r21
    3f00:	f1 2c       	mov	r15, r1
    3f02:	81 2c       	mov	r8, r1
    3f04:	91 2c       	mov	r9, r1
    3f06:	a1 2c       	mov	r10, r1
    3f08:	68 e0       	ldi	r22, 0x08	; 8
    3f0a:	b6 2e       	mov	r11, r22
    3f0c:	2c c0       	rjmp	.+88     	; 0x3f66 <strtol+0x12e>
    3f0e:	10 33       	cpi	r17, 0x30	; 48
    3f10:	c9 f2       	breq	.-78     	; 0x3ec4 <strtol+0x8c>
    3f12:	3a e0       	ldi	r19, 0x0A	; 10
    3f14:	e3 2e       	mov	r14, r19
    3f16:	f1 2c       	mov	r15, r1
    3f18:	4c ec       	ldi	r20, 0xCC	; 204
    3f1a:	84 2e       	mov	r8, r20
    3f1c:	98 2c       	mov	r9, r8
    3f1e:	a8 2c       	mov	r10, r8
    3f20:	4c e0       	ldi	r20, 0x0C	; 12
    3f22:	b4 2e       	mov	r11, r20
    3f24:	20 c0       	rjmp	.+64     	; 0x3f66 <strtol+0x12e>
    3f26:	10 e3       	ldi	r17, 0x30	; 48
    3f28:	e1 14       	cp	r14, r1
    3f2a:	f1 04       	cpc	r15, r1
    3f2c:	a9 f6       	brne	.-86     	; 0x3ed8 <strtol+0xa0>
    3f2e:	98 e0       	ldi	r25, 0x08	; 8
    3f30:	e9 2e       	mov	r14, r25
    3f32:	f1 2c       	mov	r15, r1
    3f34:	81 2c       	mov	r8, r1
    3f36:	91 2c       	mov	r9, r1
    3f38:	a1 2c       	mov	r10, r1
    3f3a:	20 e1       	ldi	r18, 0x10	; 16
    3f3c:	b2 2e       	mov	r11, r18
    3f3e:	13 c0       	rjmp	.+38     	; 0x3f66 <strtol+0x12e>
    3f40:	60 e0       	ldi	r22, 0x00	; 0
    3f42:	70 e0       	ldi	r23, 0x00	; 0
    3f44:	80 e0       	ldi	r24, 0x00	; 0
    3f46:	90 e8       	ldi	r25, 0x80	; 128
    3f48:	97 01       	movw	r18, r14
    3f4a:	44 27       	eor	r20, r20
    3f4c:	37 fd       	sbrc	r19, 7
    3f4e:	40 95       	com	r20
    3f50:	54 2f       	mov	r21, r20
    3f52:	0e 94 16 25 	call	0x4a2c	; 0x4a2c <__udivmodsi4>
    3f56:	49 01       	movw	r8, r18
    3f58:	5a 01       	movw	r10, r20
    3f5a:	05 c0       	rjmp	.+10     	; 0x3f66 <strtol+0x12e>
    3f5c:	81 2c       	mov	r8, r1
    3f5e:	91 2c       	mov	r9, r1
    3f60:	a1 2c       	mov	r10, r1
    3f62:	80 e4       	ldi	r24, 0x40	; 64
    3f64:	b8 2e       	mov	r11, r24
    3f66:	60 e0       	ldi	r22, 0x00	; 0
    3f68:	20 e0       	ldi	r18, 0x00	; 0
    3f6a:	30 e0       	ldi	r19, 0x00	; 0
    3f6c:	a9 01       	movw	r20, r18
    3f6e:	27 01       	movw	r4, r14
    3f70:	66 24       	eor	r6, r6
    3f72:	57 fc       	sbrc	r5, 7
    3f74:	60 94       	com	r6
    3f76:	76 2c       	mov	r7, r6
    3f78:	1e 01       	movw	r2, r28
    3f7a:	e0 ed       	ldi	r30, 0xD0	; 208
    3f7c:	e1 0f       	add	r30, r17
    3f7e:	ea 30       	cpi	r30, 0x0A	; 10
    3f80:	60 f0       	brcs	.+24     	; 0x3f9a <strtol+0x162>
    3f82:	8f eb       	ldi	r24, 0xBF	; 191
    3f84:	81 0f       	add	r24, r17
    3f86:	8a 31       	cpi	r24, 0x1A	; 26
    3f88:	10 f4       	brcc	.+4      	; 0x3f8e <strtol+0x156>
    3f8a:	e9 ec       	ldi	r30, 0xC9	; 201
    3f8c:	05 c0       	rjmp	.+10     	; 0x3f98 <strtol+0x160>
    3f8e:	8f e9       	ldi	r24, 0x9F	; 159
    3f90:	81 0f       	add	r24, r17
    3f92:	8a 31       	cpi	r24, 0x1A	; 26
    3f94:	28 f5       	brcc	.+74     	; 0x3fe0 <strtol+0x1a8>
    3f96:	e9 ea       	ldi	r30, 0xA9	; 169
    3f98:	e1 0f       	add	r30, r17
    3f9a:	8e 2f       	mov	r24, r30
    3f9c:	90 e0       	ldi	r25, 0x00	; 0
    3f9e:	8e 15       	cp	r24, r14
    3fa0:	9f 05       	cpc	r25, r15
    3fa2:	f4 f4       	brge	.+60     	; 0x3fe0 <strtol+0x1a8>
    3fa4:	67 fd       	sbrc	r22, 7
    3fa6:	18 c0       	rjmp	.+48     	; 0x3fd8 <strtol+0x1a0>
    3fa8:	82 16       	cp	r8, r18
    3faa:	93 06       	cpc	r9, r19
    3fac:	a4 06       	cpc	r10, r20
    3fae:	b5 06       	cpc	r11, r21
    3fb0:	90 f0       	brcs	.+36     	; 0x3fd6 <strtol+0x19e>
    3fb2:	c3 01       	movw	r24, r6
    3fb4:	b2 01       	movw	r22, r4
    3fb6:	0e 94 06 25 	call	0x4a0c	; 0x4a0c <__mulsi3>
    3fba:	9b 01       	movw	r18, r22
    3fbc:	ac 01       	movw	r20, r24
    3fbe:	2e 0f       	add	r18, r30
    3fc0:	31 1d       	adc	r19, r1
    3fc2:	41 1d       	adc	r20, r1
    3fc4:	51 1d       	adc	r21, r1
    3fc6:	21 30       	cpi	r18, 0x01	; 1
    3fc8:	31 05       	cpc	r19, r1
    3fca:	41 05       	cpc	r20, r1
    3fcc:	f0 e8       	ldi	r31, 0x80	; 128
    3fce:	5f 07       	cpc	r21, r31
    3fd0:	10 f4       	brcc	.+4      	; 0x3fd6 <strtol+0x19e>
    3fd2:	61 e0       	ldi	r22, 0x01	; 1
    3fd4:	01 c0       	rjmp	.+2      	; 0x3fd8 <strtol+0x1a0>
    3fd6:	6f ef       	ldi	r22, 0xFF	; 255
    3fd8:	21 96       	adiw	r28, 0x01	; 1
    3fda:	f1 01       	movw	r30, r2
    3fdc:	10 81       	ld	r17, Z
    3fde:	cc cf       	rjmp	.-104    	; 0x3f78 <strtol+0x140>
    3fe0:	80 2f       	mov	r24, r16
    3fe2:	81 70       	andi	r24, 0x01	; 1
    3fe4:	c1 14       	cp	r12, r1
    3fe6:	d1 04       	cpc	r13, r1
    3fe8:	71 f0       	breq	.+28     	; 0x4006 <strtol+0x1ce>
    3fea:	66 23       	and	r22, r22
    3fec:	29 f0       	breq	.+10     	; 0x3ff8 <strtol+0x1c0>
    3fee:	21 97       	sbiw	r28, 0x01	; 1
    3ff0:	f6 01       	movw	r30, r12
    3ff2:	d1 83       	std	Z+1, r29	; 0x01
    3ff4:	c0 83       	st	Z, r28
    3ff6:	07 c0       	rjmp	.+14     	; 0x4006 <strtol+0x1ce>
    3ff8:	01 ff       	sbrs	r16, 1
    3ffa:	19 c0       	rjmp	.+50     	; 0x402e <strtol+0x1f6>
    3ffc:	22 97       	sbiw	r28, 0x02	; 2
    3ffe:	f6 01       	movw	r30, r12
    4000:	d1 83       	std	Z+1, r29	; 0x01
    4002:	c0 83       	st	Z, r28
    4004:	14 c0       	rjmp	.+40     	; 0x402e <strtol+0x1f6>
    4006:	67 ff       	sbrs	r22, 7
    4008:	12 c0       	rjmp	.+36     	; 0x402e <strtol+0x1f6>
    400a:	81 11       	cpse	r24, r1
    400c:	05 c0       	rjmp	.+10     	; 0x4018 <strtol+0x1e0>
    400e:	2f ef       	ldi	r18, 0xFF	; 255
    4010:	3f ef       	ldi	r19, 0xFF	; 255
    4012:	4f ef       	ldi	r20, 0xFF	; 255
    4014:	5f e7       	ldi	r21, 0x7F	; 127
    4016:	04 c0       	rjmp	.+8      	; 0x4020 <strtol+0x1e8>
    4018:	20 e0       	ldi	r18, 0x00	; 0
    401a:	30 e0       	ldi	r19, 0x00	; 0
    401c:	40 e0       	ldi	r20, 0x00	; 0
    401e:	50 e8       	ldi	r21, 0x80	; 128
    4020:	82 e2       	ldi	r24, 0x22	; 34
    4022:	90 e0       	ldi	r25, 0x00	; 0
    4024:	90 93 e7 13 	sts	0x13E7, r25
    4028:	80 93 e6 13 	sts	0x13E6, r24
    402c:	16 c0       	rjmp	.+44     	; 0x405a <strtol+0x222>
    402e:	88 23       	and	r24, r24
    4030:	41 f0       	breq	.+16     	; 0x4042 <strtol+0x20a>
    4032:	50 95       	com	r21
    4034:	40 95       	com	r20
    4036:	30 95       	com	r19
    4038:	21 95       	neg	r18
    403a:	3f 4f       	sbci	r19, 0xFF	; 255
    403c:	4f 4f       	sbci	r20, 0xFF	; 255
    403e:	5f 4f       	sbci	r21, 0xFF	; 255
    4040:	0c c0       	rjmp	.+24     	; 0x405a <strtol+0x222>
    4042:	57 ff       	sbrs	r21, 7
    4044:	0a c0       	rjmp	.+20     	; 0x405a <strtol+0x222>
    4046:	82 e2       	ldi	r24, 0x22	; 34
    4048:	90 e0       	ldi	r25, 0x00	; 0
    404a:	90 93 e7 13 	sts	0x13E7, r25
    404e:	80 93 e6 13 	sts	0x13E6, r24
    4052:	2f ef       	ldi	r18, 0xFF	; 255
    4054:	3f ef       	ldi	r19, 0xFF	; 255
    4056:	4f ef       	ldi	r20, 0xFF	; 255
    4058:	5f e7       	ldi	r21, 0x7F	; 127
    405a:	b9 01       	movw	r22, r18
    405c:	ca 01       	movw	r24, r20
    405e:	04 c0       	rjmp	.+8      	; 0x4068 <strtol+0x230>
    4060:	60 e0       	ldi	r22, 0x00	; 0
    4062:	70 e0       	ldi	r23, 0x00	; 0
    4064:	80 e0       	ldi	r24, 0x00	; 0
    4066:	90 e0       	ldi	r25, 0x00	; 0
    4068:	df 91       	pop	r29
    406a:	cf 91       	pop	r28
    406c:	1f 91       	pop	r17
    406e:	0f 91       	pop	r16
    4070:	ff 90       	pop	r15
    4072:	ef 90       	pop	r14
    4074:	df 90       	pop	r13
    4076:	cf 90       	pop	r12
    4078:	bf 90       	pop	r11
    407a:	af 90       	pop	r10
    407c:	9f 90       	pop	r9
    407e:	8f 90       	pop	r8
    4080:	7f 90       	pop	r7
    4082:	6f 90       	pop	r6
    4084:	5f 90       	pop	r5
    4086:	4f 90       	pop	r4
    4088:	3f 90       	pop	r3
    408a:	2f 90       	pop	r2
    408c:	08 95       	ret

0000408e <strtoul>:
    408e:	2f 92       	push	r2
    4090:	3f 92       	push	r3
    4092:	4f 92       	push	r4
    4094:	5f 92       	push	r5
    4096:	6f 92       	push	r6
    4098:	7f 92       	push	r7
    409a:	8f 92       	push	r8
    409c:	9f 92       	push	r9
    409e:	af 92       	push	r10
    40a0:	bf 92       	push	r11
    40a2:	cf 92       	push	r12
    40a4:	df 92       	push	r13
    40a6:	ef 92       	push	r14
    40a8:	ff 92       	push	r15
    40aa:	0f 93       	push	r16
    40ac:	1f 93       	push	r17
    40ae:	cf 93       	push	r28
    40b0:	df 93       	push	r29
    40b2:	00 d0       	rcall	.+0      	; 0x40b4 <strtoul+0x26>
    40b4:	00 d0       	rcall	.+0      	; 0x40b6 <strtoul+0x28>
    40b6:	00 d0       	rcall	.+0      	; 0x40b8 <strtoul+0x2a>
    40b8:	cd b7       	in	r28, 0x3d	; 61
    40ba:	de b7       	in	r29, 0x3e	; 62
    40bc:	5c 01       	movw	r10, r24
    40be:	6b 01       	movw	r12, r22
    40c0:	7a 01       	movw	r14, r20
    40c2:	61 15       	cp	r22, r1
    40c4:	71 05       	cpc	r23, r1
    40c6:	19 f0       	breq	.+6      	; 0x40ce <strtoul+0x40>
    40c8:	db 01       	movw	r26, r22
    40ca:	8d 93       	st	X+, r24
    40cc:	9c 93       	st	X, r25
    40ce:	e1 14       	cp	r14, r1
    40d0:	f1 04       	cpc	r15, r1
    40d2:	29 f0       	breq	.+10     	; 0x40de <strtoul+0x50>
    40d4:	c7 01       	movw	r24, r14
    40d6:	02 97       	sbiw	r24, 0x02	; 2
    40d8:	83 97       	sbiw	r24, 0x23	; 35
    40da:	08 f0       	brcs	.+2      	; 0x40de <strtoul+0x50>
    40dc:	dc c0       	rjmp	.+440    	; 0x4296 <strtoul+0x208>
    40de:	35 01       	movw	r6, r10
    40e0:	bf ef       	ldi	r27, 0xFF	; 255
    40e2:	6b 1a       	sub	r6, r27
    40e4:	7b 0a       	sbc	r7, r27
    40e6:	f5 01       	movw	r30, r10
    40e8:	10 81       	ld	r17, Z
    40ea:	81 2f       	mov	r24, r17
    40ec:	90 e0       	ldi	r25, 0x00	; 0
    40ee:	0e 94 7f 21 	call	0x42fe	; 0x42fe <isspace>
    40f2:	89 2b       	or	r24, r25
    40f4:	11 f0       	breq	.+4      	; 0x40fa <strtoul+0x6c>
    40f6:	53 01       	movw	r10, r6
    40f8:	f2 cf       	rjmp	.-28     	; 0x40de <strtoul+0x50>
    40fa:	1d 32       	cpi	r17, 0x2D	; 45
    40fc:	49 f4       	brne	.+18     	; 0x4110 <strtoul+0x82>
    40fe:	35 01       	movw	r6, r10
    4100:	f2 e0       	ldi	r31, 0x02	; 2
    4102:	6f 0e       	add	r6, r31
    4104:	71 1c       	adc	r7, r1
    4106:	d5 01       	movw	r26, r10
    4108:	11 96       	adiw	r26, 0x01	; 1
    410a:	1c 91       	ld	r17, X
    410c:	01 e0       	ldi	r16, 0x01	; 1
    410e:	09 c0       	rjmp	.+18     	; 0x4122 <strtoul+0x94>
    4110:	1b 32       	cpi	r17, 0x2B	; 43
    4112:	31 f4       	brne	.+12     	; 0x4120 <strtoul+0x92>
    4114:	35 01       	movw	r6, r10
    4116:	b2 e0       	ldi	r27, 0x02	; 2
    4118:	6b 0e       	add	r6, r27
    411a:	71 1c       	adc	r7, r1
    411c:	f5 01       	movw	r30, r10
    411e:	11 81       	ldd	r17, Z+1	; 0x01
    4120:	00 e0       	ldi	r16, 0x00	; 0
    4122:	e1 14       	cp	r14, r1
    4124:	f1 04       	cpc	r15, r1
    4126:	09 f4       	brne	.+2      	; 0x412a <strtoul+0x9c>
    4128:	c4 c0       	rjmp	.+392    	; 0x42b2 <strtoul+0x224>
    412a:	f0 e1       	ldi	r31, 0x10	; 16
    412c:	ef 16       	cp	r14, r31
    412e:	f1 04       	cpc	r15, r1
    4130:	89 f4       	brne	.+34     	; 0x4154 <strtoul+0xc6>
    4132:	10 33       	cpi	r17, 0x30	; 48
    4134:	99 f5       	brne	.+102    	; 0x419c <strtoul+0x10e>
    4136:	d3 01       	movw	r26, r6
    4138:	8c 91       	ld	r24, X
    413a:	8f 7d       	andi	r24, 0xDF	; 223
    413c:	88 35       	cpi	r24, 0x58	; 88
    413e:	09 f0       	breq	.+2      	; 0x4142 <strtoul+0xb4>
    4140:	b2 c0       	rjmp	.+356    	; 0x42a6 <strtoul+0x218>
    4142:	11 96       	adiw	r26, 0x01	; 1
    4144:	1c 91       	ld	r17, X
    4146:	b2 e0       	ldi	r27, 0x02	; 2
    4148:	6b 0e       	add	r6, r27
    414a:	71 1c       	adc	r7, r1
    414c:	02 60       	ori	r16, 0x02	; 2
    414e:	50 e1       	ldi	r21, 0x10	; 16
    4150:	e5 2e       	mov	r14, r21
    4152:	f1 2c       	mov	r15, r1
    4154:	ea e0       	ldi	r30, 0x0A	; 10
    4156:	ee 16       	cp	r14, r30
    4158:	f1 04       	cpc	r15, r1
    415a:	09 f4       	brne	.+2      	; 0x415e <strtoul+0xd0>
    415c:	b0 c0       	rjmp	.+352    	; 0x42be <strtoul+0x230>
    415e:	f0 e1       	ldi	r31, 0x10	; 16
    4160:	ef 16       	cp	r14, r31
    4162:	f1 04       	cpc	r15, r1
    4164:	d9 f0       	breq	.+54     	; 0x419c <strtoul+0x10e>
    4166:	28 e0       	ldi	r18, 0x08	; 8
    4168:	e2 16       	cp	r14, r18
    416a:	f1 04       	cpc	r15, r1
    416c:	51 f4       	brne	.+20     	; 0x4182 <strtoul+0xf4>
    416e:	38 e0       	ldi	r19, 0x08	; 8
    4170:	e3 2e       	mov	r14, r19
    4172:	f1 2c       	mov	r15, r1
    4174:	88 24       	eor	r8, r8
    4176:	8a 94       	dec	r8
    4178:	98 2c       	mov	r9, r8
    417a:	a8 2c       	mov	r10, r8
    417c:	4f e1       	ldi	r20, 0x1F	; 31
    417e:	b4 2e       	mov	r11, r20
    4180:	13 c0       	rjmp	.+38     	; 0x41a8 <strtoul+0x11a>
    4182:	6f ef       	ldi	r22, 0xFF	; 255
    4184:	7f ef       	ldi	r23, 0xFF	; 255
    4186:	cb 01       	movw	r24, r22
    4188:	97 01       	movw	r18, r14
    418a:	44 27       	eor	r20, r20
    418c:	37 fd       	sbrc	r19, 7
    418e:	40 95       	com	r20
    4190:	54 2f       	mov	r21, r20
    4192:	0e 94 16 25 	call	0x4a2c	; 0x4a2c <__udivmodsi4>
    4196:	49 01       	movw	r8, r18
    4198:	5a 01       	movw	r10, r20
    419a:	06 c0       	rjmp	.+12     	; 0x41a8 <strtoul+0x11a>
    419c:	88 24       	eor	r8, r8
    419e:	8a 94       	dec	r8
    41a0:	98 2c       	mov	r9, r8
    41a2:	a8 2c       	mov	r10, r8
    41a4:	2f e0       	ldi	r18, 0x0F	; 15
    41a6:	b2 2e       	mov	r11, r18
    41a8:	7e 82       	std	Y+6, r7	; 0x06
    41aa:	6d 82       	std	Y+5, r6	; 0x05
    41ac:	60 e0       	ldi	r22, 0x00	; 0
    41ae:	20 e0       	ldi	r18, 0x00	; 0
    41b0:	30 e0       	ldi	r19, 0x00	; 0
    41b2:	a9 01       	movw	r20, r18
    41b4:	27 01       	movw	r4, r14
    41b6:	66 24       	eor	r6, r6
    41b8:	57 fc       	sbrc	r5, 7
    41ba:	60 94       	com	r6
    41bc:	76 2c       	mov	r7, r6
    41be:	2d 80       	ldd	r2, Y+5	; 0x05
    41c0:	3e 80       	ldd	r3, Y+6	; 0x06
    41c2:	e0 ed       	ldi	r30, 0xD0	; 208
    41c4:	e1 0f       	add	r30, r17
    41c6:	ea 30       	cpi	r30, 0x0A	; 10
    41c8:	60 f0       	brcs	.+24     	; 0x41e2 <strtoul+0x154>
    41ca:	8f eb       	ldi	r24, 0xBF	; 191
    41cc:	81 0f       	add	r24, r17
    41ce:	8a 31       	cpi	r24, 0x1A	; 26
    41d0:	10 f4       	brcc	.+4      	; 0x41d6 <strtoul+0x148>
    41d2:	e9 ec       	ldi	r30, 0xC9	; 201
    41d4:	05 c0       	rjmp	.+10     	; 0x41e0 <strtoul+0x152>
    41d6:	8f e9       	ldi	r24, 0x9F	; 159
    41d8:	81 0f       	add	r24, r17
    41da:	8a 31       	cpi	r24, 0x1A	; 26
    41dc:	90 f5       	brcc	.+100    	; 0x4242 <strtoul+0x1b4>
    41de:	e9 ea       	ldi	r30, 0xA9	; 169
    41e0:	e1 0f       	add	r30, r17
    41e2:	8e 2f       	mov	r24, r30
    41e4:	90 e0       	ldi	r25, 0x00	; 0
    41e6:	8e 15       	cp	r24, r14
    41e8:	9f 05       	cpc	r25, r15
    41ea:	5c f5       	brge	.+86     	; 0x4242 <strtoul+0x1b4>
    41ec:	6f 3f       	cpi	r22, 0xFF	; 255
    41ee:	09 f1       	breq	.+66     	; 0x4232 <strtoul+0x1a4>
    41f0:	82 16       	cp	r8, r18
    41f2:	93 06       	cpc	r9, r19
    41f4:	a4 06       	cpc	r10, r20
    41f6:	b5 06       	cpc	r11, r21
    41f8:	d8 f0       	brcs	.+54     	; 0x4230 <strtoul+0x1a2>
    41fa:	c3 01       	movw	r24, r6
    41fc:	b2 01       	movw	r22, r4
    41fe:	0e 94 06 25 	call	0x4a0c	; 0x4a0c <__mulsi3>
    4202:	2e 2f       	mov	r18, r30
    4204:	30 e0       	ldi	r19, 0x00	; 0
    4206:	40 e0       	ldi	r20, 0x00	; 0
    4208:	50 e0       	ldi	r21, 0x00	; 0
    420a:	29 83       	std	Y+1, r18	; 0x01
    420c:	3a 83       	std	Y+2, r19	; 0x02
    420e:	4b 83       	std	Y+3, r20	; 0x03
    4210:	5c 83       	std	Y+4, r21	; 0x04
    4212:	26 0f       	add	r18, r22
    4214:	37 1f       	adc	r19, r23
    4216:	48 1f       	adc	r20, r24
    4218:	59 1f       	adc	r21, r25
    421a:	89 81       	ldd	r24, Y+1	; 0x01
    421c:	9a 81       	ldd	r25, Y+2	; 0x02
    421e:	ab 81       	ldd	r26, Y+3	; 0x03
    4220:	bc 81       	ldd	r27, Y+4	; 0x04
    4222:	28 17       	cp	r18, r24
    4224:	39 07       	cpc	r19, r25
    4226:	4a 07       	cpc	r20, r26
    4228:	5b 07       	cpc	r21, r27
    422a:	10 f0       	brcs	.+4      	; 0x4230 <strtoul+0x1a2>
    422c:	61 e0       	ldi	r22, 0x01	; 1
    422e:	01 c0       	rjmp	.+2      	; 0x4232 <strtoul+0x1a4>
    4230:	6f ef       	ldi	r22, 0xFF	; 255
    4232:	ed 81       	ldd	r30, Y+5	; 0x05
    4234:	fe 81       	ldd	r31, Y+6	; 0x06
    4236:	31 96       	adiw	r30, 0x01	; 1
    4238:	fe 83       	std	Y+6, r31	; 0x06
    423a:	ed 83       	std	Y+5, r30	; 0x05
    423c:	d1 01       	movw	r26, r2
    423e:	1c 91       	ld	r17, X
    4240:	be cf       	rjmp	.-132    	; 0x41be <strtoul+0x130>
    4242:	c1 14       	cp	r12, r1
    4244:	d1 04       	cpc	r13, r1
    4246:	89 f0       	breq	.+34     	; 0x426a <strtoul+0x1dc>
    4248:	66 23       	and	r22, r22
    424a:	39 f0       	breq	.+14     	; 0x425a <strtoul+0x1cc>
    424c:	8d 81       	ldd	r24, Y+5	; 0x05
    424e:	9e 81       	ldd	r25, Y+6	; 0x06
    4250:	01 97       	sbiw	r24, 0x01	; 1
    4252:	f6 01       	movw	r30, r12
    4254:	91 83       	std	Z+1, r25	; 0x01
    4256:	80 83       	st	Z, r24
    4258:	08 c0       	rjmp	.+16     	; 0x426a <strtoul+0x1dc>
    425a:	01 ff       	sbrs	r16, 1
    425c:	06 c0       	rjmp	.+12     	; 0x426a <strtoul+0x1dc>
    425e:	8d 81       	ldd	r24, Y+5	; 0x05
    4260:	9e 81       	ldd	r25, Y+6	; 0x06
    4262:	02 97       	sbiw	r24, 0x02	; 2
    4264:	d6 01       	movw	r26, r12
    4266:	8d 93       	st	X+, r24
    4268:	9c 93       	st	X, r25
    426a:	00 ff       	sbrs	r16, 0
    426c:	07 c0       	rjmp	.+14     	; 0x427c <strtoul+0x1ee>
    426e:	50 95       	com	r21
    4270:	40 95       	com	r20
    4272:	30 95       	com	r19
    4274:	21 95       	neg	r18
    4276:	3f 4f       	sbci	r19, 0xFF	; 255
    4278:	4f 4f       	sbci	r20, 0xFF	; 255
    427a:	5f 4f       	sbci	r21, 0xFF	; 255
    427c:	67 ff       	sbrs	r22, 7
    427e:	10 c0       	rjmp	.+32     	; 0x42a0 <strtoul+0x212>
    4280:	82 e2       	ldi	r24, 0x22	; 34
    4282:	90 e0       	ldi	r25, 0x00	; 0
    4284:	90 93 e7 13 	sts	0x13E7, r25
    4288:	80 93 e6 13 	sts	0x13E6, r24
    428c:	6f ef       	ldi	r22, 0xFF	; 255
    428e:	7f ef       	ldi	r23, 0xFF	; 255
    4290:	8f ef       	ldi	r24, 0xFF	; 255
    4292:	9f ef       	ldi	r25, 0xFF	; 255
    4294:	1b c0       	rjmp	.+54     	; 0x42cc <strtoul+0x23e>
    4296:	60 e0       	ldi	r22, 0x00	; 0
    4298:	70 e0       	ldi	r23, 0x00	; 0
    429a:	80 e0       	ldi	r24, 0x00	; 0
    429c:	90 e0       	ldi	r25, 0x00	; 0
    429e:	16 c0       	rjmp	.+44     	; 0x42cc <strtoul+0x23e>
    42a0:	b9 01       	movw	r22, r18
    42a2:	ca 01       	movw	r24, r20
    42a4:	13 c0       	rjmp	.+38     	; 0x42cc <strtoul+0x23e>
    42a6:	10 e3       	ldi	r17, 0x30	; 48
    42a8:	e1 14       	cp	r14, r1
    42aa:	f1 04       	cpc	r15, r1
    42ac:	09 f4       	brne	.+2      	; 0x42b0 <strtoul+0x222>
    42ae:	5f cf       	rjmp	.-322    	; 0x416e <strtoul+0xe0>
    42b0:	51 cf       	rjmp	.-350    	; 0x4154 <strtoul+0xc6>
    42b2:	10 33       	cpi	r17, 0x30	; 48
    42b4:	09 f4       	brne	.+2      	; 0x42b8 <strtoul+0x22a>
    42b6:	3f cf       	rjmp	.-386    	; 0x4136 <strtoul+0xa8>
    42b8:	9a e0       	ldi	r25, 0x0A	; 10
    42ba:	e9 2e       	mov	r14, r25
    42bc:	f1 2c       	mov	r15, r1
    42be:	89 e9       	ldi	r24, 0x99	; 153
    42c0:	88 2e       	mov	r8, r24
    42c2:	98 2c       	mov	r9, r8
    42c4:	a8 2c       	mov	r10, r8
    42c6:	89 e1       	ldi	r24, 0x19	; 25
    42c8:	b8 2e       	mov	r11, r24
    42ca:	6e cf       	rjmp	.-292    	; 0x41a8 <strtoul+0x11a>
    42cc:	26 96       	adiw	r28, 0x06	; 6
    42ce:	0f b6       	in	r0, 0x3f	; 63
    42d0:	f8 94       	cli
    42d2:	de bf       	out	0x3e, r29	; 62
    42d4:	0f be       	out	0x3f, r0	; 63
    42d6:	cd bf       	out	0x3d, r28	; 61
    42d8:	df 91       	pop	r29
    42da:	cf 91       	pop	r28
    42dc:	1f 91       	pop	r17
    42de:	0f 91       	pop	r16
    42e0:	ff 90       	pop	r15
    42e2:	ef 90       	pop	r14
    42e4:	df 90       	pop	r13
    42e6:	cf 90       	pop	r12
    42e8:	bf 90       	pop	r11
    42ea:	af 90       	pop	r10
    42ec:	9f 90       	pop	r9
    42ee:	8f 90       	pop	r8
    42f0:	7f 90       	pop	r7
    42f2:	6f 90       	pop	r6
    42f4:	5f 90       	pop	r5
    42f6:	4f 90       	pop	r4
    42f8:	3f 90       	pop	r3
    42fa:	2f 90       	pop	r2
    42fc:	08 95       	ret

000042fe <isspace>:
    42fe:	91 11       	cpse	r25, r1
    4300:	d6 c2       	rjmp	.+1452   	; 0x48ae <__ctype_isfalse>
    4302:	80 32       	cpi	r24, 0x20	; 32
    4304:	19 f0       	breq	.+6      	; 0x430c <isspace+0xe>
    4306:	89 50       	subi	r24, 0x09	; 9
    4308:	85 50       	subi	r24, 0x05	; 5
    430a:	d0 f7       	brcc	.-12     	; 0x4300 <isspace+0x2>
    430c:	08 95       	ret

0000430e <memcpy>:
    430e:	fb 01       	movw	r30, r22
    4310:	dc 01       	movw	r26, r24
    4312:	02 c0       	rjmp	.+4      	; 0x4318 <memcpy+0xa>
    4314:	01 90       	ld	r0, Z+
    4316:	0d 92       	st	X+, r0
    4318:	41 50       	subi	r20, 0x01	; 1
    431a:	50 40       	sbci	r21, 0x00	; 0
    431c:	d8 f7       	brcc	.-10     	; 0x4314 <memcpy+0x6>
    431e:	08 95       	ret

00004320 <memset>:
    4320:	dc 01       	movw	r26, r24
    4322:	01 c0       	rjmp	.+2      	; 0x4326 <memset+0x6>
    4324:	6d 93       	st	X+, r22
    4326:	41 50       	subi	r20, 0x01	; 1
    4328:	50 40       	sbci	r21, 0x00	; 0
    432a:	e0 f7       	brcc	.-8      	; 0x4324 <memset+0x4>
    432c:	08 95       	ret

0000432e <strchr>:
    432e:	fc 01       	movw	r30, r24
    4330:	81 91       	ld	r24, Z+
    4332:	86 17       	cp	r24, r22
    4334:	21 f0       	breq	.+8      	; 0x433e <strchr+0x10>
    4336:	88 23       	and	r24, r24
    4338:	d9 f7       	brne	.-10     	; 0x4330 <strchr+0x2>
    433a:	99 27       	eor	r25, r25
    433c:	08 95       	ret
    433e:	31 97       	sbiw	r30, 0x01	; 1
    4340:	cf 01       	movw	r24, r30
    4342:	08 95       	ret

00004344 <strcmp>:
    4344:	fb 01       	movw	r30, r22
    4346:	dc 01       	movw	r26, r24
    4348:	8d 91       	ld	r24, X+
    434a:	01 90       	ld	r0, Z+
    434c:	80 19       	sub	r24, r0
    434e:	01 10       	cpse	r0, r1
    4350:	d9 f3       	breq	.-10     	; 0x4348 <strcmp+0x4>
    4352:	99 0b       	sbc	r25, r25
    4354:	08 95       	ret

00004356 <strncmp>:
    4356:	fb 01       	movw	r30, r22
    4358:	dc 01       	movw	r26, r24
    435a:	41 50       	subi	r20, 0x01	; 1
    435c:	50 40       	sbci	r21, 0x00	; 0
    435e:	30 f0       	brcs	.+12     	; 0x436c <strncmp+0x16>
    4360:	8d 91       	ld	r24, X+
    4362:	01 90       	ld	r0, Z+
    4364:	80 19       	sub	r24, r0
    4366:	19 f4       	brne	.+6      	; 0x436e <strncmp+0x18>
    4368:	00 20       	and	r0, r0
    436a:	b9 f7       	brne	.-18     	; 0x435a <strncmp+0x4>
    436c:	88 1b       	sub	r24, r24
    436e:	99 0b       	sbc	r25, r25
    4370:	08 95       	ret

00004372 <strncpy>:
    4372:	fb 01       	movw	r30, r22
    4374:	dc 01       	movw	r26, r24
    4376:	41 50       	subi	r20, 0x01	; 1
    4378:	50 40       	sbci	r21, 0x00	; 0
    437a:	48 f0       	brcs	.+18     	; 0x438e <strncpy+0x1c>
    437c:	01 90       	ld	r0, Z+
    437e:	0d 92       	st	X+, r0
    4380:	00 20       	and	r0, r0
    4382:	c9 f7       	brne	.-14     	; 0x4376 <strncpy+0x4>
    4384:	01 c0       	rjmp	.+2      	; 0x4388 <strncpy+0x16>
    4386:	1d 92       	st	X+, r1
    4388:	41 50       	subi	r20, 0x01	; 1
    438a:	50 40       	sbci	r21, 0x00	; 0
    438c:	e0 f7       	brcc	.-8      	; 0x4386 <strncpy+0x14>
    438e:	08 95       	ret

00004390 <strtok_r>:
    4390:	fa 01       	movw	r30, r20
    4392:	a1 91       	ld	r26, Z+
    4394:	b0 81       	ld	r27, Z
    4396:	00 97       	sbiw	r24, 0x00	; 0
    4398:	19 f4       	brne	.+6      	; 0x43a0 <strtok_r+0x10>
    439a:	10 97       	sbiw	r26, 0x00	; 0
    439c:	e1 f0       	breq	.+56     	; 0x43d6 <strtok_r+0x46>
    439e:	cd 01       	movw	r24, r26
    43a0:	dc 01       	movw	r26, r24
    43a2:	cd 01       	movw	r24, r26
    43a4:	0d 90       	ld	r0, X+
    43a6:	00 20       	and	r0, r0
    43a8:	11 f4       	brne	.+4      	; 0x43ae <strtok_r+0x1e>
    43aa:	c0 01       	movw	r24, r0
    43ac:	13 c0       	rjmp	.+38     	; 0x43d4 <strtok_r+0x44>
    43ae:	fb 01       	movw	r30, r22
    43b0:	21 91       	ld	r18, Z+
    43b2:	22 23       	and	r18, r18
    43b4:	19 f0       	breq	.+6      	; 0x43bc <strtok_r+0x2c>
    43b6:	20 15       	cp	r18, r0
    43b8:	d9 f7       	brne	.-10     	; 0x43b0 <strtok_r+0x20>
    43ba:	f3 cf       	rjmp	.-26     	; 0x43a2 <strtok_r+0x12>
    43bc:	fb 01       	movw	r30, r22
    43be:	21 91       	ld	r18, Z+
    43c0:	20 15       	cp	r18, r0
    43c2:	19 f4       	brne	.+6      	; 0x43ca <strtok_r+0x3a>
    43c4:	1e 92       	st	-X, r1
    43c6:	11 96       	adiw	r26, 0x01	; 1
    43c8:	06 c0       	rjmp	.+12     	; 0x43d6 <strtok_r+0x46>
    43ca:	22 23       	and	r18, r18
    43cc:	c1 f7       	brne	.-16     	; 0x43be <strtok_r+0x2e>
    43ce:	0d 90       	ld	r0, X+
    43d0:	00 20       	and	r0, r0
    43d2:	a1 f7       	brne	.-24     	; 0x43bc <strtok_r+0x2c>
    43d4:	d0 01       	movw	r26, r0
    43d6:	fa 01       	movw	r30, r20
    43d8:	a1 93       	st	Z+, r26
    43da:	b0 83       	st	Z, r27
    43dc:	08 95       	ret

000043de <snprintf>:
    43de:	0f 93       	push	r16
    43e0:	1f 93       	push	r17
    43e2:	cf 93       	push	r28
    43e4:	df 93       	push	r29
    43e6:	cd b7       	in	r28, 0x3d	; 61
    43e8:	de b7       	in	r29, 0x3e	; 62
    43ea:	2e 97       	sbiw	r28, 0x0e	; 14
    43ec:	0f b6       	in	r0, 0x3f	; 63
    43ee:	f8 94       	cli
    43f0:	de bf       	out	0x3e, r29	; 62
    43f2:	0f be       	out	0x3f, r0	; 63
    43f4:	cd bf       	out	0x3d, r28	; 61
    43f6:	0d 89       	ldd	r16, Y+21	; 0x15
    43f8:	1e 89       	ldd	r17, Y+22	; 0x16
    43fa:	8f 89       	ldd	r24, Y+23	; 0x17
    43fc:	98 8d       	ldd	r25, Y+24	; 0x18
    43fe:	26 e0       	ldi	r18, 0x06	; 6
    4400:	2c 83       	std	Y+4, r18	; 0x04
    4402:	1a 83       	std	Y+2, r17	; 0x02
    4404:	09 83       	std	Y+1, r16	; 0x01
    4406:	97 ff       	sbrs	r25, 7
    4408:	02 c0       	rjmp	.+4      	; 0x440e <snprintf+0x30>
    440a:	80 e0       	ldi	r24, 0x00	; 0
    440c:	90 e8       	ldi	r25, 0x80	; 128
    440e:	01 97       	sbiw	r24, 0x01	; 1
    4410:	9e 83       	std	Y+6, r25	; 0x06
    4412:	8d 83       	std	Y+5, r24	; 0x05
    4414:	ae 01       	movw	r20, r28
    4416:	45 5e       	subi	r20, 0xE5	; 229
    4418:	5f 4f       	sbci	r21, 0xFF	; 255
    441a:	69 8d       	ldd	r22, Y+25	; 0x19
    441c:	7a 8d       	ldd	r23, Y+26	; 0x1a
    441e:	ce 01       	movw	r24, r28
    4420:	01 96       	adiw	r24, 0x01	; 1
    4422:	0e 94 5c 22 	call	0x44b8	; 0x44b8 <vfprintf>
    4426:	4d 81       	ldd	r20, Y+5	; 0x05
    4428:	5e 81       	ldd	r21, Y+6	; 0x06
    442a:	57 fd       	sbrc	r21, 7
    442c:	0a c0       	rjmp	.+20     	; 0x4442 <snprintf+0x64>
    442e:	2f 81       	ldd	r18, Y+7	; 0x07
    4430:	38 85       	ldd	r19, Y+8	; 0x08
    4432:	42 17       	cp	r20, r18
    4434:	53 07       	cpc	r21, r19
    4436:	0c f4       	brge	.+2      	; 0x443a <snprintf+0x5c>
    4438:	9a 01       	movw	r18, r20
    443a:	f8 01       	movw	r30, r16
    443c:	e2 0f       	add	r30, r18
    443e:	f3 1f       	adc	r31, r19
    4440:	10 82       	st	Z, r1
    4442:	2e 96       	adiw	r28, 0x0e	; 14
    4444:	0f b6       	in	r0, 0x3f	; 63
    4446:	f8 94       	cli
    4448:	de bf       	out	0x3e, r29	; 62
    444a:	0f be       	out	0x3f, r0	; 63
    444c:	cd bf       	out	0x3d, r28	; 61
    444e:	df 91       	pop	r29
    4450:	cf 91       	pop	r28
    4452:	1f 91       	pop	r17
    4454:	0f 91       	pop	r16
    4456:	08 95       	ret

00004458 <sprintf>:
    4458:	0f 93       	push	r16
    445a:	1f 93       	push	r17
    445c:	cf 93       	push	r28
    445e:	df 93       	push	r29
    4460:	cd b7       	in	r28, 0x3d	; 61
    4462:	de b7       	in	r29, 0x3e	; 62
    4464:	2e 97       	sbiw	r28, 0x0e	; 14
    4466:	0f b6       	in	r0, 0x3f	; 63
    4468:	f8 94       	cli
    446a:	de bf       	out	0x3e, r29	; 62
    446c:	0f be       	out	0x3f, r0	; 63
    446e:	cd bf       	out	0x3d, r28	; 61
    4470:	0d 89       	ldd	r16, Y+21	; 0x15
    4472:	1e 89       	ldd	r17, Y+22	; 0x16
    4474:	86 e0       	ldi	r24, 0x06	; 6
    4476:	8c 83       	std	Y+4, r24	; 0x04
    4478:	1a 83       	std	Y+2, r17	; 0x02
    447a:	09 83       	std	Y+1, r16	; 0x01
    447c:	8f ef       	ldi	r24, 0xFF	; 255
    447e:	9f e7       	ldi	r25, 0x7F	; 127
    4480:	9e 83       	std	Y+6, r25	; 0x06
    4482:	8d 83       	std	Y+5, r24	; 0x05
    4484:	ae 01       	movw	r20, r28
    4486:	47 5e       	subi	r20, 0xE7	; 231
    4488:	5f 4f       	sbci	r21, 0xFF	; 255
    448a:	6f 89       	ldd	r22, Y+23	; 0x17
    448c:	78 8d       	ldd	r23, Y+24	; 0x18
    448e:	ce 01       	movw	r24, r28
    4490:	01 96       	adiw	r24, 0x01	; 1
    4492:	0e 94 5c 22 	call	0x44b8	; 0x44b8 <vfprintf>
    4496:	2f 81       	ldd	r18, Y+7	; 0x07
    4498:	38 85       	ldd	r19, Y+8	; 0x08
    449a:	f8 01       	movw	r30, r16
    449c:	e2 0f       	add	r30, r18
    449e:	f3 1f       	adc	r31, r19
    44a0:	10 82       	st	Z, r1
    44a2:	2e 96       	adiw	r28, 0x0e	; 14
    44a4:	0f b6       	in	r0, 0x3f	; 63
    44a6:	f8 94       	cli
    44a8:	de bf       	out	0x3e, r29	; 62
    44aa:	0f be       	out	0x3f, r0	; 63
    44ac:	cd bf       	out	0x3d, r28	; 61
    44ae:	df 91       	pop	r29
    44b0:	cf 91       	pop	r28
    44b2:	1f 91       	pop	r17
    44b4:	0f 91       	pop	r16
    44b6:	08 95       	ret

000044b8 <vfprintf>:
    44b8:	2f 92       	push	r2
    44ba:	3f 92       	push	r3
    44bc:	4f 92       	push	r4
    44be:	5f 92       	push	r5
    44c0:	6f 92       	push	r6
    44c2:	7f 92       	push	r7
    44c4:	8f 92       	push	r8
    44c6:	9f 92       	push	r9
    44c8:	af 92       	push	r10
    44ca:	bf 92       	push	r11
    44cc:	cf 92       	push	r12
    44ce:	df 92       	push	r13
    44d0:	ef 92       	push	r14
    44d2:	ff 92       	push	r15
    44d4:	0f 93       	push	r16
    44d6:	1f 93       	push	r17
    44d8:	cf 93       	push	r28
    44da:	df 93       	push	r29
    44dc:	cd b7       	in	r28, 0x3d	; 61
    44de:	de b7       	in	r29, 0x3e	; 62
    44e0:	2c 97       	sbiw	r28, 0x0c	; 12
    44e2:	0f b6       	in	r0, 0x3f	; 63
    44e4:	f8 94       	cli
    44e6:	de bf       	out	0x3e, r29	; 62
    44e8:	0f be       	out	0x3f, r0	; 63
    44ea:	cd bf       	out	0x3d, r28	; 61
    44ec:	7c 01       	movw	r14, r24
    44ee:	6b 01       	movw	r12, r22
    44f0:	8a 01       	movw	r16, r20
    44f2:	fc 01       	movw	r30, r24
    44f4:	17 82       	std	Z+7, r1	; 0x07
    44f6:	16 82       	std	Z+6, r1	; 0x06
    44f8:	83 81       	ldd	r24, Z+3	; 0x03
    44fa:	81 ff       	sbrs	r24, 1
    44fc:	bd c1       	rjmp	.+890    	; 0x4878 <vfprintf+0x3c0>
    44fe:	ce 01       	movw	r24, r28
    4500:	01 96       	adiw	r24, 0x01	; 1
    4502:	4c 01       	movw	r8, r24
    4504:	f7 01       	movw	r30, r14
    4506:	93 81       	ldd	r25, Z+3	; 0x03
    4508:	f6 01       	movw	r30, r12
    450a:	93 fd       	sbrc	r25, 3
    450c:	85 91       	lpm	r24, Z+
    450e:	93 ff       	sbrs	r25, 3
    4510:	81 91       	ld	r24, Z+
    4512:	6f 01       	movw	r12, r30
    4514:	88 23       	and	r24, r24
    4516:	09 f4       	brne	.+2      	; 0x451a <vfprintf+0x62>
    4518:	ab c1       	rjmp	.+854    	; 0x4870 <vfprintf+0x3b8>
    451a:	85 32       	cpi	r24, 0x25	; 37
    451c:	39 f4       	brne	.+14     	; 0x452c <vfprintf+0x74>
    451e:	93 fd       	sbrc	r25, 3
    4520:	85 91       	lpm	r24, Z+
    4522:	93 ff       	sbrs	r25, 3
    4524:	81 91       	ld	r24, Z+
    4526:	6f 01       	movw	r12, r30
    4528:	85 32       	cpi	r24, 0x25	; 37
    452a:	29 f4       	brne	.+10     	; 0x4536 <vfprintf+0x7e>
    452c:	b7 01       	movw	r22, r14
    452e:	90 e0       	ldi	r25, 0x00	; 0
    4530:	0e 94 70 24 	call	0x48e0	; 0x48e0 <fputc>
    4534:	e7 cf       	rjmp	.-50     	; 0x4504 <vfprintf+0x4c>
    4536:	51 2c       	mov	r5, r1
    4538:	31 2c       	mov	r3, r1
    453a:	20 e0       	ldi	r18, 0x00	; 0
    453c:	20 32       	cpi	r18, 0x20	; 32
    453e:	a0 f4       	brcc	.+40     	; 0x4568 <vfprintf+0xb0>
    4540:	8b 32       	cpi	r24, 0x2B	; 43
    4542:	69 f0       	breq	.+26     	; 0x455e <vfprintf+0xa6>
    4544:	30 f4       	brcc	.+12     	; 0x4552 <vfprintf+0x9a>
    4546:	80 32       	cpi	r24, 0x20	; 32
    4548:	59 f0       	breq	.+22     	; 0x4560 <vfprintf+0xa8>
    454a:	83 32       	cpi	r24, 0x23	; 35
    454c:	69 f4       	brne	.+26     	; 0x4568 <vfprintf+0xb0>
    454e:	20 61       	ori	r18, 0x10	; 16
    4550:	2c c0       	rjmp	.+88     	; 0x45aa <vfprintf+0xf2>
    4552:	8d 32       	cpi	r24, 0x2D	; 45
    4554:	39 f0       	breq	.+14     	; 0x4564 <vfprintf+0xac>
    4556:	80 33       	cpi	r24, 0x30	; 48
    4558:	39 f4       	brne	.+14     	; 0x4568 <vfprintf+0xb0>
    455a:	21 60       	ori	r18, 0x01	; 1
    455c:	26 c0       	rjmp	.+76     	; 0x45aa <vfprintf+0xf2>
    455e:	22 60       	ori	r18, 0x02	; 2
    4560:	24 60       	ori	r18, 0x04	; 4
    4562:	23 c0       	rjmp	.+70     	; 0x45aa <vfprintf+0xf2>
    4564:	28 60       	ori	r18, 0x08	; 8
    4566:	21 c0       	rjmp	.+66     	; 0x45aa <vfprintf+0xf2>
    4568:	27 fd       	sbrc	r18, 7
    456a:	27 c0       	rjmp	.+78     	; 0x45ba <vfprintf+0x102>
    456c:	30 ed       	ldi	r19, 0xD0	; 208
    456e:	38 0f       	add	r19, r24
    4570:	3a 30       	cpi	r19, 0x0A	; 10
    4572:	78 f4       	brcc	.+30     	; 0x4592 <vfprintf+0xda>
    4574:	26 ff       	sbrs	r18, 6
    4576:	06 c0       	rjmp	.+12     	; 0x4584 <vfprintf+0xcc>
    4578:	fa e0       	ldi	r31, 0x0A	; 10
    457a:	5f 9e       	mul	r5, r31
    457c:	30 0d       	add	r19, r0
    457e:	11 24       	eor	r1, r1
    4580:	53 2e       	mov	r5, r19
    4582:	13 c0       	rjmp	.+38     	; 0x45aa <vfprintf+0xf2>
    4584:	8a e0       	ldi	r24, 0x0A	; 10
    4586:	38 9e       	mul	r3, r24
    4588:	30 0d       	add	r19, r0
    458a:	11 24       	eor	r1, r1
    458c:	33 2e       	mov	r3, r19
    458e:	20 62       	ori	r18, 0x20	; 32
    4590:	0c c0       	rjmp	.+24     	; 0x45aa <vfprintf+0xf2>
    4592:	8e 32       	cpi	r24, 0x2E	; 46
    4594:	21 f4       	brne	.+8      	; 0x459e <vfprintf+0xe6>
    4596:	26 fd       	sbrc	r18, 6
    4598:	6b c1       	rjmp	.+726    	; 0x4870 <vfprintf+0x3b8>
    459a:	20 64       	ori	r18, 0x40	; 64
    459c:	06 c0       	rjmp	.+12     	; 0x45aa <vfprintf+0xf2>
    459e:	8c 36       	cpi	r24, 0x6C	; 108
    45a0:	11 f4       	brne	.+4      	; 0x45a6 <vfprintf+0xee>
    45a2:	20 68       	ori	r18, 0x80	; 128
    45a4:	02 c0       	rjmp	.+4      	; 0x45aa <vfprintf+0xf2>
    45a6:	88 36       	cpi	r24, 0x68	; 104
    45a8:	41 f4       	brne	.+16     	; 0x45ba <vfprintf+0x102>
    45aa:	f6 01       	movw	r30, r12
    45ac:	93 fd       	sbrc	r25, 3
    45ae:	85 91       	lpm	r24, Z+
    45b0:	93 ff       	sbrs	r25, 3
    45b2:	81 91       	ld	r24, Z+
    45b4:	6f 01       	movw	r12, r30
    45b6:	81 11       	cpse	r24, r1
    45b8:	c1 cf       	rjmp	.-126    	; 0x453c <vfprintf+0x84>
    45ba:	98 2f       	mov	r25, r24
    45bc:	9f 7d       	andi	r25, 0xDF	; 223
    45be:	95 54       	subi	r25, 0x45	; 69
    45c0:	93 30       	cpi	r25, 0x03	; 3
    45c2:	28 f4       	brcc	.+10     	; 0x45ce <vfprintf+0x116>
    45c4:	0c 5f       	subi	r16, 0xFC	; 252
    45c6:	1f 4f       	sbci	r17, 0xFF	; 255
    45c8:	ff e3       	ldi	r31, 0x3F	; 63
    45ca:	f9 83       	std	Y+1, r31	; 0x01
    45cc:	0d c0       	rjmp	.+26     	; 0x45e8 <vfprintf+0x130>
    45ce:	83 36       	cpi	r24, 0x63	; 99
    45d0:	31 f0       	breq	.+12     	; 0x45de <vfprintf+0x126>
    45d2:	83 37       	cpi	r24, 0x73	; 115
    45d4:	71 f0       	breq	.+28     	; 0x45f2 <vfprintf+0x13a>
    45d6:	83 35       	cpi	r24, 0x53	; 83
    45d8:	09 f0       	breq	.+2      	; 0x45dc <vfprintf+0x124>
    45da:	5b c0       	rjmp	.+182    	; 0x4692 <vfprintf+0x1da>
    45dc:	22 c0       	rjmp	.+68     	; 0x4622 <vfprintf+0x16a>
    45de:	f8 01       	movw	r30, r16
    45e0:	80 81       	ld	r24, Z
    45e2:	89 83       	std	Y+1, r24	; 0x01
    45e4:	0e 5f       	subi	r16, 0xFE	; 254
    45e6:	1f 4f       	sbci	r17, 0xFF	; 255
    45e8:	44 24       	eor	r4, r4
    45ea:	43 94       	inc	r4
    45ec:	51 2c       	mov	r5, r1
    45ee:	54 01       	movw	r10, r8
    45f0:	15 c0       	rjmp	.+42     	; 0x461c <vfprintf+0x164>
    45f2:	38 01       	movw	r6, r16
    45f4:	f2 e0       	ldi	r31, 0x02	; 2
    45f6:	6f 0e       	add	r6, r31
    45f8:	71 1c       	adc	r7, r1
    45fa:	f8 01       	movw	r30, r16
    45fc:	a0 80       	ld	r10, Z
    45fe:	b1 80       	ldd	r11, Z+1	; 0x01
    4600:	26 ff       	sbrs	r18, 6
    4602:	03 c0       	rjmp	.+6      	; 0x460a <vfprintf+0x152>
    4604:	65 2d       	mov	r22, r5
    4606:	70 e0       	ldi	r23, 0x00	; 0
    4608:	02 c0       	rjmp	.+4      	; 0x460e <vfprintf+0x156>
    460a:	6f ef       	ldi	r22, 0xFF	; 255
    460c:	7f ef       	ldi	r23, 0xFF	; 255
    460e:	c5 01       	movw	r24, r10
    4610:	2c 87       	std	Y+12, r18	; 0x0c
    4612:	0e 94 65 24 	call	0x48ca	; 0x48ca <strnlen>
    4616:	2c 01       	movw	r4, r24
    4618:	83 01       	movw	r16, r6
    461a:	2c 85       	ldd	r18, Y+12	; 0x0c
    461c:	2f 77       	andi	r18, 0x7F	; 127
    461e:	22 2e       	mov	r2, r18
    4620:	17 c0       	rjmp	.+46     	; 0x4650 <vfprintf+0x198>
    4622:	38 01       	movw	r6, r16
    4624:	f2 e0       	ldi	r31, 0x02	; 2
    4626:	6f 0e       	add	r6, r31
    4628:	71 1c       	adc	r7, r1
    462a:	f8 01       	movw	r30, r16
    462c:	a0 80       	ld	r10, Z
    462e:	b1 80       	ldd	r11, Z+1	; 0x01
    4630:	26 ff       	sbrs	r18, 6
    4632:	03 c0       	rjmp	.+6      	; 0x463a <vfprintf+0x182>
    4634:	65 2d       	mov	r22, r5
    4636:	70 e0       	ldi	r23, 0x00	; 0
    4638:	02 c0       	rjmp	.+4      	; 0x463e <vfprintf+0x186>
    463a:	6f ef       	ldi	r22, 0xFF	; 255
    463c:	7f ef       	ldi	r23, 0xFF	; 255
    463e:	c5 01       	movw	r24, r10
    4640:	2c 87       	std	Y+12, r18	; 0x0c
    4642:	0e 94 5a 24 	call	0x48b4	; 0x48b4 <strnlen_P>
    4646:	2c 01       	movw	r4, r24
    4648:	2c 85       	ldd	r18, Y+12	; 0x0c
    464a:	20 68       	ori	r18, 0x80	; 128
    464c:	22 2e       	mov	r2, r18
    464e:	83 01       	movw	r16, r6
    4650:	23 fc       	sbrc	r2, 3
    4652:	1b c0       	rjmp	.+54     	; 0x468a <vfprintf+0x1d2>
    4654:	83 2d       	mov	r24, r3
    4656:	90 e0       	ldi	r25, 0x00	; 0
    4658:	48 16       	cp	r4, r24
    465a:	59 06       	cpc	r5, r25
    465c:	b0 f4       	brcc	.+44     	; 0x468a <vfprintf+0x1d2>
    465e:	b7 01       	movw	r22, r14
    4660:	80 e2       	ldi	r24, 0x20	; 32
    4662:	90 e0       	ldi	r25, 0x00	; 0
    4664:	0e 94 70 24 	call	0x48e0	; 0x48e0 <fputc>
    4668:	3a 94       	dec	r3
    466a:	f4 cf       	rjmp	.-24     	; 0x4654 <vfprintf+0x19c>
    466c:	f5 01       	movw	r30, r10
    466e:	27 fc       	sbrc	r2, 7
    4670:	85 91       	lpm	r24, Z+
    4672:	27 fe       	sbrs	r2, 7
    4674:	81 91       	ld	r24, Z+
    4676:	5f 01       	movw	r10, r30
    4678:	b7 01       	movw	r22, r14
    467a:	90 e0       	ldi	r25, 0x00	; 0
    467c:	0e 94 70 24 	call	0x48e0	; 0x48e0 <fputc>
    4680:	31 10       	cpse	r3, r1
    4682:	3a 94       	dec	r3
    4684:	f1 e0       	ldi	r31, 0x01	; 1
    4686:	4f 1a       	sub	r4, r31
    4688:	51 08       	sbc	r5, r1
    468a:	41 14       	cp	r4, r1
    468c:	51 04       	cpc	r5, r1
    468e:	71 f7       	brne	.-36     	; 0x466c <vfprintf+0x1b4>
    4690:	e5 c0       	rjmp	.+458    	; 0x485c <vfprintf+0x3a4>
    4692:	84 36       	cpi	r24, 0x64	; 100
    4694:	11 f0       	breq	.+4      	; 0x469a <vfprintf+0x1e2>
    4696:	89 36       	cpi	r24, 0x69	; 105
    4698:	39 f5       	brne	.+78     	; 0x46e8 <vfprintf+0x230>
    469a:	f8 01       	movw	r30, r16
    469c:	27 ff       	sbrs	r18, 7
    469e:	07 c0       	rjmp	.+14     	; 0x46ae <vfprintf+0x1f6>
    46a0:	60 81       	ld	r22, Z
    46a2:	71 81       	ldd	r23, Z+1	; 0x01
    46a4:	82 81       	ldd	r24, Z+2	; 0x02
    46a6:	93 81       	ldd	r25, Z+3	; 0x03
    46a8:	0c 5f       	subi	r16, 0xFC	; 252
    46aa:	1f 4f       	sbci	r17, 0xFF	; 255
    46ac:	08 c0       	rjmp	.+16     	; 0x46be <vfprintf+0x206>
    46ae:	60 81       	ld	r22, Z
    46b0:	71 81       	ldd	r23, Z+1	; 0x01
    46b2:	88 27       	eor	r24, r24
    46b4:	77 fd       	sbrc	r23, 7
    46b6:	80 95       	com	r24
    46b8:	98 2f       	mov	r25, r24
    46ba:	0e 5f       	subi	r16, 0xFE	; 254
    46bc:	1f 4f       	sbci	r17, 0xFF	; 255
    46be:	2f 76       	andi	r18, 0x6F	; 111
    46c0:	72 2e       	mov	r7, r18
    46c2:	97 ff       	sbrs	r25, 7
    46c4:	09 c0       	rjmp	.+18     	; 0x46d8 <vfprintf+0x220>
    46c6:	90 95       	com	r25
    46c8:	80 95       	com	r24
    46ca:	70 95       	com	r23
    46cc:	61 95       	neg	r22
    46ce:	7f 4f       	sbci	r23, 0xFF	; 255
    46d0:	8f 4f       	sbci	r24, 0xFF	; 255
    46d2:	9f 4f       	sbci	r25, 0xFF	; 255
    46d4:	20 68       	ori	r18, 0x80	; 128
    46d6:	72 2e       	mov	r7, r18
    46d8:	2a e0       	ldi	r18, 0x0A	; 10
    46da:	30 e0       	ldi	r19, 0x00	; 0
    46dc:	a4 01       	movw	r20, r8
    46de:	0e 94 a8 24 	call	0x4950	; 0x4950 <__ultoa_invert>
    46e2:	a8 2e       	mov	r10, r24
    46e4:	a8 18       	sub	r10, r8
    46e6:	44 c0       	rjmp	.+136    	; 0x4770 <vfprintf+0x2b8>
    46e8:	85 37       	cpi	r24, 0x75	; 117
    46ea:	29 f4       	brne	.+10     	; 0x46f6 <vfprintf+0x23e>
    46ec:	2f 7e       	andi	r18, 0xEF	; 239
    46ee:	b2 2e       	mov	r11, r18
    46f0:	2a e0       	ldi	r18, 0x0A	; 10
    46f2:	30 e0       	ldi	r19, 0x00	; 0
    46f4:	25 c0       	rjmp	.+74     	; 0x4740 <vfprintf+0x288>
    46f6:	f2 2f       	mov	r31, r18
    46f8:	f9 7f       	andi	r31, 0xF9	; 249
    46fa:	bf 2e       	mov	r11, r31
    46fc:	8f 36       	cpi	r24, 0x6F	; 111
    46fe:	c1 f0       	breq	.+48     	; 0x4730 <vfprintf+0x278>
    4700:	18 f4       	brcc	.+6      	; 0x4708 <vfprintf+0x250>
    4702:	88 35       	cpi	r24, 0x58	; 88
    4704:	79 f0       	breq	.+30     	; 0x4724 <vfprintf+0x26c>
    4706:	b4 c0       	rjmp	.+360    	; 0x4870 <vfprintf+0x3b8>
    4708:	80 37       	cpi	r24, 0x70	; 112
    470a:	19 f0       	breq	.+6      	; 0x4712 <vfprintf+0x25a>
    470c:	88 37       	cpi	r24, 0x78	; 120
    470e:	21 f0       	breq	.+8      	; 0x4718 <vfprintf+0x260>
    4710:	af c0       	rjmp	.+350    	; 0x4870 <vfprintf+0x3b8>
    4712:	2f 2f       	mov	r18, r31
    4714:	20 61       	ori	r18, 0x10	; 16
    4716:	b2 2e       	mov	r11, r18
    4718:	b4 fe       	sbrs	r11, 4
    471a:	0d c0       	rjmp	.+26     	; 0x4736 <vfprintf+0x27e>
    471c:	8b 2d       	mov	r24, r11
    471e:	84 60       	ori	r24, 0x04	; 4
    4720:	b8 2e       	mov	r11, r24
    4722:	09 c0       	rjmp	.+18     	; 0x4736 <vfprintf+0x27e>
    4724:	24 ff       	sbrs	r18, 4
    4726:	0a c0       	rjmp	.+20     	; 0x473c <vfprintf+0x284>
    4728:	9f 2f       	mov	r25, r31
    472a:	96 60       	ori	r25, 0x06	; 6
    472c:	b9 2e       	mov	r11, r25
    472e:	06 c0       	rjmp	.+12     	; 0x473c <vfprintf+0x284>
    4730:	28 e0       	ldi	r18, 0x08	; 8
    4732:	30 e0       	ldi	r19, 0x00	; 0
    4734:	05 c0       	rjmp	.+10     	; 0x4740 <vfprintf+0x288>
    4736:	20 e1       	ldi	r18, 0x10	; 16
    4738:	30 e0       	ldi	r19, 0x00	; 0
    473a:	02 c0       	rjmp	.+4      	; 0x4740 <vfprintf+0x288>
    473c:	20 e1       	ldi	r18, 0x10	; 16
    473e:	32 e0       	ldi	r19, 0x02	; 2
    4740:	f8 01       	movw	r30, r16
    4742:	b7 fe       	sbrs	r11, 7
    4744:	07 c0       	rjmp	.+14     	; 0x4754 <vfprintf+0x29c>
    4746:	60 81       	ld	r22, Z
    4748:	71 81       	ldd	r23, Z+1	; 0x01
    474a:	82 81       	ldd	r24, Z+2	; 0x02
    474c:	93 81       	ldd	r25, Z+3	; 0x03
    474e:	0c 5f       	subi	r16, 0xFC	; 252
    4750:	1f 4f       	sbci	r17, 0xFF	; 255
    4752:	06 c0       	rjmp	.+12     	; 0x4760 <vfprintf+0x2a8>
    4754:	60 81       	ld	r22, Z
    4756:	71 81       	ldd	r23, Z+1	; 0x01
    4758:	80 e0       	ldi	r24, 0x00	; 0
    475a:	90 e0       	ldi	r25, 0x00	; 0
    475c:	0e 5f       	subi	r16, 0xFE	; 254
    475e:	1f 4f       	sbci	r17, 0xFF	; 255
    4760:	a4 01       	movw	r20, r8
    4762:	0e 94 a8 24 	call	0x4950	; 0x4950 <__ultoa_invert>
    4766:	a8 2e       	mov	r10, r24
    4768:	a8 18       	sub	r10, r8
    476a:	fb 2d       	mov	r31, r11
    476c:	ff 77       	andi	r31, 0x7F	; 127
    476e:	7f 2e       	mov	r7, r31
    4770:	76 fe       	sbrs	r7, 6
    4772:	0b c0       	rjmp	.+22     	; 0x478a <vfprintf+0x2d2>
    4774:	37 2d       	mov	r19, r7
    4776:	3e 7f       	andi	r19, 0xFE	; 254
    4778:	a5 14       	cp	r10, r5
    477a:	50 f4       	brcc	.+20     	; 0x4790 <vfprintf+0x2d8>
    477c:	74 fe       	sbrs	r7, 4
    477e:	0a c0       	rjmp	.+20     	; 0x4794 <vfprintf+0x2dc>
    4780:	72 fc       	sbrc	r7, 2
    4782:	08 c0       	rjmp	.+16     	; 0x4794 <vfprintf+0x2dc>
    4784:	37 2d       	mov	r19, r7
    4786:	3e 7e       	andi	r19, 0xEE	; 238
    4788:	05 c0       	rjmp	.+10     	; 0x4794 <vfprintf+0x2dc>
    478a:	ba 2c       	mov	r11, r10
    478c:	37 2d       	mov	r19, r7
    478e:	03 c0       	rjmp	.+6      	; 0x4796 <vfprintf+0x2de>
    4790:	ba 2c       	mov	r11, r10
    4792:	01 c0       	rjmp	.+2      	; 0x4796 <vfprintf+0x2de>
    4794:	b5 2c       	mov	r11, r5
    4796:	34 ff       	sbrs	r19, 4
    4798:	0d c0       	rjmp	.+26     	; 0x47b4 <vfprintf+0x2fc>
    479a:	fe 01       	movw	r30, r28
    479c:	ea 0d       	add	r30, r10
    479e:	f1 1d       	adc	r31, r1
    47a0:	80 81       	ld	r24, Z
    47a2:	80 33       	cpi	r24, 0x30	; 48
    47a4:	11 f4       	brne	.+4      	; 0x47aa <vfprintf+0x2f2>
    47a6:	39 7e       	andi	r19, 0xE9	; 233
    47a8:	09 c0       	rjmp	.+18     	; 0x47bc <vfprintf+0x304>
    47aa:	32 ff       	sbrs	r19, 2
    47ac:	06 c0       	rjmp	.+12     	; 0x47ba <vfprintf+0x302>
    47ae:	b3 94       	inc	r11
    47b0:	b3 94       	inc	r11
    47b2:	04 c0       	rjmp	.+8      	; 0x47bc <vfprintf+0x304>
    47b4:	83 2f       	mov	r24, r19
    47b6:	86 78       	andi	r24, 0x86	; 134
    47b8:	09 f0       	breq	.+2      	; 0x47bc <vfprintf+0x304>
    47ba:	b3 94       	inc	r11
    47bc:	33 fd       	sbrc	r19, 3
    47be:	13 c0       	rjmp	.+38     	; 0x47e6 <vfprintf+0x32e>
    47c0:	30 ff       	sbrs	r19, 0
    47c2:	06 c0       	rjmp	.+12     	; 0x47d0 <vfprintf+0x318>
    47c4:	5a 2c       	mov	r5, r10
    47c6:	b3 14       	cp	r11, r3
    47c8:	18 f4       	brcc	.+6      	; 0x47d0 <vfprintf+0x318>
    47ca:	53 0c       	add	r5, r3
    47cc:	5b 18       	sub	r5, r11
    47ce:	b3 2c       	mov	r11, r3
    47d0:	b3 14       	cp	r11, r3
    47d2:	68 f4       	brcc	.+26     	; 0x47ee <vfprintf+0x336>
    47d4:	b7 01       	movw	r22, r14
    47d6:	80 e2       	ldi	r24, 0x20	; 32
    47d8:	90 e0       	ldi	r25, 0x00	; 0
    47da:	3c 87       	std	Y+12, r19	; 0x0c
    47dc:	0e 94 70 24 	call	0x48e0	; 0x48e0 <fputc>
    47e0:	b3 94       	inc	r11
    47e2:	3c 85       	ldd	r19, Y+12	; 0x0c
    47e4:	f5 cf       	rjmp	.-22     	; 0x47d0 <vfprintf+0x318>
    47e6:	b3 14       	cp	r11, r3
    47e8:	10 f4       	brcc	.+4      	; 0x47ee <vfprintf+0x336>
    47ea:	3b 18       	sub	r3, r11
    47ec:	01 c0       	rjmp	.+2      	; 0x47f0 <vfprintf+0x338>
    47ee:	31 2c       	mov	r3, r1
    47f0:	34 ff       	sbrs	r19, 4
    47f2:	12 c0       	rjmp	.+36     	; 0x4818 <vfprintf+0x360>
    47f4:	b7 01       	movw	r22, r14
    47f6:	80 e3       	ldi	r24, 0x30	; 48
    47f8:	90 e0       	ldi	r25, 0x00	; 0
    47fa:	3c 87       	std	Y+12, r19	; 0x0c
    47fc:	0e 94 70 24 	call	0x48e0	; 0x48e0 <fputc>
    4800:	3c 85       	ldd	r19, Y+12	; 0x0c
    4802:	32 ff       	sbrs	r19, 2
    4804:	17 c0       	rjmp	.+46     	; 0x4834 <vfprintf+0x37c>
    4806:	31 fd       	sbrc	r19, 1
    4808:	03 c0       	rjmp	.+6      	; 0x4810 <vfprintf+0x358>
    480a:	88 e7       	ldi	r24, 0x78	; 120
    480c:	90 e0       	ldi	r25, 0x00	; 0
    480e:	02 c0       	rjmp	.+4      	; 0x4814 <vfprintf+0x35c>
    4810:	88 e5       	ldi	r24, 0x58	; 88
    4812:	90 e0       	ldi	r25, 0x00	; 0
    4814:	b7 01       	movw	r22, r14
    4816:	0c c0       	rjmp	.+24     	; 0x4830 <vfprintf+0x378>
    4818:	83 2f       	mov	r24, r19
    481a:	86 78       	andi	r24, 0x86	; 134
    481c:	59 f0       	breq	.+22     	; 0x4834 <vfprintf+0x37c>
    481e:	31 ff       	sbrs	r19, 1
    4820:	02 c0       	rjmp	.+4      	; 0x4826 <vfprintf+0x36e>
    4822:	8b e2       	ldi	r24, 0x2B	; 43
    4824:	01 c0       	rjmp	.+2      	; 0x4828 <vfprintf+0x370>
    4826:	80 e2       	ldi	r24, 0x20	; 32
    4828:	37 fd       	sbrc	r19, 7
    482a:	8d e2       	ldi	r24, 0x2D	; 45
    482c:	b7 01       	movw	r22, r14
    482e:	90 e0       	ldi	r25, 0x00	; 0
    4830:	0e 94 70 24 	call	0x48e0	; 0x48e0 <fputc>
    4834:	a5 14       	cp	r10, r5
    4836:	38 f4       	brcc	.+14     	; 0x4846 <vfprintf+0x38e>
    4838:	b7 01       	movw	r22, r14
    483a:	80 e3       	ldi	r24, 0x30	; 48
    483c:	90 e0       	ldi	r25, 0x00	; 0
    483e:	0e 94 70 24 	call	0x48e0	; 0x48e0 <fputc>
    4842:	5a 94       	dec	r5
    4844:	f7 cf       	rjmp	.-18     	; 0x4834 <vfprintf+0x37c>
    4846:	aa 94       	dec	r10
    4848:	f4 01       	movw	r30, r8
    484a:	ea 0d       	add	r30, r10
    484c:	f1 1d       	adc	r31, r1
    484e:	80 81       	ld	r24, Z
    4850:	b7 01       	movw	r22, r14
    4852:	90 e0       	ldi	r25, 0x00	; 0
    4854:	0e 94 70 24 	call	0x48e0	; 0x48e0 <fputc>
    4858:	a1 10       	cpse	r10, r1
    485a:	f5 cf       	rjmp	.-22     	; 0x4846 <vfprintf+0x38e>
    485c:	33 20       	and	r3, r3
    485e:	09 f4       	brne	.+2      	; 0x4862 <vfprintf+0x3aa>
    4860:	51 ce       	rjmp	.-862    	; 0x4504 <vfprintf+0x4c>
    4862:	b7 01       	movw	r22, r14
    4864:	80 e2       	ldi	r24, 0x20	; 32
    4866:	90 e0       	ldi	r25, 0x00	; 0
    4868:	0e 94 70 24 	call	0x48e0	; 0x48e0 <fputc>
    486c:	3a 94       	dec	r3
    486e:	f6 cf       	rjmp	.-20     	; 0x485c <vfprintf+0x3a4>
    4870:	f7 01       	movw	r30, r14
    4872:	86 81       	ldd	r24, Z+6	; 0x06
    4874:	97 81       	ldd	r25, Z+7	; 0x07
    4876:	02 c0       	rjmp	.+4      	; 0x487c <vfprintf+0x3c4>
    4878:	8f ef       	ldi	r24, 0xFF	; 255
    487a:	9f ef       	ldi	r25, 0xFF	; 255
    487c:	2c 96       	adiw	r28, 0x0c	; 12
    487e:	0f b6       	in	r0, 0x3f	; 63
    4880:	f8 94       	cli
    4882:	de bf       	out	0x3e, r29	; 62
    4884:	0f be       	out	0x3f, r0	; 63
    4886:	cd bf       	out	0x3d, r28	; 61
    4888:	df 91       	pop	r29
    488a:	cf 91       	pop	r28
    488c:	1f 91       	pop	r17
    488e:	0f 91       	pop	r16
    4890:	ff 90       	pop	r15
    4892:	ef 90       	pop	r14
    4894:	df 90       	pop	r13
    4896:	cf 90       	pop	r12
    4898:	bf 90       	pop	r11
    489a:	af 90       	pop	r10
    489c:	9f 90       	pop	r9
    489e:	8f 90       	pop	r8
    48a0:	7f 90       	pop	r7
    48a2:	6f 90       	pop	r6
    48a4:	5f 90       	pop	r5
    48a6:	4f 90       	pop	r4
    48a8:	3f 90       	pop	r3
    48aa:	2f 90       	pop	r2
    48ac:	08 95       	ret

000048ae <__ctype_isfalse>:
    48ae:	99 27       	eor	r25, r25
    48b0:	88 27       	eor	r24, r24

000048b2 <__ctype_istrue>:
    48b2:	08 95       	ret

000048b4 <strnlen_P>:
    48b4:	fc 01       	movw	r30, r24
    48b6:	05 90       	lpm	r0, Z+
    48b8:	61 50       	subi	r22, 0x01	; 1
    48ba:	70 40       	sbci	r23, 0x00	; 0
    48bc:	01 10       	cpse	r0, r1
    48be:	d8 f7       	brcc	.-10     	; 0x48b6 <strnlen_P+0x2>
    48c0:	80 95       	com	r24
    48c2:	90 95       	com	r25
    48c4:	8e 0f       	add	r24, r30
    48c6:	9f 1f       	adc	r25, r31
    48c8:	08 95       	ret

000048ca <strnlen>:
    48ca:	fc 01       	movw	r30, r24
    48cc:	61 50       	subi	r22, 0x01	; 1
    48ce:	70 40       	sbci	r23, 0x00	; 0
    48d0:	01 90       	ld	r0, Z+
    48d2:	01 10       	cpse	r0, r1
    48d4:	d8 f7       	brcc	.-10     	; 0x48cc <strnlen+0x2>
    48d6:	80 95       	com	r24
    48d8:	90 95       	com	r25
    48da:	8e 0f       	add	r24, r30
    48dc:	9f 1f       	adc	r25, r31
    48de:	08 95       	ret

000048e0 <fputc>:
    48e0:	0f 93       	push	r16
    48e2:	1f 93       	push	r17
    48e4:	cf 93       	push	r28
    48e6:	df 93       	push	r29
    48e8:	fb 01       	movw	r30, r22
    48ea:	23 81       	ldd	r18, Z+3	; 0x03
    48ec:	21 fd       	sbrc	r18, 1
    48ee:	03 c0       	rjmp	.+6      	; 0x48f6 <fputc+0x16>
    48f0:	8f ef       	ldi	r24, 0xFF	; 255
    48f2:	9f ef       	ldi	r25, 0xFF	; 255
    48f4:	28 c0       	rjmp	.+80     	; 0x4946 <fputc+0x66>
    48f6:	22 ff       	sbrs	r18, 2
    48f8:	16 c0       	rjmp	.+44     	; 0x4926 <fputc+0x46>
    48fa:	46 81       	ldd	r20, Z+6	; 0x06
    48fc:	57 81       	ldd	r21, Z+7	; 0x07
    48fe:	24 81       	ldd	r18, Z+4	; 0x04
    4900:	35 81       	ldd	r19, Z+5	; 0x05
    4902:	42 17       	cp	r20, r18
    4904:	53 07       	cpc	r21, r19
    4906:	44 f4       	brge	.+16     	; 0x4918 <fputc+0x38>
    4908:	a0 81       	ld	r26, Z
    490a:	b1 81       	ldd	r27, Z+1	; 0x01
    490c:	9d 01       	movw	r18, r26
    490e:	2f 5f       	subi	r18, 0xFF	; 255
    4910:	3f 4f       	sbci	r19, 0xFF	; 255
    4912:	31 83       	std	Z+1, r19	; 0x01
    4914:	20 83       	st	Z, r18
    4916:	8c 93       	st	X, r24
    4918:	26 81       	ldd	r18, Z+6	; 0x06
    491a:	37 81       	ldd	r19, Z+7	; 0x07
    491c:	2f 5f       	subi	r18, 0xFF	; 255
    491e:	3f 4f       	sbci	r19, 0xFF	; 255
    4920:	37 83       	std	Z+7, r19	; 0x07
    4922:	26 83       	std	Z+6, r18	; 0x06
    4924:	10 c0       	rjmp	.+32     	; 0x4946 <fputc+0x66>
    4926:	eb 01       	movw	r28, r22
    4928:	09 2f       	mov	r16, r25
    492a:	18 2f       	mov	r17, r24
    492c:	00 84       	ldd	r0, Z+8	; 0x08
    492e:	f1 85       	ldd	r31, Z+9	; 0x09
    4930:	e0 2d       	mov	r30, r0
    4932:	09 95       	icall
    4934:	89 2b       	or	r24, r25
    4936:	e1 f6       	brne	.-72     	; 0x48f0 <fputc+0x10>
    4938:	8e 81       	ldd	r24, Y+6	; 0x06
    493a:	9f 81       	ldd	r25, Y+7	; 0x07
    493c:	01 96       	adiw	r24, 0x01	; 1
    493e:	9f 83       	std	Y+7, r25	; 0x07
    4940:	8e 83       	std	Y+6, r24	; 0x06
    4942:	81 2f       	mov	r24, r17
    4944:	90 2f       	mov	r25, r16
    4946:	df 91       	pop	r29
    4948:	cf 91       	pop	r28
    494a:	1f 91       	pop	r17
    494c:	0f 91       	pop	r16
    494e:	08 95       	ret

00004950 <__ultoa_invert>:
    4950:	fa 01       	movw	r30, r20
    4952:	aa 27       	eor	r26, r26
    4954:	28 30       	cpi	r18, 0x08	; 8
    4956:	51 f1       	breq	.+84     	; 0x49ac <__ultoa_invert+0x5c>
    4958:	20 31       	cpi	r18, 0x10	; 16
    495a:	81 f1       	breq	.+96     	; 0x49bc <__ultoa_invert+0x6c>
    495c:	e8 94       	clt
    495e:	6f 93       	push	r22
    4960:	6e 7f       	andi	r22, 0xFE	; 254
    4962:	6e 5f       	subi	r22, 0xFE	; 254
    4964:	7f 4f       	sbci	r23, 0xFF	; 255
    4966:	8f 4f       	sbci	r24, 0xFF	; 255
    4968:	9f 4f       	sbci	r25, 0xFF	; 255
    496a:	af 4f       	sbci	r26, 0xFF	; 255
    496c:	b1 e0       	ldi	r27, 0x01	; 1
    496e:	3e d0       	rcall	.+124    	; 0x49ec <__ultoa_invert+0x9c>
    4970:	b4 e0       	ldi	r27, 0x04	; 4
    4972:	3c d0       	rcall	.+120    	; 0x49ec <__ultoa_invert+0x9c>
    4974:	67 0f       	add	r22, r23
    4976:	78 1f       	adc	r23, r24
    4978:	89 1f       	adc	r24, r25
    497a:	9a 1f       	adc	r25, r26
    497c:	a1 1d       	adc	r26, r1
    497e:	68 0f       	add	r22, r24
    4980:	79 1f       	adc	r23, r25
    4982:	8a 1f       	adc	r24, r26
    4984:	91 1d       	adc	r25, r1
    4986:	a1 1d       	adc	r26, r1
    4988:	6a 0f       	add	r22, r26
    498a:	71 1d       	adc	r23, r1
    498c:	81 1d       	adc	r24, r1
    498e:	91 1d       	adc	r25, r1
    4990:	a1 1d       	adc	r26, r1
    4992:	20 d0       	rcall	.+64     	; 0x49d4 <__ultoa_invert+0x84>
    4994:	09 f4       	brne	.+2      	; 0x4998 <__ultoa_invert+0x48>
    4996:	68 94       	set
    4998:	3f 91       	pop	r19
    499a:	2a e0       	ldi	r18, 0x0A	; 10
    499c:	26 9f       	mul	r18, r22
    499e:	11 24       	eor	r1, r1
    49a0:	30 19       	sub	r19, r0
    49a2:	30 5d       	subi	r19, 0xD0	; 208
    49a4:	31 93       	st	Z+, r19
    49a6:	de f6       	brtc	.-74     	; 0x495e <__ultoa_invert+0xe>
    49a8:	cf 01       	movw	r24, r30
    49aa:	08 95       	ret
    49ac:	46 2f       	mov	r20, r22
    49ae:	47 70       	andi	r20, 0x07	; 7
    49b0:	40 5d       	subi	r20, 0xD0	; 208
    49b2:	41 93       	st	Z+, r20
    49b4:	b3 e0       	ldi	r27, 0x03	; 3
    49b6:	0f d0       	rcall	.+30     	; 0x49d6 <__ultoa_invert+0x86>
    49b8:	c9 f7       	brne	.-14     	; 0x49ac <__ultoa_invert+0x5c>
    49ba:	f6 cf       	rjmp	.-20     	; 0x49a8 <__ultoa_invert+0x58>
    49bc:	46 2f       	mov	r20, r22
    49be:	4f 70       	andi	r20, 0x0F	; 15
    49c0:	40 5d       	subi	r20, 0xD0	; 208
    49c2:	4a 33       	cpi	r20, 0x3A	; 58
    49c4:	18 f0       	brcs	.+6      	; 0x49cc <__ultoa_invert+0x7c>
    49c6:	49 5d       	subi	r20, 0xD9	; 217
    49c8:	31 fd       	sbrc	r19, 1
    49ca:	40 52       	subi	r20, 0x20	; 32
    49cc:	41 93       	st	Z+, r20
    49ce:	02 d0       	rcall	.+4      	; 0x49d4 <__ultoa_invert+0x84>
    49d0:	a9 f7       	brne	.-22     	; 0x49bc <__ultoa_invert+0x6c>
    49d2:	ea cf       	rjmp	.-44     	; 0x49a8 <__ultoa_invert+0x58>
    49d4:	b4 e0       	ldi	r27, 0x04	; 4
    49d6:	a6 95       	lsr	r26
    49d8:	97 95       	ror	r25
    49da:	87 95       	ror	r24
    49dc:	77 95       	ror	r23
    49de:	67 95       	ror	r22
    49e0:	ba 95       	dec	r27
    49e2:	c9 f7       	brne	.-14     	; 0x49d6 <__ultoa_invert+0x86>
    49e4:	00 97       	sbiw	r24, 0x00	; 0
    49e6:	61 05       	cpc	r22, r1
    49e8:	71 05       	cpc	r23, r1
    49ea:	08 95       	ret
    49ec:	9b 01       	movw	r18, r22
    49ee:	ac 01       	movw	r20, r24
    49f0:	0a 2e       	mov	r0, r26
    49f2:	06 94       	lsr	r0
    49f4:	57 95       	ror	r21
    49f6:	47 95       	ror	r20
    49f8:	37 95       	ror	r19
    49fa:	27 95       	ror	r18
    49fc:	ba 95       	dec	r27
    49fe:	c9 f7       	brne	.-14     	; 0x49f2 <__ultoa_invert+0xa2>
    4a00:	62 0f       	add	r22, r18
    4a02:	73 1f       	adc	r23, r19
    4a04:	84 1f       	adc	r24, r20
    4a06:	95 1f       	adc	r25, r21
    4a08:	a0 1d       	adc	r26, r0
    4a0a:	08 95       	ret

00004a0c <__mulsi3>:
    4a0c:	db 01       	movw	r26, r22
    4a0e:	8f 93       	push	r24
    4a10:	9f 93       	push	r25
    4a12:	0e 94 38 25 	call	0x4a70	; 0x4a70 <__muluhisi3>
    4a16:	bf 91       	pop	r27
    4a18:	af 91       	pop	r26
    4a1a:	a2 9f       	mul	r26, r18
    4a1c:	80 0d       	add	r24, r0
    4a1e:	91 1d       	adc	r25, r1
    4a20:	a3 9f       	mul	r26, r19
    4a22:	90 0d       	add	r25, r0
    4a24:	b2 9f       	mul	r27, r18
    4a26:	90 0d       	add	r25, r0
    4a28:	11 24       	eor	r1, r1
    4a2a:	08 95       	ret

00004a2c <__udivmodsi4>:
    4a2c:	a1 e2       	ldi	r26, 0x21	; 33
    4a2e:	1a 2e       	mov	r1, r26
    4a30:	aa 1b       	sub	r26, r26
    4a32:	bb 1b       	sub	r27, r27
    4a34:	fd 01       	movw	r30, r26
    4a36:	0d c0       	rjmp	.+26     	; 0x4a52 <__udivmodsi4_ep>

00004a38 <__udivmodsi4_loop>:
    4a38:	aa 1f       	adc	r26, r26
    4a3a:	bb 1f       	adc	r27, r27
    4a3c:	ee 1f       	adc	r30, r30
    4a3e:	ff 1f       	adc	r31, r31
    4a40:	a2 17       	cp	r26, r18
    4a42:	b3 07       	cpc	r27, r19
    4a44:	e4 07       	cpc	r30, r20
    4a46:	f5 07       	cpc	r31, r21
    4a48:	20 f0       	brcs	.+8      	; 0x4a52 <__udivmodsi4_ep>
    4a4a:	a2 1b       	sub	r26, r18
    4a4c:	b3 0b       	sbc	r27, r19
    4a4e:	e4 0b       	sbc	r30, r20
    4a50:	f5 0b       	sbc	r31, r21

00004a52 <__udivmodsi4_ep>:
    4a52:	66 1f       	adc	r22, r22
    4a54:	77 1f       	adc	r23, r23
    4a56:	88 1f       	adc	r24, r24
    4a58:	99 1f       	adc	r25, r25
    4a5a:	1a 94       	dec	r1
    4a5c:	69 f7       	brne	.-38     	; 0x4a38 <__udivmodsi4_loop>
    4a5e:	60 95       	com	r22
    4a60:	70 95       	com	r23
    4a62:	80 95       	com	r24
    4a64:	90 95       	com	r25
    4a66:	9b 01       	movw	r18, r22
    4a68:	ac 01       	movw	r20, r24
    4a6a:	bd 01       	movw	r22, r26
    4a6c:	cf 01       	movw	r24, r30
    4a6e:	08 95       	ret

00004a70 <__muluhisi3>:
    4a70:	0e 94 43 25 	call	0x4a86	; 0x4a86 <__umulhisi3>
    4a74:	a5 9f       	mul	r26, r21
    4a76:	90 0d       	add	r25, r0
    4a78:	b4 9f       	mul	r27, r20
    4a7a:	90 0d       	add	r25, r0
    4a7c:	a4 9f       	mul	r26, r20
    4a7e:	80 0d       	add	r24, r0
    4a80:	91 1d       	adc	r25, r1
    4a82:	11 24       	eor	r1, r1
    4a84:	08 95       	ret

00004a86 <__umulhisi3>:
    4a86:	a2 9f       	mul	r26, r18
    4a88:	b0 01       	movw	r22, r0
    4a8a:	b3 9f       	mul	r27, r19
    4a8c:	c0 01       	movw	r24, r0
    4a8e:	a3 9f       	mul	r26, r19
    4a90:	70 0d       	add	r23, r0
    4a92:	81 1d       	adc	r24, r1
    4a94:	11 24       	eor	r1, r1
    4a96:	91 1d       	adc	r25, r1
    4a98:	b2 9f       	mul	r27, r18
    4a9a:	70 0d       	add	r23, r0
    4a9c:	81 1d       	adc	r24, r1
    4a9e:	11 24       	eor	r1, r1
    4aa0:	91 1d       	adc	r25, r1
    4aa2:	08 95       	ret

00004aa4 <_exit>:
    4aa4:	f8 94       	cli

00004aa6 <__stop_program>:
    4aa6:	ff cf       	rjmp	.-2      	; 0x4aa6 <__stop_program>
